ARM GAS  C:\Users\mgnocco\AppData\Local\Temp\ccOygPd6.s 			page 1


   1              		.syntax unified
   2              		.cpu cortex-m3
   3              		.fpu softvfp
   4              		.eabi_attribute 20, 1
   5              		.eabi_attribute 21, 1
   6              		.eabi_attribute 23, 3
   7              		.eabi_attribute 24, 1
   8              		.eabi_attribute 25, 1
   9              		.eabi_attribute 26, 1
  10              		.eabi_attribute 30, 6
  11              		.eabi_attribute 34, 1
  12              		.eabi_attribute 18, 4
  13              		.thumb
  14              		.syntax unified
  15              		.file	"command_processing.c"
  16              		.text
  17              	.Ltext0:
  18              		.cfi_sections	.debug_frame
  19              		.global	EEPROM_ADDR
  20              		.data
  21              		.align	2
  22              		.type	EEPROM_ADDR, %object
  23              		.size	EEPROM_ADDR, 4
  24              	EEPROM_ADDR:
  25 0000 00800040 		.word	1073774592
  26              		.section	.text.commProcess,"ax",%progbits
  27              		.align	2
  28              		.global	commProcess
  29              		.thumb
  30              		.thumb_func
  31              		.type	commProcess, %function
  32              	commProcess:
  33              	.LFB64:
  34              		.file 1 "..\\src\\command_processing.c"
   1:..\src/command_processing.c **** // ----------------------------------------------------------------------------
   2:..\src/command_processing.c **** // BSD 3-Clause License
   3:..\src/command_processing.c **** 
   4:..\src/command_processing.c **** // Copyright (c) 2016, qbrobotics
   5:..\src/command_processing.c **** // Copyright (c) 2017-2020, Centro "E.Piaggio"
   6:..\src/command_processing.c **** // All rights reserved.
   7:..\src/command_processing.c **** 
   8:..\src/command_processing.c **** // Redistribution and use in source and binary forms, with or without
   9:..\src/command_processing.c **** // modification, are permitted provided that the following conditions are met:
  10:..\src/command_processing.c **** 
  11:..\src/command_processing.c **** // * Redistributions of source code must retain the above copyright notice, this
  12:..\src/command_processing.c **** //   list of conditions and the following disclaimer.
  13:..\src/command_processing.c **** 
  14:..\src/command_processing.c **** // * Redistributions in binary form must reproduce the above copyright notice,
  15:..\src/command_processing.c **** //   this list of conditions and the following disclaimer in the documentation
  16:..\src/command_processing.c **** //   and/or other materials provided with the distribution.
  17:..\src/command_processing.c **** 
  18:..\src/command_processing.c **** // * Neither the name of the copyright holder nor the names of its
  19:..\src/command_processing.c **** //   contributors may be used to endorse or promote products derived from
  20:..\src/command_processing.c **** //   this software without specific prior written permission.
  21:..\src/command_processing.c **** 
  22:..\src/command_processing.c **** // THIS SOFTWARE IS PROVIDED BY THE COPYRIGHT HOLDERS AND CONTRIBUTORS "AS IS"
  23:..\src/command_processing.c **** // AND ANY EXPRESS OR IMPLIED WARRANTIES, INCLUDING, BUT NOT LIMITED TO, THE
ARM GAS  C:\Users\mgnocco\AppData\Local\Temp\ccOygPd6.s 			page 2


  24:..\src/command_processing.c **** // IMPLIED WARRANTIES OF MERCHANTABILITY AND FITNESS FOR A PARTICULAR PURPOSE ARE
  25:..\src/command_processing.c **** // DISCLAIMED. IN NO EVENT SHALL THE COPYRIGHT HOLDER OR CONTRIBUTORS BE LIABLE
  26:..\src/command_processing.c **** // FOR ANY DIRECT, INDIRECT, INCIDENTAL, SPECIAL, EXEMPLARY, OR CONSEQUENTIAL
  27:..\src/command_processing.c **** // DAMAGES (INCLUDING, BUT NOT LIMITED TO, PROCUREMENT OF SUBSTITUTE GOODS OR
  28:..\src/command_processing.c **** // SERVICES; LOSS OF USE, DATA, OR PROFITS; OR BUSINESS INTERRUPTION) HOWEVER
  29:..\src/command_processing.c **** // CAUSED AND ON ANY THEORY OF LIABILITY, WHETHER IN CONTRACT, STRICT LIABILITY,
  30:..\src/command_processing.c **** // OR TORT (INCLUDING NEGLIGENCE OR OTHERWISE) ARISING IN ANY WAY OUT OF THE USE
  31:..\src/command_processing.c **** // OF THIS SOFTWARE, EVEN IF ADVISED OF THE POSSIBILITY OF SUCH DAMAGE.
  32:..\src/command_processing.c **** // POSSIBILITY OF SUCH DAMAGE.
  33:..\src/command_processing.c **** // ----------------------------------------------------------------------------
  34:..\src/command_processing.c **** 
  35:..\src/command_processing.c **** 
  36:..\src/command_processing.c **** /**
  37:..\src/command_processing.c **** * \file         command_processing.c
  38:..\src/command_processing.c **** *
  39:..\src/command_processing.c **** 
  40:..\src/command_processing.c **** * \brief        Command processing functions.
  41:..\src/command_processing.c **** * \date         March 20th, 2020
  42:..\src/command_processing.c **** * \author       _Centro "E.Piaggio"_
  43:..\src/command_processing.c **** * \copyright    (C) 2012-2016 qbrobotics. All rights reserved.
  44:..\src/command_processing.c **** * \copyright    (C) 2017-2020 Centro "E.Piaggio". All rights reserved.
  45:..\src/command_processing.c **** */
  46:..\src/command_processing.c **** //=================================================================     includes
  47:..\src/command_processing.c **** #include "command_processing.h"
  48:..\src/command_processing.c **** 
  49:..\src/command_processing.c **** //================================================================     variables
  50:..\src/command_processing.c **** 
  51:..\src/command_processing.c **** reg8 * EEPROM_ADDR = (reg8 *) CYDEV_EE_BASE;
  52:..\src/command_processing.c **** 
  53:..\src/command_processing.c **** //==============================================================================
  54:..\src/command_processing.c **** //                                                            RX DATA PROCESSING
  55:..\src/command_processing.c **** //==============================================================================
  56:..\src/command_processing.c **** //  This function checks for the availability of a data packet and process it:
  57:..\src/command_processing.c **** //      - Verify checksum;
  58:..\src/command_processing.c **** //      - Process commands;
  59:..\src/command_processing.c **** //==============================================================================
  60:..\src/command_processing.c **** 
  61:..\src/command_processing.c **** void commProcess(void){
  35              		.loc 1 61 0
  36              		.cfi_startproc
  37              		@ args = 0, pretend = 0, frame = 48
  38              		@ frame_needed = 1, uses_anonymous_args = 0
  39 0000 80B5     		push	{r7, lr}
  40              		.cfi_def_cfa_offset 8
  41              		.cfi_offset 7, -8
  42              		.cfi_offset 14, -4
  43 0002 8CB0     		sub	sp, sp, #48
  44              		.cfi_def_cfa_offset 56
  45 0004 00AF     		add	r7, sp, #0
  46              		.cfi_def_cfa_register 7
  62:..\src/command_processing.c **** 
  63:..\src/command_processing.c ****     uint8 CYDATA rx_cmd;
  64:..\src/command_processing.c ****     rx_cmd = g_rx.buffer[0];
  47              		.loc 1 64 0
  48 0006 0E4B     		ldr	r3, .L50
  49 0008 1B78     		ldrb	r3, [r3]
  50 000a 87F82F30 		strb	r3, [r7, #47]
ARM GAS  C:\Users\mgnocco\AppData\Local\Temp\ccOygPd6.s 			page 3


  65:..\src/command_processing.c **** 
  66:..\src/command_processing.c **** //==========================================================     verify checksum
  67:..\src/command_processing.c **** 
  68:..\src/command_processing.c ****     if (!(LCRChecksum(g_rx.buffer, g_rx.length - 1) == g_rx.buffer[g_rx.length - 1])){
  51              		.loc 1 68 0
  52 000e 0C4B     		ldr	r3, .L50
  53 0010 B3F98030 		ldrsh	r3, [r3, #128]
  54 0014 DBB2     		uxtb	r3, r3
  55 0016 013B     		subs	r3, r3, #1
  56 0018 DBB2     		uxtb	r3, r3
  57 001a 1946     		mov	r1, r3
  58 001c 0848     		ldr	r0, .L50
  59 001e FFF7FEFF 		bl	LCRChecksum
  60 0022 0346     		mov	r3, r0
  61 0024 1946     		mov	r1, r3
  62 0026 064B     		ldr	r3, .L50
  63 0028 B3F98030 		ldrsh	r3, [r3, #128]
  64 002c 013B     		subs	r3, r3, #1
  65 002e 044A     		ldr	r2, .L50
  66 0030 D35C     		ldrb	r3, [r2, r3]	@ zero_extendqisi2
  67 0032 9942     		cmp	r1, r3
  68 0034 06D0     		beq	.L2
  69:..\src/command_processing.c ****         // Wrong checksum
  70:..\src/command_processing.c ****         g_rx.ready = 0;
  69              		.loc 1 70 0
  70 0036 024B     		ldr	r3, .L50
  71 0038 0022     		movs	r2, #0
  72 003a 83F88420 		strb	r2, [r3, #132]
  71:..\src/command_processing.c ****         return;
  73              		.loc 1 71 0
  74 003e B8E2     		b	.L1
  75              	.L51:
  76              		.align	2
  77              	.L50:
  78 0040 00000000 		.word	g_rx
  79              	.L2:
  72:..\src/command_processing.c ****     }
  73:..\src/command_processing.c **** 
  74:..\src/command_processing.c ****     switch(rx_cmd) {
  80              		.loc 1 74 0
  81 0044 97F82F30 		ldrb	r3, [r7, #47]	@ zero_extendqisi2
  82 0048 FA2B     		cmp	r3, #250
  83 004a 00F2B182 		bhi	.L49
  84 004e 01A2     		adr	r2, .L6
  85 0050 52F823F0 		ldr	pc, [r2, r3, lsl #2]
  86              		.p2align 2
  87              	.L6:
  88 0054 CD040000 		.word	.L5+1
  89 0058 AD040000 		.word	.L7+1
  90 005c B1050000 		.word	.L49+1
  91 0060 D3040000 		.word	.L8+1
  92 0064 D9040000 		.word	.L9+1
  93 0068 F5040000 		.word	.L10+1
  94 006c 95040000 		.word	.L11+1
  95 0070 B1050000 		.word	.L49+1
  96 0074 B1050000 		.word	.L49+1
  97 0078 29050000 		.word	.L12+1
ARM GAS  C:\Users\mgnocco\AppData\Local\Temp\ccOygPd6.s 			page 4


  98 007c 0F050000 		.word	.L13+1
  99 0080 B1050000 		.word	.L49+1
 100 0084 B3040000 		.word	.L14+1
 101 0088 B1050000 		.word	.L49+1
 102 008c B1050000 		.word	.L49+1
 103 0090 B1050000 		.word	.L49+1
 104 0094 B1050000 		.word	.L49+1
 105 0098 B1050000 		.word	.L49+1
 106 009c B1050000 		.word	.L49+1
 107 00a0 B1050000 		.word	.L49+1
 108 00a4 B1050000 		.word	.L49+1
 109 00a8 B1050000 		.word	.L49+1
 110 00ac B1050000 		.word	.L49+1
 111 00b0 B1050000 		.word	.L49+1
 112 00b4 B1050000 		.word	.L49+1
 113 00b8 B1050000 		.word	.L49+1
 114 00bc B1050000 		.word	.L49+1
 115 00c0 B1050000 		.word	.L49+1
 116 00c4 B1050000 		.word	.L49+1
 117 00c8 B1050000 		.word	.L49+1
 118 00cc B1050000 		.word	.L49+1
 119 00d0 B1050000 		.word	.L49+1
 120 00d4 B1050000 		.word	.L49+1
 121 00d8 B1050000 		.word	.L49+1
 122 00dc B1050000 		.word	.L49+1
 123 00e0 B1050000 		.word	.L49+1
 124 00e4 B1050000 		.word	.L49+1
 125 00e8 B1050000 		.word	.L49+1
 126 00ec B1050000 		.word	.L49+1
 127 00f0 B1050000 		.word	.L49+1
 128 00f4 B1050000 		.word	.L49+1
 129 00f8 B1050000 		.word	.L49+1
 130 00fc B1050000 		.word	.L49+1
 131 0100 B1050000 		.word	.L49+1
 132 0104 B1050000 		.word	.L49+1
 133 0108 B1050000 		.word	.L49+1
 134 010c B1050000 		.word	.L49+1
 135 0110 B1050000 		.word	.L49+1
 136 0114 B1050000 		.word	.L49+1
 137 0118 B1050000 		.word	.L49+1
 138 011c B1050000 		.word	.L49+1
 139 0120 B1050000 		.word	.L49+1
 140 0124 B1050000 		.word	.L49+1
 141 0128 B1050000 		.word	.L49+1
 142 012c B1050000 		.word	.L49+1
 143 0130 B1050000 		.word	.L49+1
 144 0134 B1050000 		.word	.L49+1
 145 0138 B1050000 		.word	.L49+1
 146 013c B1050000 		.word	.L49+1
 147 0140 B1050000 		.word	.L49+1
 148 0144 B1050000 		.word	.L49+1
 149 0148 B1050000 		.word	.L49+1
 150 014c B1050000 		.word	.L49+1
 151 0150 B1050000 		.word	.L49+1
 152 0154 B1050000 		.word	.L49+1
 153 0158 B1050000 		.word	.L49+1
 154 015c B1050000 		.word	.L49+1
ARM GAS  C:\Users\mgnocco\AppData\Local\Temp\ccOygPd6.s 			page 5


 155 0160 B1050000 		.word	.L49+1
 156 0164 B1050000 		.word	.L49+1
 157 0168 B1050000 		.word	.L49+1
 158 016c B1050000 		.word	.L49+1
 159 0170 B1050000 		.word	.L49+1
 160 0174 B1050000 		.word	.L49+1
 161 0178 B1050000 		.word	.L49+1
 162 017c B1050000 		.word	.L49+1
 163 0180 B1050000 		.word	.L49+1
 164 0184 B1050000 		.word	.L49+1
 165 0188 B1050000 		.word	.L49+1
 166 018c B1050000 		.word	.L49+1
 167 0190 B1050000 		.word	.L49+1
 168 0194 B1050000 		.word	.L49+1
 169 0198 B1050000 		.word	.L49+1
 170 019c B1050000 		.word	.L49+1
 171 01a0 B1050000 		.word	.L49+1
 172 01a4 B1050000 		.word	.L49+1
 173 01a8 B1050000 		.word	.L49+1
 174 01ac B1050000 		.word	.L49+1
 175 01b0 B1050000 		.word	.L49+1
 176 01b4 B1050000 		.word	.L49+1
 177 01b8 B1050000 		.word	.L49+1
 178 01bc B1050000 		.word	.L49+1
 179 01c0 B1050000 		.word	.L49+1
 180 01c4 B1050000 		.word	.L49+1
 181 01c8 B1050000 		.word	.L49+1
 182 01cc B1050000 		.word	.L49+1
 183 01d0 B1050000 		.word	.L49+1
 184 01d4 B1050000 		.word	.L49+1
 185 01d8 B1050000 		.word	.L49+1
 186 01dc B1050000 		.word	.L49+1
 187 01e0 B1050000 		.word	.L49+1
 188 01e4 B1050000 		.word	.L49+1
 189 01e8 B1050000 		.word	.L49+1
 190 01ec B1050000 		.word	.L49+1
 191 01f0 B1050000 		.word	.L49+1
 192 01f4 B1050000 		.word	.L49+1
 193 01f8 B1050000 		.word	.L49+1
 194 01fc B1050000 		.word	.L49+1
 195 0200 B1050000 		.word	.L49+1
 196 0204 B1050000 		.word	.L49+1
 197 0208 B1050000 		.word	.L49+1
 198 020c B1050000 		.word	.L49+1
 199 0210 B1050000 		.word	.L49+1
 200 0214 B1050000 		.word	.L49+1
 201 0218 B1050000 		.word	.L49+1
 202 021c B1050000 		.word	.L49+1
 203 0220 B1050000 		.word	.L49+1
 204 0224 B1050000 		.word	.L49+1
 205 0228 B1050000 		.word	.L49+1
 206 022c B1050000 		.word	.L49+1
 207 0230 B1050000 		.word	.L49+1
 208 0234 B1050000 		.word	.L49+1
 209 0238 B1050000 		.word	.L49+1
 210 023c B1050000 		.word	.L49+1
 211 0240 B1050000 		.word	.L49+1
ARM GAS  C:\Users\mgnocco\AppData\Local\Temp\ccOygPd6.s 			page 6


 212 0244 B1050000 		.word	.L49+1
 213 0248 B1050000 		.word	.L49+1
 214 024c B1050000 		.word	.L49+1
 215 0250 B1050000 		.word	.L49+1
 216 0254 41040000 		.word	.L16+1
 217 0258 83040000 		.word	.L17+1
 218 025c 47040000 		.word	.L18+1
 219 0260 8F040000 		.word	.L19+1
 220 0264 4D040000 		.word	.L20+1
 221 0268 59040000 		.word	.L21+1
 222 026c 53040000 		.word	.L22+1
 223 0270 B1050000 		.word	.L49+1
 224 0274 7D040000 		.word	.L23+1
 225 0278 6B040000 		.word	.L24+1
 226 027c B1050000 		.word	.L49+1
 227 0280 71040000 		.word	.L25+1
 228 0284 5F040000 		.word	.L26+1
 229 0288 B1050000 		.word	.L49+1
 230 028c B1050000 		.word	.L49+1
 231 0290 B1050000 		.word	.L49+1
 232 0294 89040000 		.word	.L27+1
 233 0298 B1050000 		.word	.L49+1
 234 029c 77040000 		.word	.L28+1
 235 02a0 B1050000 		.word	.L49+1
 236 02a4 B1050000 		.word	.L49+1
 237 02a8 B1050000 		.word	.L49+1
 238 02ac B1050000 		.word	.L49+1
 239 02b0 B1050000 		.word	.L49+1
 240 02b4 B1050000 		.word	.L49+1
 241 02b8 B1050000 		.word	.L49+1
 242 02bc B1050000 		.word	.L49+1
 243 02c0 B1050000 		.word	.L49+1
 244 02c4 B1050000 		.word	.L49+1
 245 02c8 B1050000 		.word	.L49+1
 246 02cc B1050000 		.word	.L49+1
 247 02d0 B1050000 		.word	.L49+1
 248 02d4 B1050000 		.word	.L49+1
 249 02d8 4B050000 		.word	.L29+1
 250 02dc 51050000 		.word	.L30+1
 251 02e0 69050000 		.word	.L31+1
 252 02e4 6F050000 		.word	.L32+1
 253 02e8 75050000 		.word	.L33+1
 254 02ec 7B050000 		.word	.L34+1
 255 02f0 81050000 		.word	.L35+1
 256 02f4 99050000 		.word	.L36+1
 257 02f8 B1050000 		.word	.L49+1
 258 02fc B1050000 		.word	.L49+1
 259 0300 B1050000 		.word	.L49+1
 260 0304 B1050000 		.word	.L49+1
 261 0308 B1050000 		.word	.L49+1
 262 030c B1050000 		.word	.L49+1
 263 0310 B1050000 		.word	.L49+1
 264 0314 B1050000 		.word	.L49+1
 265 0318 B1050000 		.word	.L49+1
 266 031c B1050000 		.word	.L49+1
 267 0320 B1050000 		.word	.L49+1
 268 0324 B1050000 		.word	.L49+1
ARM GAS  C:\Users\mgnocco\AppData\Local\Temp\ccOygPd6.s 			page 7


 269 0328 B1050000 		.word	.L49+1
 270 032c B1050000 		.word	.L49+1
 271 0330 B1050000 		.word	.L49+1
 272 0334 B1050000 		.word	.L49+1
 273 0338 B1050000 		.word	.L49+1
 274 033c B1050000 		.word	.L49+1
 275 0340 B1050000 		.word	.L49+1
 276 0344 B1050000 		.word	.L49+1
 277 0348 B1050000 		.word	.L49+1
 278 034c B1050000 		.word	.L49+1
 279 0350 B1050000 		.word	.L49+1
 280 0354 B1050000 		.word	.L49+1
 281 0358 B1050000 		.word	.L49+1
 282 035c B1050000 		.word	.L49+1
 283 0360 B1050000 		.word	.L49+1
 284 0364 B1050000 		.word	.L49+1
 285 0368 B1050000 		.word	.L49+1
 286 036c B1050000 		.word	.L49+1
 287 0370 B1050000 		.word	.L49+1
 288 0374 B1050000 		.word	.L49+1
 289 0378 B1050000 		.word	.L49+1
 290 037c B1050000 		.word	.L49+1
 291 0380 B1050000 		.word	.L49+1
 292 0384 B1050000 		.word	.L49+1
 293 0388 B1050000 		.word	.L49+1
 294 038c B1050000 		.word	.L49+1
 295 0390 B1050000 		.word	.L49+1
 296 0394 B1050000 		.word	.L49+1
 297 0398 B1050000 		.word	.L49+1
 298 039c B1050000 		.word	.L49+1
 299 03a0 B1050000 		.word	.L49+1
 300 03a4 B1050000 		.word	.L49+1
 301 03a8 B1050000 		.word	.L49+1
 302 03ac B1050000 		.word	.L49+1
 303 03b0 B1050000 		.word	.L49+1
 304 03b4 B1050000 		.word	.L49+1
 305 03b8 B1050000 		.word	.L49+1
 306 03bc B1050000 		.word	.L49+1
 307 03c0 B1050000 		.word	.L49+1
 308 03c4 B1050000 		.word	.L49+1
 309 03c8 B1050000 		.word	.L49+1
 310 03cc B1050000 		.word	.L49+1
 311 03d0 B1050000 		.word	.L49+1
 312 03d4 B1050000 		.word	.L49+1
 313 03d8 B1050000 		.word	.L49+1
 314 03dc B1050000 		.word	.L49+1
 315 03e0 B1050000 		.word	.L49+1
 316 03e4 B1050000 		.word	.L49+1
 317 03e8 B1050000 		.word	.L49+1
 318 03ec B1050000 		.word	.L49+1
 319 03f0 B1050000 		.word	.L49+1
 320 03f4 B1050000 		.word	.L49+1
 321 03f8 B1050000 		.word	.L49+1
 322 03fc B1050000 		.word	.L49+1
 323 0400 B1050000 		.word	.L49+1
 324 0404 B1050000 		.word	.L49+1
 325 0408 B1050000 		.word	.L49+1
ARM GAS  C:\Users\mgnocco\AppData\Local\Temp\ccOygPd6.s 			page 8


 326 040c B1050000 		.word	.L49+1
 327 0410 B1050000 		.word	.L49+1
 328 0414 B1050000 		.word	.L49+1
 329 0418 B1050000 		.word	.L49+1
 330 041c B1050000 		.word	.L49+1
 331 0420 B1050000 		.word	.L49+1
 332 0424 B1050000 		.word	.L49+1
 333 0428 B1050000 		.word	.L49+1
 334 042c B1050000 		.word	.L49+1
 335 0430 B1050000 		.word	.L49+1
 336 0434 B1050000 		.word	.L49+1
 337 0438 B1050000 		.word	.L49+1
 338 043c 65040000 		.word	.L37+1
 339              		.p2align 1
 340              	.L16:
  75:..\src/command_processing.c **** 
  76:..\src/command_processing.c **** //=============================================================     CMD_ACTIVATE
  77:..\src/command_processing.c ****         case CMD_ACTIVATE:
  78:..\src/command_processing.c ****             cmd_activate();
 341              		.loc 1 78 0
 342 0440 FFF7FEFF 		bl	cmd_activate
  79:..\src/command_processing.c ****             break;
 343              		.loc 1 79 0
 344 0444 B5E0     		b	.L1
 345              	.L18:
  80:..\src/command_processing.c **** 
  81:..\src/command_processing.c **** //===========================================================     CMD_SET_INPUTS
  82:..\src/command_processing.c **** 
  83:..\src/command_processing.c ****         case CMD_SET_INPUTS:
  84:..\src/command_processing.c ****             cmd_set_inputs();
 346              		.loc 1 84 0
 347 0446 FFF7FEFF 		bl	cmd_set_inputs
  85:..\src/command_processing.c ****             break;
 348              		.loc 1 85 0
 349 044a B2E0     		b	.L1
 350              	.L20:
  86:..\src/command_processing.c **** 
  87:..\src/command_processing.c **** //=====================================================     CMD_GET_MEASUREMENTS
  88:..\src/command_processing.c **** 
  89:..\src/command_processing.c ****         case CMD_GET_MEASUREMENTS:
  90:..\src/command_processing.c ****             cmd_get_measurements();
 351              		.loc 1 90 0
 352 044c FFF7FEFF 		bl	cmd_get_measurements
  91:..\src/command_processing.c ****             break;
 353              		.loc 1 91 0
 354 0450 AFE0     		b	.L1
 355              	.L22:
  92:..\src/command_processing.c **** 
  93:..\src/command_processing.c **** //=====================================================     CMD_GET_CURR_AND_MEAS
  94:..\src/command_processing.c **** 
  95:..\src/command_processing.c ****         case CMD_GET_CURR_AND_MEAS:
  96:..\src/command_processing.c ****             cmd_get_curr_and_meas();
 356              		.loc 1 96 0
 357 0452 FFF7FEFF 		bl	cmd_get_curr_and_meas
  97:..\src/command_processing.c ****             break;
 358              		.loc 1 97 0
 359 0456 ACE0     		b	.L1
ARM GAS  C:\Users\mgnocco\AppData\Local\Temp\ccOygPd6.s 			page 9


 360              	.L21:
  98:..\src/command_processing.c ****             
  99:..\src/command_processing.c **** //=========================================================     CMD_GET_CURRENTS
 100:..\src/command_processing.c **** 
 101:..\src/command_processing.c ****         case CMD_GET_CURRENTS:
 102:..\src/command_processing.c ****             cmd_get_currents();
 361              		.loc 1 102 0
 362 0458 FFF7FEFF 		bl	cmd_get_currents
 103:..\src/command_processing.c ****             break;
 363              		.loc 1 103 0
 364 045c A9E0     		b	.L1
 365              	.L26:
 104:..\src/command_processing.c **** 
 105:..\src/command_processing.c **** //=========================================================     CMD_GET_CURR_DIFF
 106:..\src/command_processing.c ****          
 107:..\src/command_processing.c ****         case CMD_GET_CURR_DIFF:
 108:..\src/command_processing.c ****             cmd_get_currents_for_cuff();
 366              		.loc 1 108 0
 367 045e FFF7FEFF 		bl	cmd_get_currents_for_cuff
 109:..\src/command_processing.c ****             break;
 368              		.loc 1 109 0
 369 0462 A6E0     		b	.L1
 370              	.L37:
 110:..\src/command_processing.c **** 
 111:..\src/command_processing.c **** //=========================================================     CMD_GET_VIBROTACTILE_INPUTS
 112:..\src/command_processing.c ****          
 113:..\src/command_processing.c ****         case CMD_GET_VIBROTACTILE_INPUTS:
 114:..\src/command_processing.c ****             cmd_get_vibrotactile_inputs();
 371              		.loc 1 114 0
 372 0464 FFF7FEFF 		bl	cmd_get_vibrotactile_inputs
 115:..\src/command_processing.c ****             break;            
 373              		.loc 1 115 0
 374 0468 A3E0     		b	.L1
 375              	.L24:
 116:..\src/command_processing.c ****             
 117:..\src/command_processing.c **** //=========================================================     CMD_GET_CURR_DIFF
 118:..\src/command_processing.c ****         
 119:..\src/command_processing.c ****         case CMD_GET_VELOCITIES:
 120:..\src/command_processing.c ****             cmd_get_velocities();
 376              		.loc 1 120 0
 377 046a FFF7FEFF 		bl	cmd_get_velocities
 121:..\src/command_processing.c ****             break;
 378              		.loc 1 121 0
 379 046e A0E0     		b	.L1
 380              	.L25:
 122:..\src/command_processing.c ****             
 123:..\src/command_processing.c **** //=========================================================     CMD_GET_CURR_DIFF
 124:..\src/command_processing.c **** 
 125:..\src/command_processing.c ****         case CMD_GET_ACCEL:
 126:..\src/command_processing.c ****             cmd_get_accelerations();
 381              		.loc 1 126 0
 382 0470 FFF7FEFF 		bl	cmd_get_accelerations
 127:..\src/command_processing.c ****             break;
 383              		.loc 1 127 0
 384 0474 9DE0     		b	.L1
 385              	.L28:
 128:..\src/command_processing.c **** 
ARM GAS  C:\Users\mgnocco\AppData\Local\Temp\ccOygPd6.s 			page 10


 129:..\src/command_processing.c **** //=========================================================     CMD_GET_JOYSTICK
 130:..\src/command_processing.c **** 
 131:..\src/command_processing.c ****         case CMD_GET_JOYSTICK:
 132:..\src/command_processing.c ****             cmd_get_joystick();
 386              		.loc 1 132 0
 387 0476 FFF7FEFF 		bl	cmd_get_joystick
 133:..\src/command_processing.c ****         break;
 388              		.loc 1 133 0
 389 047a 9AE0     		b	.L1
 390              	.L23:
 134:..\src/command_processing.c ****             
 135:..\src/command_processing.c **** //=========================================================     CMD_GET_EMG
 136:..\src/command_processing.c **** 
 137:..\src/command_processing.c ****         case CMD_GET_EMG:
 138:..\src/command_processing.c ****             cmd_get_emg();
 391              		.loc 1 138 0
 392 047c FFF7FEFF 		bl	cmd_get_emg
 139:..\src/command_processing.c ****             break;
 393              		.loc 1 139 0
 394 0480 97E0     		b	.L1
 395              	.L17:
 140:..\src/command_processing.c ****             
 141:..\src/command_processing.c **** //=========================================================     CMD_GET_ACTIVATE
 142:..\src/command_processing.c ****             
 143:..\src/command_processing.c ****         case CMD_GET_ACTIVATE:
 144:..\src/command_processing.c ****             cmd_get_activate();
 396              		.loc 1 144 0
 397 0482 FFF7FEFF 		bl	cmd_get_activate
 145:..\src/command_processing.c ****             break;
 398              		.loc 1 145 0
 399 0486 94E0     		b	.L1
 400              	.L27:
 146:..\src/command_processing.c ****             
 147:..\src/command_processing.c **** //=========================================================     CMD_SET_BAUDRATE
 148:..\src/command_processing.c ****             
 149:..\src/command_processing.c ****         case CMD_SET_BAUDRATE:
 150:..\src/command_processing.c ****             cmd_set_baudrate();
 401              		.loc 1 150 0
 402 0488 FFF7FEFF 		bl	cmd_set_baudrate
 151:..\src/command_processing.c ****             break;  
 403              		.loc 1 151 0
 404 048c 91E0     		b	.L1
 405              	.L19:
 152:..\src/command_processing.c ****             
 153:..\src/command_processing.c **** //============================================================     CMD_GET_INPUT
 154:..\src/command_processing.c **** 
 155:..\src/command_processing.c ****         case CMD_GET_INPUTS:
 156:..\src/command_processing.c ****             cmd_get_inputs();
 406              		.loc 1 156 0
 407 048e FFF7FEFF 		bl	cmd_get_inputs
 157:..\src/command_processing.c ****             break;
 408              		.loc 1 157 0
 409 0492 8EE0     		b	.L1
 410              	.L11:
 158:..\src/command_processing.c **** 
 159:..\src/command_processing.c **** //=============================================================     CMD_GET_INFO
 160:..\src/command_processing.c **** 
ARM GAS  C:\Users\mgnocco\AppData\Local\Temp\ccOygPd6.s 			page 11


 161:..\src/command_processing.c ****         case CMD_GET_INFO:
 162:..\src/command_processing.c ****             infoGet(  __REV16(*((uint16 *) &g_rx.buffer[1])) );
 411              		.loc 1 162 0
 412 0494 484B     		ldr	r3, .L52
 413 0496 1B88     		ldrh	r3, [r3]
 414 0498 BB61     		str	r3, [r7, #24]
 415              	.LBB12:
 416              	.LBB13:
 417              		.file 2 "Generated_Source\\PSoC5/cmsis_gcc.h"
   1:Generated_Source\PSoC5/cmsis_gcc.h **** /**************************************************************************//**
   2:Generated_Source\PSoC5/cmsis_gcc.h ****  * @file     cmsis_gcc.h
   3:Generated_Source\PSoC5/cmsis_gcc.h ****  * @brief    CMSIS Cortex-M Core Function/Instruction Header File
   4:Generated_Source\PSoC5/cmsis_gcc.h ****  * @version  V5.00
   5:Generated_Source\PSoC5/cmsis_gcc.h ****  * @date     28. October 2016
   6:Generated_Source\PSoC5/cmsis_gcc.h ****  ******************************************************************************/
   7:Generated_Source\PSoC5/cmsis_gcc.h **** /*
   8:Generated_Source\PSoC5/cmsis_gcc.h ****  * Copyright (c) 2009-2016 ARM Limited. All rights reserved.
   9:Generated_Source\PSoC5/cmsis_gcc.h ****  *
  10:Generated_Source\PSoC5/cmsis_gcc.h ****  * SPDX-License-Identifier: Apache-2.0
  11:Generated_Source\PSoC5/cmsis_gcc.h ****  *
  12:Generated_Source\PSoC5/cmsis_gcc.h ****  * Licensed under the Apache License, Version 2.0 (the License); you may
  13:Generated_Source\PSoC5/cmsis_gcc.h ****  * not use this file except in compliance with the License.
  14:Generated_Source\PSoC5/cmsis_gcc.h ****  * You may obtain a copy of the License at
  15:Generated_Source\PSoC5/cmsis_gcc.h ****  *
  16:Generated_Source\PSoC5/cmsis_gcc.h ****  * http://www.apache.org/licenses/LICENSE-2.0
  17:Generated_Source\PSoC5/cmsis_gcc.h ****  *
  18:Generated_Source\PSoC5/cmsis_gcc.h ****  * Unless required by applicable law or agreed to in writing, software
  19:Generated_Source\PSoC5/cmsis_gcc.h ****  * distributed under the License is distributed on an AS IS BASIS, WITHOUT
  20:Generated_Source\PSoC5/cmsis_gcc.h ****  * WARRANTIES OR CONDITIONS OF ANY KIND, either express or implied.
  21:Generated_Source\PSoC5/cmsis_gcc.h ****  * See the License for the specific language governing permissions and
  22:Generated_Source\PSoC5/cmsis_gcc.h ****  * limitations under the License.
  23:Generated_Source\PSoC5/cmsis_gcc.h ****  */
  24:Generated_Source\PSoC5/cmsis_gcc.h **** 
  25:Generated_Source\PSoC5/cmsis_gcc.h **** #ifndef __CMSIS_GCC_H
  26:Generated_Source\PSoC5/cmsis_gcc.h **** #define __CMSIS_GCC_H
  27:Generated_Source\PSoC5/cmsis_gcc.h **** 
  28:Generated_Source\PSoC5/cmsis_gcc.h **** /* ignore some GCC warnings */
  29:Generated_Source\PSoC5/cmsis_gcc.h **** #pragma GCC diagnostic push
  30:Generated_Source\PSoC5/cmsis_gcc.h **** #pragma GCC diagnostic ignored "-Wsign-conversion"
  31:Generated_Source\PSoC5/cmsis_gcc.h **** #pragma GCC diagnostic ignored "-Wconversion"
  32:Generated_Source\PSoC5/cmsis_gcc.h **** #pragma GCC diagnostic ignored "-Wunused-parameter"
  33:Generated_Source\PSoC5/cmsis_gcc.h **** 
  34:Generated_Source\PSoC5/cmsis_gcc.h **** /* CMSIS compiler specific defines */
  35:Generated_Source\PSoC5/cmsis_gcc.h **** #ifndef   __ASM
  36:Generated_Source\PSoC5/cmsis_gcc.h ****   #define __ASM                     __asm
  37:Generated_Source\PSoC5/cmsis_gcc.h **** #endif
  38:Generated_Source\PSoC5/cmsis_gcc.h **** #ifndef   __INLINE
  39:Generated_Source\PSoC5/cmsis_gcc.h ****   #define __INLINE                  inline
  40:Generated_Source\PSoC5/cmsis_gcc.h **** #endif
  41:Generated_Source\PSoC5/cmsis_gcc.h **** #ifndef   __STATIC_INLINE
  42:Generated_Source\PSoC5/cmsis_gcc.h ****   #define __STATIC_INLINE           static inline
  43:Generated_Source\PSoC5/cmsis_gcc.h **** #endif
  44:Generated_Source\PSoC5/cmsis_gcc.h **** #ifndef   __NO_RETURN
  45:Generated_Source\PSoC5/cmsis_gcc.h ****   #define __NO_RETURN               __attribute__((noreturn))
  46:Generated_Source\PSoC5/cmsis_gcc.h **** #endif
  47:Generated_Source\PSoC5/cmsis_gcc.h **** #ifndef   __USED
  48:Generated_Source\PSoC5/cmsis_gcc.h ****   #define __USED                    __attribute__((used))
ARM GAS  C:\Users\mgnocco\AppData\Local\Temp\ccOygPd6.s 			page 12


  49:Generated_Source\PSoC5/cmsis_gcc.h **** #endif
  50:Generated_Source\PSoC5/cmsis_gcc.h **** #ifndef   _WEAK
  51:Generated_Source\PSoC5/cmsis_gcc.h ****   #define __WEAK                    __attribute__((weak))
  52:Generated_Source\PSoC5/cmsis_gcc.h **** #endif
  53:Generated_Source\PSoC5/cmsis_gcc.h **** #ifndef   __UNALIGNED_UINT32
  54:Generated_Source\PSoC5/cmsis_gcc.h ****   struct __attribute__((packed)) T_UINT32 { uint32_t v; };
  55:Generated_Source\PSoC5/cmsis_gcc.h ****   #define __UNALIGNED_UINT32(x)     (((struct T_UINT32 *)(x))->v)
  56:Generated_Source\PSoC5/cmsis_gcc.h **** #endif
  57:Generated_Source\PSoC5/cmsis_gcc.h **** #ifndef   __ALIGNED
  58:Generated_Source\PSoC5/cmsis_gcc.h ****   #define __ALIGNED(x)              __attribute__((aligned(x)))
  59:Generated_Source\PSoC5/cmsis_gcc.h **** #endif
  60:Generated_Source\PSoC5/cmsis_gcc.h **** #ifndef   __PACKED
  61:Generated_Source\PSoC5/cmsis_gcc.h ****   #define __PACKED                  __attribute__((packed, aligned(1)))
  62:Generated_Source\PSoC5/cmsis_gcc.h **** #endif
  63:Generated_Source\PSoC5/cmsis_gcc.h **** 
  64:Generated_Source\PSoC5/cmsis_gcc.h **** 
  65:Generated_Source\PSoC5/cmsis_gcc.h **** /* ###########################  Core Function Access  ########################### */
  66:Generated_Source\PSoC5/cmsis_gcc.h **** /** \ingroup  CMSIS_Core_FunctionInterface
  67:Generated_Source\PSoC5/cmsis_gcc.h ****     \defgroup CMSIS_Core_RegAccFunctions CMSIS Core Register Access Functions
  68:Generated_Source\PSoC5/cmsis_gcc.h ****   @{
  69:Generated_Source\PSoC5/cmsis_gcc.h ****  */
  70:Generated_Source\PSoC5/cmsis_gcc.h **** 
  71:Generated_Source\PSoC5/cmsis_gcc.h **** /**
  72:Generated_Source\PSoC5/cmsis_gcc.h ****   \brief   Enable IRQ Interrupts
  73:Generated_Source\PSoC5/cmsis_gcc.h ****   \details Enables IRQ interrupts by clearing the I-bit in the CPSR.
  74:Generated_Source\PSoC5/cmsis_gcc.h ****            Can only be executed in Privileged modes.
  75:Generated_Source\PSoC5/cmsis_gcc.h ****  */
  76:Generated_Source\PSoC5/cmsis_gcc.h **** __attribute__((always_inline)) __STATIC_INLINE void __enable_irq(void)
  77:Generated_Source\PSoC5/cmsis_gcc.h **** {
  78:Generated_Source\PSoC5/cmsis_gcc.h ****   __ASM volatile ("cpsie i" : : : "memory");
  79:Generated_Source\PSoC5/cmsis_gcc.h **** }
  80:Generated_Source\PSoC5/cmsis_gcc.h **** 
  81:Generated_Source\PSoC5/cmsis_gcc.h **** 
  82:Generated_Source\PSoC5/cmsis_gcc.h **** /**
  83:Generated_Source\PSoC5/cmsis_gcc.h ****   \brief   Disable IRQ Interrupts
  84:Generated_Source\PSoC5/cmsis_gcc.h ****   \details Disables IRQ interrupts by setting the I-bit in the CPSR.
  85:Generated_Source\PSoC5/cmsis_gcc.h ****            Can only be executed in Privileged modes.
  86:Generated_Source\PSoC5/cmsis_gcc.h ****  */
  87:Generated_Source\PSoC5/cmsis_gcc.h **** __attribute__((always_inline)) __STATIC_INLINE void __disable_irq(void)
  88:Generated_Source\PSoC5/cmsis_gcc.h **** {
  89:Generated_Source\PSoC5/cmsis_gcc.h ****   __ASM volatile ("cpsid i" : : : "memory");
  90:Generated_Source\PSoC5/cmsis_gcc.h **** }
  91:Generated_Source\PSoC5/cmsis_gcc.h **** 
  92:Generated_Source\PSoC5/cmsis_gcc.h **** 
  93:Generated_Source\PSoC5/cmsis_gcc.h **** /**
  94:Generated_Source\PSoC5/cmsis_gcc.h ****   \brief   Get Control Register
  95:Generated_Source\PSoC5/cmsis_gcc.h ****   \details Returns the content of the Control Register.
  96:Generated_Source\PSoC5/cmsis_gcc.h ****   \return               Control Register value
  97:Generated_Source\PSoC5/cmsis_gcc.h ****  */
  98:Generated_Source\PSoC5/cmsis_gcc.h **** __attribute__((always_inline)) __STATIC_INLINE uint32_t __get_CONTROL(void)
  99:Generated_Source\PSoC5/cmsis_gcc.h **** {
 100:Generated_Source\PSoC5/cmsis_gcc.h ****   uint32_t result;
 101:Generated_Source\PSoC5/cmsis_gcc.h **** 
 102:Generated_Source\PSoC5/cmsis_gcc.h ****   __ASM volatile ("MRS %0, control" : "=r" (result) );
 103:Generated_Source\PSoC5/cmsis_gcc.h ****   return(result);
 104:Generated_Source\PSoC5/cmsis_gcc.h **** }
 105:Generated_Source\PSoC5/cmsis_gcc.h **** 
ARM GAS  C:\Users\mgnocco\AppData\Local\Temp\ccOygPd6.s 			page 13


 106:Generated_Source\PSoC5/cmsis_gcc.h **** 
 107:Generated_Source\PSoC5/cmsis_gcc.h **** #if (defined (__ARM_FEATURE_CMSE ) && (__ARM_FEATURE_CMSE == 3))
 108:Generated_Source\PSoC5/cmsis_gcc.h **** /**
 109:Generated_Source\PSoC5/cmsis_gcc.h ****   \brief   Get Control Register (non-secure)
 110:Generated_Source\PSoC5/cmsis_gcc.h ****   \details Returns the content of the non-secure Control Register when in secure mode.
 111:Generated_Source\PSoC5/cmsis_gcc.h ****   \return               non-secure Control Register value
 112:Generated_Source\PSoC5/cmsis_gcc.h ****  */
 113:Generated_Source\PSoC5/cmsis_gcc.h **** __attribute__((always_inline)) __STATIC_INLINE uint32_t __TZ_get_CONTROL_NS(void)
 114:Generated_Source\PSoC5/cmsis_gcc.h **** {
 115:Generated_Source\PSoC5/cmsis_gcc.h ****   uint32_t result;
 116:Generated_Source\PSoC5/cmsis_gcc.h **** 
 117:Generated_Source\PSoC5/cmsis_gcc.h ****   __ASM volatile ("MRS %0, control_ns" : "=r" (result) );
 118:Generated_Source\PSoC5/cmsis_gcc.h ****   return(result);
 119:Generated_Source\PSoC5/cmsis_gcc.h **** }
 120:Generated_Source\PSoC5/cmsis_gcc.h **** #endif
 121:Generated_Source\PSoC5/cmsis_gcc.h **** 
 122:Generated_Source\PSoC5/cmsis_gcc.h **** 
 123:Generated_Source\PSoC5/cmsis_gcc.h **** /**
 124:Generated_Source\PSoC5/cmsis_gcc.h ****   \brief   Set Control Register
 125:Generated_Source\PSoC5/cmsis_gcc.h ****   \details Writes the given value to the Control Register.
 126:Generated_Source\PSoC5/cmsis_gcc.h ****   \param [in]    control  Control Register value to set
 127:Generated_Source\PSoC5/cmsis_gcc.h ****  */
 128:Generated_Source\PSoC5/cmsis_gcc.h **** __attribute__((always_inline)) __STATIC_INLINE void __set_CONTROL(uint32_t control)
 129:Generated_Source\PSoC5/cmsis_gcc.h **** {
 130:Generated_Source\PSoC5/cmsis_gcc.h ****   __ASM volatile ("MSR control, %0" : : "r" (control) : "memory");
 131:Generated_Source\PSoC5/cmsis_gcc.h **** }
 132:Generated_Source\PSoC5/cmsis_gcc.h **** 
 133:Generated_Source\PSoC5/cmsis_gcc.h **** 
 134:Generated_Source\PSoC5/cmsis_gcc.h **** #if (defined (__ARM_FEATURE_CMSE ) && (__ARM_FEATURE_CMSE == 3))
 135:Generated_Source\PSoC5/cmsis_gcc.h **** /**
 136:Generated_Source\PSoC5/cmsis_gcc.h ****   \brief   Set Control Register (non-secure)
 137:Generated_Source\PSoC5/cmsis_gcc.h ****   \details Writes the given value to the non-secure Control Register when in secure state.
 138:Generated_Source\PSoC5/cmsis_gcc.h ****   \param [in]    control  Control Register value to set
 139:Generated_Source\PSoC5/cmsis_gcc.h ****  */
 140:Generated_Source\PSoC5/cmsis_gcc.h **** __attribute__((always_inline)) __STATIC_INLINE void __TZ_set_CONTROL_NS(uint32_t control)
 141:Generated_Source\PSoC5/cmsis_gcc.h **** {
 142:Generated_Source\PSoC5/cmsis_gcc.h ****   __ASM volatile ("MSR control_ns, %0" : : "r" (control) : "memory");
 143:Generated_Source\PSoC5/cmsis_gcc.h **** }
 144:Generated_Source\PSoC5/cmsis_gcc.h **** #endif
 145:Generated_Source\PSoC5/cmsis_gcc.h **** 
 146:Generated_Source\PSoC5/cmsis_gcc.h **** 
 147:Generated_Source\PSoC5/cmsis_gcc.h **** /**
 148:Generated_Source\PSoC5/cmsis_gcc.h ****   \brief   Get IPSR Register
 149:Generated_Source\PSoC5/cmsis_gcc.h ****   \details Returns the content of the IPSR Register.
 150:Generated_Source\PSoC5/cmsis_gcc.h ****   \return               IPSR Register value
 151:Generated_Source\PSoC5/cmsis_gcc.h ****  */
 152:Generated_Source\PSoC5/cmsis_gcc.h **** __attribute__((always_inline)) __STATIC_INLINE uint32_t __get_IPSR(void)
 153:Generated_Source\PSoC5/cmsis_gcc.h **** {
 154:Generated_Source\PSoC5/cmsis_gcc.h ****   uint32_t result;
 155:Generated_Source\PSoC5/cmsis_gcc.h **** 
 156:Generated_Source\PSoC5/cmsis_gcc.h ****   __ASM volatile ("MRS %0, ipsr" : "=r" (result) );
 157:Generated_Source\PSoC5/cmsis_gcc.h ****   return(result);
 158:Generated_Source\PSoC5/cmsis_gcc.h **** }
 159:Generated_Source\PSoC5/cmsis_gcc.h **** 
 160:Generated_Source\PSoC5/cmsis_gcc.h **** 
 161:Generated_Source\PSoC5/cmsis_gcc.h **** /**
 162:Generated_Source\PSoC5/cmsis_gcc.h ****   \brief   Get APSR Register
ARM GAS  C:\Users\mgnocco\AppData\Local\Temp\ccOygPd6.s 			page 14


 163:Generated_Source\PSoC5/cmsis_gcc.h ****   \details Returns the content of the APSR Register.
 164:Generated_Source\PSoC5/cmsis_gcc.h ****   \return               APSR Register value
 165:Generated_Source\PSoC5/cmsis_gcc.h ****  */
 166:Generated_Source\PSoC5/cmsis_gcc.h **** __attribute__((always_inline)) __STATIC_INLINE uint32_t __get_APSR(void)
 167:Generated_Source\PSoC5/cmsis_gcc.h **** {
 168:Generated_Source\PSoC5/cmsis_gcc.h ****   uint32_t result;
 169:Generated_Source\PSoC5/cmsis_gcc.h **** 
 170:Generated_Source\PSoC5/cmsis_gcc.h ****   __ASM volatile ("MRS %0, apsr" : "=r" (result) );
 171:Generated_Source\PSoC5/cmsis_gcc.h ****   return(result);
 172:Generated_Source\PSoC5/cmsis_gcc.h **** }
 173:Generated_Source\PSoC5/cmsis_gcc.h **** 
 174:Generated_Source\PSoC5/cmsis_gcc.h **** 
 175:Generated_Source\PSoC5/cmsis_gcc.h **** /**
 176:Generated_Source\PSoC5/cmsis_gcc.h ****   \brief   Get xPSR Register
 177:Generated_Source\PSoC5/cmsis_gcc.h ****   \details Returns the content of the xPSR Register.
 178:Generated_Source\PSoC5/cmsis_gcc.h ****   \return               xPSR Register value
 179:Generated_Source\PSoC5/cmsis_gcc.h ****  */
 180:Generated_Source\PSoC5/cmsis_gcc.h **** __attribute__((always_inline)) __STATIC_INLINE uint32_t __get_xPSR(void)
 181:Generated_Source\PSoC5/cmsis_gcc.h **** {
 182:Generated_Source\PSoC5/cmsis_gcc.h ****   uint32_t result;
 183:Generated_Source\PSoC5/cmsis_gcc.h **** 
 184:Generated_Source\PSoC5/cmsis_gcc.h ****   __ASM volatile ("MRS %0, xpsr" : "=r" (result) );
 185:Generated_Source\PSoC5/cmsis_gcc.h ****   return(result);
 186:Generated_Source\PSoC5/cmsis_gcc.h **** }
 187:Generated_Source\PSoC5/cmsis_gcc.h **** 
 188:Generated_Source\PSoC5/cmsis_gcc.h **** 
 189:Generated_Source\PSoC5/cmsis_gcc.h **** /**
 190:Generated_Source\PSoC5/cmsis_gcc.h ****   \brief   Get Process Stack Pointer
 191:Generated_Source\PSoC5/cmsis_gcc.h ****   \details Returns the current value of the Process Stack Pointer (PSP).
 192:Generated_Source\PSoC5/cmsis_gcc.h ****   \return               PSP Register value
 193:Generated_Source\PSoC5/cmsis_gcc.h ****  */
 194:Generated_Source\PSoC5/cmsis_gcc.h **** __attribute__((always_inline)) __STATIC_INLINE uint32_t __get_PSP(void)
 195:Generated_Source\PSoC5/cmsis_gcc.h **** {
 196:Generated_Source\PSoC5/cmsis_gcc.h ****   register uint32_t result;
 197:Generated_Source\PSoC5/cmsis_gcc.h **** 
 198:Generated_Source\PSoC5/cmsis_gcc.h ****   __ASM volatile ("MRS %0, psp"  : "=r" (result) );
 199:Generated_Source\PSoC5/cmsis_gcc.h ****   return(result);
 200:Generated_Source\PSoC5/cmsis_gcc.h **** }
 201:Generated_Source\PSoC5/cmsis_gcc.h **** 
 202:Generated_Source\PSoC5/cmsis_gcc.h **** 
 203:Generated_Source\PSoC5/cmsis_gcc.h **** #if (defined (__ARM_FEATURE_CMSE ) && (__ARM_FEATURE_CMSE == 3))
 204:Generated_Source\PSoC5/cmsis_gcc.h **** /**
 205:Generated_Source\PSoC5/cmsis_gcc.h ****   \brief   Get Process Stack Pointer (non-secure)
 206:Generated_Source\PSoC5/cmsis_gcc.h ****   \details Returns the current value of the non-secure Process Stack Pointer (PSP) when in secure s
 207:Generated_Source\PSoC5/cmsis_gcc.h ****   \return               PSP Register value
 208:Generated_Source\PSoC5/cmsis_gcc.h ****  */
 209:Generated_Source\PSoC5/cmsis_gcc.h **** __attribute__((always_inline)) __STATIC_INLINE uint32_t __TZ_get_PSP_NS(void)
 210:Generated_Source\PSoC5/cmsis_gcc.h **** {
 211:Generated_Source\PSoC5/cmsis_gcc.h ****   register uint32_t result;
 212:Generated_Source\PSoC5/cmsis_gcc.h **** 
 213:Generated_Source\PSoC5/cmsis_gcc.h ****   __ASM volatile ("MRS %0, psp_ns"  : "=r" (result) );
 214:Generated_Source\PSoC5/cmsis_gcc.h ****   return(result);
 215:Generated_Source\PSoC5/cmsis_gcc.h **** }
 216:Generated_Source\PSoC5/cmsis_gcc.h **** #endif
 217:Generated_Source\PSoC5/cmsis_gcc.h **** 
 218:Generated_Source\PSoC5/cmsis_gcc.h **** 
 219:Generated_Source\PSoC5/cmsis_gcc.h **** /**
ARM GAS  C:\Users\mgnocco\AppData\Local\Temp\ccOygPd6.s 			page 15


 220:Generated_Source\PSoC5/cmsis_gcc.h ****   \brief   Set Process Stack Pointer
 221:Generated_Source\PSoC5/cmsis_gcc.h ****   \details Assigns the given value to the Process Stack Pointer (PSP).
 222:Generated_Source\PSoC5/cmsis_gcc.h ****   \param [in]    topOfProcStack  Process Stack Pointer value to set
 223:Generated_Source\PSoC5/cmsis_gcc.h ****  */
 224:Generated_Source\PSoC5/cmsis_gcc.h **** __attribute__((always_inline)) __STATIC_INLINE void __set_PSP(uint32_t topOfProcStack)
 225:Generated_Source\PSoC5/cmsis_gcc.h **** {
 226:Generated_Source\PSoC5/cmsis_gcc.h ****   __ASM volatile ("MSR psp, %0" : : "r" (topOfProcStack) : "sp");
 227:Generated_Source\PSoC5/cmsis_gcc.h **** }
 228:Generated_Source\PSoC5/cmsis_gcc.h **** 
 229:Generated_Source\PSoC5/cmsis_gcc.h **** 
 230:Generated_Source\PSoC5/cmsis_gcc.h **** #if (defined (__ARM_FEATURE_CMSE ) && (__ARM_FEATURE_CMSE == 3))
 231:Generated_Source\PSoC5/cmsis_gcc.h **** /**
 232:Generated_Source\PSoC5/cmsis_gcc.h ****   \brief   Set Process Stack Pointer (non-secure)
 233:Generated_Source\PSoC5/cmsis_gcc.h ****   \details Assigns the given value to the non-secure Process Stack Pointer (PSP) when in secure sta
 234:Generated_Source\PSoC5/cmsis_gcc.h ****   \param [in]    topOfProcStack  Process Stack Pointer value to set
 235:Generated_Source\PSoC5/cmsis_gcc.h ****  */
 236:Generated_Source\PSoC5/cmsis_gcc.h **** __attribute__((always_inline)) __STATIC_INLINE void __TZ_set_PSP_NS(uint32_t topOfProcStack)
 237:Generated_Source\PSoC5/cmsis_gcc.h **** {
 238:Generated_Source\PSoC5/cmsis_gcc.h ****   __ASM volatile ("MSR psp_ns, %0" : : "r" (topOfProcStack) : "sp");
 239:Generated_Source\PSoC5/cmsis_gcc.h **** }
 240:Generated_Source\PSoC5/cmsis_gcc.h **** #endif
 241:Generated_Source\PSoC5/cmsis_gcc.h **** 
 242:Generated_Source\PSoC5/cmsis_gcc.h **** 
 243:Generated_Source\PSoC5/cmsis_gcc.h **** /**
 244:Generated_Source\PSoC5/cmsis_gcc.h ****   \brief   Get Main Stack Pointer
 245:Generated_Source\PSoC5/cmsis_gcc.h ****   \details Returns the current value of the Main Stack Pointer (MSP).
 246:Generated_Source\PSoC5/cmsis_gcc.h ****   \return               MSP Register value
 247:Generated_Source\PSoC5/cmsis_gcc.h ****  */
 248:Generated_Source\PSoC5/cmsis_gcc.h **** __attribute__((always_inline)) __STATIC_INLINE uint32_t __get_MSP(void)
 249:Generated_Source\PSoC5/cmsis_gcc.h **** {
 250:Generated_Source\PSoC5/cmsis_gcc.h ****   register uint32_t result;
 251:Generated_Source\PSoC5/cmsis_gcc.h **** 
 252:Generated_Source\PSoC5/cmsis_gcc.h ****   __ASM volatile ("MRS %0, msp" : "=r" (result) );
 253:Generated_Source\PSoC5/cmsis_gcc.h ****   return(result);
 254:Generated_Source\PSoC5/cmsis_gcc.h **** }
 255:Generated_Source\PSoC5/cmsis_gcc.h **** 
 256:Generated_Source\PSoC5/cmsis_gcc.h **** 
 257:Generated_Source\PSoC5/cmsis_gcc.h **** #if (defined (__ARM_FEATURE_CMSE ) && (__ARM_FEATURE_CMSE == 3))
 258:Generated_Source\PSoC5/cmsis_gcc.h **** /**
 259:Generated_Source\PSoC5/cmsis_gcc.h ****   \brief   Get Main Stack Pointer (non-secure)
 260:Generated_Source\PSoC5/cmsis_gcc.h ****   \details Returns the current value of the non-secure Main Stack Pointer (MSP) when in secure stat
 261:Generated_Source\PSoC5/cmsis_gcc.h ****   \return               MSP Register value
 262:Generated_Source\PSoC5/cmsis_gcc.h ****  */
 263:Generated_Source\PSoC5/cmsis_gcc.h **** __attribute__((always_inline)) __STATIC_INLINE uint32_t __TZ_get_MSP_NS(void)
 264:Generated_Source\PSoC5/cmsis_gcc.h **** {
 265:Generated_Source\PSoC5/cmsis_gcc.h ****   register uint32_t result;
 266:Generated_Source\PSoC5/cmsis_gcc.h **** 
 267:Generated_Source\PSoC5/cmsis_gcc.h ****   __ASM volatile ("MRS %0, msp_ns" : "=r" (result) );
 268:Generated_Source\PSoC5/cmsis_gcc.h ****   return(result);
 269:Generated_Source\PSoC5/cmsis_gcc.h **** }
 270:Generated_Source\PSoC5/cmsis_gcc.h **** #endif
 271:Generated_Source\PSoC5/cmsis_gcc.h **** 
 272:Generated_Source\PSoC5/cmsis_gcc.h **** 
 273:Generated_Source\PSoC5/cmsis_gcc.h **** /**
 274:Generated_Source\PSoC5/cmsis_gcc.h ****   \brief   Set Main Stack Pointer
 275:Generated_Source\PSoC5/cmsis_gcc.h ****   \details Assigns the given value to the Main Stack Pointer (MSP).
 276:Generated_Source\PSoC5/cmsis_gcc.h ****   \param [in]    topOfMainStack  Main Stack Pointer value to set
ARM GAS  C:\Users\mgnocco\AppData\Local\Temp\ccOygPd6.s 			page 16


 277:Generated_Source\PSoC5/cmsis_gcc.h ****  */
 278:Generated_Source\PSoC5/cmsis_gcc.h **** __attribute__((always_inline)) __STATIC_INLINE void __set_MSP(uint32_t topOfMainStack)
 279:Generated_Source\PSoC5/cmsis_gcc.h **** {
 280:Generated_Source\PSoC5/cmsis_gcc.h ****   __ASM volatile ("MSR msp, %0" : : "r" (topOfMainStack) : "sp");
 281:Generated_Source\PSoC5/cmsis_gcc.h **** }
 282:Generated_Source\PSoC5/cmsis_gcc.h **** 
 283:Generated_Source\PSoC5/cmsis_gcc.h **** 
 284:Generated_Source\PSoC5/cmsis_gcc.h **** #if (defined (__ARM_FEATURE_CMSE ) && (__ARM_FEATURE_CMSE == 3))
 285:Generated_Source\PSoC5/cmsis_gcc.h **** /**
 286:Generated_Source\PSoC5/cmsis_gcc.h ****   \brief   Set Main Stack Pointer (non-secure)
 287:Generated_Source\PSoC5/cmsis_gcc.h ****   \details Assigns the given value to the non-secure Main Stack Pointer (MSP) when in secure state.
 288:Generated_Source\PSoC5/cmsis_gcc.h ****   \param [in]    topOfMainStack  Main Stack Pointer value to set
 289:Generated_Source\PSoC5/cmsis_gcc.h ****  */
 290:Generated_Source\PSoC5/cmsis_gcc.h **** __attribute__((always_inline)) __STATIC_INLINE void __TZ_set_MSP_NS(uint32_t topOfMainStack)
 291:Generated_Source\PSoC5/cmsis_gcc.h **** {
 292:Generated_Source\PSoC5/cmsis_gcc.h ****   __ASM volatile ("MSR msp_ns, %0" : : "r" (topOfMainStack) : "sp");
 293:Generated_Source\PSoC5/cmsis_gcc.h **** }
 294:Generated_Source\PSoC5/cmsis_gcc.h **** #endif
 295:Generated_Source\PSoC5/cmsis_gcc.h **** 
 296:Generated_Source\PSoC5/cmsis_gcc.h **** 
 297:Generated_Source\PSoC5/cmsis_gcc.h **** /**
 298:Generated_Source\PSoC5/cmsis_gcc.h ****   \brief   Get Priority Mask
 299:Generated_Source\PSoC5/cmsis_gcc.h ****   \details Returns the current state of the priority mask bit from the Priority Mask Register.
 300:Generated_Source\PSoC5/cmsis_gcc.h ****   \return               Priority Mask value
 301:Generated_Source\PSoC5/cmsis_gcc.h ****  */
 302:Generated_Source\PSoC5/cmsis_gcc.h **** __attribute__((always_inline)) __STATIC_INLINE uint32_t __get_PRIMASK(void)
 303:Generated_Source\PSoC5/cmsis_gcc.h **** {
 304:Generated_Source\PSoC5/cmsis_gcc.h ****   uint32_t result;
 305:Generated_Source\PSoC5/cmsis_gcc.h **** 
 306:Generated_Source\PSoC5/cmsis_gcc.h ****   __ASM volatile ("MRS %0, primask" : "=r" (result) );
 307:Generated_Source\PSoC5/cmsis_gcc.h ****   return(result);
 308:Generated_Source\PSoC5/cmsis_gcc.h **** }
 309:Generated_Source\PSoC5/cmsis_gcc.h **** 
 310:Generated_Source\PSoC5/cmsis_gcc.h **** 
 311:Generated_Source\PSoC5/cmsis_gcc.h **** #if (defined (__ARM_FEATURE_CMSE ) && (__ARM_FEATURE_CMSE == 3))
 312:Generated_Source\PSoC5/cmsis_gcc.h **** /**
 313:Generated_Source\PSoC5/cmsis_gcc.h ****   \brief   Get Priority Mask (non-secure)
 314:Generated_Source\PSoC5/cmsis_gcc.h ****   \details Returns the current state of the non-secure priority mask bit from the Priority Mask Reg
 315:Generated_Source\PSoC5/cmsis_gcc.h ****   \return               Priority Mask value
 316:Generated_Source\PSoC5/cmsis_gcc.h ****  */
 317:Generated_Source\PSoC5/cmsis_gcc.h **** __attribute__((always_inline)) __STATIC_INLINE uint32_t __TZ_get_PRIMASK_NS(void)
 318:Generated_Source\PSoC5/cmsis_gcc.h **** {
 319:Generated_Source\PSoC5/cmsis_gcc.h ****   uint32_t result;
 320:Generated_Source\PSoC5/cmsis_gcc.h **** 
 321:Generated_Source\PSoC5/cmsis_gcc.h ****   __ASM volatile ("MRS %0, primask_ns" : "=r" (result) );
 322:Generated_Source\PSoC5/cmsis_gcc.h ****   return(result);
 323:Generated_Source\PSoC5/cmsis_gcc.h **** }
 324:Generated_Source\PSoC5/cmsis_gcc.h **** #endif
 325:Generated_Source\PSoC5/cmsis_gcc.h **** 
 326:Generated_Source\PSoC5/cmsis_gcc.h **** 
 327:Generated_Source\PSoC5/cmsis_gcc.h **** /**
 328:Generated_Source\PSoC5/cmsis_gcc.h ****   \brief   Set Priority Mask
 329:Generated_Source\PSoC5/cmsis_gcc.h ****   \details Assigns the given value to the Priority Mask Register.
 330:Generated_Source\PSoC5/cmsis_gcc.h ****   \param [in]    priMask  Priority Mask
 331:Generated_Source\PSoC5/cmsis_gcc.h ****  */
 332:Generated_Source\PSoC5/cmsis_gcc.h **** __attribute__((always_inline)) __STATIC_INLINE void __set_PRIMASK(uint32_t priMask)
 333:Generated_Source\PSoC5/cmsis_gcc.h **** {
ARM GAS  C:\Users\mgnocco\AppData\Local\Temp\ccOygPd6.s 			page 17


 334:Generated_Source\PSoC5/cmsis_gcc.h ****   __ASM volatile ("MSR primask, %0" : : "r" (priMask) : "memory");
 335:Generated_Source\PSoC5/cmsis_gcc.h **** }
 336:Generated_Source\PSoC5/cmsis_gcc.h **** 
 337:Generated_Source\PSoC5/cmsis_gcc.h **** 
 338:Generated_Source\PSoC5/cmsis_gcc.h **** #if (defined (__ARM_FEATURE_CMSE ) && (__ARM_FEATURE_CMSE == 3))
 339:Generated_Source\PSoC5/cmsis_gcc.h **** /**
 340:Generated_Source\PSoC5/cmsis_gcc.h ****   \brief   Set Priority Mask (non-secure)
 341:Generated_Source\PSoC5/cmsis_gcc.h ****   \details Assigns the given value to the non-secure Priority Mask Register when in secure state.
 342:Generated_Source\PSoC5/cmsis_gcc.h ****   \param [in]    priMask  Priority Mask
 343:Generated_Source\PSoC5/cmsis_gcc.h ****  */
 344:Generated_Source\PSoC5/cmsis_gcc.h **** __attribute__((always_inline)) __STATIC_INLINE void __TZ_set_PRIMASK_NS(uint32_t priMask)
 345:Generated_Source\PSoC5/cmsis_gcc.h **** {
 346:Generated_Source\PSoC5/cmsis_gcc.h ****   __ASM volatile ("MSR primask_ns, %0" : : "r" (priMask) : "memory");
 347:Generated_Source\PSoC5/cmsis_gcc.h **** }
 348:Generated_Source\PSoC5/cmsis_gcc.h **** #endif
 349:Generated_Source\PSoC5/cmsis_gcc.h **** 
 350:Generated_Source\PSoC5/cmsis_gcc.h **** 
 351:Generated_Source\PSoC5/cmsis_gcc.h **** #if ((defined (__ARM_ARCH_7M__      ) && (__ARM_ARCH_7M__      == 1)) || \
 352:Generated_Source\PSoC5/cmsis_gcc.h ****      (defined (__ARM_ARCH_7EM__     ) && (__ARM_ARCH_7EM__     == 1)) || \
 353:Generated_Source\PSoC5/cmsis_gcc.h ****      (defined (__ARM_ARCH_8M_MAIN__ ) && (__ARM_ARCH_8M_MAIN__ == 1))    )
 354:Generated_Source\PSoC5/cmsis_gcc.h **** /**
 355:Generated_Source\PSoC5/cmsis_gcc.h ****   \brief   Enable FIQ
 356:Generated_Source\PSoC5/cmsis_gcc.h ****   \details Enables FIQ interrupts by clearing the F-bit in the CPSR.
 357:Generated_Source\PSoC5/cmsis_gcc.h ****            Can only be executed in Privileged modes.
 358:Generated_Source\PSoC5/cmsis_gcc.h ****  */
 359:Generated_Source\PSoC5/cmsis_gcc.h **** __attribute__((always_inline)) __STATIC_INLINE void __enable_fault_irq(void)
 360:Generated_Source\PSoC5/cmsis_gcc.h **** {
 361:Generated_Source\PSoC5/cmsis_gcc.h ****   __ASM volatile ("cpsie f" : : : "memory");
 362:Generated_Source\PSoC5/cmsis_gcc.h **** }
 363:Generated_Source\PSoC5/cmsis_gcc.h **** 
 364:Generated_Source\PSoC5/cmsis_gcc.h **** 
 365:Generated_Source\PSoC5/cmsis_gcc.h **** /**
 366:Generated_Source\PSoC5/cmsis_gcc.h ****   \brief   Disable FIQ
 367:Generated_Source\PSoC5/cmsis_gcc.h ****   \details Disables FIQ interrupts by setting the F-bit in the CPSR.
 368:Generated_Source\PSoC5/cmsis_gcc.h ****            Can only be executed in Privileged modes.
 369:Generated_Source\PSoC5/cmsis_gcc.h ****  */
 370:Generated_Source\PSoC5/cmsis_gcc.h **** __attribute__((always_inline)) __STATIC_INLINE void __disable_fault_irq(void)
 371:Generated_Source\PSoC5/cmsis_gcc.h **** {
 372:Generated_Source\PSoC5/cmsis_gcc.h ****   __ASM volatile ("cpsid f" : : : "memory");
 373:Generated_Source\PSoC5/cmsis_gcc.h **** }
 374:Generated_Source\PSoC5/cmsis_gcc.h **** 
 375:Generated_Source\PSoC5/cmsis_gcc.h **** 
 376:Generated_Source\PSoC5/cmsis_gcc.h **** /**
 377:Generated_Source\PSoC5/cmsis_gcc.h ****   \brief   Get Base Priority
 378:Generated_Source\PSoC5/cmsis_gcc.h ****   \details Returns the current value of the Base Priority register.
 379:Generated_Source\PSoC5/cmsis_gcc.h ****   \return               Base Priority register value
 380:Generated_Source\PSoC5/cmsis_gcc.h ****  */
 381:Generated_Source\PSoC5/cmsis_gcc.h **** __attribute__((always_inline)) __STATIC_INLINE uint32_t __get_BASEPRI(void)
 382:Generated_Source\PSoC5/cmsis_gcc.h **** {
 383:Generated_Source\PSoC5/cmsis_gcc.h ****   uint32_t result;
 384:Generated_Source\PSoC5/cmsis_gcc.h **** 
 385:Generated_Source\PSoC5/cmsis_gcc.h ****   __ASM volatile ("MRS %0, basepri" : "=r" (result) );
 386:Generated_Source\PSoC5/cmsis_gcc.h ****   return(result);
 387:Generated_Source\PSoC5/cmsis_gcc.h **** }
 388:Generated_Source\PSoC5/cmsis_gcc.h **** 
 389:Generated_Source\PSoC5/cmsis_gcc.h **** 
 390:Generated_Source\PSoC5/cmsis_gcc.h **** #if (defined (__ARM_FEATURE_CMSE ) && (__ARM_FEATURE_CMSE == 3))
ARM GAS  C:\Users\mgnocco\AppData\Local\Temp\ccOygPd6.s 			page 18


 391:Generated_Source\PSoC5/cmsis_gcc.h **** /**
 392:Generated_Source\PSoC5/cmsis_gcc.h ****   \brief   Get Base Priority (non-secure)
 393:Generated_Source\PSoC5/cmsis_gcc.h ****   \details Returns the current value of the non-secure Base Priority register when in secure state.
 394:Generated_Source\PSoC5/cmsis_gcc.h ****   \return               Base Priority register value
 395:Generated_Source\PSoC5/cmsis_gcc.h ****  */
 396:Generated_Source\PSoC5/cmsis_gcc.h **** __attribute__((always_inline)) __STATIC_INLINE uint32_t __TZ_get_BASEPRI_NS(void)
 397:Generated_Source\PSoC5/cmsis_gcc.h **** {
 398:Generated_Source\PSoC5/cmsis_gcc.h ****   uint32_t result;
 399:Generated_Source\PSoC5/cmsis_gcc.h **** 
 400:Generated_Source\PSoC5/cmsis_gcc.h ****   __ASM volatile ("MRS %0, basepri_ns" : "=r" (result) );
 401:Generated_Source\PSoC5/cmsis_gcc.h ****   return(result);
 402:Generated_Source\PSoC5/cmsis_gcc.h **** }
 403:Generated_Source\PSoC5/cmsis_gcc.h **** #endif
 404:Generated_Source\PSoC5/cmsis_gcc.h **** 
 405:Generated_Source\PSoC5/cmsis_gcc.h **** 
 406:Generated_Source\PSoC5/cmsis_gcc.h **** /**
 407:Generated_Source\PSoC5/cmsis_gcc.h ****   \brief   Set Base Priority
 408:Generated_Source\PSoC5/cmsis_gcc.h ****   \details Assigns the given value to the Base Priority register.
 409:Generated_Source\PSoC5/cmsis_gcc.h ****   \param [in]    basePri  Base Priority value to set
 410:Generated_Source\PSoC5/cmsis_gcc.h ****  */
 411:Generated_Source\PSoC5/cmsis_gcc.h **** __attribute__((always_inline)) __STATIC_INLINE void __set_BASEPRI(uint32_t basePri)
 412:Generated_Source\PSoC5/cmsis_gcc.h **** {
 413:Generated_Source\PSoC5/cmsis_gcc.h ****   __ASM volatile ("MSR basepri, %0" : : "r" (basePri) : "memory");
 414:Generated_Source\PSoC5/cmsis_gcc.h **** }
 415:Generated_Source\PSoC5/cmsis_gcc.h **** 
 416:Generated_Source\PSoC5/cmsis_gcc.h **** 
 417:Generated_Source\PSoC5/cmsis_gcc.h **** #if (defined (__ARM_FEATURE_CMSE ) && (__ARM_FEATURE_CMSE == 3))
 418:Generated_Source\PSoC5/cmsis_gcc.h **** /**
 419:Generated_Source\PSoC5/cmsis_gcc.h ****   \brief   Set Base Priority (non-secure)
 420:Generated_Source\PSoC5/cmsis_gcc.h ****   \details Assigns the given value to the non-secure Base Priority register when in secure state.
 421:Generated_Source\PSoC5/cmsis_gcc.h ****   \param [in]    basePri  Base Priority value to set
 422:Generated_Source\PSoC5/cmsis_gcc.h ****  */
 423:Generated_Source\PSoC5/cmsis_gcc.h **** __attribute__((always_inline)) __STATIC_INLINE void __TZ_set_BASEPRI_NS(uint32_t basePri)
 424:Generated_Source\PSoC5/cmsis_gcc.h **** {
 425:Generated_Source\PSoC5/cmsis_gcc.h ****   __ASM volatile ("MSR basepri_ns, %0" : : "r" (basePri) : "memory");
 426:Generated_Source\PSoC5/cmsis_gcc.h **** }
 427:Generated_Source\PSoC5/cmsis_gcc.h **** #endif
 428:Generated_Source\PSoC5/cmsis_gcc.h **** 
 429:Generated_Source\PSoC5/cmsis_gcc.h **** 
 430:Generated_Source\PSoC5/cmsis_gcc.h **** /**
 431:Generated_Source\PSoC5/cmsis_gcc.h ****   \brief   Set Base Priority with condition
 432:Generated_Source\PSoC5/cmsis_gcc.h ****   \details Assigns the given value to the Base Priority register only if BASEPRI masking is disable
 433:Generated_Source\PSoC5/cmsis_gcc.h ****            or the new value increases the BASEPRI priority level.
 434:Generated_Source\PSoC5/cmsis_gcc.h ****   \param [in]    basePri  Base Priority value to set
 435:Generated_Source\PSoC5/cmsis_gcc.h ****  */
 436:Generated_Source\PSoC5/cmsis_gcc.h **** __attribute__((always_inline)) __STATIC_INLINE void __set_BASEPRI_MAX(uint32_t basePri)
 437:Generated_Source\PSoC5/cmsis_gcc.h **** {
 438:Generated_Source\PSoC5/cmsis_gcc.h ****   __ASM volatile ("MSR basepri_max, %0" : : "r" (basePri) : "memory");
 439:Generated_Source\PSoC5/cmsis_gcc.h **** }
 440:Generated_Source\PSoC5/cmsis_gcc.h **** 
 441:Generated_Source\PSoC5/cmsis_gcc.h **** 
 442:Generated_Source\PSoC5/cmsis_gcc.h **** /**
 443:Generated_Source\PSoC5/cmsis_gcc.h ****   \brief   Get Fault Mask
 444:Generated_Source\PSoC5/cmsis_gcc.h ****   \details Returns the current value of the Fault Mask register.
 445:Generated_Source\PSoC5/cmsis_gcc.h ****   \return               Fault Mask register value
 446:Generated_Source\PSoC5/cmsis_gcc.h ****  */
 447:Generated_Source\PSoC5/cmsis_gcc.h **** __attribute__((always_inline)) __STATIC_INLINE uint32_t __get_FAULTMASK(void)
ARM GAS  C:\Users\mgnocco\AppData\Local\Temp\ccOygPd6.s 			page 19


 448:Generated_Source\PSoC5/cmsis_gcc.h **** {
 449:Generated_Source\PSoC5/cmsis_gcc.h ****   uint32_t result;
 450:Generated_Source\PSoC5/cmsis_gcc.h **** 
 451:Generated_Source\PSoC5/cmsis_gcc.h ****   __ASM volatile ("MRS %0, faultmask" : "=r" (result) );
 452:Generated_Source\PSoC5/cmsis_gcc.h ****   return(result);
 453:Generated_Source\PSoC5/cmsis_gcc.h **** }
 454:Generated_Source\PSoC5/cmsis_gcc.h **** 
 455:Generated_Source\PSoC5/cmsis_gcc.h **** 
 456:Generated_Source\PSoC5/cmsis_gcc.h **** #if (defined (__ARM_FEATURE_CMSE ) && (__ARM_FEATURE_CMSE == 3))
 457:Generated_Source\PSoC5/cmsis_gcc.h **** /**
 458:Generated_Source\PSoC5/cmsis_gcc.h ****   \brief   Get Fault Mask (non-secure)
 459:Generated_Source\PSoC5/cmsis_gcc.h ****   \details Returns the current value of the non-secure Fault Mask register when in secure state.
 460:Generated_Source\PSoC5/cmsis_gcc.h ****   \return               Fault Mask register value
 461:Generated_Source\PSoC5/cmsis_gcc.h ****  */
 462:Generated_Source\PSoC5/cmsis_gcc.h **** __attribute__((always_inline)) __STATIC_INLINE uint32_t __TZ_get_FAULTMASK_NS(void)
 463:Generated_Source\PSoC5/cmsis_gcc.h **** {
 464:Generated_Source\PSoC5/cmsis_gcc.h ****   uint32_t result;
 465:Generated_Source\PSoC5/cmsis_gcc.h **** 
 466:Generated_Source\PSoC5/cmsis_gcc.h ****   __ASM volatile ("MRS %0, faultmask_ns" : "=r" (result) );
 467:Generated_Source\PSoC5/cmsis_gcc.h ****   return(result);
 468:Generated_Source\PSoC5/cmsis_gcc.h **** }
 469:Generated_Source\PSoC5/cmsis_gcc.h **** #endif
 470:Generated_Source\PSoC5/cmsis_gcc.h **** 
 471:Generated_Source\PSoC5/cmsis_gcc.h **** 
 472:Generated_Source\PSoC5/cmsis_gcc.h **** /**
 473:Generated_Source\PSoC5/cmsis_gcc.h ****   \brief   Set Fault Mask
 474:Generated_Source\PSoC5/cmsis_gcc.h ****   \details Assigns the given value to the Fault Mask register.
 475:Generated_Source\PSoC5/cmsis_gcc.h ****   \param [in]    faultMask  Fault Mask value to set
 476:Generated_Source\PSoC5/cmsis_gcc.h ****  */
 477:Generated_Source\PSoC5/cmsis_gcc.h **** __attribute__((always_inline)) __STATIC_INLINE void __set_FAULTMASK(uint32_t faultMask)
 478:Generated_Source\PSoC5/cmsis_gcc.h **** {
 479:Generated_Source\PSoC5/cmsis_gcc.h ****   __ASM volatile ("MSR faultmask, %0" : : "r" (faultMask) : "memory");
 480:Generated_Source\PSoC5/cmsis_gcc.h **** }
 481:Generated_Source\PSoC5/cmsis_gcc.h **** 
 482:Generated_Source\PSoC5/cmsis_gcc.h **** 
 483:Generated_Source\PSoC5/cmsis_gcc.h **** #if (defined (__ARM_FEATURE_CMSE ) && (__ARM_FEATURE_CMSE == 3))
 484:Generated_Source\PSoC5/cmsis_gcc.h **** /**
 485:Generated_Source\PSoC5/cmsis_gcc.h ****   \brief   Set Fault Mask (non-secure)
 486:Generated_Source\PSoC5/cmsis_gcc.h ****   \details Assigns the given value to the non-secure Fault Mask register when in secure state.
 487:Generated_Source\PSoC5/cmsis_gcc.h ****   \param [in]    faultMask  Fault Mask value to set
 488:Generated_Source\PSoC5/cmsis_gcc.h ****  */
 489:Generated_Source\PSoC5/cmsis_gcc.h **** __attribute__((always_inline)) __STATIC_INLINE void __TZ_set_FAULTMASK_NS(uint32_t faultMask)
 490:Generated_Source\PSoC5/cmsis_gcc.h **** {
 491:Generated_Source\PSoC5/cmsis_gcc.h ****   __ASM volatile ("MSR faultmask_ns, %0" : : "r" (faultMask) : "memory");
 492:Generated_Source\PSoC5/cmsis_gcc.h **** }
 493:Generated_Source\PSoC5/cmsis_gcc.h **** #endif
 494:Generated_Source\PSoC5/cmsis_gcc.h **** 
 495:Generated_Source\PSoC5/cmsis_gcc.h **** #endif /* ((defined (__ARM_ARCH_7M__      ) && (__ARM_ARCH_7M__      == 1)) || \
 496:Generated_Source\PSoC5/cmsis_gcc.h ****            (defined (__ARM_ARCH_7EM__     ) && (__ARM_ARCH_7EM__     == 1)) || \
 497:Generated_Source\PSoC5/cmsis_gcc.h ****            (defined (__ARM_ARCH_8M_MAIN__ ) && (__ARM_ARCH_8M_MAIN__ == 1))    ) */
 498:Generated_Source\PSoC5/cmsis_gcc.h **** 
 499:Generated_Source\PSoC5/cmsis_gcc.h **** 
 500:Generated_Source\PSoC5/cmsis_gcc.h **** #if ((defined (__ARM_ARCH_8M_MAIN__ ) && (__ARM_ARCH_8M_MAIN__ == 1U)) || \
 501:Generated_Source\PSoC5/cmsis_gcc.h ****      (defined (__ARM_ARCH_8M_BASE__ ) && (__ARM_ARCH_8M_BASE__ == 1U))    )
 502:Generated_Source\PSoC5/cmsis_gcc.h **** 
 503:Generated_Source\PSoC5/cmsis_gcc.h **** /**
 504:Generated_Source\PSoC5/cmsis_gcc.h ****   \brief   Get Process Stack Pointer Limit
ARM GAS  C:\Users\mgnocco\AppData\Local\Temp\ccOygPd6.s 			page 20


 505:Generated_Source\PSoC5/cmsis_gcc.h ****   \details Returns the current value of the Process Stack Pointer Limit (PSPLIM).
 506:Generated_Source\PSoC5/cmsis_gcc.h ****   \return               PSPLIM Register value
 507:Generated_Source\PSoC5/cmsis_gcc.h ****  */
 508:Generated_Source\PSoC5/cmsis_gcc.h **** __attribute__((always_inline)) __STATIC_INLINE uint32_t __get_PSPLIM(void)
 509:Generated_Source\PSoC5/cmsis_gcc.h **** {
 510:Generated_Source\PSoC5/cmsis_gcc.h ****   register uint32_t result;
 511:Generated_Source\PSoC5/cmsis_gcc.h **** 
 512:Generated_Source\PSoC5/cmsis_gcc.h ****   __ASM volatile ("MRS %0, psplim"  : "=r" (result) );
 513:Generated_Source\PSoC5/cmsis_gcc.h ****   return(result);
 514:Generated_Source\PSoC5/cmsis_gcc.h **** }
 515:Generated_Source\PSoC5/cmsis_gcc.h **** 
 516:Generated_Source\PSoC5/cmsis_gcc.h **** 
 517:Generated_Source\PSoC5/cmsis_gcc.h **** #if ((defined (__ARM_FEATURE_CMSE  ) && (__ARM_FEATURE_CMSE   == 3)) && \
 518:Generated_Source\PSoC5/cmsis_gcc.h ****      (defined (__ARM_ARCH_8M_MAIN__) && (__ARM_ARCH_8M_MAIN__ == 1))    )
 519:Generated_Source\PSoC5/cmsis_gcc.h **** /**
 520:Generated_Source\PSoC5/cmsis_gcc.h ****   \brief   Get Process Stack Pointer Limit (non-secure)
 521:Generated_Source\PSoC5/cmsis_gcc.h ****   \details Returns the current value of the non-secure Process Stack Pointer Limit (PSPLIM) when in
 522:Generated_Source\PSoC5/cmsis_gcc.h ****   \return               PSPLIM Register value
 523:Generated_Source\PSoC5/cmsis_gcc.h ****  */
 524:Generated_Source\PSoC5/cmsis_gcc.h **** __attribute__((always_inline)) __STATIC_INLINE uint32_t __TZ_get_PSPLIM_NS(void)
 525:Generated_Source\PSoC5/cmsis_gcc.h **** {
 526:Generated_Source\PSoC5/cmsis_gcc.h ****   register uint32_t result;
 527:Generated_Source\PSoC5/cmsis_gcc.h **** 
 528:Generated_Source\PSoC5/cmsis_gcc.h ****   __ASM volatile ("MRS %0, psplim_ns"  : "=r" (result) );
 529:Generated_Source\PSoC5/cmsis_gcc.h ****   return(result);
 530:Generated_Source\PSoC5/cmsis_gcc.h **** }
 531:Generated_Source\PSoC5/cmsis_gcc.h **** #endif
 532:Generated_Source\PSoC5/cmsis_gcc.h **** 
 533:Generated_Source\PSoC5/cmsis_gcc.h **** 
 534:Generated_Source\PSoC5/cmsis_gcc.h **** /**
 535:Generated_Source\PSoC5/cmsis_gcc.h ****   \brief   Set Process Stack Pointer Limit
 536:Generated_Source\PSoC5/cmsis_gcc.h ****   \details Assigns the given value to the Process Stack Pointer Limit (PSPLIM).
 537:Generated_Source\PSoC5/cmsis_gcc.h ****   \param [in]    ProcStackPtrLimit  Process Stack Pointer Limit value to set
 538:Generated_Source\PSoC5/cmsis_gcc.h ****  */
 539:Generated_Source\PSoC5/cmsis_gcc.h **** __attribute__((always_inline)) __STATIC_INLINE void __set_PSPLIM(uint32_t ProcStackPtrLimit)
 540:Generated_Source\PSoC5/cmsis_gcc.h **** {
 541:Generated_Source\PSoC5/cmsis_gcc.h ****   __ASM volatile ("MSR psplim, %0" : : "r" (ProcStackPtrLimit));
 542:Generated_Source\PSoC5/cmsis_gcc.h **** }
 543:Generated_Source\PSoC5/cmsis_gcc.h **** 
 544:Generated_Source\PSoC5/cmsis_gcc.h **** 
 545:Generated_Source\PSoC5/cmsis_gcc.h **** #if ((defined (__ARM_FEATURE_CMSE  ) && (__ARM_FEATURE_CMSE   == 3)) && \
 546:Generated_Source\PSoC5/cmsis_gcc.h ****      (defined (__ARM_ARCH_8M_MAIN__) && (__ARM_ARCH_8M_MAIN__ == 1))    )
 547:Generated_Source\PSoC5/cmsis_gcc.h **** /**
 548:Generated_Source\PSoC5/cmsis_gcc.h ****   \brief   Set Process Stack Pointer (non-secure)
 549:Generated_Source\PSoC5/cmsis_gcc.h ****   \details Assigns the given value to the non-secure Process Stack Pointer Limit (PSPLIM) when in s
 550:Generated_Source\PSoC5/cmsis_gcc.h ****   \param [in]    ProcStackPtrLimit  Process Stack Pointer Limit value to set
 551:Generated_Source\PSoC5/cmsis_gcc.h ****  */
 552:Generated_Source\PSoC5/cmsis_gcc.h **** __attribute__((always_inline)) __STATIC_INLINE void __TZ_set_PSPLIM_NS(uint32_t ProcStackPtrLimit)
 553:Generated_Source\PSoC5/cmsis_gcc.h **** {
 554:Generated_Source\PSoC5/cmsis_gcc.h ****   __ASM volatile ("MSR psplim_ns, %0\n" : : "r" (ProcStackPtrLimit));
 555:Generated_Source\PSoC5/cmsis_gcc.h **** }
 556:Generated_Source\PSoC5/cmsis_gcc.h **** #endif
 557:Generated_Source\PSoC5/cmsis_gcc.h **** 
 558:Generated_Source\PSoC5/cmsis_gcc.h **** 
 559:Generated_Source\PSoC5/cmsis_gcc.h **** /**
 560:Generated_Source\PSoC5/cmsis_gcc.h ****   \brief   Get Main Stack Pointer Limit
 561:Generated_Source\PSoC5/cmsis_gcc.h ****   \details Returns the current value of the Main Stack Pointer Limit (MSPLIM).
ARM GAS  C:\Users\mgnocco\AppData\Local\Temp\ccOygPd6.s 			page 21


 562:Generated_Source\PSoC5/cmsis_gcc.h ****   \return               MSPLIM Register value
 563:Generated_Source\PSoC5/cmsis_gcc.h ****  */
 564:Generated_Source\PSoC5/cmsis_gcc.h **** __attribute__((always_inline)) __STATIC_INLINE uint32_t __get_MSPLIM(void)
 565:Generated_Source\PSoC5/cmsis_gcc.h **** {
 566:Generated_Source\PSoC5/cmsis_gcc.h ****   register uint32_t result;
 567:Generated_Source\PSoC5/cmsis_gcc.h **** 
 568:Generated_Source\PSoC5/cmsis_gcc.h ****   __ASM volatile ("MRS %0, msplim" : "=r" (result) );
 569:Generated_Source\PSoC5/cmsis_gcc.h **** 
 570:Generated_Source\PSoC5/cmsis_gcc.h ****   return(result);
 571:Generated_Source\PSoC5/cmsis_gcc.h **** }
 572:Generated_Source\PSoC5/cmsis_gcc.h **** 
 573:Generated_Source\PSoC5/cmsis_gcc.h **** 
 574:Generated_Source\PSoC5/cmsis_gcc.h **** #if ((defined (__ARM_FEATURE_CMSE  ) && (__ARM_FEATURE_CMSE   == 3)) && \
 575:Generated_Source\PSoC5/cmsis_gcc.h ****      (defined (__ARM_ARCH_8M_MAIN__) && (__ARM_ARCH_8M_MAIN__ == 1))    )
 576:Generated_Source\PSoC5/cmsis_gcc.h **** /**
 577:Generated_Source\PSoC5/cmsis_gcc.h ****   \brief   Get Main Stack Pointer Limit (non-secure)
 578:Generated_Source\PSoC5/cmsis_gcc.h ****   \details Returns the current value of the non-secure Main Stack Pointer Limit(MSPLIM) when in sec
 579:Generated_Source\PSoC5/cmsis_gcc.h ****   \return               MSPLIM Register value
 580:Generated_Source\PSoC5/cmsis_gcc.h ****  */
 581:Generated_Source\PSoC5/cmsis_gcc.h **** __attribute__((always_inline)) __STATIC_INLINE uint32_t __TZ_get_MSPLIM_NS(void)
 582:Generated_Source\PSoC5/cmsis_gcc.h **** {
 583:Generated_Source\PSoC5/cmsis_gcc.h ****   register uint32_t result;
 584:Generated_Source\PSoC5/cmsis_gcc.h **** 
 585:Generated_Source\PSoC5/cmsis_gcc.h ****   __ASM volatile ("MRS %0, msplim_ns" : "=r" (result) );
 586:Generated_Source\PSoC5/cmsis_gcc.h ****   return(result);
 587:Generated_Source\PSoC5/cmsis_gcc.h **** }
 588:Generated_Source\PSoC5/cmsis_gcc.h **** #endif
 589:Generated_Source\PSoC5/cmsis_gcc.h **** 
 590:Generated_Source\PSoC5/cmsis_gcc.h **** 
 591:Generated_Source\PSoC5/cmsis_gcc.h **** /**
 592:Generated_Source\PSoC5/cmsis_gcc.h ****   \brief   Set Main Stack Pointer Limit
 593:Generated_Source\PSoC5/cmsis_gcc.h ****   \details Assigns the given value to the Main Stack Pointer Limit (MSPLIM).
 594:Generated_Source\PSoC5/cmsis_gcc.h ****   \param [in]    MainStackPtrLimit  Main Stack Pointer Limit value to set
 595:Generated_Source\PSoC5/cmsis_gcc.h ****  */
 596:Generated_Source\PSoC5/cmsis_gcc.h **** __attribute__((always_inline)) __STATIC_INLINE void __set_MSPLIM(uint32_t MainStackPtrLimit)
 597:Generated_Source\PSoC5/cmsis_gcc.h **** {
 598:Generated_Source\PSoC5/cmsis_gcc.h ****   __ASM volatile ("MSR msplim, %0" : : "r" (MainStackPtrLimit));
 599:Generated_Source\PSoC5/cmsis_gcc.h **** }
 600:Generated_Source\PSoC5/cmsis_gcc.h **** 
 601:Generated_Source\PSoC5/cmsis_gcc.h **** 
 602:Generated_Source\PSoC5/cmsis_gcc.h **** #if ((defined (__ARM_FEATURE_CMSE  ) && (__ARM_FEATURE_CMSE   == 3)) && \
 603:Generated_Source\PSoC5/cmsis_gcc.h ****      (defined (__ARM_ARCH_8M_MAIN__) && (__ARM_ARCH_8M_MAIN__ == 1))    )
 604:Generated_Source\PSoC5/cmsis_gcc.h **** /**
 605:Generated_Source\PSoC5/cmsis_gcc.h ****   \brief   Set Main Stack Pointer Limit (non-secure)
 606:Generated_Source\PSoC5/cmsis_gcc.h ****   \details Assigns the given value to the non-secure Main Stack Pointer Limit (MSPLIM) when in secu
 607:Generated_Source\PSoC5/cmsis_gcc.h ****   \param [in]    MainStackPtrLimit  Main Stack Pointer value to set
 608:Generated_Source\PSoC5/cmsis_gcc.h ****  */
 609:Generated_Source\PSoC5/cmsis_gcc.h **** __attribute__((always_inline)) __STATIC_INLINE void __TZ_set_MSPLIM_NS(uint32_t MainStackPtrLimit)
 610:Generated_Source\PSoC5/cmsis_gcc.h **** {
 611:Generated_Source\PSoC5/cmsis_gcc.h ****   __ASM volatile ("MSR msplim_ns, %0" : : "r" (MainStackPtrLimit));
 612:Generated_Source\PSoC5/cmsis_gcc.h **** }
 613:Generated_Source\PSoC5/cmsis_gcc.h **** #endif
 614:Generated_Source\PSoC5/cmsis_gcc.h **** 
 615:Generated_Source\PSoC5/cmsis_gcc.h **** #endif /* ((defined (__ARM_ARCH_8M_MAIN__ ) && (__ARM_ARCH_8M_MAIN__ == 1U)) || \
 616:Generated_Source\PSoC5/cmsis_gcc.h ****            (defined (__ARM_ARCH_8M_BASE__ ) && (__ARM_ARCH_8M_BASE__ == 1U))    ) */
 617:Generated_Source\PSoC5/cmsis_gcc.h **** 
 618:Generated_Source\PSoC5/cmsis_gcc.h **** 
ARM GAS  C:\Users\mgnocco\AppData\Local\Temp\ccOygPd6.s 			page 22


 619:Generated_Source\PSoC5/cmsis_gcc.h **** #if ((defined (__ARM_ARCH_7EM__     ) && (__ARM_ARCH_7EM__     == 1)) || \
 620:Generated_Source\PSoC5/cmsis_gcc.h ****      (defined (__ARM_ARCH_8M_MAIN__ ) && (__ARM_ARCH_8M_MAIN__ == 1))    )
 621:Generated_Source\PSoC5/cmsis_gcc.h **** 
 622:Generated_Source\PSoC5/cmsis_gcc.h **** /**
 623:Generated_Source\PSoC5/cmsis_gcc.h ****   \brief   Get FPSCR
 624:Generated_Source\PSoC5/cmsis_gcc.h ****   \details Returns the current value of the Floating Point Status/Control register.
 625:Generated_Source\PSoC5/cmsis_gcc.h ****   \return               Floating Point Status/Control register value
 626:Generated_Source\PSoC5/cmsis_gcc.h ****  */
 627:Generated_Source\PSoC5/cmsis_gcc.h **** __attribute__((always_inline)) __STATIC_INLINE uint32_t __get_FPSCR(void)
 628:Generated_Source\PSoC5/cmsis_gcc.h **** {
 629:Generated_Source\PSoC5/cmsis_gcc.h **** #if ((defined (__FPU_PRESENT) && (__FPU_PRESENT == 1U)) && \
 630:Generated_Source\PSoC5/cmsis_gcc.h ****      (defined (__FPU_USED   ) && (__FPU_USED    == 1U))     )
 631:Generated_Source\PSoC5/cmsis_gcc.h ****   uint32_t result;
 632:Generated_Source\PSoC5/cmsis_gcc.h **** 
 633:Generated_Source\PSoC5/cmsis_gcc.h ****   __ASM volatile ("");                                 /* Empty asm statement works as a scheduling
 634:Generated_Source\PSoC5/cmsis_gcc.h ****   __ASM volatile ("VMRS %0, fpscr" : "=r" (result) );
 635:Generated_Source\PSoC5/cmsis_gcc.h ****   __ASM volatile ("");
 636:Generated_Source\PSoC5/cmsis_gcc.h ****   return(result);
 637:Generated_Source\PSoC5/cmsis_gcc.h **** #else
 638:Generated_Source\PSoC5/cmsis_gcc.h ****    return(0U);
 639:Generated_Source\PSoC5/cmsis_gcc.h **** #endif
 640:Generated_Source\PSoC5/cmsis_gcc.h **** }
 641:Generated_Source\PSoC5/cmsis_gcc.h **** 
 642:Generated_Source\PSoC5/cmsis_gcc.h **** 
 643:Generated_Source\PSoC5/cmsis_gcc.h **** /**
 644:Generated_Source\PSoC5/cmsis_gcc.h ****   \brief   Set FPSCR
 645:Generated_Source\PSoC5/cmsis_gcc.h ****   \details Assigns the given value to the Floating Point Status/Control register.
 646:Generated_Source\PSoC5/cmsis_gcc.h ****   \param [in]    fpscr  Floating Point Status/Control value to set
 647:Generated_Source\PSoC5/cmsis_gcc.h ****  */
 648:Generated_Source\PSoC5/cmsis_gcc.h **** __attribute__((always_inline)) __STATIC_INLINE void __set_FPSCR(uint32_t fpscr)
 649:Generated_Source\PSoC5/cmsis_gcc.h **** {
 650:Generated_Source\PSoC5/cmsis_gcc.h **** #if ((defined (__FPU_PRESENT) && (__FPU_PRESENT == 1U)) && \
 651:Generated_Source\PSoC5/cmsis_gcc.h ****      (defined (__FPU_USED   ) && (__FPU_USED    == 1U))     )
 652:Generated_Source\PSoC5/cmsis_gcc.h ****   __ASM volatile ("");                                           /* Empty asm statement works as a 
 653:Generated_Source\PSoC5/cmsis_gcc.h ****   __ASM volatile ("VMSR fpscr, %0" : : "r" (fpscr) : "vfpcc");
 654:Generated_Source\PSoC5/cmsis_gcc.h ****   __ASM volatile ("");
 655:Generated_Source\PSoC5/cmsis_gcc.h **** #endif
 656:Generated_Source\PSoC5/cmsis_gcc.h **** }
 657:Generated_Source\PSoC5/cmsis_gcc.h **** 
 658:Generated_Source\PSoC5/cmsis_gcc.h **** #endif /* ((defined (__ARM_ARCH_7EM__     ) && (__ARM_ARCH_7EM__     == 1)) || \
 659:Generated_Source\PSoC5/cmsis_gcc.h ****            (defined (__ARM_ARCH_8M_MAIN__ ) && (__ARM_ARCH_8M_MAIN__ == 1))    ) */
 660:Generated_Source\PSoC5/cmsis_gcc.h **** 
 661:Generated_Source\PSoC5/cmsis_gcc.h **** 
 662:Generated_Source\PSoC5/cmsis_gcc.h **** 
 663:Generated_Source\PSoC5/cmsis_gcc.h **** /*@} end of CMSIS_Core_RegAccFunctions */
 664:Generated_Source\PSoC5/cmsis_gcc.h **** 
 665:Generated_Source\PSoC5/cmsis_gcc.h **** 
 666:Generated_Source\PSoC5/cmsis_gcc.h **** /* ##########################  Core Instruction Access  ######################### */
 667:Generated_Source\PSoC5/cmsis_gcc.h **** /** \defgroup CMSIS_Core_InstructionInterface CMSIS Core Instruction Interface
 668:Generated_Source\PSoC5/cmsis_gcc.h ****   Access to dedicated instructions
 669:Generated_Source\PSoC5/cmsis_gcc.h ****   @{
 670:Generated_Source\PSoC5/cmsis_gcc.h **** */
 671:Generated_Source\PSoC5/cmsis_gcc.h **** 
 672:Generated_Source\PSoC5/cmsis_gcc.h **** /* Define macros for porting to both thumb1 and thumb2.
 673:Generated_Source\PSoC5/cmsis_gcc.h ****  * For thumb1, use low register (r0-r7), specified by constraint "l"
 674:Generated_Source\PSoC5/cmsis_gcc.h ****  * Otherwise, use general registers, specified by constraint "r" */
 675:Generated_Source\PSoC5/cmsis_gcc.h **** #if defined (__thumb__) && !defined (__thumb2__)
ARM GAS  C:\Users\mgnocco\AppData\Local\Temp\ccOygPd6.s 			page 23


 676:Generated_Source\PSoC5/cmsis_gcc.h **** #define __CMSIS_GCC_OUT_REG(r) "=l" (r)
 677:Generated_Source\PSoC5/cmsis_gcc.h **** #define __CMSIS_GCC_RW_REG(r) "+l" (r)
 678:Generated_Source\PSoC5/cmsis_gcc.h **** #define __CMSIS_GCC_USE_REG(r) "l" (r)
 679:Generated_Source\PSoC5/cmsis_gcc.h **** #else
 680:Generated_Source\PSoC5/cmsis_gcc.h **** #define __CMSIS_GCC_OUT_REG(r) "=r" (r)
 681:Generated_Source\PSoC5/cmsis_gcc.h **** #define __CMSIS_GCC_RW_REG(r) "+r" (r)
 682:Generated_Source\PSoC5/cmsis_gcc.h **** #define __CMSIS_GCC_USE_REG(r) "r" (r)
 683:Generated_Source\PSoC5/cmsis_gcc.h **** #endif
 684:Generated_Source\PSoC5/cmsis_gcc.h **** 
 685:Generated_Source\PSoC5/cmsis_gcc.h **** /**
 686:Generated_Source\PSoC5/cmsis_gcc.h ****   \brief   No Operation
 687:Generated_Source\PSoC5/cmsis_gcc.h ****   \details No Operation does nothing. This instruction can be used for code alignment purposes.
 688:Generated_Source\PSoC5/cmsis_gcc.h ****  */
 689:Generated_Source\PSoC5/cmsis_gcc.h **** //__attribute__((always_inline)) __STATIC_INLINE void __NOP(void)
 690:Generated_Source\PSoC5/cmsis_gcc.h **** //{
 691:Generated_Source\PSoC5/cmsis_gcc.h **** //  __ASM volatile ("nop");
 692:Generated_Source\PSoC5/cmsis_gcc.h **** //}
 693:Generated_Source\PSoC5/cmsis_gcc.h **** #define __NOP()                             __ASM volatile ("nop")       /* This implementation gen
 694:Generated_Source\PSoC5/cmsis_gcc.h **** 
 695:Generated_Source\PSoC5/cmsis_gcc.h **** /**
 696:Generated_Source\PSoC5/cmsis_gcc.h ****   \brief   Wait For Interrupt
 697:Generated_Source\PSoC5/cmsis_gcc.h ****   \details Wait For Interrupt is a hint instruction that suspends execution until one of a number o
 698:Generated_Source\PSoC5/cmsis_gcc.h ****  */
 699:Generated_Source\PSoC5/cmsis_gcc.h **** //__attribute__((always_inline)) __STATIC_INLINE void __WFI(void)
 700:Generated_Source\PSoC5/cmsis_gcc.h **** //{
 701:Generated_Source\PSoC5/cmsis_gcc.h **** //  __ASM volatile ("wfi");
 702:Generated_Source\PSoC5/cmsis_gcc.h **** //}
 703:Generated_Source\PSoC5/cmsis_gcc.h **** #define __WFI()                             __ASM volatile ("wfi")       /* This implementation gen
 704:Generated_Source\PSoC5/cmsis_gcc.h **** 
 705:Generated_Source\PSoC5/cmsis_gcc.h **** 
 706:Generated_Source\PSoC5/cmsis_gcc.h **** /**
 707:Generated_Source\PSoC5/cmsis_gcc.h ****   \brief   Wait For Event
 708:Generated_Source\PSoC5/cmsis_gcc.h ****   \details Wait For Event is a hint instruction that permits the processor to enter
 709:Generated_Source\PSoC5/cmsis_gcc.h ****            a low-power state until one of a number of events occurs.
 710:Generated_Source\PSoC5/cmsis_gcc.h ****  */
 711:Generated_Source\PSoC5/cmsis_gcc.h **** //__attribute__((always_inline)) __STATIC_INLINE void __WFE(void)
 712:Generated_Source\PSoC5/cmsis_gcc.h **** //{
 713:Generated_Source\PSoC5/cmsis_gcc.h **** //  __ASM volatile ("wfe");
 714:Generated_Source\PSoC5/cmsis_gcc.h **** //}
 715:Generated_Source\PSoC5/cmsis_gcc.h **** #define __WFE()                             __ASM volatile ("wfe")       /* This implementation gen
 716:Generated_Source\PSoC5/cmsis_gcc.h **** 
 717:Generated_Source\PSoC5/cmsis_gcc.h **** 
 718:Generated_Source\PSoC5/cmsis_gcc.h **** /**
 719:Generated_Source\PSoC5/cmsis_gcc.h ****   \brief   Send Event
 720:Generated_Source\PSoC5/cmsis_gcc.h ****   \details Send Event is a hint instruction. It causes an event to be signaled to the CPU.
 721:Generated_Source\PSoC5/cmsis_gcc.h ****  */
 722:Generated_Source\PSoC5/cmsis_gcc.h **** //__attribute__((always_inline)) __STATIC_INLINE void __SEV(void)
 723:Generated_Source\PSoC5/cmsis_gcc.h **** //{
 724:Generated_Source\PSoC5/cmsis_gcc.h **** //  __ASM volatile ("sev");
 725:Generated_Source\PSoC5/cmsis_gcc.h **** //}
 726:Generated_Source\PSoC5/cmsis_gcc.h **** #define __SEV()                             __ASM volatile ("sev")       /* This implementation gen
 727:Generated_Source\PSoC5/cmsis_gcc.h **** 
 728:Generated_Source\PSoC5/cmsis_gcc.h **** 
 729:Generated_Source\PSoC5/cmsis_gcc.h **** /**
 730:Generated_Source\PSoC5/cmsis_gcc.h ****   \brief   Instruction Synchronization Barrier
 731:Generated_Source\PSoC5/cmsis_gcc.h ****   \details Instruction Synchronization Barrier flushes the pipeline in the processor,
 732:Generated_Source\PSoC5/cmsis_gcc.h ****            so that all instructions following the ISB are fetched from cache or memory,
ARM GAS  C:\Users\mgnocco\AppData\Local\Temp\ccOygPd6.s 			page 24


 733:Generated_Source\PSoC5/cmsis_gcc.h ****            after the instruction has been completed.
 734:Generated_Source\PSoC5/cmsis_gcc.h ****  */
 735:Generated_Source\PSoC5/cmsis_gcc.h **** __attribute__((always_inline)) __STATIC_INLINE void __ISB(void)
 736:Generated_Source\PSoC5/cmsis_gcc.h **** {
 737:Generated_Source\PSoC5/cmsis_gcc.h ****   __ASM volatile ("isb 0xF":::"memory");
 738:Generated_Source\PSoC5/cmsis_gcc.h **** }
 739:Generated_Source\PSoC5/cmsis_gcc.h **** 
 740:Generated_Source\PSoC5/cmsis_gcc.h **** 
 741:Generated_Source\PSoC5/cmsis_gcc.h **** /**
 742:Generated_Source\PSoC5/cmsis_gcc.h ****   \brief   Data Synchronization Barrier
 743:Generated_Source\PSoC5/cmsis_gcc.h ****   \details Acts as a special kind of Data Memory Barrier.
 744:Generated_Source\PSoC5/cmsis_gcc.h ****            It completes when all explicit memory accesses before this instruction complete.
 745:Generated_Source\PSoC5/cmsis_gcc.h ****  */
 746:Generated_Source\PSoC5/cmsis_gcc.h **** __attribute__((always_inline)) __STATIC_INLINE void __DSB(void)
 747:Generated_Source\PSoC5/cmsis_gcc.h **** {
 748:Generated_Source\PSoC5/cmsis_gcc.h ****   __ASM volatile ("dsb 0xF":::"memory");
 749:Generated_Source\PSoC5/cmsis_gcc.h **** }
 750:Generated_Source\PSoC5/cmsis_gcc.h **** 
 751:Generated_Source\PSoC5/cmsis_gcc.h **** 
 752:Generated_Source\PSoC5/cmsis_gcc.h **** /**
 753:Generated_Source\PSoC5/cmsis_gcc.h ****   \brief   Data Memory Barrier
 754:Generated_Source\PSoC5/cmsis_gcc.h ****   \details Ensures the apparent order of the explicit memory operations before
 755:Generated_Source\PSoC5/cmsis_gcc.h ****            and after the instruction, without ensuring their completion.
 756:Generated_Source\PSoC5/cmsis_gcc.h ****  */
 757:Generated_Source\PSoC5/cmsis_gcc.h **** __attribute__((always_inline)) __STATIC_INLINE void __DMB(void)
 758:Generated_Source\PSoC5/cmsis_gcc.h **** {
 759:Generated_Source\PSoC5/cmsis_gcc.h ****   __ASM volatile ("dmb 0xF":::"memory");
 760:Generated_Source\PSoC5/cmsis_gcc.h **** }
 761:Generated_Source\PSoC5/cmsis_gcc.h **** 
 762:Generated_Source\PSoC5/cmsis_gcc.h **** 
 763:Generated_Source\PSoC5/cmsis_gcc.h **** /**
 764:Generated_Source\PSoC5/cmsis_gcc.h ****   \brief   Reverse byte order (32 bit)
 765:Generated_Source\PSoC5/cmsis_gcc.h ****   \details Reverses the byte order in integer value.
 766:Generated_Source\PSoC5/cmsis_gcc.h ****   \param [in]    value  Value to reverse
 767:Generated_Source\PSoC5/cmsis_gcc.h ****   \return               Reversed value
 768:Generated_Source\PSoC5/cmsis_gcc.h ****  */
 769:Generated_Source\PSoC5/cmsis_gcc.h **** __attribute__((always_inline)) __STATIC_INLINE uint32_t __REV(uint32_t value)
 770:Generated_Source\PSoC5/cmsis_gcc.h **** {
 771:Generated_Source\PSoC5/cmsis_gcc.h **** #if (__GNUC__ > 4) || (__GNUC__ == 4 && __GNUC_MINOR__ >= 5)
 772:Generated_Source\PSoC5/cmsis_gcc.h ****   return __builtin_bswap32(value);
 773:Generated_Source\PSoC5/cmsis_gcc.h **** #else
 774:Generated_Source\PSoC5/cmsis_gcc.h ****   uint32_t result;
 775:Generated_Source\PSoC5/cmsis_gcc.h **** 
 776:Generated_Source\PSoC5/cmsis_gcc.h ****   __ASM volatile ("rev %0, %1" : __CMSIS_GCC_OUT_REG (result) : __CMSIS_GCC_USE_REG (value) );
 777:Generated_Source\PSoC5/cmsis_gcc.h ****   return(result);
 778:Generated_Source\PSoC5/cmsis_gcc.h **** #endif
 779:Generated_Source\PSoC5/cmsis_gcc.h **** }
 780:Generated_Source\PSoC5/cmsis_gcc.h **** 
 781:Generated_Source\PSoC5/cmsis_gcc.h **** 
 782:Generated_Source\PSoC5/cmsis_gcc.h **** /**
 783:Generated_Source\PSoC5/cmsis_gcc.h ****   \brief   Reverse byte order (16 bit)
 784:Generated_Source\PSoC5/cmsis_gcc.h ****   \details Reverses the byte order in two unsigned short values.
 785:Generated_Source\PSoC5/cmsis_gcc.h ****   \param [in]    value  Value to reverse
 786:Generated_Source\PSoC5/cmsis_gcc.h ****   \return               Reversed value
 787:Generated_Source\PSoC5/cmsis_gcc.h ****  */
 788:Generated_Source\PSoC5/cmsis_gcc.h **** __attribute__((always_inline)) __STATIC_INLINE uint32_t __REV16(uint32_t value)
 789:Generated_Source\PSoC5/cmsis_gcc.h **** {
ARM GAS  C:\Users\mgnocco\AppData\Local\Temp\ccOygPd6.s 			page 25


 790:Generated_Source\PSoC5/cmsis_gcc.h ****   uint32_t result;
 791:Generated_Source\PSoC5/cmsis_gcc.h **** 
 792:Generated_Source\PSoC5/cmsis_gcc.h ****   __ASM volatile ("rev16 %0, %1" : __CMSIS_GCC_OUT_REG (result) : __CMSIS_GCC_USE_REG (value) );
 418              		.loc 2 792 0
 419 049a BB69     		ldr	r3, [r7, #24]
 420              		.syntax unified
 421              	@ 792 "Generated_Source\PSoC5/cmsis_gcc.h" 1
 422 049c 5BBA     		rev16 r3, r3
 423              	@ 0 "" 2
 424              		.thumb
 425              		.syntax unified
 426 049e 7B61     		str	r3, [r7, #20]
 793:Generated_Source\PSoC5/cmsis_gcc.h ****   return(result);
 427              		.loc 2 793 0
 428 04a0 7B69     		ldr	r3, [r7, #20]
 429              	.LBE13:
 430              	.LBE12:
 431              		.loc 1 162 0
 432 04a2 9BB2     		uxth	r3, r3
 433 04a4 1846     		mov	r0, r3
 434 04a6 FFF7FEFF 		bl	infoGet
 163:..\src/command_processing.c ****             break;
 435              		.loc 1 163 0
 436 04aa 82E0     		b	.L1
 437              	.L7:
 164:..\src/command_processing.c **** 
 165:..\src/command_processing.c **** //============================================================     CMD_SET_PARAM
 166:..\src/command_processing.c **** 
 167:..\src/command_processing.c ****         case CMD_SET_ZEROS:
 168:..\src/command_processing.c ****             setZeros();
 438              		.loc 1 168 0
 439 04ac FFF7FEFF 		bl	setZeros
 169:..\src/command_processing.c ****             break;
 440              		.loc 1 169 0
 441 04b0 7FE0     		b	.L1
 442              	.L14:
 170:..\src/command_processing.c **** 
 171:..\src/command_processing.c **** //============================================================     CMD_GET_PARAM
 172:..\src/command_processing.c **** 
 173:..\src/command_processing.c ****         case CMD_GET_PARAM_LIST:
 174:..\src/command_processing.c ****             manage_param_list( __REV16(*((uint16 *) &g_rx.buffer[1])),TRUE );
 443              		.loc 1 174 0
 444 04b2 414B     		ldr	r3, .L52
 445 04b4 1B88     		ldrh	r3, [r3]
 446 04b6 BB62     		str	r3, [r7, #40]
 447              	.LBB14:
 448              	.LBB15:
 792:Generated_Source\PSoC5/cmsis_gcc.h ****   return(result);
 449              		.loc 2 792 0
 450 04b8 BB6A     		ldr	r3, [r7, #40]
 451              		.syntax unified
 452              	@ 792 "Generated_Source\PSoC5/cmsis_gcc.h" 1
 453 04ba 5BBA     		rev16 r3, r3
 454              	@ 0 "" 2
 455              		.thumb
 456              		.syntax unified
 457 04bc 3B61     		str	r3, [r7, #16]
ARM GAS  C:\Users\mgnocco\AppData\Local\Temp\ccOygPd6.s 			page 26


 458              		.loc 2 793 0
 459 04be 3B69     		ldr	r3, [r7, #16]
 460              	.LBE15:
 461              	.LBE14:
 462              		.loc 1 174 0
 463 04c0 9BB2     		uxth	r3, r3
 464 04c2 0121     		movs	r1, #1
 465 04c4 1846     		mov	r0, r3
 466 04c6 FFF7FEFF 		bl	manage_param_list
 175:..\src/command_processing.c ****             break;
 467              		.loc 1 175 0
 468 04ca 72E0     		b	.L1
 469              	.L5:
 176:..\src/command_processing.c **** 
 177:..\src/command_processing.c **** //=================================================================     CMD_PING
 178:..\src/command_processing.c ****             
 179:..\src/command_processing.c ****         case CMD_PING:
 180:..\src/command_processing.c ****             cmd_ping();
 470              		.loc 1 180 0
 471 04cc FFF7FEFF 		bl	cmd_ping
 181:..\src/command_processing.c ****             break;
 472              		.loc 1 181 0
 473 04d0 6FE0     		b	.L1
 474              	.L8:
 182:..\src/command_processing.c **** 
 183:..\src/command_processing.c **** //=========================================================     CMD_STORE_PARAMS
 184:..\src/command_processing.c ****             
 185:..\src/command_processing.c ****         case CMD_STORE_PARAMS:
 186:..\src/command_processing.c ****             cmd_store_params();
 475              		.loc 1 186 0
 476 04d2 FFF7FEFF 		bl	cmd_store_params
 187:..\src/command_processing.c ****             break;
 477              		.loc 1 187 0
 478 04d6 6CE0     		b	.L1
 479              	.L9:
 188:..\src/command_processing.c **** 
 189:..\src/command_processing.c **** //=================================================     CMD_STORE_DEFAULT_PARAMS
 190:..\src/command_processing.c **** 
 191:..\src/command_processing.c ****         case CMD_STORE_DEFAULT_PARAMS:
 192:..\src/command_processing.c ****             if(memStore(DEFAULT_EEPROM_DISPLACEMENT))
 480              		.loc 1 192 0
 481 04d8 3220     		movs	r0, #50
 482 04da FFF7FEFF 		bl	memStore
 483 04de 0346     		mov	r3, r0
 484 04e0 002B     		cmp	r3, #0
 485 04e2 03D0     		beq	.L40
 193:..\src/command_processing.c ****                 sendAcknowledgment(ACK_OK);
 486              		.loc 1 193 0
 487 04e4 0120     		movs	r0, #1
 488 04e6 FFF7FEFF 		bl	sendAcknowledgment
 194:..\src/command_processing.c ****             else
 195:..\src/command_processing.c ****                 sendAcknowledgment(ACK_ERROR);
 196:..\src/command_processing.c ****             break;
 489              		.loc 1 196 0
 490 04ea 62E0     		b	.L1
 491              	.L40:
 195:..\src/command_processing.c ****             break;
ARM GAS  C:\Users\mgnocco\AppData\Local\Temp\ccOygPd6.s 			page 27


 492              		.loc 1 195 0
 493 04ec 0020     		movs	r0, #0
 494 04ee FFF7FEFF 		bl	sendAcknowledgment
 495              		.loc 1 196 0
 496 04f2 5EE0     		b	.L1
 497              	.L10:
 197:..\src/command_processing.c **** 
 198:..\src/command_processing.c **** //=======================================================     CMD_RESTORE_PARAMS
 199:..\src/command_processing.c **** 
 200:..\src/command_processing.c ****         case CMD_RESTORE_PARAMS:
 201:..\src/command_processing.c ****             if(memRestore())
 498              		.loc 1 201 0
 499 04f4 FFF7FEFF 		bl	memRestore
 500 04f8 0346     		mov	r3, r0
 501 04fa 002B     		cmp	r3, #0
 502 04fc 03D0     		beq	.L42
 202:..\src/command_processing.c ****                 sendAcknowledgment(ACK_OK);
 503              		.loc 1 202 0
 504 04fe 0120     		movs	r0, #1
 505 0500 FFF7FEFF 		bl	sendAcknowledgment
 203:..\src/command_processing.c ****             else
 204:..\src/command_processing.c ****                 sendAcknowledgment(ACK_ERROR);
 205:..\src/command_processing.c ****             break;
 506              		.loc 1 205 0
 507 0504 55E0     		b	.L1
 508              	.L42:
 204:..\src/command_processing.c ****             break;
 509              		.loc 1 204 0
 510 0506 0020     		movs	r0, #0
 511 0508 FFF7FEFF 		bl	sendAcknowledgment
 512              		.loc 1 205 0
 513 050c 51E0     		b	.L1
 514              	.L13:
 206:..\src/command_processing.c **** 
 207:..\src/command_processing.c **** //=============================================================     CMD_INIT_MEM
 208:..\src/command_processing.c **** 
 209:..\src/command_processing.c ****         case CMD_INIT_MEM:            
 210:..\src/command_processing.c ****             if(memInit())
 515              		.loc 1 210 0
 516 050e FFF7FEFF 		bl	memInit
 517 0512 0346     		mov	r3, r0
 518 0514 002B     		cmp	r3, #0
 519 0516 03D0     		beq	.L44
 211:..\src/command_processing.c ****                 sendAcknowledgment(ACK_OK);
 520              		.loc 1 211 0
 521 0518 0120     		movs	r0, #1
 522 051a FFF7FEFF 		bl	sendAcknowledgment
 212:..\src/command_processing.c ****             else
 213:..\src/command_processing.c ****                 sendAcknowledgment(ACK_ERROR);
 214:..\src/command_processing.c ****             break;
 523              		.loc 1 214 0
 524 051e 48E0     		b	.L1
 525              	.L44:
 213:..\src/command_processing.c ****             break;
 526              		.loc 1 213 0
 527 0520 0020     		movs	r0, #0
 528 0522 FFF7FEFF 		bl	sendAcknowledgment
ARM GAS  C:\Users\mgnocco\AppData\Local\Temp\ccOygPd6.s 			page 28


 529              		.loc 1 214 0
 530 0526 44E0     		b	.L1
 531              	.L12:
 215:..\src/command_processing.c **** 
 216:..\src/command_processing.c **** //===========================================================     CMD_BOOTLOADER
 217:..\src/command_processing.c **** 
 218:..\src/command_processing.c ****         case CMD_BOOTLOADER:
 219:..\src/command_processing.c ****             //Not sure if ACK_OK is correct, should check
 220:..\src/command_processing.c ****             sendAcknowledgment(ACK_OK);
 532              		.loc 1 220 0
 533 0528 0120     		movs	r0, #1
 534 052a FFF7FEFF 		bl	sendAcknowledgment
 221:..\src/command_processing.c ****             CyDelay(1000);
 535              		.loc 1 221 0
 536 052e 4FF47A70 		mov	r0, #1000
 537 0532 FFF7FEFF 		bl	CyDelay
 222:..\src/command_processing.c ****             FTDI_ENABLE_Write(0x00);
 538              		.loc 1 222 0
 539 0536 0020     		movs	r0, #0
 540 0538 FFF7FEFF 		bl	FTDI_ENABLE_Write
 223:..\src/command_processing.c ****             CyDelay(1000);
 541              		.loc 1 223 0
 542 053c 4FF47A70 		mov	r0, #1000
 543 0540 FFF7FEFF 		bl	CyDelay
 224:..\src/command_processing.c ****             Bootloadable_Load();
 544              		.loc 1 224 0
 545 0544 FFF7FEFF 		bl	Bootloadable_Load
 225:..\src/command_processing.c ****             break;
 546              		.loc 1 225 0
 547 0548 33E0     		b	.L1
 548              	.L29:
 226:..\src/command_processing.c **** 
 227:..\src/command_processing.c **** //============================================================     CMD_HAND_CALIBRATE
 228:..\src/command_processing.c **** 
 229:..\src/command_processing.c ****         case CMD_HAND_CALIBRATE:           
 230:..\src/command_processing.c ****             break;
 231:..\src/command_processing.c ****             
 232:..\src/command_processing.c **** //=====================================================     CMD_GET_IMU_READINGS
 233:..\src/command_processing.c **** 
 234:..\src/command_processing.c ****         case CMD_GET_IMU_READINGS:
 235:..\src/command_processing.c ****             cmd_get_imu_readings();
 549              		.loc 1 235 0
 550 054a FFF7FEFF 		bl	cmd_get_imu_readings
 236:..\src/command_processing.c ****             break; 
 551              		.loc 1 236 0
 552 054e 30E0     		b	.L1
 553              	.L30:
 237:..\src/command_processing.c ****             
 238:..\src/command_processing.c **** //=====================================================     CMD_GET_IMU_PARAM
 239:..\src/command_processing.c **** 
 240:..\src/command_processing.c ****         case CMD_GET_IMU_PARAM:
 241:..\src/command_processing.c ****             get_IMU_param_list( __REV16(*((uint16 *) &g_rx.buffer[1])) );
 554              		.loc 1 241 0
 555 0550 194B     		ldr	r3, .L52
 556 0552 1B88     		ldrh	r3, [r3]
 557 0554 7B62     		str	r3, [r7, #36]
 558              	.LBB16:
ARM GAS  C:\Users\mgnocco\AppData\Local\Temp\ccOygPd6.s 			page 29


 559              	.LBB17:
 792:Generated_Source\PSoC5/cmsis_gcc.h ****   return(result);
 560              		.loc 2 792 0
 561 0556 7B6A     		ldr	r3, [r7, #36]
 562              		.syntax unified
 563              	@ 792 "Generated_Source\PSoC5/cmsis_gcc.h" 1
 564 0558 5BBA     		rev16 r3, r3
 565              	@ 0 "" 2
 566              		.thumb
 567              		.syntax unified
 568 055a FB60     		str	r3, [r7, #12]
 569              		.loc 2 793 0
 570 055c FB68     		ldr	r3, [r7, #12]
 571              	.LBE17:
 572              	.LBE16:
 573              		.loc 1 241 0
 574 055e 9BB2     		uxth	r3, r3
 575 0560 1846     		mov	r0, r3
 576 0562 FFF7FEFF 		bl	get_IMU_param_list
 242:..\src/command_processing.c ****             break;             
 577              		.loc 1 242 0
 578 0566 24E0     		b	.L1
 579              	.L31:
 243:..\src/command_processing.c ****             
 244:..\src/command_processing.c **** //=====================================================     CMD_GET_ENCODER_CONF
 245:..\src/command_processing.c **** 
 246:..\src/command_processing.c ****         case CMD_GET_ENCODER_CONF:
 247:..\src/command_processing.c ****             cmd_get_encoder_map();
 580              		.loc 1 247 0
 581 0568 FFF7FEFF 		bl	cmd_get_encoder_map
 248:..\src/command_processing.c ****             break; 
 582              		.loc 1 248 0
 583 056c 21E0     		b	.L1
 584              	.L32:
 249:..\src/command_processing.c **** 
 250:..\src/command_processing.c **** //=====================================================     CMD_GET_ENCODER_RAW
 251:..\src/command_processing.c **** 
 252:..\src/command_processing.c ****         case CMD_GET_ENCODER_RAW:
 253:..\src/command_processing.c ****             cmd_get_encoder_raw();
 585              		.loc 1 253 0
 586 056e FFF7FEFF 		bl	cmd_get_encoder_raw
 254:..\src/command_processing.c ****             break; 
 587              		.loc 1 254 0
 588 0572 1EE0     		b	.L1
 589              	.L33:
 255:..\src/command_processing.c **** 
 256:..\src/command_processing.c **** //=====================================================     CMD_GET_ADC_CONF
 257:..\src/command_processing.c **** 
 258:..\src/command_processing.c ****         case CMD_GET_ADC_CONF:
 259:..\src/command_processing.c ****             cmd_get_ADC_map();
 590              		.loc 1 259 0
 591 0574 FFF7FEFF 		bl	cmd_get_ADC_map
 260:..\src/command_processing.c ****             break; 
 592              		.loc 1 260 0
 593 0578 1BE0     		b	.L1
 594              	.L34:
 261:..\src/command_processing.c ****             
ARM GAS  C:\Users\mgnocco\AppData\Local\Temp\ccOygPd6.s 			page 30


 262:..\src/command_processing.c **** //=====================================================     CMD_GET_ADC_RAW
 263:..\src/command_processing.c **** 
 264:..\src/command_processing.c ****         case CMD_GET_ADC_RAW:
 265:..\src/command_processing.c ****             cmd_get_ADC_raw();
 595              		.loc 1 265 0
 596 057a FFF7FEFF 		bl	cmd_get_ADC_raw
 266:..\src/command_processing.c ****             break; 
 597              		.loc 1 266 0
 598 057e 18E0     		b	.L1
 599              	.L35:
 267:..\src/command_processing.c ****             
 268:..\src/command_processing.c **** //=====================================================     CMD_GET_SD_SINGLE_FILE
 269:..\src/command_processing.c **** 
 270:..\src/command_processing.c ****         case CMD_GET_SD_SINGLE_FILE:
 271:..\src/command_processing.c ****             cmd_get_SD_file( __REV16(*((uint16 *) &g_rx.buffer[1])) );
 600              		.loc 1 271 0
 601 0580 0D4B     		ldr	r3, .L52
 602 0582 1B88     		ldrh	r3, [r3]
 603 0584 3B62     		str	r3, [r7, #32]
 604              	.LBB18:
 605              	.LBB19:
 792:Generated_Source\PSoC5/cmsis_gcc.h ****   return(result);
 606              		.loc 2 792 0
 607 0586 3B6A     		ldr	r3, [r7, #32]
 608              		.syntax unified
 609              	@ 792 "Generated_Source\PSoC5/cmsis_gcc.h" 1
 610 0588 5BBA     		rev16 r3, r3
 611              	@ 0 "" 2
 612              		.thumb
 613              		.syntax unified
 614 058a BB60     		str	r3, [r7, #8]
 615              		.loc 2 793 0
 616 058c BB68     		ldr	r3, [r7, #8]
 617              	.LBE19:
 618              	.LBE18:
 619              		.loc 1 271 0
 620 058e 9BB2     		uxth	r3, r3
 621 0590 1846     		mov	r0, r3
 622 0592 FFF7FEFF 		bl	cmd_get_SD_file
 272:..\src/command_processing.c ****             break;   
 623              		.loc 1 272 0
 624 0596 0CE0     		b	.L1
 625              	.L36:
 273:..\src/command_processing.c ****             
 274:..\src/command_processing.c **** //=====================================================     CMD_REMOVE_SD_SINGLE_FILE
 275:..\src/command_processing.c **** 
 276:..\src/command_processing.c ****         case CMD_REMOVE_SD_SINGLE_FILE:
 277:..\src/command_processing.c ****             cmd_remove_SD_file( __REV16(*((uint16 *) &g_rx.buffer[1])) );
 626              		.loc 1 277 0
 627 0598 074B     		ldr	r3, .L52
 628 059a 1B88     		ldrh	r3, [r3]
 629 059c FB61     		str	r3, [r7, #28]
 630              	.LBB20:
 631              	.LBB21:
 792:Generated_Source\PSoC5/cmsis_gcc.h ****   return(result);
 632              		.loc 2 792 0
 633 059e FB69     		ldr	r3, [r7, #28]
ARM GAS  C:\Users\mgnocco\AppData\Local\Temp\ccOygPd6.s 			page 31


 634              		.syntax unified
 635              	@ 792 "Generated_Source\PSoC5/cmsis_gcc.h" 1
 636 05a0 5BBA     		rev16 r3, r3
 637              	@ 0 "" 2
 638              		.thumb
 639              		.syntax unified
 640 05a2 7B60     		str	r3, [r7, #4]
 641              		.loc 2 793 0
 642 05a4 7B68     		ldr	r3, [r7, #4]
 643              	.LBE21:
 644              	.LBE20:
 645              		.loc 1 277 0
 646 05a6 9BB2     		uxth	r3, r3
 647 05a8 1846     		mov	r0, r3
 648 05aa FFF7FEFF 		bl	cmd_remove_SD_file
 278:..\src/command_processing.c ****             break;               
 649              		.loc 1 278 0
 650 05ae 00E0     		b	.L1
 651              	.L49:
 279:..\src/command_processing.c ****             
 280:..\src/command_processing.c **** //=========================================================== ALL OTHER COMMANDS
 281:..\src/command_processing.c ****         default:
 282:..\src/command_processing.c ****             break;
 652              		.loc 1 282 0
 653 05b0 00BF     		nop
 654              	.L1:
 283:..\src/command_processing.c **** 
 284:..\src/command_processing.c ****     }
 285:..\src/command_processing.c **** }  
 655              		.loc 1 285 0
 656 05b2 3037     		adds	r7, r7, #48
 657              		.cfi_def_cfa_offset 8
 658 05b4 BD46     		mov	sp, r7
 659              		.cfi_def_cfa_register 13
 660              		@ sp needed
 661 05b6 80BD     		pop	{r7, pc}
 662              	.L53:
 663              		.align	2
 664              	.L52:
 665 05b8 01000000 		.word	g_rx+1
 666              		.cfi_endproc
 667              	.LFE64:
 668              		.size	commProcess, .-commProcess
 669              		.section	.text.infoSend,"ax",%progbits
 670              		.align	2
 671              		.global	infoSend
 672              		.thumb
 673              		.thumb_func
 674              		.type	infoSend, %function
 675              	infoSend:
 676              	.LFB65:
 286:..\src/command_processing.c **** 
 287:..\src/command_processing.c **** //==============================================================================
 288:..\src/command_processing.c **** //                                                                     INFO SEND
 289:..\src/command_processing.c **** //==============================================================================
 290:..\src/command_processing.c **** 
 291:..\src/command_processing.c **** void infoSend(void){
ARM GAS  C:\Users\mgnocco\AppData\Local\Temp\ccOygPd6.s 			page 32


 677              		.loc 1 291 0
 678              		.cfi_startproc
 679              		@ args = 0, pretend = 0, frame = 1504
 680              		@ frame_needed = 1, uses_anonymous_args = 0
 681 0000 80B5     		push	{r7, lr}
 682              		.cfi_def_cfa_offset 8
 683              		.cfi_offset 7, -8
 684              		.cfi_offset 14, -4
 685 0002 ADF5BC6D 		sub	sp, sp, #1504
 686              		.cfi_def_cfa_offset 1512
 687 0006 00AF     		add	r7, sp, #0
 688              		.cfi_def_cfa_register 7
 292:..\src/command_processing.c ****     char packet_string[1500];
 293:..\src/command_processing.c ****     
 294:..\src/command_processing.c ****     prepare_generic_info(packet_string);
 689              		.loc 1 294 0
 690 0008 3B1D     		adds	r3, r7, #4
 691 000a 1846     		mov	r0, r3
 692 000c FFF7FEFF 		bl	prepare_generic_info
 295:..\src/command_processing.c ****     UART_RS485_PutString(packet_string);
 693              		.loc 1 295 0
 694 0010 3B1D     		adds	r3, r7, #4
 695 0012 1846     		mov	r0, r3
 696 0014 FFF7FEFF 		bl	UART_RS485_PutString
 296:..\src/command_processing.c **** }
 697              		.loc 1 296 0
 698 0018 00BF     		nop
 699 001a 07F5BC67 		add	r7, r7, #1504
 700              		.cfi_def_cfa_offset 8
 701 001e BD46     		mov	sp, r7
 702              		.cfi_def_cfa_register 13
 703              		@ sp needed
 704 0020 80BD     		pop	{r7, pc}
 705              		.cfi_endproc
 706              	.LFE65:
 707              		.size	infoSend, .-infoSend
 708 0022 00BF     		.section	.text.num_of_bytes,"ax",%progbits
 709              		.align	2
 710              		.global	num_of_bytes
 711              		.thumb
 712              		.thumb_func
 713              		.type	num_of_bytes, %function
 714              	num_of_bytes:
 715              	.LFB66:
 297:..\src/command_processing.c **** //==============================================================================
 298:..\src/command_processing.c **** //                                                                  NUM_OF_BYTES
 299:..\src/command_processing.c **** //==============================================================================
 300:..\src/command_processing.c ****                     
 301:..\src/command_processing.c **** uint8 num_of_bytes (uint8 TYPE){
 716              		.loc 1 301 0
 717              		.cfi_startproc
 718              		@ args = 0, pretend = 0, frame = 16
 719              		@ frame_needed = 1, uses_anonymous_args = 0
 720              		@ link register save eliminated.
 721 0000 80B4     		push	{r7}
 722              		.cfi_def_cfa_offset 4
 723              		.cfi_offset 7, -4
ARM GAS  C:\Users\mgnocco\AppData\Local\Temp\ccOygPd6.s 			page 33


 724 0002 85B0     		sub	sp, sp, #20
 725              		.cfi_def_cfa_offset 24
 726 0004 00AF     		add	r7, sp, #0
 727              		.cfi_def_cfa_register 7
 728 0006 0346     		mov	r3, r0
 729 0008 FB71     		strb	r3, [r7, #7]
 302:..\src/command_processing.c ****     uint8 sod;
 303:..\src/command_processing.c ****     switch (TYPE) {
 730              		.loc 1 303 0
 731 000a FB79     		ldrb	r3, [r7, #7]	@ zero_extendqisi2
 732 000c 092B     		cmp	r3, #9
 733 000e 20D8     		bhi	.L56
 734 0010 01A2     		adr	r2, .L58
 735 0012 52F823F0 		ldr	pc, [r2, r3, lsl #2]
 736 0016 00BF     		.p2align 2
 737              	.L58:
 738 0018 41000000 		.word	.L57+1
 739 001c 41000000 		.word	.L57+1
 740 0020 41000000 		.word	.L57+1
 741 0024 47000000 		.word	.L59+1
 742 0028 47000000 		.word	.L59+1
 743 002c 4D000000 		.word	.L60+1
 744 0030 4D000000 		.word	.L60+1
 745 0034 4D000000 		.word	.L60+1
 746 0038 53000000 		.word	.L56+1
 747 003c 41000000 		.word	.L57+1
 748              		.p2align 1
 749              	.L57:
 304:..\src/command_processing.c ****             case TYPE_FLAG: case TYPE_INT8: case TYPE_UINT8: case TYPE_STRING:
 305:..\src/command_processing.c ****                 sod = 1; break;
 750              		.loc 1 305 0
 751 0040 0123     		movs	r3, #1
 752 0042 FB73     		strb	r3, [r7, #15]
 753 0044 05E0     		b	.L56
 754              	.L59:
 306:..\src/command_processing.c ****             case TYPE_INT16: case TYPE_UINT16:
 307:..\src/command_processing.c ****                 sod = 2; break;
 755              		.loc 1 307 0
 756 0046 0223     		movs	r3, #2
 757 0048 FB73     		strb	r3, [r7, #15]
 758 004a 02E0     		b	.L56
 759              	.L60:
 308:..\src/command_processing.c ****             case TYPE_INT32: case TYPE_UINT32: case TYPE_FLOAT:
 309:..\src/command_processing.c ****                 sod = 4; break;
 760              		.loc 1 309 0
 761 004c 0423     		movs	r3, #4
 762 004e FB73     		strb	r3, [r7, #15]
 763 0050 00BF     		nop
 764              	.L56:
 310:..\src/command_processing.c ****     }  
 311:..\src/command_processing.c ****     return sod;
 765              		.loc 1 311 0
 766 0052 FB7B     		ldrb	r3, [r7, #15]	@ zero_extendqisi2
 312:..\src/command_processing.c **** }
 767              		.loc 1 312 0
 768 0054 1846     		mov	r0, r3
 769 0056 1437     		adds	r7, r7, #20
ARM GAS  C:\Users\mgnocco\AppData\Local\Temp\ccOygPd6.s 			page 34


 770              		.cfi_def_cfa_offset 4
 771 0058 BD46     		mov	sp, r7
 772              		.cfi_def_cfa_register 13
 773              		@ sp needed
 774 005a 80BC     		pop	{r7}
 775              		.cfi_restore 7
 776              		.cfi_def_cfa_offset 0
 777 005c 7047     		bx	lr
 778              		.cfi_endproc
 779              	.LFE66:
 780              		.size	num_of_bytes, .-num_of_bytes
 781 005e 00BF     		.section	.text.infoGet,"ax",%progbits
 782              		.align	2
 783              		.global	infoGet
 784              		.thumb
 785              		.thumb_func
 786              		.type	infoGet, %function
 787              	infoGet:
 788              	.LFB67:
 313:..\src/command_processing.c **** 
 314:..\src/command_processing.c **** //==============================================================================
 315:..\src/command_processing.c **** //                                                              COMMAND GET INFO
 316:..\src/command_processing.c **** //==============================================================================
 317:..\src/command_processing.c **** 
 318:..\src/command_processing.c **** void infoGet(uint16 info_type) {
 789              		.loc 1 318 0
 790              		.cfi_startproc
 791              		@ args = 0, pretend = 0, frame = 24008
 792              		@ frame_needed = 1, uses_anonymous_args = 0
 793 0000 80B5     		push	{r7, lr}
 794              		.cfi_def_cfa_offset 8
 795              		.cfi_offset 7, -8
 796              		.cfi_offset 14, -4
 797 0002 ADF5BB4D 		sub	sp, sp, #23936
 798              		.cfi_def_cfa_offset 23944
 799 0006 92B0     		sub	sp, sp, #72
 800              		.cfi_def_cfa_offset 24016
 801 0008 00AF     		add	r7, sp, #0
 802              		.cfi_def_cfa_register 7
 803 000a 0246     		mov	r2, r0
 804 000c 07F14803 		add	r3, r7, #72
 805 0010 423B     		subs	r3, r3, #66
 806 0012 1A80     		strh	r2, [r3]	@ movhi
 319:..\src/command_processing.c ****     char CYDATA packet_string[4000] = "";
 807              		.loc 1 319 0
 808 0014 07F59C43 		add	r3, r7, #19968
 809 0018 03F12803 		add	r3, r3, #40
 810 001c 0022     		movs	r2, #0
 811 001e 1A60     		str	r2, [r3]
 812 0020 0433     		adds	r3, r3, #4
 813 0022 40F69C72 		movw	r2, #3996
 814 0026 0021     		movs	r1, #0
 815 0028 1846     		mov	r0, r3
 816 002a FFF7FEFF 		bl	memset
 320:..\src/command_processing.c ****     char CYDATA str_sd_data[20000] = "";
 817              		.loc 1 320 0
 818 002e 07F14803 		add	r3, r7, #72
ARM GAS  C:\Users\mgnocco\AppData\Local\Temp\ccOygPd6.s 			page 35


 819 0032 403B     		subs	r3, r3, #64
 820 0034 0022     		movs	r2, #0
 821 0036 1A60     		str	r2, [r3]
 822 0038 0433     		adds	r3, r3, #4
 823 003a 44F61C62 		movw	r2, #19996
 824 003e 0021     		movs	r1, #0
 825 0040 1846     		mov	r0, r3
 826 0042 FFF7FEFF 		bl	memset
 321:..\src/command_processing.c ****     //==================================     choose info type and prepare string
 322:..\src/command_processing.c **** 
 323:..\src/command_processing.c ****     switch (info_type) {
 827              		.loc 1 323 0
 828 0046 07F14803 		add	r3, r7, #72
 829 004a 423B     		subs	r3, r3, #66
 830 004c 1B88     		ldrh	r3, [r3]
 831 004e 062B     		cmp	r3, #6
 832 0050 7DD8     		bhi	.L73
 833 0052 01A2     		adr	r2, .L65
 834 0054 52F823F0 		ldr	pc, [r2, r3, lsl #2]
 835              		.p2align 2
 836              	.L65:
 837 0058 75000000 		.word	.L64+1
 838 005c 97000000 		.word	.L66+1
 839 0060 B9000000 		.word	.L67+1
 840 0064 E1000000 		.word	.L68+1
 841 0068 03010000 		.word	.L69+1
 842 006c 21010000 		.word	.L70+1
 843 0070 27010000 		.word	.L71+1
 844              		.p2align 1
 845              	.L64:
 324:..\src/command_processing.c ****         case INFO_ALL:
 325:..\src/command_processing.c ****             prepare_generic_info(packet_string);
 846              		.loc 1 325 0
 847 0074 07F59C43 		add	r3, r7, #19968
 848 0078 03F12803 		add	r3, r3, #40
 849 007c 1846     		mov	r0, r3
 850 007e FFF7FEFF 		bl	prepare_generic_info
 326:..\src/command_processing.c ****             UART_RS485_ClearTxBuffer(); 
 851              		.loc 1 326 0
 852 0082 FFF7FEFF 		bl	UART_RS485_ClearTxBuffer
 327:..\src/command_processing.c ****             UART_RS485_PutString(packet_string);
 853              		.loc 1 327 0
 854 0086 07F59C43 		add	r3, r7, #19968
 855 008a 03F12803 		add	r3, r3, #40
 856 008e 1846     		mov	r0, r3
 857 0090 FFF7FEFF 		bl	UART_RS485_PutString
 328:..\src/command_processing.c ****             break;
 858              		.loc 1 328 0
 859 0094 5CE0     		b	.L72
 860              	.L66:
 329:..\src/command_processing.c ****         case CYCLES_INFO:
 330:..\src/command_processing.c ****             prepare_counter_info(packet_string);
 861              		.loc 1 330 0
 862 0096 07F59C43 		add	r3, r7, #19968
 863 009a 03F12803 		add	r3, r3, #40
 864 009e 1846     		mov	r0, r3
 865 00a0 FFF7FEFF 		bl	prepare_counter_info
ARM GAS  C:\Users\mgnocco\AppData\Local\Temp\ccOygPd6.s 			page 36


 331:..\src/command_processing.c ****             UART_RS485_ClearTxBuffer();
 866              		.loc 1 331 0
 867 00a4 FFF7FEFF 		bl	UART_RS485_ClearTxBuffer
 332:..\src/command_processing.c ****             UART_RS485_PutString(packet_string);
 868              		.loc 1 332 0
 869 00a8 07F59C43 		add	r3, r7, #19968
 870 00ac 03F12803 		add	r3, r3, #40
 871 00b0 1846     		mov	r0, r3
 872 00b2 FFF7FEFF 		bl	UART_RS485_PutString
 333:..\src/command_processing.c ****             break;
 873              		.loc 1 333 0
 874 00b6 4BE0     		b	.L72
 875              	.L67:
 334:..\src/command_processing.c ****         case GET_SD_PARAM:
 335:..\src/command_processing.c ****             Read_SD_Closed_File(sdParam, packet_string, sizeof(packet_string));
 876              		.loc 1 335 0
 877 00b8 07F59C43 		add	r3, r7, #19968
 878 00bc 03F12803 		add	r3, r3, #40
 879 00c0 4FF47A62 		mov	r2, #4000
 880 00c4 1946     		mov	r1, r3
 881 00c6 2548     		ldr	r0, .L74
 882 00c8 FFF7FEFF 		bl	Read_SD_Closed_File
 336:..\src/command_processing.c ****             UART_RS485_ClearTxBuffer();
 883              		.loc 1 336 0
 884 00cc FFF7FEFF 		bl	UART_RS485_ClearTxBuffer
 337:..\src/command_processing.c ****             UART_RS485_PutString(packet_string);
 885              		.loc 1 337 0
 886 00d0 07F59C43 		add	r3, r7, #19968
 887 00d4 03F12803 		add	r3, r3, #40
 888 00d8 1846     		mov	r0, r3
 889 00da FFF7FEFF 		bl	UART_RS485_PutString
 338:..\src/command_processing.c ****             break;
 890              		.loc 1 338 0
 891 00de 37E0     		b	.L72
 892              	.L68:
 339:..\src/command_processing.c ****         case GET_SD_DATA:
 340:..\src/command_processing.c ****             Read_SD_Current_Data(str_sd_data, sizeof(str_sd_data));
 893              		.loc 1 340 0
 894 00e0 07F14803 		add	r3, r7, #72
 895 00e4 403B     		subs	r3, r3, #64
 896 00e6 44F62061 		movw	r1, #20000
 897 00ea 1846     		mov	r0, r3
 898 00ec FFF7FEFF 		bl	Read_SD_Current_Data
 341:..\src/command_processing.c ****             UART_RS485_ClearTxBuffer();
 899              		.loc 1 341 0
 900 00f0 FFF7FEFF 		bl	UART_RS485_ClearTxBuffer
 342:..\src/command_processing.c ****             UART_RS485_PutString(str_sd_data);
 901              		.loc 1 342 0
 902 00f4 07F14803 		add	r3, r7, #72
 903 00f8 403B     		subs	r3, r3, #64
 904 00fa 1846     		mov	r0, r3
 905 00fc FFF7FEFF 		bl	UART_RS485_PutString
 343:..\src/command_processing.c ****             break;
 906              		.loc 1 343 0
 907 0100 26E0     		b	.L72
 908              	.L69:
 344:..\src/command_processing.c ****         case GET_SD_FS_TREE:
ARM GAS  C:\Users\mgnocco\AppData\Local\Temp\ccOygPd6.s 			page 37


 345:..\src/command_processing.c ****             Get_SD_FS(str_sd_data);
 909              		.loc 1 345 0
 910 0102 07F14803 		add	r3, r7, #72
 911 0106 403B     		subs	r3, r3, #64
 912 0108 1846     		mov	r0, r3
 913 010a FFF7FEFF 		bl	Get_SD_FS
 346:..\src/command_processing.c ****             UART_RS485_ClearTxBuffer();
 914              		.loc 1 346 0
 915 010e FFF7FEFF 		bl	UART_RS485_ClearTxBuffer
 347:..\src/command_processing.c ****             UART_RS485_PutString(str_sd_data);
 916              		.loc 1 347 0
 917 0112 07F14803 		add	r3, r7, #72
 918 0116 403B     		subs	r3, r3, #64
 919 0118 1846     		mov	r0, r3
 920 011a FFF7FEFF 		bl	UART_RS485_PutString
 348:..\src/command_processing.c ****             break;
 921              		.loc 1 348 0
 922 011e 17E0     		b	.L72
 923              	.L70:
 349:..\src/command_processing.c ****         case GET_SD_EMG_HIST:
 350:..\src/command_processing.c ****             // Send every single byte inside the function, since it could be a large file to send
 351:..\src/command_processing.c ****             Read_SD_EMG_History_Data();
 924              		.loc 1 351 0
 925 0120 FFF7FEFF 		bl	Read_SD_EMG_History_Data
 352:..\src/command_processing.c ****             break;
 926              		.loc 1 352 0
 927 0124 14E0     		b	.L72
 928              	.L71:
 353:..\src/command_processing.c ****         case GET_SD_R01_SUMM:
 354:..\src/command_processing.c ****             Read_SD_Closed_File(sdR01File, packet_string, sizeof(packet_string));
 929              		.loc 1 354 0
 930 0126 07F59C43 		add	r3, r7, #19968
 931 012a 03F12803 		add	r3, r3, #40
 932 012e 4FF47A62 		mov	r2, #4000
 933 0132 1946     		mov	r1, r3
 934 0134 0A48     		ldr	r0, .L74+4
 935 0136 FFF7FEFF 		bl	Read_SD_Closed_File
 355:..\src/command_processing.c ****             UART_RS485_ClearTxBuffer();
 936              		.loc 1 355 0
 937 013a FFF7FEFF 		bl	UART_RS485_ClearTxBuffer
 356:..\src/command_processing.c ****             UART_RS485_PutString(packet_string);
 938              		.loc 1 356 0
 939 013e 07F59C43 		add	r3, r7, #19968
 940 0142 03F12803 		add	r3, r3, #40
 941 0146 1846     		mov	r0, r3
 942 0148 FFF7FEFF 		bl	UART_RS485_PutString
 357:..\src/command_processing.c ****             break;            
 943              		.loc 1 357 0
 944 014c 00E0     		b	.L72
 945              	.L73:
 358:..\src/command_processing.c ****         default:
 359:..\src/command_processing.c ****             break;
 946              		.loc 1 359 0
 947 014e 00BF     		nop
 948              	.L72:
 360:..\src/command_processing.c ****     }
 361:..\src/command_processing.c **** }
ARM GAS  C:\Users\mgnocco\AppData\Local\Temp\ccOygPd6.s 			page 38


 949              		.loc 1 361 0 discriminator 1
 950 0150 00BF     		nop
 951 0152 07F5BB47 		add	r7, r7, #23936
 952 0156 4837     		adds	r7, r7, #72
 953              		.cfi_def_cfa_offset 8
 954 0158 BD46     		mov	sp, r7
 955              		.cfi_def_cfa_register 13
 956              		@ sp needed
 957 015a 80BD     		pop	{r7, pc}
 958              	.L75:
 959              		.align	2
 960              	.L74:
 961 015c 00000000 		.word	sdParam
 962 0160 00000000 		.word	sdR01File
 963              		.cfi_endproc
 964              	.LFE67:
 965              		.size	infoGet, .-infoGet
 966              		.section	.rodata
 967              		.align	2
 968              	.LC8:
 969 0000 00       		.ascii	"\000"
 970 0001 000000   		.align	2
 971              	.LC14:
 972 0004 202D2000 		.ascii	" - \000"
 973              		.align	2
 974              	.LC15:
 975 0008 54686520 		.ascii	"The board will reset\012\000"
 975      626F6172 
 975      64207769 
 975      6C6C2072 
 975      65736574 
 976 001e 0000     		.align	2
 977              	.LC16:
 978 0020 202D3E20 		.ascii	" -> \000"
 978      00
 979 0025 000000   		.align	2
 980              	.LC17:
 981 0028 0A00     		.ascii	"\012\000"
 982              		.section	.text.get_param_list,"ax",%progbits
 983              		.align	2
 984              		.global	get_param_list
 985              		.thumb
 986              		.thumb_func
 987              		.type	get_param_list, %function
 988              	get_param_list:
 989              	.LFB68:
 362:..\src/command_processing.c **** 
 363:..\src/command_processing.c **** 
 364:..\src/command_processing.c **** //==============================================================================
 365:..\src/command_processing.c **** //                                                                GET PARAM LIST
 366:..\src/command_processing.c **** //==============================================================================
 367:..\src/command_processing.c **** 
 368:..\src/command_processing.c **** void get_param_list ( uint8 num_params, uint8 num_menus, const struct parameter PARAM_LIST[], const
 990              		.loc 1 368 0
 991              		.cfi_startproc
 992              		@ args = 4, pretend = 0, frame = 608
 993              		@ frame_needed = 1, uses_anonymous_args = 0
ARM GAS  C:\Users\mgnocco\AppData\Local\Temp\ccOygPd6.s 			page 39


 994 0000 2DE9F043 		push	{r4, r5, r6, r7, r8, r9, lr}
 995              		.cfi_def_cfa_offset 28
 996              		.cfi_offset 4, -28
 997              		.cfi_offset 5, -24
 998              		.cfi_offset 6, -20
 999              		.cfi_offset 7, -16
 1000              		.cfi_offset 8, -12
 1001              		.cfi_offset 9, -8
 1002              		.cfi_offset 14, -4
 1003 0004 ADF5197D 		sub	sp, sp, #612
 1004              		.cfi_def_cfa_offset 640
 1005 0008 00AF     		add	r7, sp, #0
 1006              		.cfi_def_cfa_register 7
 1007 000a 0646     		mov	r6, r0
 1008 000c 0846     		mov	r0, r1
 1009 000e 07F10801 		add	r1, r7, #8
 1010 0012 0A60     		str	r2, [r1]
 1011 0014 3A1D     		adds	r2, r7, #4
 1012 0016 1360     		str	r3, [r2]
 1013 0018 07F10F03 		add	r3, r7, #15
 1014 001c 3246     		mov	r2, r6
 1015 001e 1A70     		strb	r2, [r3]
 1016 0020 07F10E03 		add	r3, r7, #14
 1017 0024 0246     		mov	r2, r0
 1018 0026 1A70     		strb	r2, [r3]
 1019              		.loc 1 368 0
 1020 0028 6B46     		mov	r3, sp
 1021 002a 1E46     		mov	r6, r3
 369:..\src/command_processing.c ****     
 370:..\src/command_processing.c ****     uint8 CYDATA idx = 0;      
 1022              		.loc 1 370 0
 1023 002c 0023     		movs	r3, #0
 1024 002e 87F85F32 		strb	r3, [r7, #607]
 371:..\src/command_processing.c ****     uint8* m_addr = (uint8*)PARAM_LIST[0].VAR_P;
 1025              		.loc 1 371 0
 1026 0032 07F10803 		add	r3, r7, #8
 1027 0036 1B68     		ldr	r3, [r3]
 1028 0038 1B68     		ldr	r3, [r3]
 1029 003a C7F85032 		str	r3, [r7, #592]
 372:..\src/command_processing.c ****     uint8 CYDATA string_length;
 373:..\src/command_processing.c ****     char CYDATA aux_str[250] = "";
 1030              		.loc 1 373 0
 1031 003e 07F5A473 		add	r3, r7, #328
 1032 0042 0022     		movs	r2, #0
 1033 0044 1A60     		str	r2, [r3]
 1034 0046 0433     		adds	r3, r3, #4
 1035 0048 F622     		movs	r2, #246
 1036 004a 0021     		movs	r1, #0
 1037 004c 1846     		mov	r0, r3
 1038 004e FFF7FEFF 		bl	memset
 374:..\src/command_processing.c ****     char CYDATA aux_str1[250] = ""; 
 1039              		.loc 1 374 0
 1040 0052 07F14C03 		add	r3, r7, #76
 1041 0056 0022     		movs	r2, #0
 1042 0058 1A60     		str	r2, [r3]
 1043 005a 0433     		adds	r3, r3, #4
 1044 005c F622     		movs	r2, #246
ARM GAS  C:\Users\mgnocco\AppData\Local\Temp\ccOygPd6.s 			page 40


 1045 005e 0021     		movs	r1, #0
 1046 0060 1846     		mov	r0, r3
 1047 0062 FFF7FEFF 		bl	memset
 375:..\src/command_processing.c ****     
 376:..\src/command_processing.c ****     int32 aux_int32;
 377:..\src/command_processing.c ****     uint8 i, j;
 378:..\src/command_processing.c ****     uint8 count;
 379:..\src/command_processing.c ****     char aux_char[50];
 380:..\src/command_processing.c ****     
 381:..\src/command_processing.c ****     uint16 packet_length = PARAM_BYTE_SLOT*num_params + PARAM_MENU_SLOT*num_menus + PARAM_BYTE_SLOT
 1048              		.loc 1 381 0
 1049 0066 07F10F03 		add	r3, r7, #15
 1050 006a 1B78     		ldrb	r3, [r3]	@ zero_extendqisi2
 1051 006c 9BB2     		uxth	r3, r3
 1052 006e 1A46     		mov	r2, r3	@ movhi
 1053 0070 9200     		lsls	r2, r2, #2
 1054 0072 1344     		add	r3, r3, r2
 1055 0074 1A46     		mov	r2, r3	@ movhi
 1056 0076 9100     		lsls	r1, r2, #2
 1057 0078 1A46     		mov	r2, r3	@ movhi
 1058 007a 0B46     		mov	r3, r1	@ movhi
 1059 007c 1344     		add	r3, r3, r2
 1060 007e 5B00     		lsls	r3, r3, #1
 1061 0080 9AB2     		uxth	r2, r3
 1062 0082 07F10E03 		add	r3, r7, #14
 1063 0086 1B78     		ldrb	r3, [r3]	@ zero_extendqisi2
 1064 0088 9BB2     		uxth	r3, r3
 1065 008a 1946     		mov	r1, r3	@ movhi
 1066 008c 8900     		lsls	r1, r1, #2
 1067 008e 0B44     		add	r3, r3, r1
 1068 0090 1946     		mov	r1, r3	@ movhi
 1069 0092 0901     		lsls	r1, r1, #4
 1070 0094 CB1A     		subs	r3, r1, r3
 1071 0096 5B00     		lsls	r3, r3, #1
 1072 0098 9BB2     		uxth	r3, r3
 1073 009a 1344     		add	r3, r3, r2
 1074 009c 9BB2     		uxth	r3, r3
 1075 009e 3233     		adds	r3, r3, #50
 1076 00a0 A7F84E32 		strh	r3, [r7, #590]	@ movhi
 382:..\src/command_processing.c ****     uint8 packet_data[packet_length];
 1077              		.loc 1 382 0
 1078 00a4 B7F84E12 		ldrh	r1, [r7, #590]
 1079 00a8 0B46     		mov	r3, r1
 1080 00aa 013B     		subs	r3, r3, #1
 1081 00ac C7F84832 		str	r3, [r7, #584]
 1082 00b0 8AB2     		uxth	r2, r1
 1083 00b2 4FF00003 		mov	r3, #0
 1084 00b6 4FEAC309 		lsl	r9, r3, #3
 1085 00ba 49EA5279 		orr	r9, r9, r2, lsr #29
 1086 00be 4FEAC208 		lsl	r8, r2, #3
 1087 00c2 8AB2     		uxth	r2, r1
 1088 00c4 4FF00003 		mov	r3, #0
 1089 00c8 DD00     		lsls	r5, r3, #3
 1090 00ca 45EA5275 		orr	r5, r5, r2, lsr #29
 1091 00ce D400     		lsls	r4, r2, #3
 1092 00d0 0B46     		mov	r3, r1
 1093 00d2 0733     		adds	r3, r3, #7
ARM GAS  C:\Users\mgnocco\AppData\Local\Temp\ccOygPd6.s 			page 41


 1094 00d4 DB08     		lsrs	r3, r3, #3
 1095 00d6 DB00     		lsls	r3, r3, #3
 1096 00d8 ADEB030D 		sub	sp, sp, r3
 1097 00dc 6B46     		mov	r3, sp
 1098 00de 0033     		adds	r3, r3, #0
 1099 00e0 C7F84432 		str	r3, [r7, #580]
 1100              	.LBB22:
 383:..\src/command_processing.c ****     for (int ii = 0; ii < packet_length; ii++) packet_data[ii] = 0;
 1101              		.loc 1 383 0
 1102 00e4 0023     		movs	r3, #0
 1103 00e6 C7F85432 		str	r3, [r7, #596]
 1104 00ea 0BE0     		b	.L77
 1105              	.L78:
 1106              		.loc 1 383 0 is_stmt 0 discriminator 3
 1107 00ec D7F84422 		ldr	r2, [r7, #580]
 1108 00f0 D7F85432 		ldr	r3, [r7, #596]
 1109 00f4 1344     		add	r3, r3, r2
 1110 00f6 0022     		movs	r2, #0
 1111 00f8 1A70     		strb	r2, [r3]
 1112 00fa D7F85432 		ldr	r3, [r7, #596]
 1113 00fe 0133     		adds	r3, r3, #1
 1114 0100 C7F85432 		str	r3, [r7, #596]
 1115              	.L77:
 1116              		.loc 1 383 0 discriminator 1
 1117 0104 B7F84E22 		ldrh	r2, [r7, #590]
 1118 0108 D7F85432 		ldr	r3, [r7, #596]
 1119 010c 9A42     		cmp	r2, r3
 1120 010e EDDC     		bgt	.L78
 1121              	.LBE22:
 384:..\src/command_processing.c **** 
 385:..\src/command_processing.c ****     packet_data[0] = CMD_GET_PARAM_LIST;
 1122              		.loc 1 385 0 is_stmt 1
 1123 0110 D7F84432 		ldr	r3, [r7, #580]
 1124 0114 0C22     		movs	r2, #12
 1125 0116 1A70     		strb	r2, [r3]
 386:..\src/command_processing.c ****     packet_data[1] = num_params;
 1126              		.loc 1 386 0
 1127 0118 D7F84432 		ldr	r3, [r7, #580]
 1128 011c 07F10F02 		add	r2, r7, #15
 1129 0120 1278     		ldrb	r2, [r2]
 1130 0122 5A70     		strb	r2, [r3, #1]
 387:..\src/command_processing.c ****     
 388:..\src/command_processing.c ****     for (idx = 0; idx < num_params; idx ++) {
 1131              		.loc 1 388 0
 1132 0124 0023     		movs	r3, #0
 1133 0126 87F85F32 		strb	r3, [r7, #607]
 1134 012a 44E2     		b	.L79
 1135              	.L102:
 1136              	.LBB23:
 389:..\src/command_processing.c ****         m_addr = (uint8*)PARAM_LIST[idx].VAR_P;
 1137              		.loc 1 389 0
 1138 012c 97F85F32 		ldrb	r3, [r7, #607]	@ zero_extendqisi2
 1139 0130 1B01     		lsls	r3, r3, #4
 1140 0132 07F10802 		add	r2, r7, #8
 1141 0136 1268     		ldr	r2, [r2]
 1142 0138 1344     		add	r3, r3, r2
 1143 013a 1B68     		ldr	r3, [r3]
ARM GAS  C:\Users\mgnocco\AppData\Local\Temp\ccOygPd6.s 			page 42


 1144 013c C7F85032 		str	r3, [r7, #592]
 390:..\src/command_processing.c ****         uint8 sod = num_of_bytes(PARAM_LIST[idx].TYPES);
 1145              		.loc 1 390 0
 1146 0140 97F85F32 		ldrb	r3, [r7, #607]	@ zero_extendqisi2
 1147 0144 1B01     		lsls	r3, r3, #4
 1148 0146 07F10802 		add	r2, r7, #8
 1149 014a 1268     		ldr	r2, [r2]
 1150 014c 1344     		add	r3, r3, r2
 1151 014e 1B79     		ldrb	r3, [r3, #4]	@ zero_extendqisi2
 1152 0150 1846     		mov	r0, r3
 1153 0152 FFF7FEFF 		bl	num_of_bytes
 1154 0156 0346     		mov	r3, r0
 1155 0158 87F84332 		strb	r3, [r7, #579]
 391:..\src/command_processing.c ****         packet_data[2 + PARAM_BYTE_SLOT*idx] = PARAM_LIST[idx].TYPES;
 1156              		.loc 1 391 0
 1157 015c 97F85F32 		ldrb	r3, [r7, #607]	@ zero_extendqisi2
 1158 0160 3222     		movs	r2, #50
 1159 0162 02FB03F3 		mul	r3, r2, r3
 1160 0166 0233     		adds	r3, r3, #2
 1161 0168 97F85F22 		ldrb	r2, [r7, #607]	@ zero_extendqisi2
 1162 016c 1201     		lsls	r2, r2, #4
 1163 016e 07F10801 		add	r1, r7, #8
 1164 0172 0968     		ldr	r1, [r1]
 1165 0174 0A44     		add	r2, r2, r1
 1166 0176 1179     		ldrb	r1, [r2, #4]	@ zero_extendqisi2
 1167 0178 D7F84422 		ldr	r2, [r7, #580]
 1168 017c D154     		strb	r1, [r2, r3]
 392:..\src/command_processing.c ****         packet_data[3 + PARAM_BYTE_SLOT*idx] = PARAM_LIST[idx].NUM_ITEMS;        
 1169              		.loc 1 392 0
 1170 017e 97F85F32 		ldrb	r3, [r7, #607]	@ zero_extendqisi2
 1171 0182 3222     		movs	r2, #50
 1172 0184 02FB03F3 		mul	r3, r2, r3
 1173 0188 0333     		adds	r3, r3, #3
 1174 018a 97F85F22 		ldrb	r2, [r7, #607]	@ zero_extendqisi2
 1175 018e 1201     		lsls	r2, r2, #4
 1176 0190 07F10801 		add	r1, r7, #8
 1177 0194 0968     		ldr	r1, [r1]
 1178 0196 0A44     		add	r2, r2, r1
 1179 0198 5179     		ldrb	r1, [r2, #5]	@ zero_extendqisi2
 1180 019a D7F84422 		ldr	r2, [r7, #580]
 1181 019e D154     		strb	r1, [r2, r3]
 393:..\src/command_processing.c **** 
 394:..\src/command_processing.c **** 
 395:..\src/command_processing.c ****     switch(PARAM_LIST[idx].custom){
 1182              		.loc 1 395 0
 1183 01a0 97F85F32 		ldrb	r3, [r7, #607]	@ zero_extendqisi2
 1184 01a4 1B01     		lsls	r3, r3, #4
 1185 01a6 07F10802 		add	r2, r7, #8
 1186 01aa 1268     		ldr	r2, [r2]
 1187 01ac 1344     		add	r3, r3, r2
 1188 01ae 9B7B     		ldrb	r3, [r3, #14]	@ zero_extendqisi2
 1189 01b0 052B     		cmp	r3, #5
 1190 01b2 61D1     		bne	.L113
 396:..\src/command_processing.c **** 
 397:..\src/command_processing.c ****         case CUSTOM_POS_LIM:        //Position limits
 398:..\src/command_processing.c ****             aux_int32 = (c_mem.SH_config.pos_lim_inf >> c_mem.SH_config.res);
 1191              		.loc 1 398 0
ARM GAS  C:\Users\mgnocco\AppData\Local\Temp\ccOygPd6.s 			page 43


 1192 01b4 B74B     		ldr	r3, .L114
 1193 01b6 1B6A     		ldr	r3, [r3, #32]
 1194 01b8 B64A     		ldr	r2, .L114
 1195 01ba 92F82920 		ldrb	r2, [r2, #41]	@ zero_extendqisi2
 1196 01be 43FA02F2 		asr	r2, r3, r2
 1197 01c2 07F14803 		add	r3, r7, #72
 1198 01c6 1A60     		str	r2, [r3]
 399:..\src/command_processing.c ****             for(j = 0; j < sod; j++) {
 1199              		.loc 1 399 0
 1200 01c8 0023     		movs	r3, #0
 1201 01ca 87F85C32 		strb	r3, [r7, #604]
 1202 01ce 1AE0     		b	.L82
 1203              	.L83:
 400:..\src/command_processing.c ****                 packet_data[(4 + PARAM_BYTE_SLOT*idx) + sod - j -1] = ((char*)(&aux_int32))[j];
 1204              		.loc 1 400 0 discriminator 3
 1205 01d0 97F85F32 		ldrb	r3, [r7, #607]	@ zero_extendqisi2
 1206 01d4 3222     		movs	r2, #50
 1207 01d6 02FB03F3 		mul	r3, r2, r3
 1208 01da 1A1D     		adds	r2, r3, #4
 1209 01dc 97F84332 		ldrb	r3, [r7, #579]	@ zero_extendqisi2
 1210 01e0 1A44     		add	r2, r2, r3
 1211 01e2 97F85C32 		ldrb	r3, [r7, #604]	@ zero_extendqisi2
 1212 01e6 D31A     		subs	r3, r2, r3
 1213 01e8 013B     		subs	r3, r3, #1
 1214 01ea 97F85C22 		ldrb	r2, [r7, #604]	@ zero_extendqisi2
 1215 01ee 07F14801 		add	r1, r7, #72
 1216 01f2 0A44     		add	r2, r2, r1
 1217 01f4 1178     		ldrb	r1, [r2]	@ zero_extendqisi2
 1218 01f6 D7F84422 		ldr	r2, [r7, #580]
 1219 01fa D154     		strb	r1, [r2, r3]
 399:..\src/command_processing.c ****             for(j = 0; j < sod; j++) {
 1220              		.loc 1 399 0 discriminator 3
 1221 01fc 97F85C32 		ldrb	r3, [r7, #604]	@ zero_extendqisi2
 1222 0200 0133     		adds	r3, r3, #1
 1223 0202 87F85C32 		strb	r3, [r7, #604]
 1224              	.L82:
 399:..\src/command_processing.c ****             for(j = 0; j < sod; j++) {
 1225              		.loc 1 399 0 is_stmt 0 discriminator 1
 1226 0206 97F85C22 		ldrb	r2, [r7, #604]	@ zero_extendqisi2
 1227 020a 97F84332 		ldrb	r3, [r7, #579]	@ zero_extendqisi2
 1228 020e 9A42     		cmp	r2, r3
 1229 0210 DED3     		bcc	.L83
 401:..\src/command_processing.c ****             }
 402:..\src/command_processing.c ****             aux_int32 = (c_mem.SH_config.pos_lim_sup >> c_mem.SH_config.res);
 1230              		.loc 1 402 0 is_stmt 1
 1231 0212 A04B     		ldr	r3, .L114
 1232 0214 5B6A     		ldr	r3, [r3, #36]
 1233 0216 9F4A     		ldr	r2, .L114
 1234 0218 92F82920 		ldrb	r2, [r2, #41]	@ zero_extendqisi2
 1235 021c 43FA02F2 		asr	r2, r3, r2
 1236 0220 07F14803 		add	r3, r7, #72
 1237 0224 1A60     		str	r2, [r3]
 403:..\src/command_processing.c ****             for(j = 0; j < sod; j++) {
 1238              		.loc 1 403 0
 1239 0226 0023     		movs	r3, #0
 1240 0228 87F85C32 		strb	r3, [r7, #604]
 1241 022c 1DE0     		b	.L84
ARM GAS  C:\Users\mgnocco\AppData\Local\Temp\ccOygPd6.s 			page 44


 1242              	.L85:
 404:..\src/command_processing.c ****                 packet_data[(4 + PARAM_BYTE_SLOT*idx + sod) + sod - j -1] = ((char*)(&aux_int32))[j
 1243              		.loc 1 404 0 discriminator 3
 1244 022e 97F85F32 		ldrb	r3, [r7, #607]	@ zero_extendqisi2
 1245 0232 3222     		movs	r2, #50
 1246 0234 02FB03F3 		mul	r3, r2, r3
 1247 0238 1A1D     		adds	r2, r3, #4
 1248 023a 97F84332 		ldrb	r3, [r7, #579]	@ zero_extendqisi2
 1249 023e 1A44     		add	r2, r2, r3
 1250 0240 97F84332 		ldrb	r3, [r7, #579]	@ zero_extendqisi2
 1251 0244 1A44     		add	r2, r2, r3
 1252 0246 97F85C32 		ldrb	r3, [r7, #604]	@ zero_extendqisi2
 1253 024a D31A     		subs	r3, r2, r3
 1254 024c 013B     		subs	r3, r3, #1
 1255 024e 97F85C22 		ldrb	r2, [r7, #604]	@ zero_extendqisi2
 1256 0252 07F14801 		add	r1, r7, #72
 1257 0256 0A44     		add	r2, r2, r1
 1258 0258 1178     		ldrb	r1, [r2]	@ zero_extendqisi2
 1259 025a D7F84422 		ldr	r2, [r7, #580]
 1260 025e D154     		strb	r1, [r2, r3]
 403:..\src/command_processing.c ****             for(j = 0; j < sod; j++) {
 1261              		.loc 1 403 0 discriminator 3
 1262 0260 97F85C32 		ldrb	r3, [r7, #604]	@ zero_extendqisi2
 1263 0264 0133     		adds	r3, r3, #1
 1264 0266 87F85C32 		strb	r3, [r7, #604]
 1265              	.L84:
 403:..\src/command_processing.c ****             for(j = 0; j < sod; j++) {
 1266              		.loc 1 403 0 is_stmt 0 discriminator 1
 1267 026a 97F85C22 		ldrb	r2, [r7, #604]	@ zero_extendqisi2
 1268 026e 97F84332 		ldrb	r3, [r7, #579]	@ zero_extendqisi2
 1269 0272 9A42     		cmp	r2, r3
 1270 0274 DBD3     		bcc	.L85
 405:..\src/command_processing.c ****             }
 406:..\src/command_processing.c ****             break;            
 1271              		.loc 1 406 0 is_stmt 1
 1272 0276 48E0     		b	.L86
 1273              	.L113:
 407:..\src/command_processing.c ****             
 408:..\src/command_processing.c **** 
 409:..\src/command_processing.c ****         case 0:  // Not custom parameter
 410:..\src/command_processing.c ****         default: // Parameters that are only custom for SET
 411:..\src/command_processing.c ****             for (i = 0; i < PARAM_LIST[idx].NUM_ITEMS * sod; i+=sod){
 1274              		.loc 1 411 0
 1275 0278 0023     		movs	r3, #0
 1276 027a 87F85D32 		strb	r3, [r7, #605]
 1277 027e 32E0     		b	.L87
 1278              	.L90:
 412:..\src/command_processing.c ****                 for(j = 0; j < sod; j++) {
 1279              		.loc 1 412 0
 1280 0280 0023     		movs	r3, #0
 1281 0282 87F85C32 		strb	r3, [r7, #604]
 1282 0286 21E0     		b	.L88
 1283              	.L89:
 413:..\src/command_processing.c ****                     packet_data[(4 + PARAM_BYTE_SLOT*idx + i) + sod - j -1] = m_addr[i+j];
 1284              		.loc 1 413 0 discriminator 3
 1285 0288 97F85F32 		ldrb	r3, [r7, #607]	@ zero_extendqisi2
 1286 028c 3222     		movs	r2, #50
ARM GAS  C:\Users\mgnocco\AppData\Local\Temp\ccOygPd6.s 			page 45


 1287 028e 02FB03F3 		mul	r3, r2, r3
 1288 0292 1A1D     		adds	r2, r3, #4
 1289 0294 97F85D32 		ldrb	r3, [r7, #605]	@ zero_extendqisi2
 1290 0298 1A44     		add	r2, r2, r3
 1291 029a 97F84332 		ldrb	r3, [r7, #579]	@ zero_extendqisi2
 1292 029e 1A44     		add	r2, r2, r3
 1293 02a0 97F85C32 		ldrb	r3, [r7, #604]	@ zero_extendqisi2
 1294 02a4 D31A     		subs	r3, r2, r3
 1295 02a6 013B     		subs	r3, r3, #1
 1296 02a8 97F85D12 		ldrb	r1, [r7, #605]	@ zero_extendqisi2
 1297 02ac 97F85C22 		ldrb	r2, [r7, #604]	@ zero_extendqisi2
 1298 02b0 0A44     		add	r2, r2, r1
 1299 02b2 1146     		mov	r1, r2
 1300 02b4 D7F85022 		ldr	r2, [r7, #592]
 1301 02b8 0A44     		add	r2, r2, r1
 1302 02ba 1178     		ldrb	r1, [r2]	@ zero_extendqisi2
 1303 02bc D7F84422 		ldr	r2, [r7, #580]
 1304 02c0 D154     		strb	r1, [r2, r3]
 412:..\src/command_processing.c ****                 for(j = 0; j < sod; j++) {
 1305              		.loc 1 412 0 discriminator 3
 1306 02c2 97F85C32 		ldrb	r3, [r7, #604]	@ zero_extendqisi2
 1307 02c6 0133     		adds	r3, r3, #1
 1308 02c8 87F85C32 		strb	r3, [r7, #604]
 1309              	.L88:
 412:..\src/command_processing.c ****                 for(j = 0; j < sod; j++) {
 1310              		.loc 1 412 0 is_stmt 0 discriminator 1
 1311 02cc 97F85C22 		ldrb	r2, [r7, #604]	@ zero_extendqisi2
 1312 02d0 97F84332 		ldrb	r3, [r7, #579]	@ zero_extendqisi2
 1313 02d4 9A42     		cmp	r2, r3
 1314 02d6 D7D3     		bcc	.L89
 411:..\src/command_processing.c ****                 for(j = 0; j < sod; j++) {
 1315              		.loc 1 411 0 is_stmt 1 discriminator 2
 1316 02d8 97F85D22 		ldrb	r2, [r7, #605]
 1317 02dc 97F84332 		ldrb	r3, [r7, #579]
 1318 02e0 1344     		add	r3, r3, r2
 1319 02e2 87F85D32 		strb	r3, [r7, #605]
 1320              	.L87:
 411:..\src/command_processing.c ****                 for(j = 0; j < sod; j++) {
 1321              		.loc 1 411 0 is_stmt 0 discriminator 1
 1322 02e6 97F85D22 		ldrb	r2, [r7, #605]	@ zero_extendqisi2
 1323 02ea 97F85F32 		ldrb	r3, [r7, #607]	@ zero_extendqisi2
 1324 02ee 1B01     		lsls	r3, r3, #4
 1325 02f0 07F10801 		add	r1, r7, #8
 1326 02f4 0968     		ldr	r1, [r1]
 1327 02f6 0B44     		add	r3, r3, r1
 1328 02f8 5B79     		ldrb	r3, [r3, #5]	@ zero_extendqisi2
 1329 02fa 1946     		mov	r1, r3
 1330 02fc 97F84332 		ldrb	r3, [r7, #579]	@ zero_extendqisi2
 1331 0300 03FB01F3 		mul	r3, r3, r1
 1332 0304 9A42     		cmp	r2, r3
 1333 0306 BBDB     		blt	.L90
 414:..\src/command_processing.c ****                 }
 415:..\src/command_processing.c ****             }
 416:..\src/command_processing.c ****             break;
 1334              		.loc 1 416 0 is_stmt 1
 1335 0308 00BF     		nop
 1336              	.L86:
ARM GAS  C:\Users\mgnocco\AppData\Local\Temp\ccOygPd6.s 			page 46


 417:..\src/command_processing.c ****     }
 418:..\src/command_processing.c ****        
 419:..\src/command_processing.c ****         sprintf(aux_str,"");
 1337              		.loc 1 419 0
 1338 030a 634B     		ldr	r3, .L114+4
 1339 030c 1A78     		ldrb	r2, [r3]	@ zero_extendqisi2
 1340 030e 07F5A473 		add	r3, r7, #328
 1341 0312 1A70     		strb	r2, [r3]
 420:..\src/command_processing.c ****         itoa(idx + 1, aux_char, 10);
 1342              		.loc 1 420 0
 1343 0314 97F85F32 		ldrb	r3, [r7, #607]	@ zero_extendqisi2
 1344 0318 0133     		adds	r3, r3, #1
 1345 031a 07F11401 		add	r1, r7, #20
 1346 031e 0A22     		movs	r2, #10
 1347 0320 1846     		mov	r0, r3
 1348 0322 FFF7FEFF 		bl	itoa
 421:..\src/command_processing.c ****         strcat(aux_str ,aux_char);
 1349              		.loc 1 421 0
 1350 0326 07F11402 		add	r2, r7, #20
 1351 032a 07F5A473 		add	r3, r7, #328
 1352 032e 1146     		mov	r1, r2
 1353 0330 1846     		mov	r0, r3
 1354 0332 FFF7FEFF 		bl	strcat
 422:..\src/command_processing.c ****         strcat(aux_str," - ");
 1355              		.loc 1 422 0
 1356 0336 07F5A473 		add	r3, r7, #328
 1357 033a 1846     		mov	r0, r3
 1358 033c FFF7FEFF 		bl	strlen
 1359 0340 0346     		mov	r3, r0
 1360 0342 1A46     		mov	r2, r3
 1361 0344 07F5A473 		add	r3, r7, #328
 1362 0348 1344     		add	r3, r3, r2
 1363 034a 544A     		ldr	r2, .L114+8
 1364 034c 1068     		ldr	r0, [r2]	@ unaligned
 1365 034e 1860     		str	r0, [r3]	@ unaligned
 423:..\src/command_processing.c ****         strcat(aux_str,(char*)PARAM_LIST[idx].PARAM_STR);                
 1366              		.loc 1 423 0
 1367 0350 97F85F32 		ldrb	r3, [r7, #607]	@ zero_extendqisi2
 1368 0354 1B01     		lsls	r3, r3, #4
 1369 0356 07F10802 		add	r2, r7, #8
 1370 035a 1268     		ldr	r2, [r2]
 1371 035c 1344     		add	r3, r3, r2
 1372 035e 9A68     		ldr	r2, [r3, #8]
 1373 0360 07F5A473 		add	r3, r7, #328
 1374 0364 1146     		mov	r1, r2
 1375 0366 1846     		mov	r0, r3
 1376 0368 FFF7FEFF 		bl	strcat
 424:..\src/command_processing.c ****         string_length = strlen(aux_str);
 1377              		.loc 1 424 0
 1378 036c 07F5A473 		add	r3, r7, #328
 1379 0370 1846     		mov	r0, r3
 1380 0372 FFF7FEFF 		bl	strlen
 1381 0376 0346     		mov	r3, r0
 1382 0378 87F85E32 		strb	r3, [r7, #606]
 425:..\src/command_processing.c ****         
 426:..\src/command_processing.c ****         // Parameters with a menu
 427:..\src/command_processing.c ****         if (PARAM_LIST[idx].MENU != 0){
ARM GAS  C:\Users\mgnocco\AppData\Local\Temp\ccOygPd6.s 			page 47


 1383              		.loc 1 427 0
 1384 037c 97F85F32 		ldrb	r3, [r7, #607]	@ zero_extendqisi2
 1385 0380 1B01     		lsls	r3, r3, #4
 1386 0382 07F10802 		add	r2, r7, #8
 1387 0386 1268     		ldr	r2, [r2]
 1388 0388 1344     		add	r3, r3, r2
 1389 038a 1B7B     		ldrb	r3, [r3, #12]	@ zero_extendqisi2
 1390 038c 002B     		cmp	r3, #0
 1391 038e 40D0     		beq	.L91
 428:..\src/command_processing.c ****             for (i = 0; i < num_menus ; i++){
 1392              		.loc 1 428 0
 1393 0390 0023     		movs	r3, #0
 1394 0392 87F85D32 		strb	r3, [r7, #605]
 1395 0396 35E0     		b	.L92
 1396              	.L94:
 429:..\src/command_processing.c ****                 if (MENU_LIST[i].name == PARAM_LIST[idx].MENU){
 1397              		.loc 1 429 0
 1398 0398 97F85D32 		ldrb	r3, [r7, #605]	@ zero_extendqisi2
 1399 039c 2C22     		movs	r2, #44
 1400 039e 02FB03F3 		mul	r3, r2, r3
 1401 03a2 3A1D     		adds	r2, r7, #4
 1402 03a4 1268     		ldr	r2, [r2]
 1403 03a6 1344     		add	r3, r3, r2
 1404 03a8 1A78     		ldrb	r2, [r3]	@ zero_extendqisi2
 1405 03aa 97F85F32 		ldrb	r3, [r7, #607]	@ zero_extendqisi2
 1406 03ae 1B01     		lsls	r3, r3, #4
 1407 03b0 07F10801 		add	r1, r7, #8
 1408 03b4 0968     		ldr	r1, [r1]
 1409 03b6 0B44     		add	r3, r3, r1
 1410 03b8 1B7B     		ldrb	r3, [r3, #12]	@ zero_extendqisi2
 1411 03ba 9A42     		cmp	r2, r3
 1412 03bc 13D1     		bne	.L93
 430:..\src/command_processing.c ****                 strcat(aux_str, MENU_LIST[i].choice[*m_addr]);
 1413              		.loc 1 430 0
 1414 03be 97F85D32 		ldrb	r3, [r7, #605]	@ zero_extendqisi2
 1415 03c2 2C22     		movs	r2, #44
 1416 03c4 02FB03F3 		mul	r3, r2, r3
 1417 03c8 3A1D     		adds	r2, r7, #4
 1418 03ca 1268     		ldr	r2, [r2]
 1419 03cc 1A44     		add	r2, r2, r3
 1420 03ce D7F85032 		ldr	r3, [r7, #592]
 1421 03d2 1B78     		ldrb	r3, [r3]	@ zero_extendqisi2
 1422 03d4 9B00     		lsls	r3, r3, #2
 1423 03d6 1344     		add	r3, r3, r2
 1424 03d8 5A68     		ldr	r2, [r3, #4]
 1425 03da 07F5A473 		add	r3, r7, #328
 1426 03de 1146     		mov	r1, r2
 1427 03e0 1846     		mov	r0, r3
 1428 03e2 FFF7FEFF 		bl	strcat
 1429              	.L93:
 431:..\src/command_processing.c ****                 }              
 432:..\src/command_processing.c ****             //Recomputes string length
 433:..\src/command_processing.c ****             string_length = strlen(aux_str)+1;
 1430              		.loc 1 433 0 discriminator 2
 1431 03e6 07F5A473 		add	r3, r7, #328
 1432 03ea 1846     		mov	r0, r3
 1433 03ec FFF7FEFF 		bl	strlen
ARM GAS  C:\Users\mgnocco\AppData\Local\Temp\ccOygPd6.s 			page 48


 1434 03f0 0346     		mov	r3, r0
 1435 03f2 DBB2     		uxtb	r3, r3
 1436 03f4 0133     		adds	r3, r3, #1
 1437 03f6 87F85E32 		strb	r3, [r7, #606]
 428:..\src/command_processing.c ****                 if (MENU_LIST[i].name == PARAM_LIST[idx].MENU){
 1438              		.loc 1 428 0 discriminator 2
 1439 03fa 97F85D32 		ldrb	r3, [r7, #605]	@ zero_extendqisi2
 1440 03fe 0133     		adds	r3, r3, #1
 1441 0400 87F85D32 		strb	r3, [r7, #605]
 1442              	.L92:
 428:..\src/command_processing.c ****                 if (MENU_LIST[i].name == PARAM_LIST[idx].MENU){
 1443              		.loc 1 428 0 is_stmt 0 discriminator 1
 1444 0404 07F10E03 		add	r3, r7, #14
 1445 0408 97F85D22 		ldrb	r2, [r7, #605]	@ zero_extendqisi2
 1446 040c 1B78     		ldrb	r3, [r3]	@ zero_extendqisi2
 1447 040e 9A42     		cmp	r2, r3
 1448 0410 C2D3     		bcc	.L94
 1449              	.L91:
 434:..\src/command_processing.c ****             }
 435:..\src/command_processing.c ****         }
 436:..\src/command_processing.c **** 
 437:..\src/command_processing.c ****         // Add parameter string to packet
 438:..\src/command_processing.c ****         for(i = string_length; i != 0; i--)
 1450              		.loc 1 438 0 is_stmt 1
 1451 0412 97F85E32 		ldrb	r3, [r7, #606]
 1452 0416 87F85D32 		strb	r3, [r7, #605]
 1453 041a 28E0     		b	.L95
 1454              	.L96:
 439:..\src/command_processing.c ****             packet_data[(4 + PARAM_BYTE_SLOT*idx) + (sod*PARAM_LIST[idx].NUM_ITEMS) + string_length
 1455              		.loc 1 439 0 discriminator 3
 1456 041c 97F85F32 		ldrb	r3, [r7, #607]	@ zero_extendqisi2
 1457 0420 3222     		movs	r2, #50
 1458 0422 02FB03F3 		mul	r3, r2, r3
 1459 0426 1A1D     		adds	r2, r3, #4
 1460 0428 97F84332 		ldrb	r3, [r7, #579]	@ zero_extendqisi2
 1461 042c 97F85F12 		ldrb	r1, [r7, #607]	@ zero_extendqisi2
 1462 0430 0901     		lsls	r1, r1, #4
 1463 0432 07F10800 		add	r0, r7, #8
 1464 0436 0068     		ldr	r0, [r0]
 1465 0438 0144     		add	r1, r1, r0
 1466 043a 4979     		ldrb	r1, [r1, #5]	@ zero_extendqisi2
 1467 043c 01FB03F3 		mul	r3, r1, r3
 1468 0440 1A44     		add	r2, r2, r3
 1469 0442 97F85E32 		ldrb	r3, [r7, #606]	@ zero_extendqisi2
 1470 0446 1A44     		add	r2, r2, r3
 1471 0448 97F85D32 		ldrb	r3, [r7, #605]	@ zero_extendqisi2
 1472 044c D31A     		subs	r3, r2, r3
 1473 044e 97F85E12 		ldrb	r1, [r7, #606]	@ zero_extendqisi2
 1474 0452 97F85D22 		ldrb	r2, [r7, #605]	@ zero_extendqisi2
 1475 0456 8A1A     		subs	r2, r1, r2
 1476 0458 07F5A471 		add	r1, r7, #328
 1477 045c 895C     		ldrb	r1, [r1, r2]	@ zero_extendqisi2
 1478 045e D7F84422 		ldr	r2, [r7, #580]
 1479 0462 D154     		strb	r1, [r2, r3]
 438:..\src/command_processing.c ****             packet_data[(4 + PARAM_BYTE_SLOT*idx) + (sod*PARAM_LIST[idx].NUM_ITEMS) + string_length
 1480              		.loc 1 438 0 discriminator 3
 1481 0464 97F85D32 		ldrb	r3, [r7, #605]	@ zero_extendqisi2
ARM GAS  C:\Users\mgnocco\AppData\Local\Temp\ccOygPd6.s 			page 49


 1482 0468 013B     		subs	r3, r3, #1
 1483 046a 87F85D32 		strb	r3, [r7, #605]
 1484              	.L95:
 438:..\src/command_processing.c ****             packet_data[(4 + PARAM_BYTE_SLOT*idx) + (sod*PARAM_LIST[idx].NUM_ITEMS) + string_length
 1485              		.loc 1 438 0 is_stmt 0 discriminator 1
 1486 046e 97F85D32 		ldrb	r3, [r7, #605]	@ zero_extendqisi2
 1487 0472 002B     		cmp	r3, #0
 1488 0474 D2D1     		bne	.L96
 440:..\src/command_processing.c ****         
 441:..\src/command_processing.c ****         
 442:..\src/command_processing.c ****         if (PARAM_LIST[idx].TYPES == TYPE_FLAG){
 1489              		.loc 1 442 0 is_stmt 1
 1490 0476 97F85F32 		ldrb	r3, [r7, #607]	@ zero_extendqisi2
 1491 047a 1B01     		lsls	r3, r3, #4
 1492 047c 07F10802 		add	r2, r7, #8
 1493 0480 1268     		ldr	r2, [r2]
 1494 0482 1344     		add	r3, r3, r2
 1495 0484 1B79     		ldrb	r3, [r3, #4]	@ zero_extendqisi2
 1496 0486 002B     		cmp	r3, #0
 1497 0488 6ED1     		bne	.L97
 443:..\src/command_processing.c ****             //Send the number of menus          
 444:..\src/command_processing.c ****             for (i = 0; i < num_menus ; i++){
 1498              		.loc 1 444 0
 1499 048a 0023     		movs	r3, #0
 1500 048c 87F85D32 		strb	r3, [r7, #605]
 1501 0490 40E0     		b	.L98
 1502              	.L115:
 1503 0492 00BF     		.align	2
 1504              	.L114:
 1505 0494 00000000 		.word	c_mem
 1506 0498 00000000 		.word	.LC8
 1507 049c 04000000 		.word	.LC14
 1508              	.L100:
 445:..\src/command_processing.c ****                 if (MENU_LIST[i].name == PARAM_LIST[idx].MENU){
 1509              		.loc 1 445 0
 1510 04a0 97F85D32 		ldrb	r3, [r7, #605]	@ zero_extendqisi2
 1511 04a4 2C22     		movs	r2, #44
 1512 04a6 02FB03F3 		mul	r3, r2, r3
 1513 04aa 3A1D     		adds	r2, r7, #4
 1514 04ac 1268     		ldr	r2, [r2]
 1515 04ae 1344     		add	r3, r3, r2
 1516 04b0 1A78     		ldrb	r2, [r3]	@ zero_extendqisi2
 1517 04b2 97F85F32 		ldrb	r3, [r7, #607]	@ zero_extendqisi2
 1518 04b6 1B01     		lsls	r3, r3, #4
 1519 04b8 07F10801 		add	r1, r7, #8
 1520 04bc 0968     		ldr	r1, [r1]
 1521 04be 0B44     		add	r3, r3, r1
 1522 04c0 1B7B     		ldrb	r3, [r3, #12]	@ zero_extendqisi2
 1523 04c2 9A42     		cmp	r2, r3
 1524 04c4 21D1     		bne	.L99
 446:..\src/command_processing.c ****                 packet_data[(4 + PARAM_BYTE_SLOT*idx) + (sod*PARAM_LIST[idx].NUM_ITEMS) + string_le
 1525              		.loc 1 446 0
 1526 04c6 97F85F32 		ldrb	r3, [r7, #607]	@ zero_extendqisi2
 1527 04ca 3222     		movs	r2, #50
 1528 04cc 02FB03F3 		mul	r3, r2, r3
 1529 04d0 1A1D     		adds	r2, r3, #4
 1530 04d2 97F84332 		ldrb	r3, [r7, #579]	@ zero_extendqisi2
ARM GAS  C:\Users\mgnocco\AppData\Local\Temp\ccOygPd6.s 			page 50


 1531 04d6 97F85F12 		ldrb	r1, [r7, #607]	@ zero_extendqisi2
 1532 04da 0901     		lsls	r1, r1, #4
 1533 04dc 07F10800 		add	r0, r7, #8
 1534 04e0 0068     		ldr	r0, [r0]
 1535 04e2 0144     		add	r1, r1, r0
 1536 04e4 4979     		ldrb	r1, [r1, #5]	@ zero_extendqisi2
 1537 04e6 01FB03F3 		mul	r3, r1, r3
 1538 04ea 1A44     		add	r2, r2, r3
 1539 04ec 97F85E32 		ldrb	r3, [r7, #606]	@ zero_extendqisi2
 1540 04f0 1344     		add	r3, r3, r2
 1541 04f2 97F85D22 		ldrb	r2, [r7, #605]
 1542 04f6 0132     		adds	r2, r2, #1
 1543 04f8 D1B2     		uxtb	r1, r2
 1544 04fa D7F84422 		ldr	r2, [r7, #580]
 1545 04fe D154     		strb	r1, [r2, r3]
 447:..\src/command_processing.c ****                 i = num_menus;}              
 1546              		.loc 1 447 0
 1547 0500 07F10E03 		add	r3, r7, #14
 1548 0504 1B78     		ldrb	r3, [r3]
 1549 0506 87F85D32 		strb	r3, [r7, #605]
 1550              	.L99:
 444:..\src/command_processing.c ****                 if (MENU_LIST[i].name == PARAM_LIST[idx].MENU){
 1551              		.loc 1 444 0 discriminator 2
 1552 050a 97F85D32 		ldrb	r3, [r7, #605]	@ zero_extendqisi2
 1553 050e 0133     		adds	r3, r3, #1
 1554 0510 87F85D32 		strb	r3, [r7, #605]
 1555              	.L98:
 444:..\src/command_processing.c ****                 if (MENU_LIST[i].name == PARAM_LIST[idx].MENU){
 1556              		.loc 1 444 0 is_stmt 0 discriminator 1
 1557 0514 07F10E03 		add	r3, r7, #14
 1558 0518 97F85D22 		ldrb	r2, [r7, #605]	@ zero_extendqisi2
 1559 051c 1B78     		ldrb	r3, [r3]	@ zero_extendqisi2
 1560 051e 9A42     		cmp	r2, r3
 1561 0520 BED3     		bcc	.L100
 448:..\src/command_processing.c ****             }
 449:..\src/command_processing.c ****             // Add empty bit + struct number
 450:..\src/command_processing.c ****             // Note: added here at the end of packets is transparent to old parameters retrieving v
 451:..\src/command_processing.c ****             packet_data[(4 + PARAM_BYTE_SLOT*idx) + (sod*PARAM_LIST[idx].NUM_ITEMS) + string_length
 1562              		.loc 1 451 0 is_stmt 1
 1563 0522 97F85F32 		ldrb	r3, [r7, #607]	@ zero_extendqisi2
 1564 0526 3222     		movs	r2, #50
 1565 0528 02FB03F3 		mul	r3, r2, r3
 1566 052c 1A1D     		adds	r2, r3, #4
 1567 052e 97F84332 		ldrb	r3, [r7, #579]	@ zero_extendqisi2
 1568 0532 97F85F12 		ldrb	r1, [r7, #607]	@ zero_extendqisi2
 1569 0536 0901     		lsls	r1, r1, #4
 1570 0538 07F10800 		add	r0, r7, #8
 1571 053c 0068     		ldr	r0, [r0]
 1572 053e 0144     		add	r1, r1, r0
 1573 0540 4979     		ldrb	r1, [r1, #5]	@ zero_extendqisi2
 1574 0542 01FB03F3 		mul	r3, r1, r3
 1575 0546 1A44     		add	r2, r2, r3
 1576 0548 97F85E32 		ldrb	r3, [r7, #606]	@ zero_extendqisi2
 1577 054c 1344     		add	r3, r3, r2
 1578 054e 0233     		adds	r3, r3, #2
 1579 0550 97F85F22 		ldrb	r2, [r7, #607]	@ zero_extendqisi2
 1580 0554 1201     		lsls	r2, r2, #4
ARM GAS  C:\Users\mgnocco\AppData\Local\Temp\ccOygPd6.s 			page 51


 1581 0556 07F10801 		add	r1, r7, #8
 1582 055a 0968     		ldr	r1, [r1]
 1583 055c 0A44     		add	r2, r2, r1
 1584 055e 517B     		ldrb	r1, [r2, #13]	@ zero_extendqisi2
 1585 0560 D7F84422 		ldr	r2, [r7, #580]
 1586 0564 D154     		strb	r1, [r2, r3]
 1587 0566 21E0     		b	.L101
 1588              	.L97:
 452:..\src/command_processing.c ****         }
 453:..\src/command_processing.c ****         else {
 454:..\src/command_processing.c ****             packet_data[(4 + PARAM_BYTE_SLOT*idx) + (sod*PARAM_LIST[idx].NUM_ITEMS) + string_length
 1589              		.loc 1 454 0
 1590 0568 97F85F32 		ldrb	r3, [r7, #607]	@ zero_extendqisi2
 1591 056c 3222     		movs	r2, #50
 1592 056e 02FB03F3 		mul	r3, r2, r3
 1593 0572 1A1D     		adds	r2, r3, #4
 1594 0574 97F84332 		ldrb	r3, [r7, #579]	@ zero_extendqisi2
 1595 0578 97F85F12 		ldrb	r1, [r7, #607]	@ zero_extendqisi2
 1596 057c 0901     		lsls	r1, r1, #4
 1597 057e 07F10800 		add	r0, r7, #8
 1598 0582 0068     		ldr	r0, [r0]
 1599 0584 0144     		add	r1, r1, r0
 1600 0586 4979     		ldrb	r1, [r1, #5]	@ zero_extendqisi2
 1601 0588 01FB03F3 		mul	r3, r1, r3
 1602 058c 1A44     		add	r2, r2, r3
 1603 058e 97F85E32 		ldrb	r3, [r7, #606]	@ zero_extendqisi2
 1604 0592 1344     		add	r3, r3, r2
 1605 0594 0133     		adds	r3, r3, #1
 1606 0596 97F85F22 		ldrb	r2, [r7, #607]	@ zero_extendqisi2
 1607 059a 1201     		lsls	r2, r2, #4
 1608 059c 07F10801 		add	r1, r7, #8
 1609 05a0 0968     		ldr	r1, [r1]
 1610 05a2 0A44     		add	r2, r2, r1
 1611 05a4 517B     		ldrb	r1, [r2, #13]	@ zero_extendqisi2
 1612 05a6 D7F84422 		ldr	r2, [r7, #580]
 1613 05aa D154     		strb	r1, [r2, r3]
 1614              	.L101:
 1615              	.LBE23:
 388:..\src/command_processing.c ****         m_addr = (uint8*)PARAM_LIST[idx].VAR_P;
 1616              		.loc 1 388 0 discriminator 2
 1617 05ac 97F85F32 		ldrb	r3, [r7, #607]	@ zero_extendqisi2
 1618 05b0 0133     		adds	r3, r3, #1
 1619 05b2 87F85F32 		strb	r3, [r7, #607]
 1620              	.L79:
 388:..\src/command_processing.c ****         m_addr = (uint8*)PARAM_LIST[idx].VAR_P;
 1621              		.loc 1 388 0 is_stmt 0 discriminator 1
 1622 05b6 07F10F03 		add	r3, r7, #15
 1623 05ba 97F85F22 		ldrb	r2, [r7, #607]	@ zero_extendqisi2
 1624 05be 1B78     		ldrb	r3, [r3]	@ zero_extendqisi2
 1625 05c0 9A42     		cmp	r2, r3
 1626 05c2 FFF4B3AD 		bcc	.L102
 455:..\src/command_processing.c ****         }
 456:..\src/command_processing.c ****     }
 457:..\src/command_processing.c ****     
 458:..\src/command_processing.c ****     // Add menu
 459:..\src/command_processing.c ****     for (j = 0; j < num_menus; j++) {
 1627              		.loc 1 459 0 is_stmt 1
ARM GAS  C:\Users\mgnocco\AppData\Local\Temp\ccOygPd6.s 			page 52


 1628 05c6 0023     		movs	r3, #0
 1629 05c8 87F85C32 		strb	r3, [r7, #604]
 1630 05cc C0E0     		b	.L103
 1631              	.L111:
 460:..\src/command_processing.c ****         sprintf(aux_str1,"");
 1632              		.loc 1 460 0
 1633 05ce 774B     		ldr	r3, .L116
 1634 05d0 1A78     		ldrb	r2, [r3]	@ zero_extendqisi2
 1635 05d2 07F14C03 		add	r3, r7, #76
 1636 05d6 1A70     		strb	r2, [r3]
 461:..\src/command_processing.c ****         for (count = 0; count <10 ; count++){            
 1637              		.loc 1 461 0
 1638 05d8 0023     		movs	r3, #0
 1639 05da 87F85B32 		strb	r3, [r7, #603]
 1640 05de 7AE0     		b	.L104
 1641              	.L108:
 462:..\src/command_processing.c ****             if (!strcmp(MENU_LIST[j].choice[count],"")){
 1642              		.loc 1 462 0
 1643 05e0 97F85C32 		ldrb	r3, [r7, #604]	@ zero_extendqisi2
 1644 05e4 2C22     		movs	r2, #44
 1645 05e6 02FB03F3 		mul	r3, r2, r3
 1646 05ea 3A1D     		adds	r2, r7, #4
 1647 05ec 1268     		ldr	r2, [r2]
 1648 05ee 1A44     		add	r2, r2, r3
 1649 05f0 97F85B32 		ldrb	r3, [r7, #603]	@ zero_extendqisi2
 1650 05f4 9B00     		lsls	r3, r3, #2
 1651 05f6 1344     		add	r3, r3, r2
 1652 05f8 5B68     		ldr	r3, [r3, #4]
 1653 05fa 1B78     		ldrb	r3, [r3]	@ zero_extendqisi2
 1654 05fc 002B     		cmp	r3, #0
 1655 05fe 24D1     		bne	.L105
 463:..\src/command_processing.c ****                 if (MENU_LIST[j].reset == TRUE){
 1656              		.loc 1 463 0
 1657 0600 97F85C32 		ldrb	r3, [r7, #604]	@ zero_extendqisi2
 1658 0604 2C22     		movs	r2, #44
 1659 0606 02FB03F3 		mul	r3, r2, r3
 1660 060a 3A1D     		adds	r2, r7, #4
 1661 060c 1268     		ldr	r2, [r2]
 1662 060e 1344     		add	r3, r3, r2
 1663 0610 5B78     		ldrb	r3, [r3, #1]	@ zero_extendqisi2
 1664 0612 012B     		cmp	r3, #1
 1665 0614 15D1     		bne	.L106
 464:..\src/command_processing.c ****                     strcat(aux_str1,"The board will reset\n");
 1666              		.loc 1 464 0
 1667 0616 07F14C03 		add	r3, r7, #76
 1668 061a 1846     		mov	r0, r3
 1669 061c FFF7FEFF 		bl	strlen
 1670 0620 0346     		mov	r3, r0
 1671 0622 1A46     		mov	r2, r3
 1672 0624 07F14C03 		add	r3, r7, #76
 1673 0628 1344     		add	r3, r3, r2
 1674 062a 614A     		ldr	r2, .L116+4
 1675 062c 1D46     		mov	r5, r3
 1676 062e 1446     		mov	r4, r2
 1677 0630 0FCC     		ldmia	r4!, {r0, r1, r2, r3}
 1678 0632 2860     		str	r0, [r5]	@ unaligned
 1679 0634 6960     		str	r1, [r5, #4]	@ unaligned
ARM GAS  C:\Users\mgnocco\AppData\Local\Temp\ccOygPd6.s 			page 53


 1680 0636 AA60     		str	r2, [r5, #8]	@ unaligned
 1681 0638 EB60     		str	r3, [r5, #12]	@ unaligned
 1682 063a 2068     		ldr	r0, [r4]	@ unaligned
 1683 063c 2861     		str	r0, [r5, #16]	@ unaligned
 1684 063e A388     		ldrh	r3, [r4, #4]	@ unaligned
 1685 0640 AB82     		strh	r3, [r5, #20]	@ unaligned
 1686              	.L106:
 465:..\src/command_processing.c ****                 }
 466:..\src/command_processing.c ****                 count = 10;
 1687              		.loc 1 466 0
 1688 0642 0A23     		movs	r3, #10
 1689 0644 87F85B32 		strb	r3, [r7, #603]
 1690 0648 40E0     		b	.L107
 1691              	.L105:
 467:..\src/command_processing.c ****             }            
 468:..\src/command_processing.c ****             else {
 469:..\src/command_processing.c ****                 itoa(count, aux_char, 10);
 1692              		.loc 1 469 0
 1693 064a 97F85B32 		ldrb	r3, [r7, #603]	@ zero_extendqisi2
 1694 064e 07F11401 		add	r1, r7, #20
 1695 0652 0A22     		movs	r2, #10
 1696 0654 1846     		mov	r0, r3
 1697 0656 FFF7FEFF 		bl	itoa
 470:..\src/command_processing.c ****                 strcat(aux_str1,aux_char);
 1698              		.loc 1 470 0
 1699 065a 07F11402 		add	r2, r7, #20
 1700 065e 07F14C03 		add	r3, r7, #76
 1701 0662 1146     		mov	r1, r2
 1702 0664 1846     		mov	r0, r3
 1703 0666 FFF7FEFF 		bl	strcat
 471:..\src/command_processing.c ****                 strcat(aux_str1," -> ");
 1704              		.loc 1 471 0
 1705 066a 07F14C03 		add	r3, r7, #76
 1706 066e 1846     		mov	r0, r3
 1707 0670 FFF7FEFF 		bl	strlen
 1708 0674 0346     		mov	r3, r0
 1709 0676 1A46     		mov	r2, r3
 1710 0678 07F14C03 		add	r3, r7, #76
 1711 067c 1344     		add	r3, r3, r2
 1712 067e 4D4A     		ldr	r2, .L116+8
 1713 0680 1068     		ldr	r0, [r2]	@ unaligned
 1714 0682 1860     		str	r0, [r3]	@ unaligned
 1715 0684 1279     		ldrb	r2, [r2, #4]
 1716 0686 1A71     		strb	r2, [r3, #4]
 472:..\src/command_processing.c ****                 strcat(aux_str1,(char*)MENU_LIST[j].choice[count]);
 1717              		.loc 1 472 0
 1718 0688 97F85C32 		ldrb	r3, [r7, #604]	@ zero_extendqisi2
 1719 068c 2C22     		movs	r2, #44
 1720 068e 02FB03F3 		mul	r3, r2, r3
 1721 0692 3A1D     		adds	r2, r7, #4
 1722 0694 1268     		ldr	r2, [r2]
 1723 0696 1A44     		add	r2, r2, r3
 1724 0698 97F85B32 		ldrb	r3, [r7, #603]	@ zero_extendqisi2
 1725 069c 9B00     		lsls	r3, r3, #2
 1726 069e 1344     		add	r3, r3, r2
 1727 06a0 5A68     		ldr	r2, [r3, #4]
 1728 06a2 07F14C03 		add	r3, r7, #76
ARM GAS  C:\Users\mgnocco\AppData\Local\Temp\ccOygPd6.s 			page 54


 1729 06a6 1146     		mov	r1, r2
 1730 06a8 1846     		mov	r0, r3
 1731 06aa FFF7FEFF 		bl	strcat
 473:..\src/command_processing.c ****                 strcat(aux_str1,"\n");
 1732              		.loc 1 473 0
 1733 06ae 07F14C03 		add	r3, r7, #76
 1734 06b2 1846     		mov	r0, r3
 1735 06b4 FFF7FEFF 		bl	strlen
 1736 06b8 0346     		mov	r3, r0
 1737 06ba 1A46     		mov	r2, r3
 1738 06bc 07F14C03 		add	r3, r7, #76
 1739 06c0 1344     		add	r3, r3, r2
 1740 06c2 3D49     		ldr	r1, .L116+12
 1741 06c4 1A46     		mov	r2, r3
 1742 06c6 0B46     		mov	r3, r1
 1743 06c8 1B88     		ldrh	r3, [r3]	@ unaligned
 1744 06ca 1380     		strh	r3, [r2]	@ unaligned
 1745              	.L107:
 461:..\src/command_processing.c ****             if (!strcmp(MENU_LIST[j].choice[count],"")){
 1746              		.loc 1 461 0 discriminator 2
 1747 06cc 97F85B32 		ldrb	r3, [r7, #603]	@ zero_extendqisi2
 1748 06d0 0133     		adds	r3, r3, #1
 1749 06d2 87F85B32 		strb	r3, [r7, #603]
 1750              	.L104:
 461:..\src/command_processing.c ****             if (!strcmp(MENU_LIST[j].choice[count],"")){
 1751              		.loc 1 461 0 is_stmt 0 discriminator 1
 1752 06d6 97F85B32 		ldrb	r3, [r7, #603]	@ zero_extendqisi2
 1753 06da 092B     		cmp	r3, #9
 1754 06dc 80D9     		bls	.L108
 474:..\src/command_processing.c ****             }    
 475:..\src/command_processing.c ****         }
 476:..\src/command_processing.c ****         string_length = strlen(aux_str1);
 1755              		.loc 1 476 0 is_stmt 1
 1756 06de 07F14C03 		add	r3, r7, #76
 1757 06e2 1846     		mov	r0, r3
 1758 06e4 FFF7FEFF 		bl	strlen
 1759 06e8 0346     		mov	r3, r0
 1760 06ea 87F85E32 		strb	r3, [r7, #606]
 477:..\src/command_processing.c ****         
 478:..\src/command_processing.c ****         for(i = string_length; i != 0; i--)
 1761              		.loc 1 478 0
 1762 06ee 97F85E32 		ldrb	r3, [r7, #606]
 1763 06f2 87F85D32 		strb	r3, [r7, #605]
 1764 06f6 22E0     		b	.L109
 1765              	.L110:
 479:..\src/command_processing.c ****         packet_data[PARAM_BYTE_SLOT*num_params + 2 + j*PARAM_MENU_SLOT + string_length - i] = aux_s
 1766              		.loc 1 479 0 discriminator 3
 1767 06f8 07F10F03 		add	r3, r7, #15
 1768 06fc 1B78     		ldrb	r3, [r3]	@ zero_extendqisi2
 1769 06fe 3222     		movs	r2, #50
 1770 0700 02FB03F3 		mul	r3, r2, r3
 1771 0704 9A1C     		adds	r2, r3, #2
 1772 0706 97F85C32 		ldrb	r3, [r7, #604]	@ zero_extendqisi2
 1773 070a 9621     		movs	r1, #150
 1774 070c 01FB03F3 		mul	r3, r1, r3
 1775 0710 1A44     		add	r2, r2, r3
 1776 0712 97F85E32 		ldrb	r3, [r7, #606]	@ zero_extendqisi2
ARM GAS  C:\Users\mgnocco\AppData\Local\Temp\ccOygPd6.s 			page 55


 1777 0716 1A44     		add	r2, r2, r3
 1778 0718 97F85D32 		ldrb	r3, [r7, #605]	@ zero_extendqisi2
 1779 071c D31A     		subs	r3, r2, r3
 1780 071e 97F85E12 		ldrb	r1, [r7, #606]	@ zero_extendqisi2
 1781 0722 97F85D22 		ldrb	r2, [r7, #605]	@ zero_extendqisi2
 1782 0726 8A1A     		subs	r2, r1, r2
 1783 0728 07F14C01 		add	r1, r7, #76
 1784 072c 895C     		ldrb	r1, [r1, r2]	@ zero_extendqisi2
 1785 072e D7F84422 		ldr	r2, [r7, #580]
 1786 0732 D154     		strb	r1, [r2, r3]
 478:..\src/command_processing.c ****         packet_data[PARAM_BYTE_SLOT*num_params + 2 + j*PARAM_MENU_SLOT + string_length - i] = aux_s
 1787              		.loc 1 478 0 discriminator 3
 1788 0734 97F85D32 		ldrb	r3, [r7, #605]	@ zero_extendqisi2
 1789 0738 013B     		subs	r3, r3, #1
 1790 073a 87F85D32 		strb	r3, [r7, #605]
 1791              	.L109:
 478:..\src/command_processing.c ****         packet_data[PARAM_BYTE_SLOT*num_params + 2 + j*PARAM_MENU_SLOT + string_length - i] = aux_s
 1792              		.loc 1 478 0 is_stmt 0 discriminator 1
 1793 073e 97F85D32 		ldrb	r3, [r7, #605]	@ zero_extendqisi2
 1794 0742 002B     		cmp	r3, #0
 1795 0744 D8D1     		bne	.L110
 459:..\src/command_processing.c ****         sprintf(aux_str1,"");
 1796              		.loc 1 459 0 is_stmt 1 discriminator 2
 1797 0746 97F85C32 		ldrb	r3, [r7, #604]	@ zero_extendqisi2
 1798 074a 0133     		adds	r3, r3, #1
 1799 074c 87F85C32 		strb	r3, [r7, #604]
 1800              	.L103:
 459:..\src/command_processing.c ****         sprintf(aux_str1,"");
 1801              		.loc 1 459 0 is_stmt 0 discriminator 1
 1802 0750 07F10E03 		add	r3, r7, #14
 1803 0754 97F85C22 		ldrb	r2, [r7, #604]	@ zero_extendqisi2
 1804 0758 1B78     		ldrb	r3, [r3]	@ zero_extendqisi2
 1805 075a 9A42     		cmp	r2, r3
 1806 075c FFF437AF 		bcc	.L111
 480:..\src/command_processing.c ****     }
 481:..\src/command_processing.c ****         
 482:..\src/command_processing.c ****     packet_data[packet_length - 1] = LCRChecksum(packet_data,packet_length - 1);
 1807              		.loc 1 482 0 is_stmt 1
 1808 0760 B7F84E32 		ldrh	r3, [r7, #590]
 1809 0764 5C1E     		subs	r4, r3, #1
 1810 0766 D7F84422 		ldr	r2, [r7, #580]
 1811 076a B7F84E32 		ldrh	r3, [r7, #590]	@ movhi
 1812 076e DBB2     		uxtb	r3, r3
 1813 0770 013B     		subs	r3, r3, #1
 1814 0772 DBB2     		uxtb	r3, r3
 1815 0774 1946     		mov	r1, r3
 1816 0776 1046     		mov	r0, r2
 1817 0778 FFF7FEFF 		bl	LCRChecksum
 1818 077c 0346     		mov	r3, r0
 1819 077e 1A46     		mov	r2, r3
 1820 0780 D7F84432 		ldr	r3, [r7, #580]
 1821 0784 1A55     		strb	r2, [r3, r4]
 483:..\src/command_processing.c ****     
 484:..\src/command_processing.c ****     if (sendToDevice)
 1822              		.loc 1 484 0
 1823 0786 97F88032 		ldrb	r3, [r7, #640]	@ zero_extendqisi2
 1824 078a 002B     		cmp	r3, #0
ARM GAS  C:\Users\mgnocco\AppData\Local\Temp\ccOygPd6.s 			page 56


 1825 078c 07D0     		beq	.L112
 485:..\src/command_processing.c ****     {commWrite(packet_data, packet_length);  
 1826              		.loc 1 485 0
 1827 078e D7F84432 		ldr	r3, [r7, #580]
 1828 0792 B7F84E22 		ldrh	r2, [r7, #590]
 1829 0796 1146     		mov	r1, r2
 1830 0798 1846     		mov	r0, r3
 1831 079a FFF7FEFF 		bl	commWrite
 1832              	.L112:
 1833 079e B546     		mov	sp, r6
 486:..\src/command_processing.c ****     }
 487:..\src/command_processing.c ****     else {
 488:..\src/command_processing.c ****        //Update pointer (Bad choice since pointing to dead variable in another function, to fix)
 489:..\src/command_processing.c ****       // longPkgP = (char*)&packet_data[0];
 490:..\src/command_processing.c ****       // longPkgSize = packet_length;
 491:..\src/command_processing.c ****     }
 492:..\src/command_processing.c **** }
 1834              		.loc 1 492 0
 1835 07a0 00BF     		nop
 1836 07a2 07F51977 		add	r7, r7, #612
 1837              		.cfi_def_cfa_offset 28
 1838 07a6 BD46     		mov	sp, r7
 1839              		.cfi_def_cfa_register 13
 1840              		@ sp needed
 1841 07a8 BDE8F083 		pop	{r4, r5, r6, r7, r8, r9, pc}
 1842              	.L117:
 1843              		.align	2
 1844              	.L116:
 1845 07ac 00000000 		.word	.LC8
 1846 07b0 08000000 		.word	.LC15
 1847 07b4 20000000 		.word	.LC16
 1848 07b8 28000000 		.word	.LC17
 1849              		.cfi_endproc
 1850              	.LFE68:
 1851              		.size	get_param_list, .-get_param_list
 1852              		.section	.rodata
 1853 002a 0000     		.align	2
 1854              	.LC19:
 1855 002c 44657669 		.ascii	"Device ID:\000"
 1855      63652049 
 1855      443A00
 1856 0037 00       		.align	2
 1857              	.LC20:
 1858 0038 454D4720 		.ascii	"EMG thresholds:\000"
 1858      74687265 
 1858      73686F6C 
 1858      64733A00 
 1859              		.align	2
 1860              	.LC21:
 1861 0048 454D4720 		.ascii	"EMG max values:\000"
 1861      6D617820 
 1861      76616C75 
 1861      65733A00 
 1862              		.align	2
 1863              	.LC22:
 1864 0058 454D4720 		.ascii	"EMG max speeds:\000"
 1864      6D617820 
ARM GAS  C:\Users\mgnocco\AppData\Local\Temp\ccOygPd6.s 			page 57


 1864      73706565 
 1864      64733A00 
 1865              		.align	2
 1866              	.LC23:
 1867 0068 454D4720 		.ascii	"EMG inversion:\000"
 1867      696E7665 
 1867      7273696F 
 1867      6E3A00
 1868 0077 00       		.align	2
 1869              	.LC24:
 1870 0078 4D617374 		.ascii	"Master Mode:\000"
 1870      6572204D 
 1870      6F64653A 
 1870      00
 1871 0085 000000   		.align	2
 1872              	.LC25:
 1873 0088 536C6176 		.ascii	"Slave ID:\000"
 1873      65204944 
 1873      3A00
 1874 0092 0000     		.align	2
 1875              	.LC26:
 1876 0094 536C6176 		.ascii	"Slave resolution:\000"
 1876      65207265 
 1876      736F6C75 
 1876      74696F6E 
 1876      3A00
 1877 00a6 0000     		.align	2
 1878              	.LC27:
 1879 00a8 496E7075 		.ascii	"Input mode:\000"
 1879      74206D6F 
 1879      64653A00 
 1880              		.align	2
 1881              	.LC28:
 1882 00b4 506F732E 		.ascii	"Pos. limits [inf, sup]:\000"
 1882      206C696D 
 1882      69747320 
 1882      5B696E66 
 1882      2C207375 
 1883              		.align	2
 1884              	.LC29:
 1885 00cc 56696272 		.ascii	"Vibrotactile Feedback:\000"
 1885      6F746163 
 1885      74696C65 
 1885      20466565 
 1885      64626163 
 1886 00e3 00       		.align	2
 1887              	.LC30:
 1888 00e4 41697220 		.ascii	"Air Chamber Feedback:\000"
 1888      4368616D 
 1888      62657220 
 1888      46656564 
 1888      6261636B 
 1889 00fa 0000     		.align	2
 1890              	.LC31:
 1891 00fc 4D617869 		.ascii	"Maximum slave residual current:\000"
 1891      6D756D20 
 1891      736C6176 
ARM GAS  C:\Users\mgnocco\AppData\Local\Temp\ccOygPd6.s 			page 58


 1891      65207265 
 1891      73696475 
 1892              		.align	2
 1893              	.LC32:
 1894 011c 4D617869 		.ascii	"Maximum pressure feedback (kPa):\000"
 1894      6D756D20 
 1894      70726573 
 1894      73757265 
 1894      20666565 
 1895 013d 000000   		.align	2
 1896              	.LC33:
 1897 0140 50726F70 		.ascii	"Proportional pressure error gain:\000"
 1897      6F727469 
 1897      6F6E616C 
 1897      20707265 
 1897      73737572 
 1898 0162 0000     		.align	2
 1899              	.LC0:
 1900 0164 20557362 		.ascii	" Usb\000"
 1900      00
 1901 0169 000000   		.align	2
 1902              	.LC1:
 1903 016c 2048616E 		.ascii	" Handle\000"
 1903      646C6500 
 1904              		.align	2
 1905              	.LC2:
 1906 0174 20454D47 		.ascii	" EMG proportional\000"
 1906      2070726F 
 1906      706F7274 
 1906      696F6E61 
 1906      6C00
 1907 0186 0000     		.align	2
 1908              	.LC3:
 1909 0188 20454D47 		.ascii	" EMG Integral\000"
 1909      20496E74 
 1909      65677261 
 1909      6C00
 1910 0196 0000     		.align	2
 1911              	.LC4:
 1912 0198 20454D47 		.ascii	" EMG FCFS\000"
 1912      20464346 
 1912      5300
 1913 01a2 0000     		.align	2
 1914              	.LC5:
 1915 01a4 20454D47 		.ascii	" EMG FCFS Advanced\000"
 1915      20464346 
 1915      53204164 
 1915      76616E63 
 1915      656400
 1916 01b7 00       		.align	2
 1917              	.LC6:
 1918 01b8 204A6F79 		.ascii	" Joystick\000"
 1918      73746963 
 1918      6B00
 1919 01c2 0000     		.align	2
 1920              	.LC7:
 1921 01c4 20454D47 		.ascii	" EMG proportional NC\000"
ARM GAS  C:\Users\mgnocco\AppData\Local\Temp\ccOygPd6.s 			page 59


 1921      2070726F 
 1921      706F7274 
 1921      696F6E61 
 1921      6C204E43 
 1922 01d9 000000   		.align	2
 1923              	.LC9:
 1924 01dc 204E4F00 		.ascii	" NO\000"
 1925              		.align	2
 1926              	.LC10:
 1927 01e0 20594553 		.ascii	" YES\000"
 1927      00
 1928 01e5 000000   		.align	2
 1929              	.LC11:
 1930 01e8 204F4646 		.ascii	" OFF\000"
 1930      00
 1931 01ed 000000   		.align	2
 1932              	.LC12:
 1933 01f0 204F4E00 		.ascii	" ON\000"
 1934              		.align	2
 1935              	.LC18:
 1936 01f4 01       		.byte	1
 1937 01f5 00       		.byte	0
 1938 01f6 0000     		.space	2
 1939 01f8 64010000 		.word	.LC0
 1940 01fc 6C010000 		.word	.LC1
 1941 0200 74010000 		.word	.LC2
 1942 0204 88010000 		.word	.LC3
 1943 0208 98010000 		.word	.LC4
 1944 020c A4010000 		.word	.LC5
 1945 0210 B8010000 		.word	.LC6
 1946 0214 C4010000 		.word	.LC7
 1947 0218 00000000 		.word	.LC8
 1948 021c 00000000 		.word	.LC8
 1949 0220 03       		.byte	3
 1950 0221 00       		.byte	0
 1951 0222 0000     		.space	2
 1952 0224 DC010000 		.word	.LC9
 1953 0228 E0010000 		.word	.LC10
 1954 022c 00000000 		.word	.LC8
 1955 0230 00000000 		.word	.LC8
 1956 0234 00000000 		.word	.LC8
 1957 0238 00000000 		.word	.LC8
 1958 023c 00000000 		.word	.LC8
 1959 0240 00000000 		.word	.LC8
 1960 0244 00000000 		.word	.LC8
 1961 0248 00000000 		.word	.LC8
 1962 024c 05       		.byte	5
 1963 024d 01       		.byte	1
 1964 024e 0000     		.space	2
 1965 0250 E8010000 		.word	.LC11
 1966 0254 F0010000 		.word	.LC12
 1967 0258 00000000 		.word	.LC8
 1968 025c 00000000 		.word	.LC8
 1969 0260 00000000 		.word	.LC8
 1970 0264 00000000 		.word	.LC8
 1971 0268 00000000 		.word	.LC8
 1972 026c 00000000 		.word	.LC8
ARM GAS  C:\Users\mgnocco\AppData\Local\Temp\ccOygPd6.s 			page 60


 1973 0270 00000000 		.word	.LC8
 1974 0274 00000000 		.word	.LC8
 1975              		.section	.text.manage_param_list,"ax",%progbits
 1976              		.align	2
 1977              		.global	manage_param_list
 1978              		.thumb
 1979              		.thumb_func
 1980              		.type	manage_param_list, %function
 1981              	manage_param_list:
 1982              	.LFB69:
 493:..\src/command_processing.c **** 
 494:..\src/command_processing.c **** //==============================================================================
 495:..\src/command_processing.c **** // MANAGE PARAM LIST
 496:..\src/command_processing.c **** //==============================================================================
 497:..\src/command_processing.c **** void manage_param_list(uint16 index, uint8 sendToDevice) {
 1983              		.loc 1 497 0
 1984              		.cfi_startproc
 1985              		@ args = 0, pretend = 0, frame = 456
 1986              		@ frame_needed = 1, uses_anonymous_args = 0
 1987 0000 90B5     		push	{r4, r7, lr}
 1988              		.cfi_def_cfa_offset 12
 1989              		.cfi_offset 4, -12
 1990              		.cfi_offset 7, -8
 1991              		.cfi_offset 14, -4
 1992 0002 F5B0     		sub	sp, sp, #468
 1993              		.cfi_def_cfa_offset 480
 1994 0004 02AF     		add	r7, sp, #8
 1995              		.cfi_def_cfa 7, 472
 1996 0006 0246     		mov	r2, r0
 1997 0008 BB1D     		adds	r3, r7, #6
 1998 000a 1A80     		strh	r2, [r3]	@ movhi
 1999 000c 7B1D     		adds	r3, r7, #5
 2000 000e 0A46     		mov	r2, r1
 2001 0010 1A70     		strb	r2, [r3]
 498:..\src/command_processing.c ****     uint8 CYDATA i, j;
 499:..\src/command_processing.c ****     
 500:..\src/command_processing.c ****     uint8 PARAM_IDX;
 501:..\src/command_processing.c ****          
 502:..\src/command_processing.c ****     // Arrays
 503:..\src/command_processing.c ****     struct st_eeprom* MEM_P = &c_mem;   // c_mem is used for param reading
 2002              		.loc 1 503 0
 2003 0012 EE4B     		ldr	r3, .L134
 2004 0014 C7F8C031 		str	r3, [r7, #448]
 504:..\src/command_processing.c ****     
 505:..\src/command_processing.c ****     if (index){                         // Switch from c_mem to g_mem
 2005              		.loc 1 505 0
 2006 0018 BB1D     		adds	r3, r7, #6
 2007 001a 1B88     		ldrh	r3, [r3]
 2008 001c 002B     		cmp	r3, #0
 2009 001e 02D0     		beq	.L119
 506:..\src/command_processing.c ****         MEM_P = &g_mem;                 // g_mem is used for param setting
 2010              		.loc 1 506 0
 2011 0020 EB4B     		ldr	r3, .L134+4
 2012 0022 C7F8C031 		str	r3, [r7, #448]
 2013              	.L119:
 507:..\src/command_processing.c ****     }
 508:..\src/command_processing.c **** 
ARM GAS  C:\Users\mgnocco\AppData\Local\Temp\ccOygPd6.s 			page 61


 509:..\src/command_processing.c ****     struct menu menu_type;
 510:..\src/command_processing.c ****     
 511:..\src/command_processing.c ****     //------------------ BEGIN OF MENU LIST --------------------//  
 512:..\src/command_processing.c ****         const struct menu MENU_LIST[] = {
 2014              		.loc 1 512 0
 2015 0026 EB4A     		ldr	r2, .L134+8
 2016 0028 07F58673 		add	r3, r7, #268
 2017 002c 1146     		mov	r1, r2
 2018 002e 8422     		movs	r2, #132
 2019 0030 1846     		mov	r0, r3
 2020 0032 FFF7FEFF 		bl	memcpy
 513:..\src/command_processing.c ****     //  {num            , RESET     , { choice_0                  , choice_1                , choic
 514:..\src/command_processing.c ****         {MENU_INPUT     , FALSE     , { " Usb"                    , " Handle"               , " EMG
 515:..\src/command_processing.c ****         {MENU_Y_N       , FALSE     , { " NO"                     , " YES"                  , ""   
 516:..\src/command_processing.c ****         {MENU_ON_OFF    , TRUE      , { " OFF"                    , " ON"                   , ""   
 517:..\src/command_processing.c ****        };
 518:..\src/command_processing.c ****     //------------------ END  OF MENU LIST --------------------//  
 519:..\src/command_processing.c ****         
 520:..\src/command_processing.c ****     uint8 NUM_MENUs = sizeof(MENU_LIST)/sizeof(menu_type);  
 2021              		.loc 1 520 0
 2022 0036 0323     		movs	r3, #3
 2023 0038 87F8BF31 		strb	r3, [r7, #447]
 521:..\src/command_processing.c ****     
 522:..\src/command_processing.c ****     struct parameter param_type;   
 523:..\src/command_processing.c ****     
 524:..\src/command_processing.c ****     const struct parameter PARAM_LIST[] = {
 525:..\src/command_processing.c ****     //  {VAR_P                                                     , TYPES           , NUM_ITEMS , 
 526:..\src/command_processing.c ****         //DEVICE_PARAMETERS    
 527:..\src/command_processing.c ****         {(uint8* const) &(MEM_P->dev.id)                           , TYPE_UINT8      , 1         , 
 2024              		.loc 1 527 0
 2025 003c D7F8C031 		ldr	r3, [r7, #448]
 2026 0040 03F11002 		add	r2, r3, #16
 524:..\src/command_processing.c ****     //  {VAR_P                                                     , TYPES           , NUM_ITEMS , 
 2027              		.loc 1 524 0
 2028 0044 07F10C03 		add	r3, r7, #12
 2029 0048 1A60     		str	r2, [r3]
 2030 004a 07F10C03 		add	r3, r7, #12
 2031 004e 0222     		movs	r2, #2
 2032 0050 1A71     		strb	r2, [r3, #4]
 2033 0052 07F10C03 		add	r3, r7, #12
 2034 0056 0122     		movs	r2, #1
 2035 0058 5A71     		strb	r2, [r3, #5]
 2036 005a 07F10C03 		add	r3, r7, #12
 2037 005e DE4A     		ldr	r2, .L134+12
 2038 0060 9A60     		str	r2, [r3, #8]
 2039 0062 07F10C03 		add	r3, r7, #12
 2040 0066 0022     		movs	r2, #0
 2041 0068 1A73     		strb	r2, [r3, #12]
 2042 006a 07F10C03 		add	r3, r7, #12
 2043 006e 0022     		movs	r2, #0
 2044 0070 5A73     		strb	r2, [r3, #13]
 2045 0072 07F10C03 		add	r3, r7, #12
 2046 0076 0022     		movs	r2, #0
 2047 0078 9A73     		strb	r2, [r3, #14]
 2048 007a 07F10C03 		add	r3, r7, #12
 2049 007e 0122     		movs	r2, #1
 2050 0080 DA73     		strb	r2, [r3, #15]
ARM GAS  C:\Users\mgnocco\AppData\Local\Temp\ccOygPd6.s 			page 62


 528:..\src/command_processing.c ****         
 529:..\src/command_processing.c ****         //EMG_PARAMETERS    
 530:..\src/command_processing.c ****         {(uint8* const) &(MEM_P->emg.emg_threshold[0])             , TYPE_UINT16     , 2         , 
 2051              		.loc 1 530 0
 2052 0082 D7F8C031 		ldr	r3, [r7, #448]
 2053 0086 03F13002 		add	r2, r3, #48
 524:..\src/command_processing.c ****     //  {VAR_P                                                     , TYPES           , NUM_ITEMS , 
 2054              		.loc 1 524 0
 2055 008a 07F10C03 		add	r3, r7, #12
 2056 008e 1A61     		str	r2, [r3, #16]
 2057 0090 07F10C03 		add	r3, r7, #12
 2058 0094 0422     		movs	r2, #4
 2059 0096 1A75     		strb	r2, [r3, #20]
 2060 0098 07F10C03 		add	r3, r7, #12
 2061 009c 0222     		movs	r2, #2
 2062 009e 5A75     		strb	r2, [r3, #21]
 2063 00a0 07F10C03 		add	r3, r7, #12
 2064 00a4 CD4A     		ldr	r2, .L134+16
 2065 00a6 9A61     		str	r2, [r3, #24]
 2066 00a8 07F10C03 		add	r3, r7, #12
 2067 00ac 0022     		movs	r2, #0
 2068 00ae 1A77     		strb	r2, [r3, #28]
 2069 00b0 07F10C03 		add	r3, r7, #12
 2070 00b4 1E22     		movs	r2, #30
 2071 00b6 5A77     		strb	r2, [r3, #29]
 2072 00b8 07F10C03 		add	r3, r7, #12
 2073 00bc 0022     		movs	r2, #0
 2074 00be 9A77     		strb	r2, [r3, #30]
 2075 00c0 07F10C03 		add	r3, r7, #12
 2076 00c4 0122     		movs	r2, #1
 2077 00c6 DA77     		strb	r2, [r3, #31]
 531:..\src/command_processing.c ****         {(uint8* const) &(MEM_P->emg.emg_max_value[0])             , TYPE_UINT32     , 2         , 
 2078              		.loc 1 531 0
 2079 00c8 D7F8C031 		ldr	r3, [r7, #448]
 2080 00cc 03F13402 		add	r2, r3, #52
 524:..\src/command_processing.c ****     //  {VAR_P                                                     , TYPES           , NUM_ITEMS , 
 2081              		.loc 1 524 0
 2082 00d0 07F10C03 		add	r3, r7, #12
 2083 00d4 1A62     		str	r2, [r3, #32]
 2084 00d6 07F10C03 		add	r3, r7, #12
 2085 00da 0622     		movs	r2, #6
 2086 00dc 83F82420 		strb	r2, [r3, #36]
 2087 00e0 07F10C03 		add	r3, r7, #12
 2088 00e4 0222     		movs	r2, #2
 2089 00e6 83F82520 		strb	r2, [r3, #37]
 2090 00ea 07F10C03 		add	r3, r7, #12
 2091 00ee BC4A     		ldr	r2, .L134+20
 2092 00f0 9A62     		str	r2, [r3, #40]
 2093 00f2 07F10C03 		add	r3, r7, #12
 2094 00f6 0022     		movs	r2, #0
 2095 00f8 83F82C20 		strb	r2, [r3, #44]
 2096 00fc 07F10C03 		add	r3, r7, #12
 2097 0100 1E22     		movs	r2, #30
 2098 0102 83F82D20 		strb	r2, [r3, #45]
 2099 0106 07F10C03 		add	r3, r7, #12
 2100 010a 0022     		movs	r2, #0
 2101 010c 83F82E20 		strb	r2, [r3, #46]
ARM GAS  C:\Users\mgnocco\AppData\Local\Temp\ccOygPd6.s 			page 63


 2102 0110 07F10C03 		add	r3, r7, #12
 2103 0114 0122     		movs	r2, #1
 2104 0116 83F82F20 		strb	r2, [r3, #47]
 532:..\src/command_processing.c ****         {(uint8* const) &(MEM_P->emg.emg_speed[0])                 , TYPE_UINT8      , 2         , 
 2105              		.loc 1 532 0
 2106 011a D7F8C031 		ldr	r3, [r7, #448]
 2107 011e 03F13C02 		add	r2, r3, #60
 524:..\src/command_processing.c ****     //  {VAR_P                                                     , TYPES           , NUM_ITEMS , 
 2108              		.loc 1 524 0
 2109 0122 07F10C03 		add	r3, r7, #12
 2110 0126 1A63     		str	r2, [r3, #48]
 2111 0128 07F10C03 		add	r3, r7, #12
 2112 012c 0222     		movs	r2, #2
 2113 012e 83F83420 		strb	r2, [r3, #52]
 2114 0132 07F10C03 		add	r3, r7, #12
 2115 0136 0222     		movs	r2, #2
 2116 0138 83F83520 		strb	r2, [r3, #53]
 2117 013c 07F10C03 		add	r3, r7, #12
 2118 0140 A84A     		ldr	r2, .L134+24
 2119 0142 9A63     		str	r2, [r3, #56]
 2120 0144 07F10C03 		add	r3, r7, #12
 2121 0148 0022     		movs	r2, #0
 2122 014a 83F83C20 		strb	r2, [r3, #60]
 2123 014e 07F10C03 		add	r3, r7, #12
 2124 0152 1E22     		movs	r2, #30
 2125 0154 83F83D20 		strb	r2, [r3, #61]
 2126 0158 07F10C03 		add	r3, r7, #12
 2127 015c 0022     		movs	r2, #0
 2128 015e 83F83E20 		strb	r2, [r3, #62]
 2129 0162 07F10C03 		add	r3, r7, #12
 2130 0166 0122     		movs	r2, #1
 2131 0168 83F83F20 		strb	r2, [r3, #63]
 533:..\src/command_processing.c ****         {(uint8* const) &(MEM_P->emg.switch_emg)                   , TYPE_FLAG       , 1         , 
 2132              		.loc 1 533 0
 2133 016c D7F8C031 		ldr	r3, [r7, #448]
 2134 0170 03F13E02 		add	r2, r3, #62
 524:..\src/command_processing.c ****     //  {VAR_P                                                     , TYPES           , NUM_ITEMS , 
 2135              		.loc 1 524 0
 2136 0174 07F10C03 		add	r3, r7, #12
 2137 0178 1A64     		str	r2, [r3, #64]
 2138 017a 07F10C03 		add	r3, r7, #12
 2139 017e 0022     		movs	r2, #0
 2140 0180 83F84420 		strb	r2, [r3, #68]
 2141 0184 07F10C03 		add	r3, r7, #12
 2142 0188 0122     		movs	r2, #1
 2143 018a 83F84520 		strb	r2, [r3, #69]
 2144 018e 07F10C03 		add	r3, r7, #12
 2145 0192 954A     		ldr	r2, .L134+28
 2146 0194 9A64     		str	r2, [r3, #72]
 2147 0196 07F10C03 		add	r3, r7, #12
 2148 019a 0322     		movs	r2, #3
 2149 019c 83F84C20 		strb	r2, [r3, #76]
 2150 01a0 07F10C03 		add	r3, r7, #12
 2151 01a4 1E22     		movs	r2, #30
 2152 01a6 83F84D20 		strb	r2, [r3, #77]
 2153 01aa 07F10C03 		add	r3, r7, #12
 2154 01ae 0022     		movs	r2, #0
ARM GAS  C:\Users\mgnocco\AppData\Local\Temp\ccOygPd6.s 			page 64


 2155 01b0 83F84E20 		strb	r2, [r3, #78]
 2156 01b4 07F10C03 		add	r3, r7, #12
 2157 01b8 0122     		movs	r2, #1
 2158 01ba 83F84F20 		strb	r2, [r3, #79]
 534:..\src/command_processing.c ****         
 535:..\src/command_processing.c ****         //MASTER MODE PARAMETERS
 536:..\src/command_processing.c ****         {(uint8* const) &(MEM_P->MS.master_mode_active)            , TYPE_FLAG       , 1         , 
 2159              		.loc 1 536 0
 2160 01be D7F8C031 		ldr	r3, [r7, #448]
 2161 01c2 03F14002 		add	r2, r3, #64
 524:..\src/command_processing.c ****     //  {VAR_P                                                     , TYPES           , NUM_ITEMS , 
 2162              		.loc 1 524 0
 2163 01c6 07F10C03 		add	r3, r7, #12
 2164 01ca 1A65     		str	r2, [r3, #80]
 2165 01cc 07F10C03 		add	r3, r7, #12
 2166 01d0 0022     		movs	r2, #0
 2167 01d2 83F85420 		strb	r2, [r3, #84]
 2168 01d6 07F10C03 		add	r3, r7, #12
 2169 01da 0122     		movs	r2, #1
 2170 01dc 83F85520 		strb	r2, [r3, #85]
 2171 01e0 07F10C03 		add	r3, r7, #12
 2172 01e4 814A     		ldr	r2, .L134+32
 2173 01e6 9A65     		str	r2, [r3, #88]
 2174 01e8 07F10C03 		add	r3, r7, #12
 2175 01ec 0522     		movs	r2, #5
 2176 01ee 83F85C20 		strb	r2, [r3, #92]
 2177 01f2 07F10C03 		add	r3, r7, #12
 2178 01f6 5022     		movs	r2, #80
 2179 01f8 83F85D20 		strb	r2, [r3, #93]
 2180 01fc 07F10C03 		add	r3, r7, #12
 2181 0200 0022     		movs	r2, #0
 2182 0202 83F85E20 		strb	r2, [r3, #94]
 2183 0206 07F10C03 		add	r3, r7, #12
 2184 020a 0122     		movs	r2, #1
 2185 020c 83F85F20 		strb	r2, [r3, #95]
 537:..\src/command_processing.c ****         {(uint8* const) &(MEM_P->MS.slave_ID)                      , TYPE_UINT8      , 1         , 
 2186              		.loc 1 537 0
 2187 0210 D7F8C031 		ldr	r3, [r7, #448]
 2188 0214 03F14102 		add	r2, r3, #65
 524:..\src/command_processing.c ****     //  {VAR_P                                                     , TYPES           , NUM_ITEMS , 
 2189              		.loc 1 524 0
 2190 0218 07F10C03 		add	r3, r7, #12
 2191 021c 1A66     		str	r2, [r3, #96]
 2192 021e 07F10C03 		add	r3, r7, #12
 2193 0222 0222     		movs	r2, #2
 2194 0224 83F86420 		strb	r2, [r3, #100]
 2195 0228 07F10C03 		add	r3, r7, #12
 2196 022c 0122     		movs	r2, #1
 2197 022e 83F86520 		strb	r2, [r3, #101]
 2198 0232 07F10C03 		add	r3, r7, #12
 2199 0236 6E4A     		ldr	r2, .L134+36
 2200 0238 9A66     		str	r2, [r3, #104]
 2201 023a 07F10C03 		add	r3, r7, #12
 2202 023e 0022     		movs	r2, #0
 2203 0240 83F86C20 		strb	r2, [r3, #108]
 2204 0244 07F10C03 		add	r3, r7, #12
 2205 0248 5022     		movs	r2, #80
ARM GAS  C:\Users\mgnocco\AppData\Local\Temp\ccOygPd6.s 			page 65


 2206 024a 83F86D20 		strb	r2, [r3, #109]
 2207 024e 07F10C03 		add	r3, r7, #12
 2208 0252 0022     		movs	r2, #0
 2209 0254 83F86E20 		strb	r2, [r3, #110]
 2210 0258 07F10C03 		add	r3, r7, #12
 2211 025c 0122     		movs	r2, #1
 2212 025e 83F86F20 		strb	r2, [r3, #111]
 538:..\src/command_processing.c ****         {(uint8* const) &(MEM_P->SH_config.res)                    , TYPE_UINT8      , 1         , 
 2213              		.loc 1 538 0
 2214 0262 D7F8C031 		ldr	r3, [r7, #448]
 2215 0266 03F12902 		add	r2, r3, #41
 524:..\src/command_processing.c ****     //  {VAR_P                                                     , TYPES           , NUM_ITEMS , 
 2216              		.loc 1 524 0
 2217 026a 07F10C03 		add	r3, r7, #12
 2218 026e 1A67     		str	r2, [r3, #112]
 2219 0270 07F10C03 		add	r3, r7, #12
 2220 0274 0222     		movs	r2, #2
 2221 0276 83F87420 		strb	r2, [r3, #116]
 2222 027a 07F10C03 		add	r3, r7, #12
 2223 027e 0122     		movs	r2, #1
 2224 0280 83F87520 		strb	r2, [r3, #117]
 2225 0284 07F10C03 		add	r3, r7, #12
 2226 0288 5A4A     		ldr	r2, .L134+40
 2227 028a 9A67     		str	r2, [r3, #120]
 2228 028c 07F10C03 		add	r3, r7, #12
 2229 0290 0022     		movs	r2, #0
 2230 0292 83F87C20 		strb	r2, [r3, #124]
 2231 0296 07F10C03 		add	r3, r7, #12
 2232 029a 5022     		movs	r2, #80
 2233 029c 83F87D20 		strb	r2, [r3, #125]
 2234 02a0 07F10C03 		add	r3, r7, #12
 2235 02a4 0022     		movs	r2, #0
 2236 02a6 83F87E20 		strb	r2, [r3, #126]
 2237 02aa 07F10C03 		add	r3, r7, #12
 2238 02ae 0122     		movs	r2, #1
 2239 02b0 83F87F20 		strb	r2, [r3, #127]
 539:..\src/command_processing.c ****         {(uint8* const) &(MEM_P->SH_config.input_mode)             , TYPE_FLAG       , 1         , 
 2240              		.loc 1 539 0
 2241 02b4 D7F8C031 		ldr	r3, [r7, #448]
 2242 02b8 03F12802 		add	r2, r3, #40
 524:..\src/command_processing.c ****     //  {VAR_P                                                     , TYPES           , NUM_ITEMS , 
 2243              		.loc 1 524 0
 2244 02bc 07F10C03 		add	r3, r7, #12
 2245 02c0 C3F88020 		str	r2, [r3, #128]
 2246 02c4 07F10C03 		add	r3, r7, #12
 2247 02c8 0022     		movs	r2, #0
 2248 02ca 83F88420 		strb	r2, [r3, #132]
 2249 02ce 07F10C03 		add	r3, r7, #12
 2250 02d2 0122     		movs	r2, #1
 2251 02d4 83F88520 		strb	r2, [r3, #133]
 2252 02d8 07F10C03 		add	r3, r7, #12
 2253 02dc 464A     		ldr	r2, .L134+44
 2254 02de C3F88820 		str	r2, [r3, #136]
 2255 02e2 07F10C03 		add	r3, r7, #12
 2256 02e6 0122     		movs	r2, #1
 2257 02e8 83F88C20 		strb	r2, [r3, #140]
 2258 02ec 07F10C03 		add	r3, r7, #12
ARM GAS  C:\Users\mgnocco\AppData\Local\Temp\ccOygPd6.s 			page 66


 2259 02f0 5022     		movs	r2, #80
 2260 02f2 83F88D20 		strb	r2, [r3, #141]
 2261 02f6 07F10C03 		add	r3, r7, #12
 2262 02fa 0322     		movs	r2, #3
 2263 02fc 83F88E20 		strb	r2, [r3, #142]
 2264 0300 07F10C03 		add	r3, r7, #12
 2265 0304 0122     		movs	r2, #1
 2266 0306 83F88F20 		strb	r2, [r3, #143]
 540:..\src/command_processing.c ****         {(uint8* const) &(MEM_P->SH_config.pos_lim_inf)            , TYPE_INT32      , 2         , 
 2267              		.loc 1 540 0
 2268 030a D7F8C031 		ldr	r3, [r7, #448]
 2269 030e 03F12002 		add	r2, r3, #32
 524:..\src/command_processing.c ****     //  {VAR_P                                                     , TYPES           , NUM_ITEMS , 
 2270              		.loc 1 524 0
 2271 0312 07F10C03 		add	r3, r7, #12
 2272 0316 C3F89020 		str	r2, [r3, #144]
 2273 031a 07F10C03 		add	r3, r7, #12
 2274 031e 0522     		movs	r2, #5
 2275 0320 83F89420 		strb	r2, [r3, #148]
 2276 0324 07F10C03 		add	r3, r7, #12
 2277 0328 0222     		movs	r2, #2
 2278 032a 83F89520 		strb	r2, [r3, #149]
 2279 032e 07F10C03 		add	r3, r7, #12
 2280 0332 324A     		ldr	r2, .L134+48
 2281 0334 C3F89820 		str	r2, [r3, #152]
 2282 0338 07F10C03 		add	r3, r7, #12
 2283 033c 0022     		movs	r2, #0
 2284 033e 83F89C20 		strb	r2, [r3, #156]
 2285 0342 07F10C03 		add	r3, r7, #12
 2286 0346 5022     		movs	r2, #80
 2287 0348 83F89D20 		strb	r2, [r3, #157]
 2288 034c 07F10C03 		add	r3, r7, #12
 2289 0350 0522     		movs	r2, #5
 2290 0352 83F89E20 		strb	r2, [r3, #158]
 2291 0356 07F10C03 		add	r3, r7, #12
 2292 035a 0122     		movs	r2, #1
 2293 035c 83F89F20 		strb	r2, [r3, #159]
 541:..\src/command_processing.c ****         {(uint8* const) &(MEM_P->FB.vibrotactile_feedback_active)  , TYPE_FLAG       , 1         , 
 2294              		.loc 1 541 0
 2295 0360 D7F8C031 		ldr	r3, [r7, #448]
 2296 0364 03F15C02 		add	r2, r3, #92
 524:..\src/command_processing.c ****     //  {VAR_P                                                     , TYPES           , NUM_ITEMS , 
 2297              		.loc 1 524 0
 2298 0368 07F10C03 		add	r3, r7, #12
 2299 036c C3F8A020 		str	r2, [r3, #160]
 2300 0370 07F10C03 		add	r3, r7, #12
 2301 0374 0022     		movs	r2, #0
 2302 0376 83F8A420 		strb	r2, [r3, #164]
 2303 037a 07F10C03 		add	r3, r7, #12
 2304 037e 0122     		movs	r2, #1
 2305 0380 83F8A520 		strb	r2, [r3, #165]
 2306 0384 07F10C03 		add	r3, r7, #12
 2307 0388 1D4A     		ldr	r2, .L134+52
 2308 038a C3F8A820 		str	r2, [r3, #168]
 2309 038e 07F10C03 		add	r3, r7, #12
 2310 0392 0522     		movs	r2, #5
 2311 0394 83F8AC20 		strb	r2, [r3, #172]
ARM GAS  C:\Users\mgnocco\AppData\Local\Temp\ccOygPd6.s 			page 67


 2312 0398 07F10C03 		add	r3, r7, #12
 2313 039c 5022     		movs	r2, #80
 2314 039e 83F8AD20 		strb	r2, [r3, #173]
 2315 03a2 07F10C03 		add	r3, r7, #12
 2316 03a6 0022     		movs	r2, #0
 2317 03a8 83F8AE20 		strb	r2, [r3, #174]
 2318 03ac 07F10C03 		add	r3, r7, #12
 2319 03b0 0122     		movs	r2, #1
 2320 03b2 83F8AF20 		strb	r2, [r3, #175]
 542:..\src/command_processing.c ****         {(uint8* const) &(MEM_P->FB.airchamber_feedback_active)    , TYPE_FLAG       , 1         , 
 2321              		.loc 1 542 0
 2322 03b6 D7F8C031 		ldr	r3, [r7, #448]
 2323 03ba 03F15D02 		add	r2, r3, #93
 524:..\src/command_processing.c ****     //  {VAR_P                                                     , TYPES           , NUM_ITEMS , 
 2324              		.loc 1 524 0
 2325 03be 07F10C03 		add	r3, r7, #12
 2326 03c2 C3F8B020 		str	r2, [r3, #176]
 2327 03c6 07F10C03 		add	r3, r7, #12
 2328 03ca 1BE0     		b	.L135
 2329              	.L136:
 2330              		.align	2
 2331              	.L134:
 2332 03cc 00000000 		.word	c_mem
 2333 03d0 00000000 		.word	g_mem
 2334 03d4 F4010000 		.word	.LC18
 2335 03d8 2C000000 		.word	.LC19
 2336 03dc 38000000 		.word	.LC20
 2337 03e0 48000000 		.word	.LC21
 2338 03e4 58000000 		.word	.LC22
 2339 03e8 68000000 		.word	.LC23
 2340 03ec 78000000 		.word	.LC24
 2341 03f0 88000000 		.word	.LC25
 2342 03f4 94000000 		.word	.LC26
 2343 03f8 A8000000 		.word	.LC27
 2344 03fc B4000000 		.word	.LC28
 2345 0400 CC000000 		.word	.LC29
 2346              	.L135:
 2347 0404 0022     		movs	r2, #0
 2348 0406 83F8B420 		strb	r2, [r3, #180]
 2349 040a 07F10C03 		add	r3, r7, #12
 2350 040e 0122     		movs	r2, #1
 2351 0410 83F8B520 		strb	r2, [r3, #181]
 2352 0414 07F10C03 		add	r3, r7, #12
 2353 0418 C04A     		ldr	r2, .L137
 2354 041a C3F8B820 		str	r2, [r3, #184]
 2355 041e 07F10C03 		add	r3, r7, #12
 2356 0422 0522     		movs	r2, #5
 2357 0424 83F8BC20 		strb	r2, [r3, #188]
 2358 0428 07F10C03 		add	r3, r7, #12
 2359 042c 5022     		movs	r2, #80
 2360 042e 83F8BD20 		strb	r2, [r3, #189]
 2361 0432 07F10C03 		add	r3, r7, #12
 2362 0436 0022     		movs	r2, #0
 2363 0438 83F8BE20 		strb	r2, [r3, #190]
 2364 043c 07F10C03 		add	r3, r7, #12
 2365 0440 0122     		movs	r2, #1
 2366 0442 83F8BF20 		strb	r2, [r3, #191]
ARM GAS  C:\Users\mgnocco\AppData\Local\Temp\ccOygPd6.s 			page 68


 543:..\src/command_processing.c ****         {(uint8* const) &(MEM_P->FB.max_residual_current)          , TYPE_INT32      , 1         , 
 2367              		.loc 1 543 0
 2368 0446 D7F8C031 		ldr	r3, [r7, #448]
 2369 044a 03F15002 		add	r2, r3, #80
 524:..\src/command_processing.c ****     //  {VAR_P                                                     , TYPES           , NUM_ITEMS , 
 2370              		.loc 1 524 0
 2371 044e 07F10C03 		add	r3, r7, #12
 2372 0452 C3F8C020 		str	r2, [r3, #192]
 2373 0456 07F10C03 		add	r3, r7, #12
 2374 045a 0522     		movs	r2, #5
 2375 045c 83F8C420 		strb	r2, [r3, #196]
 2376 0460 07F10C03 		add	r3, r7, #12
 2377 0464 0122     		movs	r2, #1
 2378 0466 83F8C520 		strb	r2, [r3, #197]
 2379 046a 07F10C03 		add	r3, r7, #12
 2380 046e AC4A     		ldr	r2, .L137+4
 2381 0470 C3F8C820 		str	r2, [r3, #200]
 2382 0474 07F10C03 		add	r3, r7, #12
 2383 0478 0022     		movs	r2, #0
 2384 047a 83F8CC20 		strb	r2, [r3, #204]
 2385 047e 07F10C03 		add	r3, r7, #12
 2386 0482 5022     		movs	r2, #80
 2387 0484 83F8CD20 		strb	r2, [r3, #205]
 2388 0488 07F10C03 		add	r3, r7, #12
 2389 048c 0022     		movs	r2, #0
 2390 048e 83F8CE20 		strb	r2, [r3, #206]
 2391 0492 07F10C03 		add	r3, r7, #12
 2392 0496 0122     		movs	r2, #1
 2393 0498 83F8CF20 		strb	r2, [r3, #207]
 544:..\src/command_processing.c ****         {(uint8* const) &(MEM_P->FB.maximum_pressure_kPa)          , TYPE_FLOAT      , 1         , 
 2394              		.loc 1 544 0
 2395 049c D7F8C031 		ldr	r3, [r7, #448]
 2396 04a0 03F15402 		add	r2, r3, #84
 524:..\src/command_processing.c ****     //  {VAR_P                                                     , TYPES           , NUM_ITEMS , 
 2397              		.loc 1 524 0
 2398 04a4 07F10C03 		add	r3, r7, #12
 2399 04a8 C3F8D020 		str	r2, [r3, #208]
 2400 04ac 07F10C03 		add	r3, r7, #12
 2401 04b0 0722     		movs	r2, #7
 2402 04b2 83F8D420 		strb	r2, [r3, #212]
 2403 04b6 07F10C03 		add	r3, r7, #12
 2404 04ba 0122     		movs	r2, #1
 2405 04bc 83F8D520 		strb	r2, [r3, #213]
 2406 04c0 07F10C03 		add	r3, r7, #12
 2407 04c4 974A     		ldr	r2, .L137+8
 2408 04c6 C3F8D820 		str	r2, [r3, #216]
 2409 04ca 07F10C03 		add	r3, r7, #12
 2410 04ce 0022     		movs	r2, #0
 2411 04d0 83F8DC20 		strb	r2, [r3, #220]
 2412 04d4 07F10C03 		add	r3, r7, #12
 2413 04d8 5022     		movs	r2, #80
 2414 04da 83F8DD20 		strb	r2, [r3, #221]
 2415 04de 07F10C03 		add	r3, r7, #12
 2416 04e2 0022     		movs	r2, #0
 2417 04e4 83F8DE20 		strb	r2, [r3, #222]
 2418 04e8 07F10C03 		add	r3, r7, #12
 2419 04ec 0122     		movs	r2, #1
ARM GAS  C:\Users\mgnocco\AppData\Local\Temp\ccOygPd6.s 			page 69


 2420 04ee 83F8DF20 		strb	r2, [r3, #223]
 545:..\src/command_processing.c ****         {(uint8* const) &(MEM_P->FB.prop_err_fb_gain)              , TYPE_FLOAT      , 1         , 
 2421              		.loc 1 545 0
 2422 04f2 D7F8C031 		ldr	r3, [r7, #448]
 2423 04f6 03F15802 		add	r2, r3, #88
 524:..\src/command_processing.c ****     //  {VAR_P                                                     , TYPES           , NUM_ITEMS , 
 2424              		.loc 1 524 0
 2425 04fa 07F10C03 		add	r3, r7, #12
 2426 04fe C3F8E020 		str	r2, [r3, #224]
 2427 0502 07F10C03 		add	r3, r7, #12
 2428 0506 0722     		movs	r2, #7
 2429 0508 83F8E420 		strb	r2, [r3, #228]
 2430 050c 07F10C03 		add	r3, r7, #12
 2431 0510 0122     		movs	r2, #1
 2432 0512 83F8E520 		strb	r2, [r3, #229]
 2433 0516 07F10C03 		add	r3, r7, #12
 2434 051a 834A     		ldr	r2, .L137+12
 2435 051c C3F8E820 		str	r2, [r3, #232]
 2436 0520 07F10C03 		add	r3, r7, #12
 2437 0524 0022     		movs	r2, #0
 2438 0526 83F8EC20 		strb	r2, [r3, #236]
 2439 052a 07F10C03 		add	r3, r7, #12
 2440 052e 5022     		movs	r2, #80
 2441 0530 83F8ED20 		strb	r2, [r3, #237]
 2442 0534 07F10C03 		add	r3, r7, #12
 2443 0538 0022     		movs	r2, #0
 2444 053a 83F8EE20 		strb	r2, [r3, #238]
 2445 053e 07F10C03 		add	r3, r7, #12
 2446 0542 0122     		movs	r2, #1
 2447 0544 83F8EF20 		strb	r2, [r3, #239]
 546:..\src/command_processing.c ****     };
 547:..\src/command_processing.c ****     uint8 NUM_PARAMs = sizeof(PARAM_LIST)/sizeof(param_type);  
 2448              		.loc 1 547 0
 2449 0548 0F23     		movs	r3, #15
 2450 054a 87F8BE31 		strb	r3, [r7, #446]
 548:..\src/command_processing.c ****     
 549:..\src/command_processing.c **** 
 550:..\src/command_processing.c ****     if (!index) {
 2451              		.loc 1 550 0
 2452 054e BB1D     		adds	r3, r7, #6
 2453 0550 1B88     		ldrh	r3, [r3]
 2454 0552 002B     		cmp	r3, #0
 2455 0554 0ED1     		bne	.L120
 551:..\src/command_processing.c ****         // Get parameters list with relative types
 552:..\src/command_processing.c ****         get_param_list(NUM_PARAMs, NUM_MENUs, PARAM_LIST, MENU_LIST, sendToDevice);
 2456              		.loc 1 552 0
 2457 0556 07F58674 		add	r4, r7, #268
 2458 055a 07F10C02 		add	r2, r7, #12
 2459 055e 97F8BF11 		ldrb	r1, [r7, #447]	@ zero_extendqisi2
 2460 0562 97F8BE01 		ldrb	r0, [r7, #446]	@ zero_extendqisi2
 2461 0566 7B1D     		adds	r3, r7, #5
 2462 0568 1B78     		ldrb	r3, [r3]	@ zero_extendqisi2
 2463 056a 0093     		str	r3, [sp]
 2464 056c 2346     		mov	r3, r4
 2465 056e FFF7FEFF 		bl	get_param_list
 553:..\src/command_processing.c ****     }   
 554:..\src/command_processing.c ****     else if  (index == 300) {
ARM GAS  C:\Users\mgnocco\AppData\Local\Temp\ccOygPd6.s 			page 70


 555:..\src/command_processing.c ****         // Called only by prepre_generic_info to get data  from the parameters to print
 556:..\src/command_processing.c ****         qbadminp_string(NUM_PARAMs, NUM_MENUs, PARAM_LIST, MENU_LIST);
 557:..\src/command_processing.c ****     }
 558:..\src/command_processing.c **** 
 559:..\src/command_processing.c ****     else {
 560:..\src/command_processing.c ****          // Set specific parameter        
 561:..\src/command_processing.c ****         PARAM_IDX = index -1;       // Get right vector param index
 562:..\src/command_processing.c ****         
 563:..\src/command_processing.c ****         // Find size of data
 564:..\src/command_processing.c ****         uint8 sod = num_of_bytes(PARAM_LIST[PARAM_IDX].TYPES);
 565:..\src/command_processing.c ****    
 566:..\src/command_processing.c ****         if (PARAM_LIST[PARAM_IDX].custom == 0) {
 567:..\src/command_processing.c ****             // Use default specifications for param setting
 568:..\src/command_processing.c ****             for (i = 0; i < PARAM_LIST[PARAM_IDX].NUM_ITEMS * sod; i += sod){
 569:..\src/command_processing.c ****                 for(j = 0; j < sod; j++) {
 570:..\src/command_processing.c ****                     ((char*)(PARAM_LIST[PARAM_IDX].VAR_P + i))[sod - j -1] = g_rx.buffer[3+i+j];   
 571:..\src/command_processing.c ****                 }
 572:..\src/command_processing.c ****             } 
 573:..\src/command_processing.c ****             if( PARAM_LIST[PARAM_IDX].TYPES == TYPE_STRING)                   
 574:..\src/command_processing.c ****                *(PARAM_LIST[PARAM_IDX].VAR_P + i) = '\0';        
 575:..\src/command_processing.c ****         }
 576:..\src/command_processing.c ****         
 577:..\src/command_processing.c ****         else {  
 578:..\src/command_processing.c ****             // Use custom specifications for param setting
 579:..\src/command_processing.c ****             set_custom_param(PARAM_IDX, PARAM_LIST);
 580:..\src/command_processing.c ****         }
 581:..\src/command_processing.c ****         
 582:..\src/command_processing.c ****        
 583:..\src/command_processing.c ****         // Perform chip reset if needed
 584:..\src/command_processing.c ****         for (i=0; i< NUM_MENUs;i++){
 585:..\src/command_processing.c ****             if ((MENU_LIST[i].name == PARAM_LIST[PARAM_IDX].MENU) & (MENU_LIST[i].reset == TRUE)){
 586:..\src/command_processing.c ****              reset_PSoC_flag = TRUE;
 587:..\src/command_processing.c ****             }   
 588:..\src/command_processing.c ****         }
 589:..\src/command_processing.c ****     }
 590:..\src/command_processing.c **** } 
 2466              		.loc 1 590 0
 2467 0572 CEE0     		b	.L133
 2468              	.L120:
 554:..\src/command_processing.c ****         // Called only by prepre_generic_info to get data  from the parameters to print
 2469              		.loc 1 554 0
 2470 0574 BB1D     		adds	r3, r7, #6
 2471 0576 1B88     		ldrh	r3, [r3]
 2472 0578 B3F5967F 		cmp	r3, #300
 2473 057c 0AD1     		bne	.L122
 556:..\src/command_processing.c ****     }
 2474              		.loc 1 556 0
 2475 057e 07F58673 		add	r3, r7, #268
 2476 0582 07F10C02 		add	r2, r7, #12
 2477 0586 97F8BF11 		ldrb	r1, [r7, #447]	@ zero_extendqisi2
 2478 058a 97F8BE01 		ldrb	r0, [r7, #446]	@ zero_extendqisi2
 2479 058e FFF7FEFF 		bl	qbadminp_string
 2480              		.loc 1 590 0
 2481 0592 BEE0     		b	.L133
 2482              	.L122:
 2483              	.LBB24:
 561:..\src/command_processing.c ****         
ARM GAS  C:\Users\mgnocco\AppData\Local\Temp\ccOygPd6.s 			page 71


 2484              		.loc 1 561 0
 2485 0594 BB1D     		adds	r3, r7, #6
 2486 0596 1B88     		ldrh	r3, [r3]	@ movhi
 2487 0598 DBB2     		uxtb	r3, r3
 2488 059a 013B     		subs	r3, r3, #1
 2489 059c 87F8BD31 		strb	r3, [r7, #445]
 564:..\src/command_processing.c ****    
 2490              		.loc 1 564 0
 2491 05a0 97F8BD31 		ldrb	r3, [r7, #445]	@ zero_extendqisi2
 2492 05a4 07F10C02 		add	r2, r7, #12
 2493 05a8 1B01     		lsls	r3, r3, #4
 2494 05aa 1344     		add	r3, r3, r2
 2495 05ac 0433     		adds	r3, r3, #4
 2496 05ae 1B78     		ldrb	r3, [r3]	@ zero_extendqisi2
 2497 05b0 1846     		mov	r0, r3
 2498 05b2 FFF7FEFF 		bl	num_of_bytes
 2499 05b6 0346     		mov	r3, r0
 2500 05b8 87F8BC31 		strb	r3, [r7, #444]
 566:..\src/command_processing.c ****             // Use default specifications for param setting
 2501              		.loc 1 566 0
 2502 05bc 97F8BD31 		ldrb	r3, [r7, #445]	@ zero_extendqisi2
 2503 05c0 07F10C02 		add	r2, r7, #12
 2504 05c4 1B01     		lsls	r3, r3, #4
 2505 05c6 1344     		add	r3, r3, r2
 2506 05c8 0E33     		adds	r3, r3, #14
 2507 05ca 1B78     		ldrb	r3, [r3]	@ zero_extendqisi2
 2508 05cc 002B     		cmp	r3, #0
 2509 05ce 5BD1     		bne	.L123
 568:..\src/command_processing.c ****                 for(j = 0; j < sod; j++) {
 2510              		.loc 1 568 0
 2511 05d0 0023     		movs	r3, #0
 2512 05d2 87F8C731 		strb	r3, [r7, #455]
 2513 05d6 2FE0     		b	.L124
 2514              	.L127:
 569:..\src/command_processing.c ****                     ((char*)(PARAM_LIST[PARAM_IDX].VAR_P + i))[sod - j -1] = g_rx.buffer[3+i+j];   
 2515              		.loc 1 569 0
 2516 05d8 0023     		movs	r3, #0
 2517 05da 87F8C631 		strb	r3, [r7, #454]
 2518 05de 1EE0     		b	.L125
 2519              	.L126:
 570:..\src/command_processing.c ****                 }
 2520              		.loc 1 570 0 discriminator 3
 2521 05e0 97F8BD31 		ldrb	r3, [r7, #445]	@ zero_extendqisi2
 2522 05e4 07F10C02 		add	r2, r7, #12
 2523 05e8 1B01     		lsls	r3, r3, #4
 2524 05ea 1344     		add	r3, r3, r2
 2525 05ec 1A68     		ldr	r2, [r3]
 2526 05ee 97F8C731 		ldrb	r3, [r7, #455]	@ zero_extendqisi2
 2527 05f2 97F8BC01 		ldrb	r0, [r7, #444]	@ zero_extendqisi2
 2528 05f6 97F8C611 		ldrb	r1, [r7, #454]	@ zero_extendqisi2
 2529 05fa 411A     		subs	r1, r0, r1
 2530 05fc 0B44     		add	r3, r3, r1
 2531 05fe 013B     		subs	r3, r3, #1
 2532 0600 1344     		add	r3, r3, r2
 2533 0602 97F8C721 		ldrb	r2, [r7, #455]	@ zero_extendqisi2
 2534 0606 D11C     		adds	r1, r2, #3
 2535 0608 97F8C621 		ldrb	r2, [r7, #454]	@ zero_extendqisi2
ARM GAS  C:\Users\mgnocco\AppData\Local\Temp\ccOygPd6.s 			page 72


 2536 060c 0A44     		add	r2, r2, r1
 2537 060e 4749     		ldr	r1, .L137+16
 2538 0610 8A5C     		ldrb	r2, [r1, r2]	@ zero_extendqisi2
 2539 0612 1A70     		strb	r2, [r3]
 569:..\src/command_processing.c ****                     ((char*)(PARAM_LIST[PARAM_IDX].VAR_P + i))[sod - j -1] = g_rx.buffer[3+i+j];   
 2540              		.loc 1 569 0 discriminator 3
 2541 0614 97F8C631 		ldrb	r3, [r7, #454]	@ zero_extendqisi2
 2542 0618 0133     		adds	r3, r3, #1
 2543 061a 87F8C631 		strb	r3, [r7, #454]
 2544              	.L125:
 569:..\src/command_processing.c ****                     ((char*)(PARAM_LIST[PARAM_IDX].VAR_P + i))[sod - j -1] = g_rx.buffer[3+i+j];   
 2545              		.loc 1 569 0 is_stmt 0 discriminator 1
 2546 061e 97F8C621 		ldrb	r2, [r7, #454]	@ zero_extendqisi2
 2547 0622 97F8BC31 		ldrb	r3, [r7, #444]	@ zero_extendqisi2
 2548 0626 9A42     		cmp	r2, r3
 2549 0628 DAD3     		bcc	.L126
 568:..\src/command_processing.c ****                 for(j = 0; j < sod; j++) {
 2550              		.loc 1 568 0 is_stmt 1 discriminator 2
 2551 062a 97F8C721 		ldrb	r2, [r7, #455]
 2552 062e 97F8BC31 		ldrb	r3, [r7, #444]
 2553 0632 1344     		add	r3, r3, r2
 2554 0634 87F8C731 		strb	r3, [r7, #455]
 2555              	.L124:
 568:..\src/command_processing.c ****                 for(j = 0; j < sod; j++) {
 2556              		.loc 1 568 0 is_stmt 0 discriminator 1
 2557 0638 97F8C721 		ldrb	r2, [r7, #455]	@ zero_extendqisi2
 2558 063c 97F8BD31 		ldrb	r3, [r7, #445]	@ zero_extendqisi2
 2559 0640 07F10C01 		add	r1, r7, #12
 2560 0644 1B01     		lsls	r3, r3, #4
 2561 0646 0B44     		add	r3, r3, r1
 2562 0648 0533     		adds	r3, r3, #5
 2563 064a 1B78     		ldrb	r3, [r3]	@ zero_extendqisi2
 2564 064c 1946     		mov	r1, r3
 2565 064e 97F8BC31 		ldrb	r3, [r7, #444]	@ zero_extendqisi2
 2566 0652 03FB01F3 		mul	r3, r3, r1
 2567 0656 9A42     		cmp	r2, r3
 2568 0658 BEDB     		blt	.L127
 573:..\src/command_processing.c ****                *(PARAM_LIST[PARAM_IDX].VAR_P + i) = '\0';        
 2569              		.loc 1 573 0 is_stmt 1
 2570 065a 97F8BD31 		ldrb	r3, [r7, #445]	@ zero_extendqisi2
 2571 065e 07F10C02 		add	r2, r7, #12
 2572 0662 1B01     		lsls	r3, r3, #4
 2573 0664 1344     		add	r3, r3, r2
 2574 0666 0433     		adds	r3, r3, #4
 2575 0668 1B78     		ldrb	r3, [r3]	@ zero_extendqisi2
 2576 066a 092B     		cmp	r3, #9
 2577 066c 15D1     		bne	.L129
 574:..\src/command_processing.c ****         }
 2578              		.loc 1 574 0
 2579 066e 97F8BD31 		ldrb	r3, [r7, #445]	@ zero_extendqisi2
 2580 0672 07F10C02 		add	r2, r7, #12
 2581 0676 1B01     		lsls	r3, r3, #4
 2582 0678 1344     		add	r3, r3, r2
 2583 067a 1A68     		ldr	r2, [r3]
 2584 067c 97F8C731 		ldrb	r3, [r7, #455]	@ zero_extendqisi2
 2585 0680 1344     		add	r3, r3, r2
 2586 0682 0022     		movs	r2, #0
ARM GAS  C:\Users\mgnocco\AppData\Local\Temp\ccOygPd6.s 			page 73


 2587 0684 1A70     		strb	r2, [r3]
 2588 0686 08E0     		b	.L129
 2589              	.L123:
 579:..\src/command_processing.c ****         }
 2590              		.loc 1 579 0
 2591 0688 97F8BD31 		ldrb	r3, [r7, #445]	@ zero_extendqisi2
 2592 068c 9BB2     		uxth	r3, r3
 2593 068e 07F10C02 		add	r2, r7, #12
 2594 0692 1146     		mov	r1, r2
 2595 0694 1846     		mov	r0, r3
 2596 0696 FFF7FEFF 		bl	set_custom_param
 2597              	.L129:
 584:..\src/command_processing.c ****             if ((MENU_LIST[i].name == PARAM_LIST[PARAM_IDX].MENU) & (MENU_LIST[i].reset == TRUE)){
 2598              		.loc 1 584 0
 2599 069a 0023     		movs	r3, #0
 2600 069c 87F8C731 		strb	r3, [r7, #455]
 2601 06a0 31E0     		b	.L130
 2602              	.L132:
 585:..\src/command_processing.c ****              reset_PSoC_flag = TRUE;
 2603              		.loc 1 585 0
 2604 06a2 97F8C731 		ldrb	r3, [r7, #455]	@ zero_extendqisi2
 2605 06a6 2C22     		movs	r2, #44
 2606 06a8 02FB03F3 		mul	r3, r2, r3
 2607 06ac 07F5E472 		add	r2, r7, #456
 2608 06b0 1344     		add	r3, r3, r2
 2609 06b2 BC3B     		subs	r3, r3, #188
 2610 06b4 1A78     		ldrb	r2, [r3]	@ zero_extendqisi2
 2611 06b6 97F8BD31 		ldrb	r3, [r7, #445]	@ zero_extendqisi2
 2612 06ba 07F10C01 		add	r1, r7, #12
 2613 06be 1B01     		lsls	r3, r3, #4
 2614 06c0 0B44     		add	r3, r3, r1
 2615 06c2 0C33     		adds	r3, r3, #12
 2616 06c4 1B78     		ldrb	r3, [r3]	@ zero_extendqisi2
 2617 06c6 9A42     		cmp	r2, r3
 2618 06c8 0CBF     		ite	eq
 2619 06ca 0123     		moveq	r3, #1
 2620 06cc 0023     		movne	r3, #0
 2621 06ce DAB2     		uxtb	r2, r3
 2622 06d0 97F8C731 		ldrb	r3, [r7, #455]	@ zero_extendqisi2
 2623 06d4 2C21     		movs	r1, #44
 2624 06d6 01FB03F3 		mul	r3, r1, r3
 2625 06da 07F5E471 		add	r1, r7, #456
 2626 06de 0B44     		add	r3, r3, r1
 2627 06e0 BB3B     		subs	r3, r3, #187
 2628 06e2 1B78     		ldrb	r3, [r3]	@ zero_extendqisi2
 2629 06e4 012B     		cmp	r3, #1
 2630 06e6 0CBF     		ite	eq
 2631 06e8 0123     		moveq	r3, #1
 2632 06ea 0023     		movne	r3, #0
 2633 06ec DBB2     		uxtb	r3, r3
 2634 06ee 1340     		ands	r3, r3, r2
 2635 06f0 DBB2     		uxtb	r3, r3
 2636 06f2 002B     		cmp	r3, #0
 2637 06f4 02D0     		beq	.L131
 586:..\src/command_processing.c ****             }   
 2638              		.loc 1 586 0
 2639 06f6 0E4B     		ldr	r3, .L137+20
ARM GAS  C:\Users\mgnocco\AppData\Local\Temp\ccOygPd6.s 			page 74


 2640 06f8 0122     		movs	r2, #1
 2641 06fa 1A70     		strb	r2, [r3]
 2642              	.L131:
 584:..\src/command_processing.c ****             if ((MENU_LIST[i].name == PARAM_LIST[PARAM_IDX].MENU) & (MENU_LIST[i].reset == TRUE)){
 2643              		.loc 1 584 0 discriminator 2
 2644 06fc 97F8C731 		ldrb	r3, [r7, #455]	@ zero_extendqisi2
 2645 0700 0133     		adds	r3, r3, #1
 2646 0702 87F8C731 		strb	r3, [r7, #455]
 2647              	.L130:
 584:..\src/command_processing.c ****             if ((MENU_LIST[i].name == PARAM_LIST[PARAM_IDX].MENU) & (MENU_LIST[i].reset == TRUE)){
 2648              		.loc 1 584 0 is_stmt 0 discriminator 1
 2649 0706 97F8C721 		ldrb	r2, [r7, #455]	@ zero_extendqisi2
 2650 070a 97F8BF31 		ldrb	r3, [r7, #447]	@ zero_extendqisi2
 2651 070e 9A42     		cmp	r2, r3
 2652 0710 C7D3     		bcc	.L132
 2653              	.L133:
 2654              	.LBE24:
 2655              		.loc 1 590 0 is_stmt 1
 2656 0712 00BF     		nop
 2657 0714 07F5E677 		add	r7, r7, #460
 2658              		.cfi_def_cfa_offset 12
 2659 0718 BD46     		mov	sp, r7
 2660              		.cfi_def_cfa_register 13
 2661              		@ sp needed
 2662 071a 90BD     		pop	{r4, r7, pc}
 2663              	.L138:
 2664              		.align	2
 2665              	.L137:
 2666 071c E4000000 		.word	.LC30
 2667 0720 FC000000 		.word	.LC31
 2668 0724 1C010000 		.word	.LC32
 2669 0728 40010000 		.word	.LC33
 2670 072c 00000000 		.word	g_rx
 2671 0730 00000000 		.word	reset_PSoC_flag
 2672              		.cfi_endproc
 2673              	.LFE69:
 2674              		.size	manage_param_list, .-manage_param_list
 2675              		.section	.text.set_custom_param,"ax",%progbits
 2676              		.align	2
 2677              		.global	set_custom_param
 2678              		.thumb
 2679              		.thumb_func
 2680              		.type	set_custom_param, %function
 2681              	set_custom_param:
 2682              	.LFB70:
 591:..\src/command_processing.c **** 
 592:..\src/command_processing.c **** 
 593:..\src/command_processing.c **** //==============================================================================
 594:..\src/command_processing.c **** //                                                              SET CUSTOM PARAM
 595:..\src/command_processing.c **** //==============================================================================
 596:..\src/command_processing.c **** 
 597:..\src/command_processing.c **** void set_custom_param(uint16 index, const struct parameter PARAM_LIST[]) {
 2683              		.loc 1 597 0
 2684              		.cfi_startproc
 2685              		@ args = 0, pretend = 0, frame = 16
 2686              		@ frame_needed = 1, uses_anonymous_args = 0
 2687 0000 80B5     		push	{r7, lr}
ARM GAS  C:\Users\mgnocco\AppData\Local\Temp\ccOygPd6.s 			page 75


 2688              		.cfi_def_cfa_offset 8
 2689              		.cfi_offset 7, -8
 2690              		.cfi_offset 14, -4
 2691 0002 84B0     		sub	sp, sp, #16
 2692              		.cfi_def_cfa_offset 24
 2693 0004 00AF     		add	r7, sp, #0
 2694              		.cfi_def_cfa_register 7
 2695 0006 0346     		mov	r3, r0
 2696 0008 3960     		str	r1, [r7]
 2697 000a FB80     		strh	r3, [r7, #6]	@ movhi
 598:..\src/command_processing.c ****     uint8 sod =   num_of_bytes(PARAM_LIST[index].TYPES);
 2698              		.loc 1 598 0
 2699 000c FB88     		ldrh	r3, [r7, #6]
 2700 000e 1B01     		lsls	r3, r3, #4
 2701 0010 3A68     		ldr	r2, [r7]
 2702 0012 1344     		add	r3, r3, r2
 2703 0014 1B79     		ldrb	r3, [r3, #4]	@ zero_extendqisi2
 2704 0016 1846     		mov	r0, r3
 2705 0018 FFF7FEFF 		bl	num_of_bytes
 2706 001c 0346     		mov	r3, r0
 2707 001e 7B73     		strb	r3, [r7, #13]
 599:..\src/command_processing.c **** 
 600:..\src/command_processing.c ****     uint8 CYDATA i, j;
 601:..\src/command_processing.c ****         
 602:..\src/command_processing.c ****     switch(PARAM_LIST[index].custom){
 2708              		.loc 1 602 0
 2709 0020 FB88     		ldrh	r3, [r7, #6]
 2710 0022 1B01     		lsls	r3, r3, #4
 2711 0024 3A68     		ldr	r2, [r7]
 2712 0026 1344     		add	r3, r3, r2
 2713 0028 9B7B     		ldrb	r3, [r3, #14]	@ zero_extendqisi2
 2714 002a 032B     		cmp	r3, #3
 2715 002c 02D0     		beq	.L141
 2716 002e 052B     		cmp	r3, #5
 2717 0030 06D0     		beq	.L142
 2718 0032 36E0     		b	.L149
 2719              	.L141:
 603:..\src/command_processing.c ****         
 604:..\src/command_processing.c ****             
 605:..\src/command_processing.c ****         case CUSTOM_INPUT:         //Input mode
 606:..\src/command_processing.c ****             g_mem.SH_config.input_mode = g_rx.buffer[3];            //In this specific FW, input mo
 2720              		.loc 1 606 0
 2721 0034 3D4B     		ldr	r3, .L151
 2722 0036 DA78     		ldrb	r2, [r3, #3]	@ zero_extendqisi2
 2723 0038 3D4B     		ldr	r3, .L151+4
 2724 003a 83F82820 		strb	r2, [r3, #40]
 607:..\src/command_processing.c ****             break;   
 2725              		.loc 1 607 0
 2726 003e 71E0     		b	.L143
 2727              	.L142:
 608:..\src/command_processing.c **** 
 609:..\src/command_processing.c ****         
 610:..\src/command_processing.c ****         case CUSTOM_POS_LIM:        //Position limits
 611:..\src/command_processing.c ****             g_mem.SH_config.pos_lim_inf = (int32)(g_rx.buffer[3]<<24 | g_rx.buffer[4]<<16 | g_rx.bu
 2728              		.loc 1 611 0
 2729 0040 3A4B     		ldr	r3, .L151
 2730 0042 DB78     		ldrb	r3, [r3, #3]	@ zero_extendqisi2
ARM GAS  C:\Users\mgnocco\AppData\Local\Temp\ccOygPd6.s 			page 76


 2731 0044 1A06     		lsls	r2, r3, #24
 2732 0046 394B     		ldr	r3, .L151
 2733 0048 1B79     		ldrb	r3, [r3, #4]	@ zero_extendqisi2
 2734 004a 1B04     		lsls	r3, r3, #16
 2735 004c 1A43     		orrs	r2, r2, r3
 2736 004e 374B     		ldr	r3, .L151
 2737 0050 5B79     		ldrb	r3, [r3, #5]	@ zero_extendqisi2
 2738 0052 1B02     		lsls	r3, r3, #8
 2739 0054 1343     		orrs	r3, r3, r2
 2740 0056 354A     		ldr	r2, .L151
 2741 0058 9279     		ldrb	r2, [r2, #6]	@ zero_extendqisi2
 2742 005a 1343     		orrs	r3, r3, r2
 2743 005c 344A     		ldr	r2, .L151+4
 2744 005e 1362     		str	r3, [r2, #32]
 612:..\src/command_processing.c ****             g_mem.SH_config.pos_lim_sup = (int32)(g_rx.buffer[7]<<24 | g_rx.buffer[8]<<16 | g_rx.bu
 2745              		.loc 1 612 0
 2746 0060 324B     		ldr	r3, .L151
 2747 0062 DB79     		ldrb	r3, [r3, #7]	@ zero_extendqisi2
 2748 0064 1A06     		lsls	r2, r3, #24
 2749 0066 314B     		ldr	r3, .L151
 2750 0068 1B7A     		ldrb	r3, [r3, #8]	@ zero_extendqisi2
 2751 006a 1B04     		lsls	r3, r3, #16
 2752 006c 1A43     		orrs	r2, r2, r3
 2753 006e 2F4B     		ldr	r3, .L151
 2754 0070 5B7A     		ldrb	r3, [r3, #9]	@ zero_extendqisi2
 2755 0072 1B02     		lsls	r3, r3, #8
 2756 0074 1343     		orrs	r3, r3, r2
 2757 0076 2D4A     		ldr	r2, .L151
 2758 0078 927A     		ldrb	r2, [r2, #10]	@ zero_extendqisi2
 2759 007a 1343     		orrs	r3, r3, r2
 2760 007c 2C4A     		ldr	r2, .L151+4
 2761 007e 5362     		str	r3, [r2, #36]
 613:..\src/command_processing.c **** 
 614:..\src/command_processing.c ****             g_mem.SH_config.pos_lim_inf = g_mem.SH_config.pos_lim_inf << g_mem.SH_config.res;
 2762              		.loc 1 614 0
 2763 0080 2B4B     		ldr	r3, .L151+4
 2764 0082 1B6A     		ldr	r3, [r3, #32]
 2765 0084 2A4A     		ldr	r2, .L151+4
 2766 0086 92F82920 		ldrb	r2, [r2, #41]	@ zero_extendqisi2
 2767 008a 9340     		lsls	r3, r3, r2
 2768 008c 284A     		ldr	r2, .L151+4
 2769 008e 1362     		str	r3, [r2, #32]
 615:..\src/command_processing.c ****             g_mem.SH_config.pos_lim_sup = g_mem.SH_config.pos_lim_sup << g_mem.SH_config.res;
 2770              		.loc 1 615 0
 2771 0090 274B     		ldr	r3, .L151+4
 2772 0092 5B6A     		ldr	r3, [r3, #36]
 2773 0094 264A     		ldr	r2, .L151+4
 2774 0096 92F82920 		ldrb	r2, [r2, #41]	@ zero_extendqisi2
 2775 009a 9340     		lsls	r3, r3, r2
 2776 009c 244A     		ldr	r2, .L151+4
 2777 009e 5362     		str	r3, [r2, #36]
 616:..\src/command_processing.c ****             break;            
 2778              		.loc 1 616 0
 2779 00a0 40E0     		b	.L143
 2780              	.L149:
 617:..\src/command_processing.c ****             default:
 618:..\src/command_processing.c **** 
ARM GAS  C:\Users\mgnocco\AppData\Local\Temp\ccOygPd6.s 			page 77


 619:..\src/command_processing.c ****                 for (i = 0; i < PARAM_LIST[index].NUM_ITEMS * sod; i += sod){
 2781              		.loc 1 619 0
 2782 00a2 0023     		movs	r3, #0
 2783 00a4 FB73     		strb	r3, [r7, #15]
 2784 00a6 20E0     		b	.L144
 2785              	.L147:
 620:..\src/command_processing.c ****                     for(j = 0; j < sod; j++) {
 2786              		.loc 1 620 0
 2787 00a8 0023     		movs	r3, #0
 2788 00aa BB73     		strb	r3, [r7, #14]
 2789 00ac 15E0     		b	.L145
 2790              	.L146:
 621:..\src/command_processing.c ****                         ((char*)(PARAM_LIST[index].VAR_P + i))[sod - j -1] = g_rx.buffer[3+i+j];   
 2791              		.loc 1 621 0 discriminator 3
 2792 00ae FB88     		ldrh	r3, [r7, #6]
 2793 00b0 1B01     		lsls	r3, r3, #4
 2794 00b2 3A68     		ldr	r2, [r7]
 2795 00b4 1344     		add	r3, r3, r2
 2796 00b6 1A68     		ldr	r2, [r3]
 2797 00b8 FB7B     		ldrb	r3, [r7, #15]	@ zero_extendqisi2
 2798 00ba 787B     		ldrb	r0, [r7, #13]	@ zero_extendqisi2
 2799 00bc B97B     		ldrb	r1, [r7, #14]	@ zero_extendqisi2
 2800 00be 411A     		subs	r1, r0, r1
 2801 00c0 0B44     		add	r3, r3, r1
 2802 00c2 013B     		subs	r3, r3, #1
 2803 00c4 1344     		add	r3, r3, r2
 2804 00c6 FA7B     		ldrb	r2, [r7, #15]	@ zero_extendqisi2
 2805 00c8 D11C     		adds	r1, r2, #3
 2806 00ca BA7B     		ldrb	r2, [r7, #14]	@ zero_extendqisi2
 2807 00cc 0A44     		add	r2, r2, r1
 2808 00ce 1749     		ldr	r1, .L151
 2809 00d0 8A5C     		ldrb	r2, [r1, r2]	@ zero_extendqisi2
 2810 00d2 1A70     		strb	r2, [r3]
 620:..\src/command_processing.c ****                     for(j = 0; j < sod; j++) {
 2811              		.loc 1 620 0 discriminator 3
 2812 00d4 BB7B     		ldrb	r3, [r7, #14]	@ zero_extendqisi2
 2813 00d6 0133     		adds	r3, r3, #1
 2814 00d8 BB73     		strb	r3, [r7, #14]
 2815              	.L145:
 620:..\src/command_processing.c ****                     for(j = 0; j < sod; j++) {
 2816              		.loc 1 620 0 is_stmt 0 discriminator 1
 2817 00da BA7B     		ldrb	r2, [r7, #14]	@ zero_extendqisi2
 2818 00dc 7B7B     		ldrb	r3, [r7, #13]	@ zero_extendqisi2
 2819 00de 9A42     		cmp	r2, r3
 2820 00e0 E5D3     		bcc	.L146
 619:..\src/command_processing.c ****                     for(j = 0; j < sod; j++) {
 2821              		.loc 1 619 0 is_stmt 1 discriminator 2
 2822 00e2 FA7B     		ldrb	r2, [r7, #15]
 2823 00e4 7B7B     		ldrb	r3, [r7, #13]
 2824 00e6 1344     		add	r3, r3, r2
 2825 00e8 FB73     		strb	r3, [r7, #15]
 2826              	.L144:
 619:..\src/command_processing.c ****                     for(j = 0; j < sod; j++) {
 2827              		.loc 1 619 0 is_stmt 0 discriminator 1
 2828 00ea FA7B     		ldrb	r2, [r7, #15]	@ zero_extendqisi2
 2829 00ec FB88     		ldrh	r3, [r7, #6]
 2830 00ee 1B01     		lsls	r3, r3, #4
ARM GAS  C:\Users\mgnocco\AppData\Local\Temp\ccOygPd6.s 			page 78


 2831 00f0 3968     		ldr	r1, [r7]
 2832 00f2 0B44     		add	r3, r3, r1
 2833 00f4 5B79     		ldrb	r3, [r3, #5]	@ zero_extendqisi2
 2834 00f6 1946     		mov	r1, r3
 2835 00f8 7B7B     		ldrb	r3, [r7, #13]	@ zero_extendqisi2
 2836 00fa 03FB01F3 		mul	r3, r3, r1
 2837 00fe 9A42     		cmp	r2, r3
 2838 0100 D2DB     		blt	.L147
 622:..\src/command_processing.c ****                     }
 623:..\src/command_processing.c ****                 } 
 624:..\src/command_processing.c ****                 if( PARAM_LIST[index].TYPES == TYPE_STRING)                   
 2839              		.loc 1 624 0 is_stmt 1
 2840 0102 FB88     		ldrh	r3, [r7, #6]
 2841 0104 1B01     		lsls	r3, r3, #4
 2842 0106 3A68     		ldr	r2, [r7]
 2843 0108 1344     		add	r3, r3, r2
 2844 010a 1B79     		ldrb	r3, [r3, #4]	@ zero_extendqisi2
 2845 010c 092B     		cmp	r3, #9
 2846 010e 08D1     		bne	.L150
 625:..\src/command_processing.c ****                    *(PARAM_LIST[index].VAR_P + i) = '\0';   
 2847              		.loc 1 625 0
 2848 0110 FB88     		ldrh	r3, [r7, #6]
 2849 0112 1B01     		lsls	r3, r3, #4
 2850 0114 3A68     		ldr	r2, [r7]
 2851 0116 1344     		add	r3, r3, r2
 2852 0118 1A68     		ldr	r2, [r3]
 2853 011a FB7B     		ldrb	r3, [r7, #15]	@ zero_extendqisi2
 2854 011c 1344     		add	r3, r3, r2
 2855 011e 0022     		movs	r2, #0
 2856 0120 1A70     		strb	r2, [r3]
 2857              	.L150:
 626:..\src/command_processing.c ****             break;
 2858              		.loc 1 626 0
 2859 0122 00BF     		nop
 2860              	.L143:
 627:..\src/command_processing.c ****     }
 628:..\src/command_processing.c **** 
 629:..\src/command_processing.c ****       
 630:..\src/command_processing.c **** }
 2861              		.loc 1 630 0
 2862 0124 00BF     		nop
 2863 0126 1037     		adds	r7, r7, #16
 2864              		.cfi_def_cfa_offset 8
 2865 0128 BD46     		mov	sp, r7
 2866              		.cfi_def_cfa_register 13
 2867              		@ sp needed
 2868 012a 80BD     		pop	{r7, pc}
 2869              	.L152:
 2870              		.align	2
 2871              	.L151:
 2872 012c 00000000 		.word	g_rx
 2873 0130 00000000 		.word	g_mem
 2874              		.cfi_endproc
 2875              	.LFE70:
 2876              		.size	set_custom_param, .-set_custom_param
 2877              		.section	.text.get_IMU_param_list,"ax",%progbits
 2878              		.align	2
ARM GAS  C:\Users\mgnocco\AppData\Local\Temp\ccOygPd6.s 			page 79


 2879              		.global	get_IMU_param_list
 2880              		.thumb
 2881              		.thumb_func
 2882              		.type	get_IMU_param_list, %function
 2883              	get_IMU_param_list:
 2884              	.LFB71:
 631:..\src/command_processing.c **** 
 632:..\src/command_processing.c **** //==============================================================================
 633:..\src/command_processing.c **** //                                                        GET IMU PARAMETER LIST
 634:..\src/command_processing.c **** //==============================================================================
 635:..\src/command_processing.c **** 
 636:..\src/command_processing.c **** void get_IMU_param_list(uint16 index)
 637:..\src/command_processing.c **** {
 2885              		.loc 1 637 0
 2886              		.cfi_startproc
 2887              		@ args = 0, pretend = 0, frame = 8
 2888              		@ frame_needed = 1, uses_anonymous_args = 0
 2889              		@ link register save eliminated.
 2890 0000 80B4     		push	{r7}
 2891              		.cfi_def_cfa_offset 4
 2892              		.cfi_offset 7, -4
 2893 0002 83B0     		sub	sp, sp, #12
 2894              		.cfi_def_cfa_offset 16
 2895 0004 00AF     		add	r7, sp, #0
 2896              		.cfi_def_cfa_register 7
 2897 0006 0346     		mov	r3, r0
 2898 0008 FB80     		strh	r3, [r7, #6]	@ movhi
 638:..\src/command_processing.c **** }
 2899              		.loc 1 638 0
 2900 000a 00BF     		nop
 2901 000c 0C37     		adds	r7, r7, #12
 2902              		.cfi_def_cfa_offset 4
 2903 000e BD46     		mov	sp, r7
 2904              		.cfi_def_cfa_register 13
 2905              		@ sp needed
 2906 0010 80BC     		pop	{r7}
 2907              		.cfi_restore 7
 2908              		.cfi_def_cfa_offset 0
 2909 0012 7047     		bx	lr
 2910              		.cfi_endproc
 2911              	.LFE71:
 2912              		.size	get_IMU_param_list, .-get_IMU_param_list
 2913              		.section	.text.setZeros,"ax",%progbits
 2914              		.align	2
 2915              		.global	setZeros
 2916              		.thumb
 2917              		.thumb_func
 2918              		.type	setZeros, %function
 2919              	setZeros:
 2920              	.LFB72:
 639:..\src/command_processing.c **** 
 640:..\src/command_processing.c **** //==============================================================================
 641:..\src/command_processing.c **** //                                                            COMMAND SET ZEROS
 642:..\src/command_processing.c **** //==============================================================================
 643:..\src/command_processing.c **** 
 644:..\src/command_processing.c **** void setZeros()
 645:..\src/command_processing.c **** {
ARM GAS  C:\Users\mgnocco\AppData\Local\Temp\ccOygPd6.s 			page 80


 2921              		.loc 1 645 0
 2922              		.cfi_startproc
 2923              		@ args = 0, pretend = 0, frame = 0
 2924              		@ frame_needed = 1, uses_anonymous_args = 0
 2925              		@ link register save eliminated.
 2926 0000 80B4     		push	{r7}
 2927              		.cfi_def_cfa_offset 4
 2928              		.cfi_offset 7, -4
 2929 0002 00AF     		add	r7, sp, #0
 2930              		.cfi_def_cfa_register 7
 646:..\src/command_processing.c **** }
 2931              		.loc 1 646 0
 2932 0004 00BF     		nop
 2933 0006 BD46     		mov	sp, r7
 2934              		.cfi_def_cfa_register 13
 2935              		@ sp needed
 2936 0008 80BC     		pop	{r7}
 2937              		.cfi_restore 7
 2938              		.cfi_def_cfa_offset 0
 2939 000a 7047     		bx	lr
 2940              		.cfi_endproc
 2941              	.LFE72:
 2942              		.size	setZeros, .-setZeros
 2943              		.section	.rodata
 2944              		.align	2
 2945              	.LC34:
 2946 0278 20256400 		.ascii	" %d\000"
 2947              		.align	2
 2948              	.LC35:
 2949 027c 20256C64 		.ascii	" %ld\000"
 2949      00
 2950              		.global	__aeabi_f2d
 2951 0281 000000   		.align	2
 2952              	.LC36:
 2953 0284 20256600 		.ascii	" %f\000"
 2954              		.section	.text.qbadminp_string,"ax",%progbits
 2955              		.align	2
 2956              		.global	qbadminp_string
 2957              		.thumb
 2958              		.thumb_func
 2959              		.type	qbadminp_string, %function
 2960              	qbadminp_string:
 2961              	.LFB73:
 647:..\src/command_processing.c **** 
 648:..\src/command_processing.c **** void  qbadminp_string ( uint8 num_params, uint8 num_menus, const struct parameter PARAM_LIST[], con
 2962              		.loc 1 648 0
 2963              		.cfi_startproc
 2964              		@ args = 0, pretend = 0, frame = 2664
 2965              		@ frame_needed = 1, uses_anonymous_args = 0
 2966 0000 90B5     		push	{r4, r7, lr}
 2967              		.cfi_def_cfa_offset 12
 2968              		.cfi_offset 4, -12
 2969              		.cfi_offset 7, -8
 2970              		.cfi_offset 14, -4
 2971 0002 ADF66C2D 		subw	sp, sp, #2668
 2972              		.cfi_def_cfa_offset 2680
 2973 0006 00AF     		add	r7, sp, #0
ARM GAS  C:\Users\mgnocco\AppData\Local\Temp\ccOygPd6.s 			page 81


 2974              		.cfi_def_cfa_register 7
 2975 0008 0446     		mov	r4, r0
 2976 000a 0846     		mov	r0, r1
 2977 000c 07F10801 		add	r1, r7, #8
 2978 0010 0A60     		str	r2, [r1]
 2979 0012 3A1D     		adds	r2, r7, #4
 2980 0014 1360     		str	r3, [r2]
 2981 0016 07F10F03 		add	r3, r7, #15
 2982 001a 2246     		mov	r2, r4
 2983 001c 1A70     		strb	r2, [r3]
 2984 001e 07F10E03 		add	r3, r7, #14
 2985 0022 0246     		mov	r2, r0
 2986 0024 1A70     		strb	r2, [r3]
 649:..\src/command_processing.c ****     strcpy(superstring, "");
 2987              		.loc 1 649 0
 2988 0026 AD4B     		ldr	r3, .L181
 2989 0028 1A78     		ldrb	r2, [r3]	@ zero_extendqisi2
 2990 002a AD4B     		ldr	r3, .L181+4
 2991 002c 1A70     		strb	r2, [r3]
 650:..\src/command_processing.c ****     char info_string[2500] = "";
 2992              		.loc 1 650 0
 2993 002e 07F17803 		add	r3, r7, #120
 2994 0032 0022     		movs	r2, #0
 2995 0034 1A60     		str	r2, [r3]
 2996 0036 0433     		adds	r3, r3, #4
 2997 0038 4FF41C62 		mov	r2, #2496
 2998 003c 0021     		movs	r1, #0
 2999 003e 1846     		mov	r0, r3
 3000 0040 FFF7FEFF 		bl	memset
 651:..\src/command_processing.c ****     int i;
 652:..\src/command_processing.c ****     int idx;
 653:..\src/command_processing.c ****     int32 aux_int32;
 654:..\src/command_processing.c ****     uint32 aux_uint32;
 655:..\src/command_processing.c ****     float aux_float;
 656:..\src/command_processing.c ****     uint8 aux_uint8;
 657:..\src/command_processing.c ****     int8 aux_int8;
 658:..\src/command_processing.c ****     int16 aux_int16;
 659:..\src/command_processing.c ****     uint16 aux_uint16;
 660:..\src/command_processing.c ****     struct st_eeprom* MEM_P = &c_mem; 
 3001              		.loc 1 660 0
 3002 0044 A74B     		ldr	r3, .L181+8
 3003 0046 C7F85C3A 		str	r3, [r7, #2652]
 661:..\src/command_processing.c ****     
 662:..\src/command_processing.c ****     if(c_mem.dev.id != 250){                //To avoid dummy board ping
 3004              		.loc 1 662 0
 3005 004a A64B     		ldr	r3, .L181+8
 3006 004c 1B7C     		ldrb	r3, [r3, #16]	@ zero_extendqisi2
 3007 004e FA2B     		cmp	r3, #250
 3008 0050 00F0A581 		beq	.L179
 3009              	.LBB25:
 663:..\src/command_processing.c ****         uint8* m_addr;
 664:..\src/command_processing.c ****         uint8* m_tmp;
 665:..\src/command_processing.c ****         char str[100];
 666:..\src/command_processing.c ****         strcpy(info_string, "");
 3010              		.loc 1 666 0
 3011 0054 A14B     		ldr	r3, .L181
 3012 0056 1A78     		ldrb	r2, [r3]	@ zero_extendqisi2
ARM GAS  C:\Users\mgnocco\AppData\Local\Temp\ccOygPd6.s 			page 82


 3013 0058 07F17803 		add	r3, r7, #120
 3014 005c 1A70     		strb	r2, [r3]
 667:..\src/command_processing.c ****         strcat(info_string, "\n");
 3015              		.loc 1 667 0
 3016 005e 07F17803 		add	r3, r7, #120
 3017 0062 1846     		mov	r0, r3
 3018 0064 FFF7FEFF 		bl	strlen
 3019 0068 0346     		mov	r3, r0
 3020 006a 1A46     		mov	r2, r3
 3021 006c 07F17803 		add	r3, r7, #120
 3022 0070 1344     		add	r3, r3, r2
 3023 0072 9D49     		ldr	r1, .L181+12
 3024 0074 1A46     		mov	r2, r3
 3025 0076 0B46     		mov	r3, r1
 3026 0078 1B88     		ldrh	r3, [r3]	@ unaligned
 3027 007a 1380     		strh	r3, [r2]	@ unaligned
 668:..\src/command_processing.c ****         
 669:..\src/command_processing.c ****         
 670:..\src/command_processing.c ****         for (idx = 0; idx < num_params; idx ++) {
 3028              		.loc 1 670 0
 3029 007c 0023     		movs	r3, #0
 3030 007e C7F8603A 		str	r3, [r7, #2656]
 3031 0082 7EE1     		b	.L157
 3032              	.L178:
 671:..\src/command_processing.c ****             if (PARAM_LIST[idx].ping){
 3033              		.loc 1 671 0
 3034 0084 D7F8603A 		ldr	r3, [r7, #2656]
 3035 0088 1B01     		lsls	r3, r3, #4
 3036 008a 07F10802 		add	r2, r7, #8
 3037 008e 1268     		ldr	r2, [r2]
 3038 0090 1344     		add	r3, r3, r2
 3039 0092 DB7B     		ldrb	r3, [r3, #15]	@ zero_extendqisi2
 3040 0094 002B     		cmp	r3, #0
 3041 0096 00F06F81 		beq	.L158
 3042              	.LBB26:
 672:..\src/command_processing.c ****                 strcat(info_string, PARAM_LIST[idx].PARAM_STR );
 3043              		.loc 1 672 0
 3044 009a D7F8603A 		ldr	r3, [r7, #2656]
 3045 009e 1B01     		lsls	r3, r3, #4
 3046 00a0 07F10802 		add	r2, r7, #8
 3047 00a4 1268     		ldr	r2, [r2]
 3048 00a6 1344     		add	r3, r3, r2
 3049 00a8 9A68     		ldr	r2, [r3, #8]
 3050 00aa 07F17803 		add	r3, r7, #120
 3051 00ae 1146     		mov	r1, r2
 3052 00b0 1846     		mov	r0, r3
 3053 00b2 FFF7FEFF 		bl	strcat
 673:..\src/command_processing.c ****                 m_addr = (uint8*)PARAM_LIST[idx].VAR_P;
 3054              		.loc 1 673 0
 3055 00b6 D7F8603A 		ldr	r3, [r7, #2656]
 3056 00ba 1B01     		lsls	r3, r3, #4
 3057 00bc 07F10802 		add	r2, r7, #8
 3058 00c0 1268     		ldr	r2, [r2]
 3059 00c2 1344     		add	r3, r3, r2
 3060 00c4 1B68     		ldr	r3, [r3]
 3061 00c6 C7F8583A 		str	r3, [r7, #2648]
 674:..\src/command_processing.c ****                 uint8 sod = num_of_bytes(PARAM_LIST[idx].TYPES);
ARM GAS  C:\Users\mgnocco\AppData\Local\Temp\ccOygPd6.s 			page 83


 3062              		.loc 1 674 0
 3063 00ca D7F8603A 		ldr	r3, [r7, #2656]
 3064 00ce 1B01     		lsls	r3, r3, #4
 3065 00d0 07F10802 		add	r2, r7, #8
 3066 00d4 1268     		ldr	r2, [r2]
 3067 00d6 1344     		add	r3, r3, r2
 3068 00d8 1B79     		ldrb	r3, [r3, #4]	@ zero_extendqisi2
 3069 00da 1846     		mov	r0, r3
 3070 00dc FFF7FEFF 		bl	num_of_bytes
 3071 00e0 0346     		mov	r3, r0
 3072 00e2 87F8573A 		strb	r3, [r7, #2647]
 675:..\src/command_processing.c ****                 switch(PARAM_LIST[idx].custom){
 3073              		.loc 1 675 0
 3074 00e6 D7F8603A 		ldr	r3, [r7, #2656]
 3075 00ea 1B01     		lsls	r3, r3, #4
 3076 00ec 07F10802 		add	r2, r7, #8
 3077 00f0 1268     		ldr	r2, [r2]
 3078 00f2 1344     		add	r3, r3, r2
 3079 00f4 9B7B     		ldrb	r3, [r3, #14]	@ zero_extendqisi2
 3080 00f6 052B     		cmp	r3, #5
 3081 00f8 00F0FE80 		beq	.L160
 676:..\src/command_processing.c ****                 case 0:   default:    
 677:..\src/command_processing.c ****                     for (i = 0; i < PARAM_LIST[idx].NUM_ITEMS; i++){
 3082              		.loc 1 677 0
 3083 00fc 0023     		movs	r3, #0
 3084 00fe C7F8643A 		str	r3, [r7, #2660]
 3085 0102 DCE0     		b	.L161
 3086              	.L176:
 678:..\src/command_processing.c ****                         m_tmp = m_addr + i*sod;
 3087              		.loc 1 678 0
 3088 0104 97F8573A 		ldrb	r3, [r7, #2647]	@ zero_extendqisi2
 3089 0108 D7F8642A 		ldr	r2, [r7, #2660]
 3090 010c 02FB03F3 		mul	r3, r2, r3
 3091 0110 1A46     		mov	r2, r3
 3092 0112 D7F8583A 		ldr	r3, [r7, #2648]
 3093 0116 1344     		add	r3, r3, r2
 3094 0118 C7F8503A 		str	r3, [r7, #2640]
 679:..\src/command_processing.c ****                         switch (PARAM_LIST[idx].TYPES){
 3095              		.loc 1 679 0
 3096 011c D7F8603A 		ldr	r3, [r7, #2656]
 3097 0120 1B01     		lsls	r3, r3, #4
 3098 0122 07F10802 		add	r2, r7, #8
 3099 0126 1268     		ldr	r2, [r2]
 3100 0128 1344     		add	r3, r3, r2
 3101 012a 1B79     		ldrb	r3, [r3, #4]	@ zero_extendqisi2
 3102 012c 072B     		cmp	r3, #7
 3103 012e 00F2B980 		bhi	.L162
 3104 0132 01A2     		adr	r2, .L164
 3105 0134 52F823F0 		ldr	pc, [r2, r3, lsl #2]
 3106              		.p2align 2
 3107              	.L164:
 3108 0138 27020000 		.word	.L163+1
 3109 013c 75010000 		.word	.L165+1
 3110 0140 59010000 		.word	.L166+1
 3111 0144 91010000 		.word	.L167+1
 3112 0148 AD010000 		.word	.L168+1
 3113 014c E5010000 		.word	.L169+1
ARM GAS  C:\Users\mgnocco\AppData\Local\Temp\ccOygPd6.s 			page 84


 3114 0150 C9010000 		.word	.L170+1
 3115 0154 01020000 		.word	.L171+1
 3116              		.p2align 1
 3117              	.L166:
 680:..\src/command_processing.c ****                             case TYPE_UINT8:
 681:..\src/command_processing.c ****                                 aux_uint8 = *((uint8*)m_tmp);
 3118              		.loc 1 681 0
 3119 0158 D7F8503A 		ldr	r3, [r7, #2640]
 3120 015c 1B78     		ldrb	r3, [r3]
 3121 015e 87F84F3A 		strb	r3, [r7, #2639]
 682:..\src/command_processing.c ****                                 sprintf(str, " %d", aux_uint8);
 3122              		.loc 1 682 0
 3123 0162 97F84F2A 		ldrb	r2, [r7, #2639]	@ zero_extendqisi2
 3124 0166 07F11403 		add	r3, r7, #20
 3125 016a 6049     		ldr	r1, .L181+16
 3126 016c 1846     		mov	r0, r3
 3127 016e FFF7FEFF 		bl	sprintf
 683:..\src/command_processing.c ****                                 break;
 3128              		.loc 1 683 0
 3129 0172 97E0     		b	.L162
 3130              	.L165:
 684:..\src/command_processing.c ****                             case TYPE_INT8:
 685:..\src/command_processing.c ****                                 aux_int8 = *((int8*)m_tmp);
 3131              		.loc 1 685 0
 3132 0174 D7F8503A 		ldr	r3, [r7, #2640]
 3133 0178 1B78     		ldrb	r3, [r3]
 3134 017a 87F84E3A 		strb	r3, [r7, #2638]
 686:..\src/command_processing.c ****                                 sprintf(str, " %d", aux_int8);
 3135              		.loc 1 686 0
 3136 017e 97F94E2A 		ldrsb	r2, [r7, #2638]
 3137 0182 07F11403 		add	r3, r7, #20
 3138 0186 5949     		ldr	r1, .L181+16
 3139 0188 1846     		mov	r0, r3
 3140 018a FFF7FEFF 		bl	sprintf
 687:..\src/command_processing.c ****                                 break;
 3141              		.loc 1 687 0
 3142 018e 89E0     		b	.L162
 3143              	.L167:
 688:..\src/command_processing.c ****                             case TYPE_INT16:   
 689:..\src/command_processing.c ****                                 aux_int16 = *((int16*)m_tmp);
 3144              		.loc 1 689 0
 3145 0190 D7F8503A 		ldr	r3, [r7, #2640]
 3146 0194 1B88     		ldrh	r3, [r3]	@ movhi
 3147 0196 A7F84C3A 		strh	r3, [r7, #2636]	@ movhi
 690:..\src/command_processing.c ****                                 sprintf(str, " %d", aux_int16);
 3148              		.loc 1 690 0
 3149 019a B7F94C2A 		ldrsh	r2, [r7, #2636]
 3150 019e 07F11403 		add	r3, r7, #20
 3151 01a2 5249     		ldr	r1, .L181+16
 3152 01a4 1846     		mov	r0, r3
 3153 01a6 FFF7FEFF 		bl	sprintf
 691:..\src/command_processing.c ****                                 break;
 3154              		.loc 1 691 0
 3155 01aa 7BE0     		b	.L162
 3156              	.L168:
 692:..\src/command_processing.c ****                             
 693:..\src/command_processing.c ****                             case TYPE_UINT16: 
ARM GAS  C:\Users\mgnocco\AppData\Local\Temp\ccOygPd6.s 			page 85


 694:..\src/command_processing.c ****                                 aux_uint16 = *((uint16*)m_tmp);
 3157              		.loc 1 694 0
 3158 01ac D7F8503A 		ldr	r3, [r7, #2640]
 3159 01b0 1B88     		ldrh	r3, [r3]	@ movhi
 3160 01b2 A7F84A3A 		strh	r3, [r7, #2634]	@ movhi
 695:..\src/command_processing.c ****                                 sprintf(str, " %d", aux_uint16);
 3161              		.loc 1 695 0
 3162 01b6 B7F84A2A 		ldrh	r2, [r7, #2634]
 3163 01ba 07F11403 		add	r3, r7, #20
 3164 01be 4B49     		ldr	r1, .L181+16
 3165 01c0 1846     		mov	r0, r3
 3166 01c2 FFF7FEFF 		bl	sprintf
 696:..\src/command_processing.c ****                                 break;
 3167              		.loc 1 696 0
 3168 01c6 6DE0     		b	.L162
 3169              	.L170:
 697:..\src/command_processing.c ****                             
 698:..\src/command_processing.c ****                             case TYPE_UINT32:
 699:..\src/command_processing.c ****                                 aux_uint32 = *((uint32*)m_tmp);
 3170              		.loc 1 699 0
 3171 01c8 D7F8503A 		ldr	r3, [r7, #2640]
 3172 01cc 1B68     		ldr	r3, [r3]
 3173 01ce C7F8443A 		str	r3, [r7, #2628]
 700:..\src/command_processing.c ****                                 sprintf(str, " %ld", aux_uint32);
 3174              		.loc 1 700 0
 3175 01d2 07F11403 		add	r3, r7, #20
 3176 01d6 D7F8442A 		ldr	r2, [r7, #2628]
 3177 01da 4549     		ldr	r1, .L181+20
 3178 01dc 1846     		mov	r0, r3
 3179 01de FFF7FEFF 		bl	sprintf
 701:..\src/command_processing.c ****                                 break;
 3180              		.loc 1 701 0
 3181 01e2 5FE0     		b	.L162
 3182              	.L169:
 702:..\src/command_processing.c ****                                 
 703:..\src/command_processing.c ****                             case TYPE_INT32:
 704:..\src/command_processing.c ****                                 aux_int32 = *((int32*)m_tmp);
 3183              		.loc 1 704 0
 3184 01e4 D7F8503A 		ldr	r3, [r7, #2640]
 3185 01e8 1B68     		ldr	r3, [r3]
 3186 01ea C7F8403A 		str	r3, [r7, #2624]
 705:..\src/command_processing.c ****                                 sprintf(str, " %ld", aux_int32);
 3187              		.loc 1 705 0
 3188 01ee 07F11403 		add	r3, r7, #20
 3189 01f2 D7F8402A 		ldr	r2, [r7, #2624]
 3190 01f6 3E49     		ldr	r1, .L181+20
 3191 01f8 1846     		mov	r0, r3
 3192 01fa FFF7FEFF 		bl	sprintf
 706:..\src/command_processing.c ****                                 break;
 3193              		.loc 1 706 0
 3194 01fe 51E0     		b	.L162
 3195              	.L171:
 707:..\src/command_processing.c ****                                 
 708:..\src/command_processing.c ****                             case TYPE_FLOAT:
 709:..\src/command_processing.c ****                                 aux_float = *((float*)m_tmp);
 3196              		.loc 1 709 0
 3197 0200 D7F8503A 		ldr	r3, [r7, #2640]
ARM GAS  C:\Users\mgnocco\AppData\Local\Temp\ccOygPd6.s 			page 86


 3198 0204 1B68     		ldr	r3, [r3]	@ float
 3199 0206 C7F83C3A 		str	r3, [r7, #2620]	@ float
 710:..\src/command_processing.c ****                                 sprintf(str, " %f", aux_float);
 3200              		.loc 1 710 0
 3201 020a D7F83C0A 		ldr	r0, [r7, #2620]	@ float
 3202 020e FFF7FEFF 		bl	__aeabi_f2d
 3203 0212 0346     		mov	r3, r0
 3204 0214 0C46     		mov	r4, r1
 3205 0216 07F11400 		add	r0, r7, #20
 3206 021a 1A46     		mov	r2, r3
 3207 021c 2346     		mov	r3, r4
 3208 021e 3549     		ldr	r1, .L181+24
 3209 0220 FFF7FEFF 		bl	sprintf
 711:..\src/command_processing.c ****                                 break;
 3210              		.loc 1 711 0
 3211 0224 3EE0     		b	.L162
 3212              	.L163:
 712:..\src/command_processing.c ****                                 
 713:..\src/command_processing.c ****                             case TYPE_FLAG:
 714:..\src/command_processing.c ****                                 for (i = 0; i < num_menus; i++){
 3213              		.loc 1 714 0
 3214 0226 0023     		movs	r3, #0
 3215 0228 C7F8643A 		str	r3, [r7, #2660]
 3216 022c 32E0     		b	.L172
 3217              	.L175:
 715:..\src/command_processing.c ****                                     if (MENU_LIST[i].name == PARAM_LIST[idx].MENU){
 3218              		.loc 1 715 0
 3219 022e D7F8643A 		ldr	r3, [r7, #2660]
 3220 0232 2C22     		movs	r2, #44
 3221 0234 02FB03F3 		mul	r3, r2, r3
 3222 0238 3A1D     		adds	r2, r7, #4
 3223 023a 1268     		ldr	r2, [r2]
 3224 023c 1344     		add	r3, r3, r2
