ARM GAS  C:\Users\mgnocco\AppData\Local\Temp\ccu9MjHv.s 			page 1


   1              		.syntax unified
   2              		.cpu cortex-m3
   3              		.fpu softvfp
   4              		.eabi_attribute 20, 1
   5              		.eabi_attribute 21, 1
   6              		.eabi_attribute 23, 3
   7              		.eabi_attribute 24, 1
   8              		.eabi_attribute 25, 1
   9              		.eabi_attribute 26, 1
  10              		.eabi_attribute 30, 6
  11              		.eabi_attribute 34, 1
  12              		.eabi_attribute 18, 4
  13              		.thumb
  14              		.syntax unified
  15              		.file	"cyfitter_cfg.c"
  16              		.text
  17              	.Ltext0:
  18              		.cfi_sections	.debug_frame
  19              		.section	.text.CYMEMZERO,"ax",%progbits
  20              		.align	2
  21              		.thumb
  22              		.thumb_func
  23              		.type	CYMEMZERO, %function
  24              	CYMEMZERO:
  25              	.LFB0:
  26              		.file 1 "Generated_Source\\PSoC5\\cyfitter_cfg.c"
   1:Generated_Source\PSoC5/cyfitter_cfg.c **** 
   2:Generated_Source\PSoC5/cyfitter_cfg.c **** /*******************************************************************************
   3:Generated_Source\PSoC5/cyfitter_cfg.c **** * File Name: cyfitter_cfg.c
   4:Generated_Source\PSoC5/cyfitter_cfg.c **** * 
   5:Generated_Source\PSoC5/cyfitter_cfg.c **** * PSoC Creator  4.4
   6:Generated_Source\PSoC5/cyfitter_cfg.c **** *
   7:Generated_Source\PSoC5/cyfitter_cfg.c **** * Description:
   8:Generated_Source\PSoC5/cyfitter_cfg.c **** * This file contains device initialization code.
   9:Generated_Source\PSoC5/cyfitter_cfg.c **** * Except for the user defined sections in CyClockStartupError(), this file should not be modified.
  10:Generated_Source\PSoC5/cyfitter_cfg.c **** * This file is automatically generated by PSoC Creator.
  11:Generated_Source\PSoC5/cyfitter_cfg.c **** *
  12:Generated_Source\PSoC5/cyfitter_cfg.c **** ********************************************************************************
  13:Generated_Source\PSoC5/cyfitter_cfg.c **** * Copyright (c) 2007-2020 Cypress Semiconductor.  All rights reserved.
  14:Generated_Source\PSoC5/cyfitter_cfg.c **** * You may use this file only in accordance with the license, terms, conditions, 
  15:Generated_Source\PSoC5/cyfitter_cfg.c **** * disclaimers, and limitations in the end user license agreement accompanying 
  16:Generated_Source\PSoC5/cyfitter_cfg.c **** * the software package with which this file was provided.
  17:Generated_Source\PSoC5/cyfitter_cfg.c **** ********************************************************************************/
  18:Generated_Source\PSoC5/cyfitter_cfg.c **** 
  19:Generated_Source\PSoC5/cyfitter_cfg.c **** #include <string.h>
  20:Generated_Source\PSoC5/cyfitter_cfg.c **** #include "cytypes.h"
  21:Generated_Source\PSoC5/cyfitter_cfg.c **** #include "cydevice_trm.h"
  22:Generated_Source\PSoC5/cyfitter_cfg.c **** #include "cyfitter.h"
  23:Generated_Source\PSoC5/cyfitter_cfg.c **** #include "CyLib.h"
  24:Generated_Source\PSoC5/cyfitter_cfg.c **** #include "cyfitter_cfg.h"
  25:Generated_Source\PSoC5/cyfitter_cfg.c **** 
  26:Generated_Source\PSoC5/cyfitter_cfg.c **** #define CY_NEED_CYCLOCKSTARTUPERROR 1
  27:Generated_Source\PSoC5/cyfitter_cfg.c **** 
  28:Generated_Source\PSoC5/cyfitter_cfg.c **** 
  29:Generated_Source\PSoC5/cyfitter_cfg.c **** #if defined(__GNUC__) || defined(__ARMCC_VERSION)
  30:Generated_Source\PSoC5/cyfitter_cfg.c ****     #define CYPACKED 
  31:Generated_Source\PSoC5/cyfitter_cfg.c ****     #define CYPACKED_ATTR __attribute__ ((packed))
ARM GAS  C:\Users\mgnocco\AppData\Local\Temp\ccu9MjHv.s 			page 2


  32:Generated_Source\PSoC5/cyfitter_cfg.c ****     #define CYALIGNED __attribute__ ((aligned))
  33:Generated_Source\PSoC5/cyfitter_cfg.c ****     #define CY_CFG_UNUSED __attribute__ ((unused))
  34:Generated_Source\PSoC5/cyfitter_cfg.c ****     #ifndef CY_CFG_SECTION
  35:Generated_Source\PSoC5/cyfitter_cfg.c ****         #define CY_CFG_SECTION __attribute__ ((section(".psocinit")))
  36:Generated_Source\PSoC5/cyfitter_cfg.c ****     #endif
  37:Generated_Source\PSoC5/cyfitter_cfg.c ****     
  38:Generated_Source\PSoC5/cyfitter_cfg.c ****     #if defined(__ARMCC_VERSION)
  39:Generated_Source\PSoC5/cyfitter_cfg.c ****         #define CY_CFG_MEMORY_BARRIER() __memory_changed()
  40:Generated_Source\PSoC5/cyfitter_cfg.c ****     #else
  41:Generated_Source\PSoC5/cyfitter_cfg.c ****         #define CY_CFG_MEMORY_BARRIER() __sync_synchronize()
  42:Generated_Source\PSoC5/cyfitter_cfg.c ****     #endif
  43:Generated_Source\PSoC5/cyfitter_cfg.c ****     
  44:Generated_Source\PSoC5/cyfitter_cfg.c **** #elif defined(__ICCARM__)
  45:Generated_Source\PSoC5/cyfitter_cfg.c ****     #include <intrinsics.h>
  46:Generated_Source\PSoC5/cyfitter_cfg.c **** 
  47:Generated_Source\PSoC5/cyfitter_cfg.c ****     #define CYPACKED __packed
  48:Generated_Source\PSoC5/cyfitter_cfg.c ****     #define CYPACKED_ATTR 
  49:Generated_Source\PSoC5/cyfitter_cfg.c ****     #define CYALIGNED _Pragma("data_alignment=4")
  50:Generated_Source\PSoC5/cyfitter_cfg.c ****     #define CY_CFG_UNUSED _Pragma("diag_suppress=Pe177")
  51:Generated_Source\PSoC5/cyfitter_cfg.c ****     #define CY_CFG_SECTION _Pragma("location=\".psocinit\"")
  52:Generated_Source\PSoC5/cyfitter_cfg.c ****     
  53:Generated_Source\PSoC5/cyfitter_cfg.c ****     #define CY_CFG_MEMORY_BARRIER() __DMB()
  54:Generated_Source\PSoC5/cyfitter_cfg.c ****     
  55:Generated_Source\PSoC5/cyfitter_cfg.c **** #else
  56:Generated_Source\PSoC5/cyfitter_cfg.c ****     #error Unsupported toolchain
  57:Generated_Source\PSoC5/cyfitter_cfg.c **** #endif
  58:Generated_Source\PSoC5/cyfitter_cfg.c **** 
  59:Generated_Source\PSoC5/cyfitter_cfg.c **** #ifndef CYCODE
  60:Generated_Source\PSoC5/cyfitter_cfg.c ****     #define CYCODE
  61:Generated_Source\PSoC5/cyfitter_cfg.c **** #endif
  62:Generated_Source\PSoC5/cyfitter_cfg.c **** #ifndef CYDATA
  63:Generated_Source\PSoC5/cyfitter_cfg.c ****     #define CYDATA
  64:Generated_Source\PSoC5/cyfitter_cfg.c **** #endif
  65:Generated_Source\PSoC5/cyfitter_cfg.c **** #ifndef CYFAR
  66:Generated_Source\PSoC5/cyfitter_cfg.c ****     #define CYFAR
  67:Generated_Source\PSoC5/cyfitter_cfg.c **** #endif
  68:Generated_Source\PSoC5/cyfitter_cfg.c **** #ifndef CYXDATA
  69:Generated_Source\PSoC5/cyfitter_cfg.c ****     #define CYXDATA
  70:Generated_Source\PSoC5/cyfitter_cfg.c **** #endif
  71:Generated_Source\PSoC5/cyfitter_cfg.c **** 
  72:Generated_Source\PSoC5/cyfitter_cfg.c **** #if defined(__ARMCC_VERSION)
  73:Generated_Source\PSoC5/cyfitter_cfg.c ****     extern unsigned int Load$$LR$$CYCONFIGECC$$Base;
  74:Generated_Source\PSoC5/cyfitter_cfg.c ****     #pragma diag_suppress 170,1296
  75:Generated_Source\PSoC5/cyfitter_cfg.c ****     #define CYDEV_ECC_VIRT_BASE 0x80000000
  76:Generated_Source\PSoC5/cyfitter_cfg.c ****     #define CYAPP_ECC_OFFSET ((uint32)&Load$$LR$$CYCONFIGECC$$Base - CYDEV_ECC_VIRT_BASE)
  77:Generated_Source\PSoC5/cyfitter_cfg.c **** #elif defined (__GNUC__) || defined (__ICCARM__)
  78:Generated_Source\PSoC5/cyfitter_cfg.c ****     extern int CY_ECC_OFFSET;
  79:Generated_Source\PSoC5/cyfitter_cfg.c ****     #define CYAPP_ECC_OFFSET ((uint32)&CY_ECC_OFFSET)
  80:Generated_Source\PSoC5/cyfitter_cfg.c **** #endif
  81:Generated_Source\PSoC5/cyfitter_cfg.c **** 
  82:Generated_Source\PSoC5/cyfitter_cfg.c **** CY_CFG_UNUSED
  83:Generated_Source\PSoC5/cyfitter_cfg.c **** static void CYMEMZERO(void *s, size_t n);
  84:Generated_Source\PSoC5/cyfitter_cfg.c **** CY_CFG_UNUSED
  85:Generated_Source\PSoC5/cyfitter_cfg.c **** static void CYMEMZERO(void *s, size_t n)
  86:Generated_Source\PSoC5/cyfitter_cfg.c **** {
  27              		.loc 1 86 0
  28              		.cfi_startproc
ARM GAS  C:\Users\mgnocco\AppData\Local\Temp\ccu9MjHv.s 			page 3


  29              		@ args = 0, pretend = 0, frame = 8
  30              		@ frame_needed = 1, uses_anonymous_args = 0
  31 0000 80B5     		push	{r7, lr}
  32              		.cfi_def_cfa_offset 8
  33              		.cfi_offset 7, -8
  34              		.cfi_offset 14, -4
  35 0002 82B0     		sub	sp, sp, #8
  36              		.cfi_def_cfa_offset 16
  37 0004 00AF     		add	r7, sp, #0
  38              		.cfi_def_cfa_register 7
  39 0006 7860     		str	r0, [r7, #4]
  40 0008 3960     		str	r1, [r7]
  87:Generated_Source\PSoC5/cyfitter_cfg.c **** 	(void)memset(s, 0, n);
  41              		.loc 1 87 0
  42 000a 3A68     		ldr	r2, [r7]
  43 000c 0021     		movs	r1, #0
  44 000e 7868     		ldr	r0, [r7, #4]
  45 0010 FFF7FEFF 		bl	memset
  88:Generated_Source\PSoC5/cyfitter_cfg.c **** }
  46              		.loc 1 88 0
  47 0014 00BF     		nop
  48 0016 0837     		adds	r7, r7, #8
  49              		.cfi_def_cfa_offset 8
  50 0018 BD46     		mov	sp, r7
  51              		.cfi_def_cfa_register 13
  52              		@ sp needed
  53 001a 80BD     		pop	{r7, pc}
  54              		.cfi_endproc
  55              	.LFE0:
  56              		.size	CYMEMZERO, .-CYMEMZERO
  57              		.section	.text.CYCONFIGCPY,"ax",%progbits
  58              		.align	2
  59              		.thumb
  60              		.thumb_func
  61              		.type	CYCONFIGCPY, %function
  62              	CYCONFIGCPY:
  63              	.LFB1:
  89:Generated_Source\PSoC5/cyfitter_cfg.c **** CY_CFG_UNUSED
  90:Generated_Source\PSoC5/cyfitter_cfg.c **** static void CYCONFIGCPY(void *dest, const void *src, size_t n);
  91:Generated_Source\PSoC5/cyfitter_cfg.c **** CY_CFG_UNUSED
  92:Generated_Source\PSoC5/cyfitter_cfg.c **** static void CYCONFIGCPY(void *dest, const void *src, size_t n)
  93:Generated_Source\PSoC5/cyfitter_cfg.c **** {
  64              		.loc 1 93 0
  65              		.cfi_startproc
  66              		@ args = 0, pretend = 0, frame = 16
  67              		@ frame_needed = 1, uses_anonymous_args = 0
  68 0000 80B5     		push	{r7, lr}
  69              		.cfi_def_cfa_offset 8
  70              		.cfi_offset 7, -8
  71              		.cfi_offset 14, -4
  72 0002 84B0     		sub	sp, sp, #16
  73              		.cfi_def_cfa_offset 24
  74 0004 00AF     		add	r7, sp, #0
  75              		.cfi_def_cfa_register 7
  76 0006 F860     		str	r0, [r7, #12]
  77 0008 B960     		str	r1, [r7, #8]
  78 000a 7A60     		str	r2, [r7, #4]
ARM GAS  C:\Users\mgnocco\AppData\Local\Temp\ccu9MjHv.s 			page 4


  94:Generated_Source\PSoC5/cyfitter_cfg.c **** 	(void)memcpy(dest, src, n);
  79              		.loc 1 94 0
  80 000c 7A68     		ldr	r2, [r7, #4]
  81 000e B968     		ldr	r1, [r7, #8]
  82 0010 F868     		ldr	r0, [r7, #12]
  83 0012 FFF7FEFF 		bl	memcpy
  95:Generated_Source\PSoC5/cyfitter_cfg.c **** }
  84              		.loc 1 95 0
  85 0016 00BF     		nop
  86 0018 1037     		adds	r7, r7, #16
  87              		.cfi_def_cfa_offset 8
  88 001a BD46     		mov	sp, r7
  89              		.cfi_def_cfa_register 13
  90              		@ sp needed
  91 001c 80BD     		pop	{r7, pc}
  92              		.cfi_endproc
  93              	.LFE1:
  94              		.size	CYCONFIGCPY, .-CYCONFIGCPY
  95 001e 00BF     		.section	.text.CYCONFIGCPYCODE,"ax",%progbits
  96              		.align	2
  97              		.thumb
  98              		.thumb_func
  99              		.type	CYCONFIGCPYCODE, %function
 100              	CYCONFIGCPYCODE:
 101              	.LFB2:
  96:Generated_Source\PSoC5/cyfitter_cfg.c **** CY_CFG_UNUSED
  97:Generated_Source\PSoC5/cyfitter_cfg.c **** static void CYCONFIGCPYCODE(void *dest, const void *src, size_t n);
  98:Generated_Source\PSoC5/cyfitter_cfg.c **** CY_CFG_UNUSED
  99:Generated_Source\PSoC5/cyfitter_cfg.c **** static void CYCONFIGCPYCODE(void *dest, const void *src, size_t n)
 100:Generated_Source\PSoC5/cyfitter_cfg.c **** {
 102              		.loc 1 100 0
 103              		.cfi_startproc
 104              		@ args = 0, pretend = 0, frame = 16
 105              		@ frame_needed = 1, uses_anonymous_args = 0
 106 0000 80B5     		push	{r7, lr}
 107              		.cfi_def_cfa_offset 8
 108              		.cfi_offset 7, -8
 109              		.cfi_offset 14, -4
 110 0002 84B0     		sub	sp, sp, #16
 111              		.cfi_def_cfa_offset 24
 112 0004 00AF     		add	r7, sp, #0
 113              		.cfi_def_cfa_register 7
 114 0006 F860     		str	r0, [r7, #12]
 115 0008 B960     		str	r1, [r7, #8]
 116 000a 7A60     		str	r2, [r7, #4]
 101:Generated_Source\PSoC5/cyfitter_cfg.c **** 	(void)memcpy(dest, src, n);
 117              		.loc 1 101 0
 118 000c 7A68     		ldr	r2, [r7, #4]
 119 000e B968     		ldr	r1, [r7, #8]
 120 0010 F868     		ldr	r0, [r7, #12]
 121 0012 FFF7FEFF 		bl	memcpy
 102:Generated_Source\PSoC5/cyfitter_cfg.c **** }
 122              		.loc 1 102 0
 123 0016 00BF     		nop
 124 0018 1037     		adds	r7, r7, #16
 125              		.cfi_def_cfa_offset 8
 126 001a BD46     		mov	sp, r7
ARM GAS  C:\Users\mgnocco\AppData\Local\Temp\ccu9MjHv.s 			page 5


 127              		.cfi_def_cfa_register 13
 128              		@ sp needed
 129 001c 80BD     		pop	{r7, pc}
 130              		.cfi_endproc
 131              	.LFE2:
 132              		.size	CYCONFIGCPYCODE, .-CYCONFIGCPYCODE
 133 001e 00BF     		.section	.text.CyClockStartupError,"ax",%progbits
 134              		.align	2
 135              		.thumb
 136              		.thumb_func
 137              		.type	CyClockStartupError, %function
 138              	CyClockStartupError:
 139              	.LFB3:
 103:Generated_Source\PSoC5/cyfitter_cfg.c **** 
 104:Generated_Source\PSoC5/cyfitter_cfg.c **** 
 105:Generated_Source\PSoC5/cyfitter_cfg.c **** 
 106:Generated_Source\PSoC5/cyfitter_cfg.c **** 
 107:Generated_Source\PSoC5/cyfitter_cfg.c **** /* Clock startup error codes                                                   */
 108:Generated_Source\PSoC5/cyfitter_cfg.c **** #define CYCLOCKSTART_NO_ERROR    0u
 109:Generated_Source\PSoC5/cyfitter_cfg.c **** #define CYCLOCKSTART_XTAL_ERROR  1u
 110:Generated_Source\PSoC5/cyfitter_cfg.c **** #define CYCLOCKSTART_32KHZ_ERROR 2u
 111:Generated_Source\PSoC5/cyfitter_cfg.c **** #define CYCLOCKSTART_PLL_ERROR   3u
 112:Generated_Source\PSoC5/cyfitter_cfg.c **** #define CYCLOCKSTART_FLL_ERROR   4u
 113:Generated_Source\PSoC5/cyfitter_cfg.c **** #define CYCLOCKSTART_WCO_ERROR   5u
 114:Generated_Source\PSoC5/cyfitter_cfg.c **** 
 115:Generated_Source\PSoC5/cyfitter_cfg.c **** 
 116:Generated_Source\PSoC5/cyfitter_cfg.c **** #ifdef CY_NEED_CYCLOCKSTARTUPERROR
 117:Generated_Source\PSoC5/cyfitter_cfg.c **** /*******************************************************************************
 118:Generated_Source\PSoC5/cyfitter_cfg.c **** * Function Name: CyClockStartupError
 119:Generated_Source\PSoC5/cyfitter_cfg.c **** ********************************************************************************
 120:Generated_Source\PSoC5/cyfitter_cfg.c **** * Summary:
 121:Generated_Source\PSoC5/cyfitter_cfg.c **** *  If an error is encountered during clock configuration (crystal startup error,
 122:Generated_Source\PSoC5/cyfitter_cfg.c **** *  PLL lock error, etc.), the system will end up here.  Unless reimplemented by
 123:Generated_Source\PSoC5/cyfitter_cfg.c **** *  the customer, this function will stop in an infinite loop.
 124:Generated_Source\PSoC5/cyfitter_cfg.c **** *
 125:Generated_Source\PSoC5/cyfitter_cfg.c **** * Parameters:
 126:Generated_Source\PSoC5/cyfitter_cfg.c **** *   void
 127:Generated_Source\PSoC5/cyfitter_cfg.c **** *
 128:Generated_Source\PSoC5/cyfitter_cfg.c **** * Return:
 129:Generated_Source\PSoC5/cyfitter_cfg.c **** *   void
 130:Generated_Source\PSoC5/cyfitter_cfg.c **** *
 131:Generated_Source\PSoC5/cyfitter_cfg.c **** *******************************************************************************/
 132:Generated_Source\PSoC5/cyfitter_cfg.c **** CY_CFG_UNUSED
 133:Generated_Source\PSoC5/cyfitter_cfg.c **** static void CyClockStartupError(uint8 errorCode);
 134:Generated_Source\PSoC5/cyfitter_cfg.c **** CY_CFG_UNUSED
 135:Generated_Source\PSoC5/cyfitter_cfg.c **** static void CyClockStartupError(uint8 errorCode)
 136:Generated_Source\PSoC5/cyfitter_cfg.c **** {
 140              		.loc 1 136 0
 141              		.cfi_startproc
 142              		@ args = 0, pretend = 0, frame = 8
 143              		@ frame_needed = 1, uses_anonymous_args = 0
 144              		@ link register save eliminated.
 145 0000 80B4     		push	{r7}
 146              		.cfi_def_cfa_offset 4
 147              		.cfi_offset 7, -4
 148 0002 83B0     		sub	sp, sp, #12
 149              		.cfi_def_cfa_offset 16
ARM GAS  C:\Users\mgnocco\AppData\Local\Temp\ccu9MjHv.s 			page 6


 150 0004 00AF     		add	r7, sp, #0
 151              		.cfi_def_cfa_register 7
 152 0006 0346     		mov	r3, r0
 153 0008 FB71     		strb	r3, [r7, #7]
 154              	.L5:
 137:Generated_Source\PSoC5/cyfitter_cfg.c ****     /* To remove the compiler warning if errorCode not used.                */
 138:Generated_Source\PSoC5/cyfitter_cfg.c ****     errorCode = errorCode;
 139:Generated_Source\PSoC5/cyfitter_cfg.c **** 
 140:Generated_Source\PSoC5/cyfitter_cfg.c ****     /* If we have a clock startup error (bad MHz crystal, PLL lock, etc.),  */
 141:Generated_Source\PSoC5/cyfitter_cfg.c ****     /* we will end up here to allow the customer to implement something to  */
 142:Generated_Source\PSoC5/cyfitter_cfg.c ****     /* deal with the clock condition.                                       */
 143:Generated_Source\PSoC5/cyfitter_cfg.c **** 
 144:Generated_Source\PSoC5/cyfitter_cfg.c **** #ifdef CY_CFG_CLOCK_STARTUP_ERROR_CALLBACK
 145:Generated_Source\PSoC5/cyfitter_cfg.c ****     CY_CFG_Clock_Startup_ErrorCallback();
 146:Generated_Source\PSoC5/cyfitter_cfg.c **** #else
 147:Generated_Source\PSoC5/cyfitter_cfg.c ****     /*  If not using CY_CFG_CLOCK_STARTUP_ERROR_CALLBACK, place your clock startup code here. */
 148:Generated_Source\PSoC5/cyfitter_cfg.c ****     /* `#START CyClockStartupError` */
 149:Generated_Source\PSoC5/cyfitter_cfg.c **** 
 150:Generated_Source\PSoC5/cyfitter_cfg.c **** 
 151:Generated_Source\PSoC5/cyfitter_cfg.c **** 
 152:Generated_Source\PSoC5/cyfitter_cfg.c ****     /* `#END` */
 153:Generated_Source\PSoC5/cyfitter_cfg.c **** 
 154:Generated_Source\PSoC5/cyfitter_cfg.c ****     while(1) {}
 155              		.loc 1 154 0 discriminator 1
 156 000a FEE7     		b	.L5
 157              		.cfi_endproc
 158              	.LFE3:
 159              		.size	CyClockStartupError, .-CyClockStartupError
 160              		.section	.text.cfg_write_bytes32,"ax",%progbits
 161              		.align	2
 162              		.thumb
 163              		.thumb_func
 164              		.type	cfg_write_bytes32, %function
 165              	cfg_write_bytes32:
 166              	.LFB4:
 155:Generated_Source\PSoC5/cyfitter_cfg.c **** #endif /* CY_CFG_CLOCK_STARTUP_ERROR_CALLBACK */
 156:Generated_Source\PSoC5/cyfitter_cfg.c **** }
 157:Generated_Source\PSoC5/cyfitter_cfg.c **** #endif
 158:Generated_Source\PSoC5/cyfitter_cfg.c **** 
 159:Generated_Source\PSoC5/cyfitter_cfg.c **** #define CY_CFG_BASE_ADDR_COUNT 37u
 160:Generated_Source\PSoC5/cyfitter_cfg.c **** CYPACKED typedef struct
 161:Generated_Source\PSoC5/cyfitter_cfg.c **** {
 162:Generated_Source\PSoC5/cyfitter_cfg.c **** 	uint8 offset;
 163:Generated_Source\PSoC5/cyfitter_cfg.c **** 	uint8 value;
 164:Generated_Source\PSoC5/cyfitter_cfg.c **** } CYPACKED_ATTR cy_cfg_addrvalue_t;
 165:Generated_Source\PSoC5/cyfitter_cfg.c **** 
 166:Generated_Source\PSoC5/cyfitter_cfg.c **** #define cy_cfg_addr_table ((const uint32 CYFAR *)(0x48000000u + CYAPP_ECC_OFFSET))
 167:Generated_Source\PSoC5/cyfitter_cfg.c **** #define cy_cfg_data_table ((const cy_cfg_addrvalue_t CYFAR *)(0x48000094u + CYAPP_ECC_OFFSET))
 168:Generated_Source\PSoC5/cyfitter_cfg.c **** 
 169:Generated_Source\PSoC5/cyfitter_cfg.c **** /* UDB_1_4_0_CONFIG Address: CYDEV_UCFG_B0_P1_U1_BASE Size (bytes): 128 */
 170:Generated_Source\PSoC5/cyfitter_cfg.c **** #define BS_UDB_1_4_0_CONFIG_VAL ((const uint8 CYFAR *)(0x48000B24u + CYAPP_ECC_OFFSET))
 171:Generated_Source\PSoC5/cyfitter_cfg.c **** 
 172:Generated_Source\PSoC5/cyfitter_cfg.c **** /* UCFG_BCTL0 Address: CYREG_BCTL0_MDCLK_EN Size (bytes): 16 */
 173:Generated_Source\PSoC5/cyfitter_cfg.c **** #define BS_UCFG_BCTL0_VAL ((const uint8 CYFAR *)(0x48000BA4u + CYAPP_ECC_OFFSET))
 174:Generated_Source\PSoC5/cyfitter_cfg.c **** 
 175:Generated_Source\PSoC5/cyfitter_cfg.c **** /* IOPINS0_0 Address: CYREG_PRT0_DM0 Size (bytes): 8 */
 176:Generated_Source\PSoC5/cyfitter_cfg.c **** #define BS_IOPINS0_0_VAL ((const uint8 CYFAR *)(0x48000BB4u + CYAPP_ECC_OFFSET))
ARM GAS  C:\Users\mgnocco\AppData\Local\Temp\ccu9MjHv.s 			page 7


 177:Generated_Source\PSoC5/cyfitter_cfg.c **** 
 178:Generated_Source\PSoC5/cyfitter_cfg.c **** /* IOPINS0_7 Address: CYREG_PRT12_DM0 Size (bytes): 8 */
 179:Generated_Source\PSoC5/cyfitter_cfg.c **** #define BS_IOPINS0_7_VAL ((const uint8 CYFAR *)(0x48000BBCu + CYAPP_ECC_OFFSET))
 180:Generated_Source\PSoC5/cyfitter_cfg.c **** 
 181:Generated_Source\PSoC5/cyfitter_cfg.c **** /* IOPINS0_8 Address: CYREG_PRT15_DM0 Size (bytes): 8 */
 182:Generated_Source\PSoC5/cyfitter_cfg.c **** #define BS_IOPINS0_8_VAL ((const uint8 CYFAR *)(0x48000BC4u + CYAPP_ECC_OFFSET))
 183:Generated_Source\PSoC5/cyfitter_cfg.c **** 
 184:Generated_Source\PSoC5/cyfitter_cfg.c **** /* IOPINS0_1 Address: CYREG_PRT1_DM0 Size (bytes): 8 */
 185:Generated_Source\PSoC5/cyfitter_cfg.c **** #define BS_IOPINS0_1_VAL ((const uint8 CYFAR *)(0x48000BCCu + CYAPP_ECC_OFFSET))
 186:Generated_Source\PSoC5/cyfitter_cfg.c **** 
 187:Generated_Source\PSoC5/cyfitter_cfg.c **** /* IOPINS0_2 Address: CYREG_PRT2_DM0 Size (bytes): 8 */
 188:Generated_Source\PSoC5/cyfitter_cfg.c **** #define BS_IOPINS0_2_VAL ((const uint8 CYFAR *)(0x48000BD4u + CYAPP_ECC_OFFSET))
 189:Generated_Source\PSoC5/cyfitter_cfg.c **** 
 190:Generated_Source\PSoC5/cyfitter_cfg.c **** /* IOPINS0_3 Address: CYREG_PRT3_DR Size (bytes): 10 */
 191:Generated_Source\PSoC5/cyfitter_cfg.c **** #define BS_IOPINS0_3_VAL ((const uint8 CYFAR *)(0x48000BDCu + CYAPP_ECC_OFFSET))
 192:Generated_Source\PSoC5/cyfitter_cfg.c **** 
 193:Generated_Source\PSoC5/cyfitter_cfg.c **** /* CYDEV_CLKDIST_ACFG0_CFG0 Address: CYREG_CLKDIST_ACFG0_CFG0 Size (bytes): 4 */
 194:Generated_Source\PSoC5/cyfitter_cfg.c **** #define BS_CYDEV_CLKDIST_ACFG0_CFG0_VAL ((const uint8 CYFAR *)(0x48000BE8u + CYAPP_ECC_OFFSET))
 195:Generated_Source\PSoC5/cyfitter_cfg.c **** 
 196:Generated_Source\PSoC5/cyfitter_cfg.c **** /* PHUB_CFGMEM10 Address: CYREG_PHUB_CFGMEM10_CFG0 Size (bytes): 4 */
 197:Generated_Source\PSoC5/cyfitter_cfg.c **** #define BS_PHUB_CFGMEM10_VAL ((const uint8 CYFAR *)(0x48000BECu + CYAPP_ECC_OFFSET))
 198:Generated_Source\PSoC5/cyfitter_cfg.c **** 
 199:Generated_Source\PSoC5/cyfitter_cfg.c **** 
 200:Generated_Source\PSoC5/cyfitter_cfg.c **** /*******************************************************************************
 201:Generated_Source\PSoC5/cyfitter_cfg.c **** * Function Name: cfg_write_bytes32
 202:Generated_Source\PSoC5/cyfitter_cfg.c **** ********************************************************************************
 203:Generated_Source\PSoC5/cyfitter_cfg.c **** * Summary:
 204:Generated_Source\PSoC5/cyfitter_cfg.c **** *  This function is used for setting up the chip configuration areas that
 205:Generated_Source\PSoC5/cyfitter_cfg.c **** *  contain relatively sparse data.
 206:Generated_Source\PSoC5/cyfitter_cfg.c **** *
 207:Generated_Source\PSoC5/cyfitter_cfg.c **** * Parameters:
 208:Generated_Source\PSoC5/cyfitter_cfg.c **** *   void
 209:Generated_Source\PSoC5/cyfitter_cfg.c **** *
 210:Generated_Source\PSoC5/cyfitter_cfg.c **** * Return:
 211:Generated_Source\PSoC5/cyfitter_cfg.c **** *   void
 212:Generated_Source\PSoC5/cyfitter_cfg.c **** *
 213:Generated_Source\PSoC5/cyfitter_cfg.c **** *******************************************************************************/
 214:Generated_Source\PSoC5/cyfitter_cfg.c **** static void cfg_write_bytes32(const uint32 addr_table[], const cy_cfg_addrvalue_t data_table[]);
 215:Generated_Source\PSoC5/cyfitter_cfg.c **** static void cfg_write_bytes32(const uint32 addr_table[], const cy_cfg_addrvalue_t data_table[])
 216:Generated_Source\PSoC5/cyfitter_cfg.c **** {
 167              		.loc 1 216 0
 168              		.cfi_startproc
 169              		@ args = 0, pretend = 0, frame = 24
 170              		@ frame_needed = 1, uses_anonymous_args = 0
 171              		@ link register save eliminated.
 172 0000 80B4     		push	{r7}
 173              		.cfi_def_cfa_offset 4
 174              		.cfi_offset 7, -4
 175 0002 87B0     		sub	sp, sp, #28
 176              		.cfi_def_cfa_offset 32
 177 0004 00AF     		add	r7, sp, #0
 178              		.cfi_def_cfa_register 7
 179 0006 7860     		str	r0, [r7, #4]
 180 0008 3960     		str	r1, [r7]
 217:Generated_Source\PSoC5/cyfitter_cfg.c **** 	/* For 32-bit little-endian architectures */
 218:Generated_Source\PSoC5/cyfitter_cfg.c **** 	uint32 i, j = 0u;
 181              		.loc 1 218 0
ARM GAS  C:\Users\mgnocco\AppData\Local\Temp\ccu9MjHv.s 			page 8


 182 000a 0023     		movs	r3, #0
 183 000c 3B61     		str	r3, [r7, #16]
 219:Generated_Source\PSoC5/cyfitter_cfg.c **** 	for (i = 0u; i < CY_CFG_BASE_ADDR_COUNT; i++)
 184              		.loc 1 219 0
 185 000e 0023     		movs	r3, #0
 186 0010 7B61     		str	r3, [r7, #20]
 187 0012 27E0     		b	.L7
 188              	.L10:
 189              	.LBB2:
 220:Generated_Source\PSoC5/cyfitter_cfg.c **** 	{
 221:Generated_Source\PSoC5/cyfitter_cfg.c **** 		uint32 baseAddr = addr_table[i];
 190              		.loc 1 221 0
 191 0014 7B69     		ldr	r3, [r7, #20]
 192 0016 9B00     		lsls	r3, r3, #2
 193 0018 7A68     		ldr	r2, [r7, #4]
 194 001a 1344     		add	r3, r3, r2
 195 001c 1B68     		ldr	r3, [r3]
 196 001e BB60     		str	r3, [r7, #8]
 222:Generated_Source\PSoC5/cyfitter_cfg.c **** 		uint8 count = (uint8)baseAddr;
 197              		.loc 1 222 0
 198 0020 BB68     		ldr	r3, [r7, #8]
 199 0022 FB73     		strb	r3, [r7, #15]
 223:Generated_Source\PSoC5/cyfitter_cfg.c **** 		baseAddr &= 0xFFFFFF00u;
 200              		.loc 1 223 0
 201 0024 BB68     		ldr	r3, [r7, #8]
 202 0026 23F0FF03 		bic	r3, r3, #255
 203 002a BB60     		str	r3, [r7, #8]
 224:Generated_Source\PSoC5/cyfitter_cfg.c **** 		while (count != 0u)
 204              		.loc 1 224 0
 205 002c 14E0     		b	.L8
 206              	.L9:
 225:Generated_Source\PSoC5/cyfitter_cfg.c **** 		{
 226:Generated_Source\PSoC5/cyfitter_cfg.c **** 			CY_SET_REG8((void *)(baseAddr + data_table[j].offset), data_table[j].value);
 207              		.loc 1 226 0
 208 002e 3B69     		ldr	r3, [r7, #16]
 209 0030 5B00     		lsls	r3, r3, #1
 210 0032 3A68     		ldr	r2, [r7]
 211 0034 1344     		add	r3, r3, r2
 212 0036 1B78     		ldrb	r3, [r3]	@ zero_extendqisi2
 213 0038 1A46     		mov	r2, r3
 214 003a BB68     		ldr	r3, [r7, #8]
 215 003c 1344     		add	r3, r3, r2
 216 003e 1946     		mov	r1, r3
 217 0040 3B69     		ldr	r3, [r7, #16]
 218 0042 5B00     		lsls	r3, r3, #1
 219 0044 3A68     		ldr	r2, [r7]
 220 0046 1344     		add	r3, r3, r2
 221 0048 5B78     		ldrb	r3, [r3, #1]	@ zero_extendqisi2
 222 004a 0B70     		strb	r3, [r1]
 227:Generated_Source\PSoC5/cyfitter_cfg.c **** 			j++;
 223              		.loc 1 227 0
 224 004c 3B69     		ldr	r3, [r7, #16]
 225 004e 0133     		adds	r3, r3, #1
 226 0050 3B61     		str	r3, [r7, #16]
 228:Generated_Source\PSoC5/cyfitter_cfg.c **** 			count--;
 227              		.loc 1 228 0
 228 0052 FB7B     		ldrb	r3, [r7, #15]	@ zero_extendqisi2
ARM GAS  C:\Users\mgnocco\AppData\Local\Temp\ccu9MjHv.s 			page 9


 229 0054 013B     		subs	r3, r3, #1
 230 0056 FB73     		strb	r3, [r7, #15]
 231              	.L8:
 224:Generated_Source\PSoC5/cyfitter_cfg.c **** 		{
 232              		.loc 1 224 0
 233 0058 FB7B     		ldrb	r3, [r7, #15]	@ zero_extendqisi2
 234 005a 002B     		cmp	r3, #0
 235 005c E7D1     		bne	.L9
 236              	.LBE2:
 219:Generated_Source\PSoC5/cyfitter_cfg.c **** 	{
 237              		.loc 1 219 0 discriminator 2
 238 005e 7B69     		ldr	r3, [r7, #20]
 239 0060 0133     		adds	r3, r3, #1
 240 0062 7B61     		str	r3, [r7, #20]
 241              	.L7:
 219:Generated_Source\PSoC5/cyfitter_cfg.c **** 	{
 242              		.loc 1 219 0 is_stmt 0 discriminator 1
 243 0064 7B69     		ldr	r3, [r7, #20]
 244 0066 242B     		cmp	r3, #36
 245 0068 D4D9     		bls	.L10
 229:Generated_Source\PSoC5/cyfitter_cfg.c **** 		}
 230:Generated_Source\PSoC5/cyfitter_cfg.c **** 	}
 231:Generated_Source\PSoC5/cyfitter_cfg.c **** }
 246              		.loc 1 231 0 is_stmt 1
 247 006a 00BF     		nop
 248 006c 1C37     		adds	r7, r7, #28
 249              		.cfi_def_cfa_offset 4
 250 006e BD46     		mov	sp, r7
 251              		.cfi_def_cfa_register 13
 252              		@ sp needed
 253 0070 80BC     		pop	{r7}
 254              		.cfi_restore 7
 255              		.cfi_def_cfa_offset 0
 256 0072 7047     		bx	lr
 257              		.cfi_endproc
 258              	.LFE4:
 259              		.size	cfg_write_bytes32, .-cfg_write_bytes32
 260              		.section	.text.ClockSetup,"ax",%progbits
 261              		.align	2
 262              		.thumb
 263              		.thumb_func
 264              		.type	ClockSetup, %function
 265              	ClockSetup:
 266              	.LFB5:
 232:Generated_Source\PSoC5/cyfitter_cfg.c **** 
 233:Generated_Source\PSoC5/cyfitter_cfg.c **** /*******************************************************************************
 234:Generated_Source\PSoC5/cyfitter_cfg.c **** * Function Name: ClockSetup
 235:Generated_Source\PSoC5/cyfitter_cfg.c **** ********************************************************************************
 236:Generated_Source\PSoC5/cyfitter_cfg.c **** *
 237:Generated_Source\PSoC5/cyfitter_cfg.c **** * Summary:
 238:Generated_Source\PSoC5/cyfitter_cfg.c **** *  Performs the initialization of all of the clocks in the device based on the
 239:Generated_Source\PSoC5/cyfitter_cfg.c **** *  settings in the Clock tab of the DWR.  This includes enabling the requested
 240:Generated_Source\PSoC5/cyfitter_cfg.c **** *  clocks and setting the necessary dividers to produce the desired frequency. 
 241:Generated_Source\PSoC5/cyfitter_cfg.c **** *
 242:Generated_Source\PSoC5/cyfitter_cfg.c **** * Parameters:
 243:Generated_Source\PSoC5/cyfitter_cfg.c **** *  void
 244:Generated_Source\PSoC5/cyfitter_cfg.c **** *
ARM GAS  C:\Users\mgnocco\AppData\Local\Temp\ccu9MjHv.s 			page 10


 245:Generated_Source\PSoC5/cyfitter_cfg.c **** * Return:
 246:Generated_Source\PSoC5/cyfitter_cfg.c **** *  void
 247:Generated_Source\PSoC5/cyfitter_cfg.c **** *
 248:Generated_Source\PSoC5/cyfitter_cfg.c **** *******************************************************************************/
 249:Generated_Source\PSoC5/cyfitter_cfg.c **** static void ClockSetup(void);
 250:Generated_Source\PSoC5/cyfitter_cfg.c **** static void ClockSetup(void)
 251:Generated_Source\PSoC5/cyfitter_cfg.c **** {
 267              		.loc 1 251 0
 268              		.cfi_startproc
 269              		@ args = 0, pretend = 0, frame = 8
 270              		@ frame_needed = 1, uses_anonymous_args = 0
 271 0000 80B5     		push	{r7, lr}
 272              		.cfi_def_cfa_offset 8
 273              		.cfi_offset 7, -8
 274              		.cfi_offset 14, -4
 275 0002 82B0     		sub	sp, sp, #8
 276              		.cfi_def_cfa_offset 16
 277 0004 00AF     		add	r7, sp, #0
 278              		.cfi_def_cfa_register 7
 252:Generated_Source\PSoC5/cyfitter_cfg.c **** 	uint32 timeout;
 253:Generated_Source\PSoC5/cyfitter_cfg.c **** 	uint8 pllLock;
 254:Generated_Source\PSoC5/cyfitter_cfg.c **** 
 255:Generated_Source\PSoC5/cyfitter_cfg.c **** 
 256:Generated_Source\PSoC5/cyfitter_cfg.c **** 	/* Configure Digital Clocks based on settings from Clock DWR */
 257:Generated_Source\PSoC5/cyfitter_cfg.c **** 	CY_SET_XTND_REG16((void CYFAR *)(CYREG_CLKDIST_DCFG0_CFG0), 0x0002u);
 279              		.loc 1 257 0
 280 0006 4E4B     		ldr	r3, .L16
 281 0008 0222     		movs	r2, #2
 282 000a 1A80     		strh	r2, [r3]	@ movhi
 258:Generated_Source\PSoC5/cyfitter_cfg.c **** 	CY_SET_XTND_REG8((void CYFAR *)(CYREG_CLKDIST_DCFG0_CFG0 + 0x2u), 0x18u);
 283              		.loc 1 258 0
 284 000c 4D4B     		ldr	r3, .L16+4
 285 000e 1822     		movs	r2, #24
 286 0010 1A70     		strb	r2, [r3]
 259:Generated_Source\PSoC5/cyfitter_cfg.c **** 	CY_SET_XTND_REG16((void CYFAR *)(CYREG_CLKDIST_DCFG1_CFG0), 0x0000u);
 287              		.loc 1 259 0
 288 0012 4D4B     		ldr	r3, .L16+8
 289 0014 0022     		movs	r2, #0
 290 0016 1A80     		strh	r2, [r3]	@ movhi
 260:Generated_Source\PSoC5/cyfitter_cfg.c **** 	CY_SET_XTND_REG8((void CYFAR *)(CYREG_CLKDIST_DCFG1_CFG0 + 0x2u), 0x58u);
 291              		.loc 1 260 0
 292 0018 4C4B     		ldr	r3, .L16+12
 293 001a 5822     		movs	r2, #88
 294 001c 1A70     		strb	r2, [r3]
 261:Generated_Source\PSoC5/cyfitter_cfg.c **** 	CY_SET_XTND_REG16((void CYFAR *)(CYREG_CLKDIST_DCFG2_CFG0), 0x0000u);
 295              		.loc 1 261 0
 296 001e 4C4B     		ldr	r3, .L16+16
 297 0020 0022     		movs	r2, #0
 298 0022 1A80     		strh	r2, [r3]	@ movhi
 262:Generated_Source\PSoC5/cyfitter_cfg.c **** 	CY_SET_XTND_REG8((void CYFAR *)(CYREG_CLKDIST_DCFG2_CFG0 + 0x2u), 0x50u);
 299              		.loc 1 262 0
 300 0024 4B4B     		ldr	r3, .L16+20
 301 0026 5022     		movs	r2, #80
 302 0028 1A70     		strb	r2, [r3]
 263:Generated_Source\PSoC5/cyfitter_cfg.c **** 	CY_SET_XTND_REG16((void CYFAR *)(CYREG_CLKDIST_DCFG3_CFG0), 0x0000u);
 303              		.loc 1 263 0
 304 002a 4B4B     		ldr	r3, .L16+24
ARM GAS  C:\Users\mgnocco\AppData\Local\Temp\ccu9MjHv.s 			page 11


 305 002c 0022     		movs	r2, #0
 306 002e 1A80     		strh	r2, [r3]	@ movhi
 264:Generated_Source\PSoC5/cyfitter_cfg.c **** 	CY_SET_XTND_REG8((void CYFAR *)(CYREG_CLKDIST_DCFG3_CFG0 + 0x2u), 0x58u);
 307              		.loc 1 264 0
 308 0030 4A4B     		ldr	r3, .L16+28
 309 0032 5822     		movs	r2, #88
 310 0034 1A70     		strb	r2, [r3]
 265:Generated_Source\PSoC5/cyfitter_cfg.c **** 	CY_SET_XTND_REG16((void CYFAR *)(CYREG_CLKDIST_DCFG4_CFG0), 0x0003u);
 311              		.loc 1 265 0
 312 0036 4A4B     		ldr	r3, .L16+32
 313 0038 0322     		movs	r2, #3
 314 003a 1A80     		strh	r2, [r3]	@ movhi
 266:Generated_Source\PSoC5/cyfitter_cfg.c **** 	CY_SET_XTND_REG8((void CYFAR *)(CYREG_CLKDIST_DCFG4_CFG0 + 0x2u), 0x18u);
 315              		.loc 1 266 0
 316 003c 494B     		ldr	r3, .L16+36
 317 003e 1822     		movs	r2, #24
 318 0040 1A70     		strb	r2, [r3]
 267:Generated_Source\PSoC5/cyfitter_cfg.c **** 	CY_SET_XTND_REG16((void CYFAR *)(CYREG_CLKDIST_DCFG5_CFG0), 0xEA5Fu);
 319              		.loc 1 267 0
 320 0042 494B     		ldr	r3, .L16+40
 321 0044 4EF65F22 		movw	r2, #59999
 322 0048 1A80     		strh	r2, [r3]	@ movhi
 268:Generated_Source\PSoC5/cyfitter_cfg.c **** 	CY_SET_XTND_REG8((void CYFAR *)(CYREG_CLKDIST_DCFG5_CFG0 + 0x2u), 0x19u);
 323              		.loc 1 268 0
 324 004a 484B     		ldr	r3, .L16+44
 325 004c 1922     		movs	r2, #25
 326 004e 1A70     		strb	r2, [r3]
 269:Generated_Source\PSoC5/cyfitter_cfg.c **** 
 270:Generated_Source\PSoC5/cyfitter_cfg.c **** 	/* Configure Analog Clocks based on settings from Clock DWR */
 271:Generated_Source\PSoC5/cyfitter_cfg.c **** 	CYCONFIGCPY((void CYFAR *)(CYREG_CLKDIST_ACFG0_CFG0), (const void CYFAR *)(BS_CYDEV_CLKDIST_ACFG0_
 327              		.loc 1 271 0
 328 0050 474B     		ldr	r3, .L16+48
 329 0052 03F19043 		add	r3, r3, #1207959552
 330 0056 03F6E833 		addw	r3, r3, #3048
 331 005a 0422     		movs	r2, #4
 332 005c 1946     		mov	r1, r3
 333 005e 4548     		ldr	r0, .L16+52
 334 0060 FFF7FEFF 		bl	CYCONFIGCPY
 272:Generated_Source\PSoC5/cyfitter_cfg.c **** 
 273:Generated_Source\PSoC5/cyfitter_cfg.c **** 	/* Configure ILO based on settings from Clock DWR */
 274:Generated_Source\PSoC5/cyfitter_cfg.c **** 	CY_SET_XTND_REG8((void CYFAR *)(CYREG_SLOWCLK_ILO_CR0), 0x02u);
 335              		.loc 1 274 0
 336 0064 444B     		ldr	r3, .L16+56
 337 0066 0222     		movs	r2, #2
 338 0068 1A70     		strb	r2, [r3]
 275:Generated_Source\PSoC5/cyfitter_cfg.c **** 	CY_SET_XTND_REG8((void CYFAR *)(CYREG_CLKDIST_CR), 0x08u);
 339              		.loc 1 275 0
 340 006a 4FF04023 		mov	r3, #1073758208
 341 006e 0822     		movs	r2, #8
 342 0070 1A70     		strb	r2, [r3]
 276:Generated_Source\PSoC5/cyfitter_cfg.c **** 
 277:Generated_Source\PSoC5/cyfitter_cfg.c **** 	/* Configure IMO based on settings from Clock DWR */
 278:Generated_Source\PSoC5/cyfitter_cfg.c **** 	CY_SET_XTND_REG8((void CYFAR *)(CYREG_FASTCLK_IMO_CR), 0x03u);
 343              		.loc 1 278 0
 344 0072 424B     		ldr	r3, .L16+60
 345 0074 0322     		movs	r2, #3
 346 0076 1A70     		strb	r2, [r3]
ARM GAS  C:\Users\mgnocco\AppData\Local\Temp\ccu9MjHv.s 			page 12


 279:Generated_Source\PSoC5/cyfitter_cfg.c **** 	CY_SET_XTND_REG8((void CYFAR *)(CYREG_IMO_TR1), (CY_GET_XTND_REG8((void CYFAR *)CYREG_FLSHID_CUST_
 347              		.loc 1 279 0
 348 0078 414B     		ldr	r3, .L16+64
 349 007a 424A     		ldr	r2, .L16+68
 350 007c 1278     		ldrb	r2, [r2]
 351 007e D2B2     		uxtb	r2, r2
 352 0080 1A70     		strb	r2, [r3]
 280:Generated_Source\PSoC5/cyfitter_cfg.c **** 
 281:Generated_Source\PSoC5/cyfitter_cfg.c **** 	/* Configure PLL based on settings from Clock DWR */
 282:Generated_Source\PSoC5/cyfitter_cfg.c **** 	CY_SET_XTND_REG16((void CYFAR *)(CYREG_FASTCLK_PLL_P), 0x0010u);
 353              		.loc 1 282 0
 354 0082 414B     		ldr	r3, .L16+72
 355 0084 1022     		movs	r2, #16
 356 0086 1A80     		strh	r2, [r3]	@ movhi
 283:Generated_Source\PSoC5/cyfitter_cfg.c **** 	CY_SET_XTND_REG16((void CYFAR *)(CYREG_FASTCLK_PLL_CFG0), 0x1251u);
 357              		.loc 1 283 0
 358 0088 404B     		ldr	r3, .L16+76
 359 008a 41F25122 		movw	r2, #4689
 360 008e 1A80     		strh	r2, [r3]	@ movhi
 284:Generated_Source\PSoC5/cyfitter_cfg.c **** 	/* Wait up to 250us for the PLL to lock */
 285:Generated_Source\PSoC5/cyfitter_cfg.c **** 	pllLock = 0u;
 361              		.loc 1 285 0
 362 0090 0023     		movs	r3, #0
 363 0092 FB70     		strb	r3, [r7, #3]
 286:Generated_Source\PSoC5/cyfitter_cfg.c **** 	for (timeout = 250u / 10u; (timeout > 0u) && (pllLock != 0x03u); timeout--)
 364              		.loc 1 286 0
 365 0094 1923     		movs	r3, #25
 366 0096 7B60     		str	r3, [r7, #4]
 367 0098 14E0     		b	.L12
 368              	.L14:
 287:Generated_Source\PSoC5/cyfitter_cfg.c **** 	{ 
 288:Generated_Source\PSoC5/cyfitter_cfg.c **** 		pllLock = 0x03u & ((uint8)((uint8)pllLock << 1) | ((CY_GET_XTND_REG8((void CYFAR *)CYREG_FASTCLK_
 369              		.loc 1 288 0 discriminator 4
 370 009a FB78     		ldrb	r3, [r7, #3]
 371 009c 5B00     		lsls	r3, r3, #1
 372 009e DAB2     		uxtb	r2, r3
 373 00a0 3B4B     		ldr	r3, .L16+80
 374 00a2 1B78     		ldrb	r3, [r3]
 375 00a4 DBB2     		uxtb	r3, r3
 376 00a6 03F00103 		and	r3, r3, #1
 377 00aa DBB2     		uxtb	r3, r3
 378 00ac 1343     		orrs	r3, r3, r2
 379 00ae DBB2     		uxtb	r3, r3
 380 00b0 03F00303 		and	r3, r3, #3
 381 00b4 FB70     		strb	r3, [r7, #3]
 289:Generated_Source\PSoC5/cyfitter_cfg.c **** 		CyDelayCycles(10u * 48u); /* Delay 10us based on 48MHz clock */
 382              		.loc 1 289 0 discriminator 4
 383 00b6 4FF4F070 		mov	r0, #480
 384 00ba FFF7FEFF 		bl	CyDelayCycles
 286:Generated_Source\PSoC5/cyfitter_cfg.c **** 	for (timeout = 250u / 10u; (timeout > 0u) && (pllLock != 0x03u); timeout--)
 385              		.loc 1 286 0 discriminator 4
 386 00be 7B68     		ldr	r3, [r7, #4]
 387 00c0 013B     		subs	r3, r3, #1
 388 00c2 7B60     		str	r3, [r7, #4]
 389              	.L12:
 286:Generated_Source\PSoC5/cyfitter_cfg.c **** 	for (timeout = 250u / 10u; (timeout > 0u) && (pllLock != 0x03u); timeout--)
 390              		.loc 1 286 0 is_stmt 0 discriminator 1
ARM GAS  C:\Users\mgnocco\AppData\Local\Temp\ccu9MjHv.s 			page 13


 391 00c4 7B68     		ldr	r3, [r7, #4]
 392 00c6 002B     		cmp	r3, #0
 393 00c8 02D0     		beq	.L13
 286:Generated_Source\PSoC5/cyfitter_cfg.c **** 	for (timeout = 250u / 10u; (timeout > 0u) && (pllLock != 0x03u); timeout--)
 394              		.loc 1 286 0 discriminator 3
 395 00ca FB78     		ldrb	r3, [r7, #3]	@ zero_extendqisi2
 396 00cc 032B     		cmp	r3, #3
 397 00ce E4D1     		bne	.L14
 398              	.L13:
 290:Generated_Source\PSoC5/cyfitter_cfg.c **** 	}
 291:Generated_Source\PSoC5/cyfitter_cfg.c **** 	/* If we ran out of time the PLL didn't lock so go to the error function */
 292:Generated_Source\PSoC5/cyfitter_cfg.c **** 	if (timeout == 0u)
 399              		.loc 1 292 0 is_stmt 1
 400 00d0 7B68     		ldr	r3, [r7, #4]
 401 00d2 002B     		cmp	r3, #0
 402 00d4 02D1     		bne	.L15
 293:Generated_Source\PSoC5/cyfitter_cfg.c **** 	{
 294:Generated_Source\PSoC5/cyfitter_cfg.c **** 		CyClockStartupError(CYCLOCKSTART_PLL_ERROR);
 403              		.loc 1 294 0
 404 00d6 0320     		movs	r0, #3
 405 00d8 FFF7FEFF 		bl	CyClockStartupError
 406              	.L15:
 295:Generated_Source\PSoC5/cyfitter_cfg.c **** 	}
 296:Generated_Source\PSoC5/cyfitter_cfg.c **** 
 297:Generated_Source\PSoC5/cyfitter_cfg.c **** 	/* Configure Bus/Master Clock based on settings from Clock DWR */
 298:Generated_Source\PSoC5/cyfitter_cfg.c **** 	CY_SET_XTND_REG16((void CYFAR *)(CYREG_CLKDIST_MSTR0), 0x0100u);
 407              		.loc 1 298 0
 408 00dc 2D4B     		ldr	r3, .L16+84
 409 00de 4FF48072 		mov	r2, #256
 410 00e2 1A80     		strh	r2, [r3]	@ movhi
 299:Generated_Source\PSoC5/cyfitter_cfg.c **** 	CY_SET_XTND_REG8((void CYFAR *)(CYREG_CLKDIST_MSTR0), 0x07u);
 411              		.loc 1 299 0
 412 00e4 2B4B     		ldr	r3, .L16+84
 413 00e6 0722     		movs	r2, #7
 414 00e8 1A70     		strb	r2, [r3]
 300:Generated_Source\PSoC5/cyfitter_cfg.c **** 	CY_SET_XTND_REG8((void CYFAR *)(CYREG_CLKDIST_BCFG0), 0x00u);
 415              		.loc 1 300 0
 416 00ea 2B4B     		ldr	r3, .L16+88
 417 00ec 0022     		movs	r2, #0
 418 00ee 1A70     		strb	r2, [r3]
 301:Generated_Source\PSoC5/cyfitter_cfg.c **** 	CY_SET_XTND_REG8((void CYFAR *)(CYREG_CLKDIST_BCFG2), 0x48u);
 419              		.loc 1 301 0
 420 00f0 2A4B     		ldr	r3, .L16+92
 421 00f2 4822     		movs	r2, #72
 422 00f4 1A70     		strb	r2, [r3]
 302:Generated_Source\PSoC5/cyfitter_cfg.c **** 	CY_SET_XTND_REG8((void CYFAR *)(CYREG_CLKDIST_MSTR0), 0x00u);
 423              		.loc 1 302 0
 424 00f6 274B     		ldr	r3, .L16+84
 425 00f8 0022     		movs	r2, #0
 426 00fa 1A70     		strb	r2, [r3]
 303:Generated_Source\PSoC5/cyfitter_cfg.c **** 	CY_SET_XTND_REG8((void CYFAR *)(CYREG_CLKDIST_LD), 0x02u);
 427              		.loc 1 303 0
 428 00fc 284B     		ldr	r3, .L16+96
 429 00fe 0222     		movs	r2, #2
 430 0100 1A70     		strb	r2, [r3]
 304:Generated_Source\PSoC5/cyfitter_cfg.c **** 	CY_SET_XTND_REG8((void CYFAR *)(CYREG_CLKDIST_DLY1), 0x04u);
 431              		.loc 1 304 0
ARM GAS  C:\Users\mgnocco\AppData\Local\Temp\ccu9MjHv.s 			page 14


 432 0102 284B     		ldr	r3, .L16+100
 433 0104 0422     		movs	r2, #4
 434 0106 1A70     		strb	r2, [r3]
 305:Generated_Source\PSoC5/cyfitter_cfg.c **** 
 306:Generated_Source\PSoC5/cyfitter_cfg.c **** 	CY_SET_XTND_REG8((void CYFAR *)(CYREG_PM_ACT_CFG2), ((CY_GET_XTND_REG8((void CYFAR *)CYREG_PM_ACT_
 435              		.loc 1 306 0
 436 0108 274A     		ldr	r2, .L16+104
 437 010a 274B     		ldr	r3, .L16+104
 438 010c 1B78     		ldrb	r3, [r3]
 439 010e DBB2     		uxtb	r3, r3
 440 0110 43F03F03 		orr	r3, r3, #63
 441 0114 DBB2     		uxtb	r3, r3
 442 0116 1370     		strb	r3, [r2]
 307:Generated_Source\PSoC5/cyfitter_cfg.c **** 	CY_SET_XTND_REG8((void CYFAR *)(CYREG_PM_ACT_CFG1), ((CY_GET_XTND_REG8((void CYFAR *)CYREG_PM_ACT_
 443              		.loc 1 307 0
 444 0118 244A     		ldr	r2, .L16+108
 445 011a 244B     		ldr	r3, .L16+108
 446 011c 1B78     		ldrb	r3, [r3]
 447 011e DBB2     		uxtb	r3, r3
 448 0120 43F00103 		orr	r3, r3, #1
 449 0124 DBB2     		uxtb	r3, r3
 450 0126 1370     		strb	r3, [r2]
 308:Generated_Source\PSoC5/cyfitter_cfg.c **** 	CY_SET_XTND_REG8((void CYFAR *)(CYREG_PM_ACT_CFG0), ((CY_GET_XTND_REG8((void CYFAR *)CYREG_PM_ACT_
 451              		.loc 1 308 0
 452 0128 214A     		ldr	r2, .L16+112
 453 012a 214B     		ldr	r3, .L16+112
 454 012c 1B78     		ldrb	r3, [r3]
 455 012e DBB2     		uxtb	r3, r3
 456 0130 63F07F03 		orn	r3, r3, #127
 457 0134 DBB2     		uxtb	r3, r3
 458 0136 1370     		strb	r3, [r2]
 309:Generated_Source\PSoC5/cyfitter_cfg.c **** }
 459              		.loc 1 309 0
 460 0138 00BF     		nop
 461 013a 0837     		adds	r7, r7, #8
 462              		.cfi_def_cfa_offset 8
 463 013c BD46     		mov	sp, r7
 464              		.cfi_def_cfa_register 13
 465              		@ sp needed
 466 013e 80BD     		pop	{r7, pc}
 467              	.L17:
 468              		.align	2
 469              	.L16:
 470 0140 80400040 		.word	1073758336
 471 0144 82400040 		.word	1073758338
 472 0148 84400040 		.word	1073758340
 473 014c 86400040 		.word	1073758342
 474 0150 88400040 		.word	1073758344
 475 0154 8A400040 		.word	1073758346
 476 0158 8C400040 		.word	1073758348
 477 015c 8E400040 		.word	1073758350
 478 0160 90400040 		.word	1073758352
 479 0164 92400040 		.word	1073758354
 480 0168 94400040 		.word	1073758356
 481 016c 96400040 		.word	1073758358
 482 0170 00000000 		.word	CY_ECC_OFFSET
 483 0174 00410040 		.word	1073758464
ARM GAS  C:\Users\mgnocco\AppData\Local\Temp\ccu9MjHv.s 			page 15


 484 0178 00430040 		.word	1073758976
 485 017c 00420040 		.word	1073758720
 486 0180 A1460040 		.word	1073759905
 487 0184 08010049 		.word	1224737032
 488 0188 22420040 		.word	1073758754
 489 018c 20420040 		.word	1073758752
 490 0190 25420040 		.word	1073758757
 491 0194 04400040 		.word	1073758212
 492 0198 06400040 		.word	1073758214
 493 019c 08400040 		.word	1073758216
 494 01a0 01400040 		.word	1073758209
 495 01a4 0B400040 		.word	1073758219
 496 01a8 A2430040 		.word	1073759138
 497 01ac A1430040 		.word	1073759137
 498 01b0 A0430040 		.word	1073759136
 499              		.cfi_endproc
 500              	.LFE5:
 501              		.size	ClockSetup, .-ClockSetup
 502              		.section	.text.AnalogSetDefault,"ax",%progbits
 503              		.align	2
 504              		.thumb
 505              		.thumb_func
 506              		.type	AnalogSetDefault, %function
 507              	AnalogSetDefault:
 508              	.LFB6:
 310:Generated_Source\PSoC5/cyfitter_cfg.c **** 
 311:Generated_Source\PSoC5/cyfitter_cfg.c **** 
 312:Generated_Source\PSoC5/cyfitter_cfg.c **** /* Analog API Functions */
 313:Generated_Source\PSoC5/cyfitter_cfg.c **** 
 314:Generated_Source\PSoC5/cyfitter_cfg.c **** 
 315:Generated_Source\PSoC5/cyfitter_cfg.c **** /*******************************************************************************
 316:Generated_Source\PSoC5/cyfitter_cfg.c **** * Function Name: AnalogSetDefault
 317:Generated_Source\PSoC5/cyfitter_cfg.c **** ********************************************************************************
 318:Generated_Source\PSoC5/cyfitter_cfg.c **** *
 319:Generated_Source\PSoC5/cyfitter_cfg.c **** * Summary:
 320:Generated_Source\PSoC5/cyfitter_cfg.c **** *  Sets up the analog portions of the chip to default values based on chip
 321:Generated_Source\PSoC5/cyfitter_cfg.c **** *  configuration options from the project.
 322:Generated_Source\PSoC5/cyfitter_cfg.c **** *
 323:Generated_Source\PSoC5/cyfitter_cfg.c **** * Parameters:
 324:Generated_Source\PSoC5/cyfitter_cfg.c **** *  void
 325:Generated_Source\PSoC5/cyfitter_cfg.c **** *
 326:Generated_Source\PSoC5/cyfitter_cfg.c **** * Return:
 327:Generated_Source\PSoC5/cyfitter_cfg.c **** *  void
 328:Generated_Source\PSoC5/cyfitter_cfg.c **** *
 329:Generated_Source\PSoC5/cyfitter_cfg.c **** *******************************************************************************/
 330:Generated_Source\PSoC5/cyfitter_cfg.c **** static void AnalogSetDefault(void);
 331:Generated_Source\PSoC5/cyfitter_cfg.c **** static void AnalogSetDefault(void)
 332:Generated_Source\PSoC5/cyfitter_cfg.c **** {
 509              		.loc 1 332 0
 510              		.cfi_startproc
 511              		@ args = 0, pretend = 0, frame = 8
 512              		@ frame_needed = 1, uses_anonymous_args = 0
 513              		@ link register save eliminated.
 514 0000 80B4     		push	{r7}
 515              		.cfi_def_cfa_offset 4
 516              		.cfi_offset 7, -4
 517 0002 83B0     		sub	sp, sp, #12
ARM GAS  C:\Users\mgnocco\AppData\Local\Temp\ccu9MjHv.s 			page 16


 518              		.cfi_def_cfa_offset 16
 519 0004 00AF     		add	r7, sp, #0
 520              		.cfi_def_cfa_register 7
 333:Generated_Source\PSoC5/cyfitter_cfg.c **** 	uint8 bg_xover_inl_trim = CY_GET_XTND_REG8((void CYFAR *)(CYREG_FLSHID_MFG_CFG_BG_XOVER_INL_TRIM +
 521              		.loc 1 333 0
 522 0006 0F4B     		ldr	r3, .L19
 523 0008 1B78     		ldrb	r3, [r3]
 524 000a FB71     		strb	r3, [r7, #7]
 334:Generated_Source\PSoC5/cyfitter_cfg.c **** 	CY_SET_XTND_REG8((void CYFAR *)(CYREG_BG_DFT0), (bg_xover_inl_trim & 0x07u));
 525              		.loc 1 334 0
 526 000c 0E4A     		ldr	r2, .L19+4
 527 000e FB79     		ldrb	r3, [r7, #7]
 528 0010 03F00703 		and	r3, r3, #7
 529 0014 DBB2     		uxtb	r3, r3
 530 0016 1370     		strb	r3, [r2]
 335:Generated_Source\PSoC5/cyfitter_cfg.c **** 	CY_SET_XTND_REG8((void CYFAR *)(CYREG_BG_DFT1), ((bg_xover_inl_trim >> 4) & 0x0Fu));
 531              		.loc 1 335 0
 532 0018 0C4A     		ldr	r2, .L19+8
 533 001a FB79     		ldrb	r3, [r7, #7]	@ zero_extendqisi2
 534 001c 1B09     		lsrs	r3, r3, #4
 535 001e DBB2     		uxtb	r3, r3
 536 0020 1370     		strb	r3, [r2]
 336:Generated_Source\PSoC5/cyfitter_cfg.c **** 	CY_SET_XTND_REG8((void CYFAR *)CYREG_PRT0_AG, 0x02u);
 537              		.loc 1 336 0
 538 0022 0B4B     		ldr	r3, .L19+12
 539 0024 0222     		movs	r2, #2
 540 0026 1A70     		strb	r2, [r3]
 337:Generated_Source\PSoC5/cyfitter_cfg.c **** 	CY_SET_XTND_REG8((void CYFAR *)CYREG_PRT2_AG, 0xC0u);
 541              		.loc 1 337 0
 542 0028 0A4B     		ldr	r3, .L19+16
 543 002a C022     		movs	r2, #192
 544 002c 1A70     		strb	r2, [r3]
 338:Generated_Source\PSoC5/cyfitter_cfg.c **** 	CY_SET_XTND_REG8((void CYFAR *)CYREG_DSM0_SW0, 0x2Cu);
 545              		.loc 1 338 0
 546 002e 0A4B     		ldr	r3, .L19+20
 547 0030 2C22     		movs	r2, #44
 548 0032 1A70     		strb	r2, [r3]
 339:Generated_Source\PSoC5/cyfitter_cfg.c **** 	CY_SET_XTND_REG8((void CYFAR *)CYREG_PUMP_CR0, 0x44u);
 549              		.loc 1 339 0
 550 0034 094B     		ldr	r3, .L19+24
 551 0036 4422     		movs	r2, #68
 552 0038 1A70     		strb	r2, [r3]
 340:Generated_Source\PSoC5/cyfitter_cfg.c **** }
 553              		.loc 1 340 0
 554 003a 00BF     		nop
 555 003c 0C37     		adds	r7, r7, #12
 556              		.cfi_def_cfa_offset 4
 557 003e BD46     		mov	sp, r7
 558              		.cfi_def_cfa_register 13
 559              		@ sp needed
 560 0040 80BC     		pop	{r7}
 561              		.cfi_restore 7
 562              		.cfi_def_cfa_offset 0
 563 0042 7047     		bx	lr
 564              	.L20:
 565              		.align	2
 566              	.L19:
ARM GAS  C:\Users\mgnocco\AppData\Local\Temp\ccu9MjHv.s 			page 17


 567 0044 CF010049 		.word	1224737231
 568 0048 6E580040 		.word	1073764462
 569 004c 6F580040 		.word	1073764463
 570 0050 0D510040 		.word	1073762573
 571 0054 2D510040 		.word	1073762605
 572 0058 005B0040 		.word	1073765120
 573 005c 76580040 		.word	1073764470
 574              		.cfi_endproc
 575              	.LFE6:
 576              		.size	AnalogSetDefault, .-AnalogSetDefault
 577              		.section	.text.SetAnalogRoutingPumps,"ax",%progbits
 578              		.align	2
 579              		.global	SetAnalogRoutingPumps
 580              		.thumb
 581              		.thumb_func
 582              		.type	SetAnalogRoutingPumps, %function
 583              	SetAnalogRoutingPumps:
 584              	.LFB7:
 341:Generated_Source\PSoC5/cyfitter_cfg.c **** 
 342:Generated_Source\PSoC5/cyfitter_cfg.c **** 
 343:Generated_Source\PSoC5/cyfitter_cfg.c **** /*******************************************************************************
 344:Generated_Source\PSoC5/cyfitter_cfg.c **** * Function Name: SetAnalogRoutingPumps
 345:Generated_Source\PSoC5/cyfitter_cfg.c **** ********************************************************************************
 346:Generated_Source\PSoC5/cyfitter_cfg.c **** *
 347:Generated_Source\PSoC5/cyfitter_cfg.c **** * Summary:
 348:Generated_Source\PSoC5/cyfitter_cfg.c **** * Enables or disables the analog pumps feeding analog routing switches.
 349:Generated_Source\PSoC5/cyfitter_cfg.c **** * Intended to be called at startup, based on the Vdda system configuration;
 350:Generated_Source\PSoC5/cyfitter_cfg.c **** * may be called during operation when the user informs us that the Vdda voltage
 351:Generated_Source\PSoC5/cyfitter_cfg.c **** * crossed the pump threshold.
 352:Generated_Source\PSoC5/cyfitter_cfg.c **** *
 353:Generated_Source\PSoC5/cyfitter_cfg.c **** * Parameters:
 354:Generated_Source\PSoC5/cyfitter_cfg.c **** *  enabled - 1 to enable the pumps, 0 to disable the pumps
 355:Generated_Source\PSoC5/cyfitter_cfg.c **** *
 356:Generated_Source\PSoC5/cyfitter_cfg.c **** * Return:
 357:Generated_Source\PSoC5/cyfitter_cfg.c **** *  void
 358:Generated_Source\PSoC5/cyfitter_cfg.c **** *
 359:Generated_Source\PSoC5/cyfitter_cfg.c **** *******************************************************************************/
 360:Generated_Source\PSoC5/cyfitter_cfg.c **** void SetAnalogRoutingPumps(uint8 enabled)
 361:Generated_Source\PSoC5/cyfitter_cfg.c **** {
 585              		.loc 1 361 0
 586              		.cfi_startproc
 587              		@ args = 0, pretend = 0, frame = 16
 588              		@ frame_needed = 1, uses_anonymous_args = 0
 589              		@ link register save eliminated.
 590 0000 80B4     		push	{r7}
 591              		.cfi_def_cfa_offset 4
 592              		.cfi_offset 7, -4
 593 0002 85B0     		sub	sp, sp, #20
 594              		.cfi_def_cfa_offset 24
 595 0004 00AF     		add	r7, sp, #0
 596              		.cfi_def_cfa_register 7
 597 0006 0346     		mov	r3, r0
 598 0008 FB71     		strb	r3, [r7, #7]
 362:Generated_Source\PSoC5/cyfitter_cfg.c **** 	uint8 regValue = CY_GET_XTND_REG8((void CYFAR *)CYREG_PUMP_CR0);
 599              		.loc 1 362 0
 600 000a 0B4B     		ldr	r3, .L24
 601 000c 1B78     		ldrb	r3, [r3]
ARM GAS  C:\Users\mgnocco\AppData\Local\Temp\ccu9MjHv.s 			page 18


 602 000e FB73     		strb	r3, [r7, #15]
 363:Generated_Source\PSoC5/cyfitter_cfg.c **** 	if (enabled != 0u)
 603              		.loc 1 363 0
 604 0010 FB79     		ldrb	r3, [r7, #7]	@ zero_extendqisi2
 605 0012 002B     		cmp	r3, #0
 606 0014 04D0     		beq	.L22
 364:Generated_Source\PSoC5/cyfitter_cfg.c **** 	{
 365:Generated_Source\PSoC5/cyfitter_cfg.c **** 		regValue |= 0x22u;
 607              		.loc 1 365 0
 608 0016 FB7B     		ldrb	r3, [r7, #15]
 609 0018 43F02203 		orr	r3, r3, #34
 610 001c FB73     		strb	r3, [r7, #15]
 611 001e 03E0     		b	.L23
 612              	.L22:
 366:Generated_Source\PSoC5/cyfitter_cfg.c **** 	}
 367:Generated_Source\PSoC5/cyfitter_cfg.c **** 	else
 368:Generated_Source\PSoC5/cyfitter_cfg.c **** 	{
 369:Generated_Source\PSoC5/cyfitter_cfg.c **** 		regValue &= (uint8)~0x22u;
 613              		.loc 1 369 0
 614 0020 FB7B     		ldrb	r3, [r7, #15]
 615 0022 23F02203 		bic	r3, r3, #34
 616 0026 FB73     		strb	r3, [r7, #15]
 617              	.L23:
 370:Generated_Source\PSoC5/cyfitter_cfg.c **** 	}
 371:Generated_Source\PSoC5/cyfitter_cfg.c **** 	CY_SET_XTND_REG8((void CYFAR *)CYREG_PUMP_CR0, regValue);
 618              		.loc 1 371 0
 619 0028 034A     		ldr	r2, .L24
 620 002a FB7B     		ldrb	r3, [r7, #15]
 621 002c 1370     		strb	r3, [r2]
 372:Generated_Source\PSoC5/cyfitter_cfg.c **** }
 622              		.loc 1 372 0
 623 002e 00BF     		nop
 624 0030 1437     		adds	r7, r7, #20
 625              		.cfi_def_cfa_offset 4
 626 0032 BD46     		mov	sp, r7
 627              		.cfi_def_cfa_register 13
 628              		@ sp needed
 629 0034 80BC     		pop	{r7}
 630              		.cfi_restore 7
 631              		.cfi_def_cfa_offset 0
 632 0036 7047     		bx	lr
 633              	.L25:
 634              		.align	2
 635              	.L24:
 636 0038 76580040 		.word	1073764470
 637              		.cfi_endproc
 638              	.LFE7:
 639              		.size	SetAnalogRoutingPumps, .-SetAnalogRoutingPumps
 640              		.global	ADC_AMux__addrTable
 641              		.section	.rodata
 642              		.align	2
 643              		.type	ADC_AMux__addrTable, %object
 644              		.size	ADC_AMux__addrTable, 8
 645              	ADC_AMux__addrTable:
 646 0000 035B0040 		.word	1073765123
 647 0004 24430040 		.word	1073759012
 648              		.global	ADC_AMux__maskTable
ARM GAS  C:\Users\mgnocco\AppData\Local\Temp\ccu9MjHv.s 			page 19


 649              		.align	2
 650              		.type	ADC_AMux__maskTable, %object
 651              		.size	ADC_AMux__maskTable, 2
 652              	ADC_AMux__maskTable:
 653 0008 40       		.byte	64
 654 0009 00       		.byte	0
 655              		.section	.text.ADC_AMux_Set,"ax",%progbits
 656              		.align	2
 657              		.global	ADC_AMux_Set
 658              		.thumb
 659              		.thumb_func
 660              		.type	ADC_AMux_Set, %function
 661              	ADC_AMux_Set:
 662              	.LFB8:
 373:Generated_Source\PSoC5/cyfitter_cfg.c **** 
 374:Generated_Source\PSoC5/cyfitter_cfg.c **** 
 375:Generated_Source\PSoC5/cyfitter_cfg.c **** #define CY_AMUX_UNUSED CYREG_BOOST_SR
 376:Generated_Source\PSoC5/cyfitter_cfg.c **** /* This is an implementation detail of the AMux. Code that depends on it may be
 377:Generated_Source\PSoC5/cyfitter_cfg.c ****    incompatible with other versions of PSoC Creator. */
 378:Generated_Source\PSoC5/cyfitter_cfg.c **** uint8 CYXDATA * const CYCODE ADC_AMux__addrTable[2] = {
 379:Generated_Source\PSoC5/cyfitter_cfg.c **** 	(uint8 CYXDATA *)CYREG_DSM0_SW3, 
 380:Generated_Source\PSoC5/cyfitter_cfg.c **** 	(uint8 CYXDATA *)CY_AMUX_UNUSED, 
 381:Generated_Source\PSoC5/cyfitter_cfg.c **** };
 382:Generated_Source\PSoC5/cyfitter_cfg.c **** 
 383:Generated_Source\PSoC5/cyfitter_cfg.c **** /* This is an implementation detail of the AMux. Code that depends on it may be
 384:Generated_Source\PSoC5/cyfitter_cfg.c ****    incompatible with other versions of PSoC Creator. */
 385:Generated_Source\PSoC5/cyfitter_cfg.c **** const uint8 CYCODE ADC_AMux__maskTable[2] = {
 386:Generated_Source\PSoC5/cyfitter_cfg.c **** 	0x40u, 
 387:Generated_Source\PSoC5/cyfitter_cfg.c **** 	0x00u, 
 388:Generated_Source\PSoC5/cyfitter_cfg.c **** };
 389:Generated_Source\PSoC5/cyfitter_cfg.c **** 
 390:Generated_Source\PSoC5/cyfitter_cfg.c **** /*******************************************************************************
 391:Generated_Source\PSoC5/cyfitter_cfg.c **** * Function Name: ADC_AMux_Set
 392:Generated_Source\PSoC5/cyfitter_cfg.c **** ********************************************************************************
 393:Generated_Source\PSoC5/cyfitter_cfg.c **** * Summary:
 394:Generated_Source\PSoC5/cyfitter_cfg.c **** *  This function is used to set a particular channel as active on the AMux.
 395:Generated_Source\PSoC5/cyfitter_cfg.c **** *
 396:Generated_Source\PSoC5/cyfitter_cfg.c **** * Parameters:  
 397:Generated_Source\PSoC5/cyfitter_cfg.c **** *   channel - The mux channel input to set as active
 398:Generated_Source\PSoC5/cyfitter_cfg.c **** *
 399:Generated_Source\PSoC5/cyfitter_cfg.c **** * Return:
 400:Generated_Source\PSoC5/cyfitter_cfg.c **** *   void
 401:Generated_Source\PSoC5/cyfitter_cfg.c **** *
 402:Generated_Source\PSoC5/cyfitter_cfg.c **** *******************************************************************************/
 403:Generated_Source\PSoC5/cyfitter_cfg.c **** void ADC_AMux_Set(uint8 channel)
 404:Generated_Source\PSoC5/cyfitter_cfg.c **** {
 663              		.loc 1 404 0
 664              		.cfi_startproc
 665              		@ args = 0, pretend = 0, frame = 8
 666              		@ frame_needed = 1, uses_anonymous_args = 0
 667              		@ link register save eliminated.
 668 0000 80B4     		push	{r7}
 669              		.cfi_def_cfa_offset 4
 670              		.cfi_offset 7, -4
 671 0002 83B0     		sub	sp, sp, #12
 672              		.cfi_def_cfa_offset 16
 673 0004 00AF     		add	r7, sp, #0
ARM GAS  C:\Users\mgnocco\AppData\Local\Temp\ccu9MjHv.s 			page 20


 674              		.cfi_def_cfa_register 7
 675 0006 0346     		mov	r3, r0
 676 0008 FB71     		strb	r3, [r7, #7]
 405:Generated_Source\PSoC5/cyfitter_cfg.c **** 	if (channel < 2)
 677              		.loc 1 405 0
 678 000a FB79     		ldrb	r3, [r7, #7]	@ zero_extendqisi2
 679 000c 012B     		cmp	r3, #1
 680 000e 0ED8     		bhi	.L28
 406:Generated_Source\PSoC5/cyfitter_cfg.c **** 	{
 407:Generated_Source\PSoC5/cyfitter_cfg.c **** 		*ADC_AMux__addrTable[channel] |= ADC_AMux__maskTable[channel];
 681              		.loc 1 407 0
 682 0010 FB79     		ldrb	r3, [r7, #7]	@ zero_extendqisi2
 683 0012 094A     		ldr	r2, .L29
 684 0014 52F82330 		ldr	r3, [r2, r3, lsl #2]
 685 0018 FA79     		ldrb	r2, [r7, #7]	@ zero_extendqisi2
 686 001a 0749     		ldr	r1, .L29
 687 001c 51F82220 		ldr	r2, [r1, r2, lsl #2]
 688 0020 1178     		ldrb	r1, [r2]	@ zero_extendqisi2
 689 0022 FA79     		ldrb	r2, [r7, #7]	@ zero_extendqisi2
 690 0024 0548     		ldr	r0, .L29+4
 691 0026 825C     		ldrb	r2, [r0, r2]	@ zero_extendqisi2
 692 0028 0A43     		orrs	r2, r2, r1
 693 002a D2B2     		uxtb	r2, r2
 694 002c 1A70     		strb	r2, [r3]
 695              	.L28:
 408:Generated_Source\PSoC5/cyfitter_cfg.c **** 	}
 409:Generated_Source\PSoC5/cyfitter_cfg.c **** }
 696              		.loc 1 409 0
 697 002e 00BF     		nop
 698 0030 0C37     		adds	r7, r7, #12
 699              		.cfi_def_cfa_offset 4
 700 0032 BD46     		mov	sp, r7
 701              		.cfi_def_cfa_register 13
 702              		@ sp needed
 703 0034 80BC     		pop	{r7}
 704              		.cfi_restore 7
 705              		.cfi_def_cfa_offset 0
 706 0036 7047     		bx	lr
 707              	.L30:
 708              		.align	2
 709              	.L29:
 710 0038 00000000 		.word	ADC_AMux__addrTable
 711 003c 00000000 		.word	ADC_AMux__maskTable
 712              		.cfi_endproc
 713              	.LFE8:
 714              		.size	ADC_AMux_Set, .-ADC_AMux_Set
 715              		.section	.text.ADC_AMux_Unset,"ax",%progbits
 716              		.align	2
 717              		.global	ADC_AMux_Unset
 718              		.thumb
 719              		.thumb_func
 720              		.type	ADC_AMux_Unset, %function
 721              	ADC_AMux_Unset:
 722              	.LFB9:
 410:Generated_Source\PSoC5/cyfitter_cfg.c **** 
 411:Generated_Source\PSoC5/cyfitter_cfg.c **** /*******************************************************************************
 412:Generated_Source\PSoC5/cyfitter_cfg.c **** * Function Name: ADC_AMux_Unset
ARM GAS  C:\Users\mgnocco\AppData\Local\Temp\ccu9MjHv.s 			page 21


 413:Generated_Source\PSoC5/cyfitter_cfg.c **** ********************************************************************************
 414:Generated_Source\PSoC5/cyfitter_cfg.c **** * Summary:
 415:Generated_Source\PSoC5/cyfitter_cfg.c **** *  This function is used to clear a particular channel from being active on the
 416:Generated_Source\PSoC5/cyfitter_cfg.c **** *  AMux.
 417:Generated_Source\PSoC5/cyfitter_cfg.c **** *
 418:Generated_Source\PSoC5/cyfitter_cfg.c **** * Parameters:  
 419:Generated_Source\PSoC5/cyfitter_cfg.c **** *   channel - The mux channel input to mark inactive
 420:Generated_Source\PSoC5/cyfitter_cfg.c **** *
 421:Generated_Source\PSoC5/cyfitter_cfg.c **** * Return:
 422:Generated_Source\PSoC5/cyfitter_cfg.c **** *   void
 423:Generated_Source\PSoC5/cyfitter_cfg.c **** *
 424:Generated_Source\PSoC5/cyfitter_cfg.c **** *******************************************************************************/
 425:Generated_Source\PSoC5/cyfitter_cfg.c **** void ADC_AMux_Unset(uint8 channel)
 426:Generated_Source\PSoC5/cyfitter_cfg.c **** {
 723              		.loc 1 426 0
 724              		.cfi_startproc
 725              		@ args = 0, pretend = 0, frame = 8
 726              		@ frame_needed = 1, uses_anonymous_args = 0
 727              		@ link register save eliminated.
 728 0000 80B4     		push	{r7}
 729              		.cfi_def_cfa_offset 4
 730              		.cfi_offset 7, -4
 731 0002 83B0     		sub	sp, sp, #12
 732              		.cfi_def_cfa_offset 16
 733 0004 00AF     		add	r7, sp, #0
 734              		.cfi_def_cfa_register 7
 735 0006 0346     		mov	r3, r0
 736 0008 FB71     		strb	r3, [r7, #7]
 427:Generated_Source\PSoC5/cyfitter_cfg.c **** 	if (channel < 2)
 737              		.loc 1 427 0
 738 000a FB79     		ldrb	r3, [r7, #7]	@ zero_extendqisi2
 739 000c 012B     		cmp	r3, #1
 740 000e 10D8     		bhi	.L33
 428:Generated_Source\PSoC5/cyfitter_cfg.c **** 	{
 429:Generated_Source\PSoC5/cyfitter_cfg.c **** 		*ADC_AMux__addrTable[channel] &= (uint8)~ADC_AMux__maskTable[channel];
 741              		.loc 1 429 0
 742 0010 FB79     		ldrb	r3, [r7, #7]	@ zero_extendqisi2
 743 0012 0A4A     		ldr	r2, .L34
 744 0014 52F82330 		ldr	r3, [r2, r3, lsl #2]
 745 0018 FA79     		ldrb	r2, [r7, #7]	@ zero_extendqisi2
 746 001a 0849     		ldr	r1, .L34
 747 001c 51F82220 		ldr	r2, [r1, r2, lsl #2]
 748 0020 1178     		ldrb	r1, [r2]	@ zero_extendqisi2
 749 0022 FA79     		ldrb	r2, [r7, #7]	@ zero_extendqisi2
 750 0024 0648     		ldr	r0, .L34+4
 751 0026 825C     		ldrb	r2, [r0, r2]	@ zero_extendqisi2
 752 0028 D243     		mvns	r2, r2
 753 002a D2B2     		uxtb	r2, r2
 754 002c 0A40     		ands	r2, r2, r1
 755 002e D2B2     		uxtb	r2, r2
 756 0030 1A70     		strb	r2, [r3]
 757              	.L33:
 430:Generated_Source\PSoC5/cyfitter_cfg.c **** 	}
 431:Generated_Source\PSoC5/cyfitter_cfg.c **** }
 758              		.loc 1 431 0
 759 0032 00BF     		nop
 760 0034 0C37     		adds	r7, r7, #12
ARM GAS  C:\Users\mgnocco\AppData\Local\Temp\ccu9MjHv.s 			page 22


 761              		.cfi_def_cfa_offset 4
 762 0036 BD46     		mov	sp, r7
 763              		.cfi_def_cfa_register 13
 764              		@ sp needed
 765 0038 80BC     		pop	{r7}
 766              		.cfi_restore 7
 767              		.cfi_def_cfa_offset 0
 768 003a 7047     		bx	lr
 769              	.L35:
 770              		.align	2
 771              	.L34:
 772 003c 00000000 		.word	ADC_AMux__addrTable
 773 0040 00000000 		.word	ADC_AMux__maskTable
 774              		.cfi_endproc
 775              	.LFE9:
 776              		.size	ADC_AMux_Unset, .-ADC_AMux_Unset
 777              		.section	.text.cyfitter_cfg,"ax",%progbits
 778              		.align	2
 779              		.global	cyfitter_cfg
 780              		.thumb
 781              		.thumb_func
 782              		.type	cyfitter_cfg, %function
 783              	cyfitter_cfg:
 784              	.LFB10:
 432:Generated_Source\PSoC5/cyfitter_cfg.c **** 
 433:Generated_Source\PSoC5/cyfitter_cfg.c **** 
 434:Generated_Source\PSoC5/cyfitter_cfg.c **** 
 435:Generated_Source\PSoC5/cyfitter_cfg.c **** /*******************************************************************************
 436:Generated_Source\PSoC5/cyfitter_cfg.c **** * Function Name: cyfitter_cfg
 437:Generated_Source\PSoC5/cyfitter_cfg.c **** ********************************************************************************
 438:Generated_Source\PSoC5/cyfitter_cfg.c **** * Summary:
 439:Generated_Source\PSoC5/cyfitter_cfg.c **** *  This function is called by the start-up code for the selected device. It
 440:Generated_Source\PSoC5/cyfitter_cfg.c **** *  performs all of the necessary device configuration based on the design
 441:Generated_Source\PSoC5/cyfitter_cfg.c **** *  settings.  This includes settings from the Design Wide Resources (DWR) such
 442:Generated_Source\PSoC5/cyfitter_cfg.c **** *  as Clocks and Pins as well as any component configuration that is necessary.
 443:Generated_Source\PSoC5/cyfitter_cfg.c **** *
 444:Generated_Source\PSoC5/cyfitter_cfg.c **** * Parameters:
 445:Generated_Source\PSoC5/cyfitter_cfg.c **** *   void
 446:Generated_Source\PSoC5/cyfitter_cfg.c **** *
 447:Generated_Source\PSoC5/cyfitter_cfg.c **** * Return:
 448:Generated_Source\PSoC5/cyfitter_cfg.c **** *   void
 449:Generated_Source\PSoC5/cyfitter_cfg.c **** *
 450:Generated_Source\PSoC5/cyfitter_cfg.c **** *******************************************************************************/
 451:Generated_Source\PSoC5/cyfitter_cfg.c **** 
 452:Generated_Source\PSoC5/cyfitter_cfg.c **** void cyfitter_cfg(void)
 453:Generated_Source\PSoC5/cyfitter_cfg.c **** {
 785              		.loc 1 453 0
 786              		.cfi_startproc
 787              		@ args = 0, pretend = 0, frame = 24
 788              		@ frame_needed = 1, uses_anonymous_args = 0
 789 0000 80B5     		push	{r7, lr}
 790              		.cfi_def_cfa_offset 8
 791              		.cfi_offset 7, -8
 792              		.cfi_offset 14, -4
 793 0002 86B0     		sub	sp, sp, #24
 794              		.cfi_def_cfa_offset 32
 795 0004 00AF     		add	r7, sp, #0
ARM GAS  C:\Users\mgnocco\AppData\Local\Temp\ccu9MjHv.s 			page 23


 796              		.cfi_def_cfa_register 7
 454:Generated_Source\PSoC5/cyfitter_cfg.c **** #ifdef CYGlobalIntDisable
 455:Generated_Source\PSoC5/cyfitter_cfg.c **** 	/* Disable interrupts by default. Let user enable if/when they want. */
 456:Generated_Source\PSoC5/cyfitter_cfg.c **** 	CYGlobalIntDisable
 797              		.loc 1 456 0
 798              		.syntax unified
 799              	@ 456 "Generated_Source\PSoC5\cyfitter_cfg.c" 1
 800 0006 72B6     		CPSID   i
 801              	@ 0 "" 2
 802              		.thumb
 803              		.syntax unified
 804              	.LBB3:
 457:Generated_Source\PSoC5/cyfitter_cfg.c **** #endif
 458:Generated_Source\PSoC5/cyfitter_cfg.c **** 
 459:Generated_Source\PSoC5/cyfitter_cfg.c **** 	{
 460:Generated_Source\PSoC5/cyfitter_cfg.c **** 
 461:Generated_Source\PSoC5/cyfitter_cfg.c **** 		CYPACKED typedef struct {
 462:Generated_Source\PSoC5/cyfitter_cfg.c **** 			void CYFAR *address;
 463:Generated_Source\PSoC5/cyfitter_cfg.c **** 			uint16 size;
 464:Generated_Source\PSoC5/cyfitter_cfg.c **** 		} CYPACKED_ATTR cfg_memset_t;
 465:Generated_Source\PSoC5/cyfitter_cfg.c **** 
 466:Generated_Source\PSoC5/cyfitter_cfg.c **** 
 467:Generated_Source\PSoC5/cyfitter_cfg.c **** 		CYPACKED typedef struct {
 468:Generated_Source\PSoC5/cyfitter_cfg.c **** 			void CYFAR *dest;
 469:Generated_Source\PSoC5/cyfitter_cfg.c **** 			const void CYFAR *src;
 470:Generated_Source\PSoC5/cyfitter_cfg.c **** 			uint16 size;
 471:Generated_Source\PSoC5/cyfitter_cfg.c **** 		} CYPACKED_ATTR cfg_memcpy_t;
 472:Generated_Source\PSoC5/cyfitter_cfg.c **** 
 473:Generated_Source\PSoC5/cyfitter_cfg.c **** 		static const cfg_memset_t CYCODE cfg_memset_list[] = {
 474:Generated_Source\PSoC5/cyfitter_cfg.c **** 			/* address, size */
 475:Generated_Source\PSoC5/cyfitter_cfg.c **** 			{(void CYFAR *)(CYREG_TMR0_CFG0), 24u},
 476:Generated_Source\PSoC5/cyfitter_cfg.c **** 			{(void CYFAR *)(CYREG_PRT4_DR), 48u},
 477:Generated_Source\PSoC5/cyfitter_cfg.c **** 			{(void CYFAR *)(CYDEV_UCFG_B0_P0_U0_BASE), 640u},
 478:Generated_Source\PSoC5/cyfitter_cfg.c **** 			{(void CYFAR *)(CYDEV_UCFG_B0_P1_ROUTE_BASE), 3328u},
 479:Generated_Source\PSoC5/cyfitter_cfg.c **** 			{(void CYFAR *)(CYDEV_UCFG_B1_P2_U0_BASE), 2048u},
 480:Generated_Source\PSoC5/cyfitter_cfg.c **** 			{(void CYFAR *)(CYDEV_UCFG_DSI0_BASE), 2560u},
 481:Generated_Source\PSoC5/cyfitter_cfg.c **** 			{(void CYFAR *)(CYDEV_UCFG_DSI12_BASE), 512u},
 482:Generated_Source\PSoC5/cyfitter_cfg.c **** 			{(void CYFAR *)(CYREG_BCTL1_MDCLK_EN), 16u},
 483:Generated_Source\PSoC5/cyfitter_cfg.c **** 		};
 484:Generated_Source\PSoC5/cyfitter_cfg.c **** 
 485:Generated_Source\PSoC5/cyfitter_cfg.c **** 		static const cfg_memcpy_t CYCODE cfg_memcpy_list [] = {
 486:Generated_Source\PSoC5/cyfitter_cfg.c **** 			/* dest, src, size */
 487:Generated_Source\PSoC5/cyfitter_cfg.c **** 			{(void CYFAR *)(CYDEV_UCFG_B0_P1_U1_BASE), BS_UDB_1_4_0_CONFIG_VAL, 128u},
 488:Generated_Source\PSoC5/cyfitter_cfg.c **** 			{(void CYFAR *)(CYREG_BCTL0_MDCLK_EN), BS_UCFG_BCTL0_VAL, 16u},
 489:Generated_Source\PSoC5/cyfitter_cfg.c **** 		};
 490:Generated_Source\PSoC5/cyfitter_cfg.c **** 
 491:Generated_Source\PSoC5/cyfitter_cfg.c **** 		uint8 CYDATA i;
 492:Generated_Source\PSoC5/cyfitter_cfg.c **** 
 493:Generated_Source\PSoC5/cyfitter_cfg.c **** 		/* Zero out critical memory blocks before beginning configuration */
 494:Generated_Source\PSoC5/cyfitter_cfg.c **** 		for (i = 0u; i < (sizeof(cfg_memset_list)/sizeof(cfg_memset_list[0])); i++)
 805              		.loc 1 494 0
 806 0008 0023     		movs	r3, #0
 807 000a FB75     		strb	r3, [r7, #23]
 808 000c 13E0     		b	.L37
 809              	.L38:
 810              	.LBB4:
 495:Generated_Source\PSoC5/cyfitter_cfg.c **** 		{
ARM GAS  C:\Users\mgnocco\AppData\Local\Temp\ccu9MjHv.s 			page 24


 496:Generated_Source\PSoC5/cyfitter_cfg.c **** 			const cfg_memset_t CYCODE * CYDATA ms = &cfg_memset_list[i];
 811              		.loc 1 496 0 discriminator 3
 812 000e FA7D     		ldrb	r2, [r7, #23]	@ zero_extendqisi2
 813 0010 1346     		mov	r3, r2
 814 0012 5B00     		lsls	r3, r3, #1
 815 0014 1344     		add	r3, r3, r2
 816 0016 5B00     		lsls	r3, r3, #1
 817 0018 634A     		ldr	r2, .L41
 818 001a 1344     		add	r3, r3, r2
 819 001c 3B61     		str	r3, [r7, #16]
 497:Generated_Source\PSoC5/cyfitter_cfg.c **** 			CYMEMZERO(ms->address, (size_t)(uint32)(ms->size));
 820              		.loc 1 497 0 discriminator 3
 821 001e 3B69     		ldr	r3, [r7, #16]
 822 0020 1A68     		ldr	r2, [r3]	@ unaligned
 823 0022 3B69     		ldr	r3, [r7, #16]
 824 0024 9B88     		ldrh	r3, [r3, #4]	@ unaligned
 825 0026 9BB2     		uxth	r3, r3
 826 0028 1946     		mov	r1, r3
 827 002a 1046     		mov	r0, r2
 828 002c FFF7FEFF 		bl	CYMEMZERO
 829              	.LBE4:
 494:Generated_Source\PSoC5/cyfitter_cfg.c **** 		{
 830              		.loc 1 494 0 discriminator 3
 831 0030 FB7D     		ldrb	r3, [r7, #23]	@ zero_extendqisi2
 832 0032 0133     		adds	r3, r3, #1
 833 0034 FB75     		strb	r3, [r7, #23]
 834              	.L37:
 494:Generated_Source\PSoC5/cyfitter_cfg.c **** 		{
 835              		.loc 1 494 0 is_stmt 0 discriminator 1
 836 0036 FB7D     		ldrb	r3, [r7, #23]	@ zero_extendqisi2
 837 0038 072B     		cmp	r3, #7
 838 003a E8D9     		bls	.L38
 498:Generated_Source\PSoC5/cyfitter_cfg.c **** 		}
 499:Generated_Source\PSoC5/cyfitter_cfg.c **** 
 500:Generated_Source\PSoC5/cyfitter_cfg.c **** 		/* Copy device configuration data into registers */
 501:Generated_Source\PSoC5/cyfitter_cfg.c **** 		for (i = 0u; i < (sizeof(cfg_memcpy_list)/sizeof(cfg_memcpy_list[0])); i++)
 839              		.loc 1 501 0 is_stmt 1
 840 003c 0023     		movs	r3, #0
 841 003e FB75     		strb	r3, [r7, #23]
 842 0040 1CE0     		b	.L39
 843              	.L40:
 844              	.LBB5:
 502:Generated_Source\PSoC5/cyfitter_cfg.c **** 		{
 503:Generated_Source\PSoC5/cyfitter_cfg.c **** 			const cfg_memcpy_t CYCODE * CYDATA mc = &cfg_memcpy_list[i];
 845              		.loc 1 503 0 discriminator 3
 846 0042 FA7D     		ldrb	r2, [r7, #23]	@ zero_extendqisi2
 847 0044 1346     		mov	r3, r2
 848 0046 9B00     		lsls	r3, r3, #2
 849 0048 1344     		add	r3, r3, r2
 850 004a 5B00     		lsls	r3, r3, #1
 851 004c 574A     		ldr	r2, .L41+4
 852 004e 1344     		add	r3, r3, r2
 853 0050 FB60     		str	r3, [r7, #12]
 504:Generated_Source\PSoC5/cyfitter_cfg.c **** 			void * CYDATA destPtr = mc->dest;
 854              		.loc 1 504 0 discriminator 3
 855 0052 FB68     		ldr	r3, [r7, #12]
 856 0054 1B68     		ldr	r3, [r3]	@ unaligned
ARM GAS  C:\Users\mgnocco\AppData\Local\Temp\ccu9MjHv.s 			page 25


 857 0056 BB60     		str	r3, [r7, #8]
 505:Generated_Source\PSoC5/cyfitter_cfg.c **** 			const void * CYDATA srcPtr = mc->src;
 858              		.loc 1 505 0 discriminator 3
 859 0058 FB68     		ldr	r3, [r7, #12]
 860 005a 5B68     		ldr	r3, [r3, #4]	@ unaligned
 861 005c 7B60     		str	r3, [r7, #4]
 506:Generated_Source\PSoC5/cyfitter_cfg.c **** 			uint16 CYDATA numBytes = mc->size;
 862              		.loc 1 506 0 discriminator 3
 863 005e FB68     		ldr	r3, [r7, #12]
 864 0060 1A7A     		ldrb	r2, [r3, #8]	@ zero_extendqisi2
 865 0062 5B7A     		ldrb	r3, [r3, #9]	@ zero_extendqisi2
 866 0064 1B02     		lsls	r3, r3, #8
 867 0066 1343     		orrs	r3, r3, r2
 868 0068 7B80     		strh	r3, [r7, #2]	@ movhi
 507:Generated_Source\PSoC5/cyfitter_cfg.c **** 			CYCONFIGCPY(destPtr, srcPtr, numBytes);
 869              		.loc 1 507 0 discriminator 3
 870 006a 7B88     		ldrh	r3, [r7, #2]
 871 006c 1A46     		mov	r2, r3
 872 006e 7968     		ldr	r1, [r7, #4]
 873 0070 B868     		ldr	r0, [r7, #8]
 874 0072 FFF7FEFF 		bl	CYCONFIGCPY
 875              	.LBE5:
 501:Generated_Source\PSoC5/cyfitter_cfg.c **** 		{
 876              		.loc 1 501 0 discriminator 3
 877 0076 FB7D     		ldrb	r3, [r7, #23]	@ zero_extendqisi2
 878 0078 0133     		adds	r3, r3, #1
 879 007a FB75     		strb	r3, [r7, #23]
 880              	.L39:
 501:Generated_Source\PSoC5/cyfitter_cfg.c **** 		{
 881              		.loc 1 501 0 is_stmt 0 discriminator 1
 882 007c FB7D     		ldrb	r3, [r7, #23]	@ zero_extendqisi2
 883 007e 012B     		cmp	r3, #1
 884 0080 DFD9     		bls	.L40
 508:Generated_Source\PSoC5/cyfitter_cfg.c **** 		}
 509:Generated_Source\PSoC5/cyfitter_cfg.c **** 
 510:Generated_Source\PSoC5/cyfitter_cfg.c **** 		cfg_write_bytes32(cy_cfg_addr_table, cy_cfg_data_table);
 885              		.loc 1 510 0 is_stmt 1
 886 0082 4B4B     		ldr	r3, .L41+8
 887 0084 03F19043 		add	r3, r3, #1207959552
 888 0088 1A46     		mov	r2, r3
 889 008a 494B     		ldr	r3, .L41+8
 890 008c 03F19043 		add	r3, r3, #1207959552
 891 0090 9433     		adds	r3, r3, #148
 892 0092 1946     		mov	r1, r3
 893 0094 1046     		mov	r0, r2
 894 0096 FFF7FEFF 		bl	cfg_write_bytes32
 511:Generated_Source\PSoC5/cyfitter_cfg.c **** 
 512:Generated_Source\PSoC5/cyfitter_cfg.c **** 		/* Perform normal device configuration. Order is not critical for these items. */
 513:Generated_Source\PSoC5/cyfitter_cfg.c **** 		CY_SET_XTND_REG8((void CYFAR *)(CYREG_DSM0_CR3), 0x0Au);
 895              		.loc 1 513 0
 896 009a 464B     		ldr	r3, .L41+12
 897 009c 0A22     		movs	r2, #10
 898 009e 1A70     		strb	r2, [r3]
 514:Generated_Source\PSoC5/cyfitter_cfg.c **** 		CYCONFIGCPY((void CYFAR *)(CYREG_PHUB_CFGMEM10_CFG0), (const void CYFAR *)(BS_PHUB_CFGMEM10_VAL),
 899              		.loc 1 514 0
 900 00a0 434B     		ldr	r3, .L41+8
 901 00a2 03F19043 		add	r3, r3, #1207959552
ARM GAS  C:\Users\mgnocco\AppData\Local\Temp\ccu9MjHv.s 			page 26


 902 00a6 03F6EC33 		addw	r3, r3, #3052
 903 00aa 0422     		movs	r2, #4
 904 00ac 1946     		mov	r1, r3
 905 00ae 4248     		ldr	r0, .L41+16
 906 00b0 FFF7FEFF 		bl	CYCONFIGCPY
 515:Generated_Source\PSoC5/cyfitter_cfg.c **** 
 516:Generated_Source\PSoC5/cyfitter_cfg.c **** 		/* Enable digital routing */
 517:Generated_Source\PSoC5/cyfitter_cfg.c **** 		CY_SET_XTND_REG8((void CYFAR *)CYREG_BCTL0_BANK_CTL, CY_GET_XTND_REG8((void CYFAR *)CYREG_BCTL0_B
 907              		.loc 1 517 0
 908 00b4 414A     		ldr	r2, .L41+20
 909 00b6 414B     		ldr	r3, .L41+20
 910 00b8 1B78     		ldrb	r3, [r3]
 911 00ba DBB2     		uxtb	r3, r3
 912 00bc 43F00203 		orr	r3, r3, #2
 913 00c0 DBB2     		uxtb	r3, r3
 914 00c2 1370     		strb	r3, [r2]
 518:Generated_Source\PSoC5/cyfitter_cfg.c **** 		CY_SET_XTND_REG8((void CYFAR *)CYREG_BCTL1_BANK_CTL, CY_GET_XTND_REG8((void CYFAR *)CYREG_BCTL1_B
 915              		.loc 1 518 0
 916 00c4 3E4A     		ldr	r2, .L41+24
 917 00c6 3E4B     		ldr	r3, .L41+24
 918 00c8 1B78     		ldrb	r3, [r3]
 919 00ca DBB2     		uxtb	r3, r3
 920 00cc 43F00203 		orr	r3, r3, #2
 921 00d0 DBB2     		uxtb	r3, r3
 922 00d2 1370     		strb	r3, [r2]
 519:Generated_Source\PSoC5/cyfitter_cfg.c **** 
 520:Generated_Source\PSoC5/cyfitter_cfg.c **** 		/* Enable UDB array */
 521:Generated_Source\PSoC5/cyfitter_cfg.c **** 		CY_SET_XTND_REG8((void CYFAR *)CYREG_PM_ACT_CFG0, CY_GET_XTND_REG8((void CYFAR *)CYREG_PM_ACT_CFG
 923              		.loc 1 521 0
 924 00d4 3B4A     		ldr	r2, .L41+28
 925 00d6 3B4B     		ldr	r3, .L41+28
 926 00d8 1B78     		ldrb	r3, [r3]
 927 00da DBB2     		uxtb	r3, r3
 928 00dc 43F04003 		orr	r3, r3, #64
 929 00e0 DBB2     		uxtb	r3, r3
 930 00e2 1370     		strb	r3, [r2]
 522:Generated_Source\PSoC5/cyfitter_cfg.c **** 		CY_SET_XTND_REG8((void CYFAR *)CYREG_PM_AVAIL_CR2, CY_GET_XTND_REG8((void CYFAR *)CYREG_PM_AVAIL_
 931              		.loc 1 522 0
 932 00e4 384A     		ldr	r2, .L41+32
 933 00e6 384B     		ldr	r3, .L41+32
 934 00e8 1B78     		ldrb	r3, [r3]
 935 00ea DBB2     		uxtb	r3, r3
 936 00ec 43F01003 		orr	r3, r3, #16
 937 00f0 DBB2     		uxtb	r3, r3
 938 00f2 1370     		strb	r3, [r2]
 939              	.LBE3:
 523:Generated_Source\PSoC5/cyfitter_cfg.c **** 	}
 524:Generated_Source\PSoC5/cyfitter_cfg.c **** 
 525:Generated_Source\PSoC5/cyfitter_cfg.c **** 
 526:Generated_Source\PSoC5/cyfitter_cfg.c **** 	/* Perform second pass device configuration. These items must be configured in specific order afte
 527:Generated_Source\PSoC5/cyfitter_cfg.c **** 	CYCONFIGCPY((void CYFAR *)(CYREG_PRT0_DM0), (const void CYFAR *)(BS_IOPINS0_0_VAL), 8u);
 940              		.loc 1 527 0
 941 00f4 2E4B     		ldr	r3, .L41+8
 942 00f6 03F19043 		add	r3, r3, #1207959552
 943 00fa 03F6B433 		addw	r3, r3, #2996
 944 00fe 0822     		movs	r2, #8
 945 0100 1946     		mov	r1, r3
ARM GAS  C:\Users\mgnocco\AppData\Local\Temp\ccu9MjHv.s 			page 27


 946 0102 3248     		ldr	r0, .L41+36
 947 0104 FFF7FEFF 		bl	CYCONFIGCPY
 528:Generated_Source\PSoC5/cyfitter_cfg.c **** 	CYCONFIGCPY((void CYFAR *)(CYREG_PRT12_DM0), (const void CYFAR *)(BS_IOPINS0_7_VAL), 8u);
 948              		.loc 1 528 0
 949 0108 294B     		ldr	r3, .L41+8
 950 010a 03F19043 		add	r3, r3, #1207959552
 951 010e 03F6BC33 		addw	r3, r3, #3004
 952 0112 0822     		movs	r2, #8
 953 0114 1946     		mov	r1, r3
 954 0116 2E48     		ldr	r0, .L41+40
 955 0118 FFF7FEFF 		bl	CYCONFIGCPY
 529:Generated_Source\PSoC5/cyfitter_cfg.c **** 	CYCONFIGCPY((void CYFAR *)(CYREG_PRT15_DM0), (const void CYFAR *)(BS_IOPINS0_8_VAL), 8u);
 956              		.loc 1 529 0
 957 011c 244B     		ldr	r3, .L41+8
 958 011e 03F19043 		add	r3, r3, #1207959552
 959 0122 03F6C433 		addw	r3, r3, #3012
 960 0126 0822     		movs	r2, #8
 961 0128 1946     		mov	r1, r3
 962 012a 2A48     		ldr	r0, .L41+44
 963 012c FFF7FEFF 		bl	CYCONFIGCPY
 530:Generated_Source\PSoC5/cyfitter_cfg.c **** 	CYCONFIGCPY((void CYFAR *)(CYREG_PRT1_DM0), (const void CYFAR *)(BS_IOPINS0_1_VAL), 8u);
 964              		.loc 1 530 0
 965 0130 1F4B     		ldr	r3, .L41+8
 966 0132 03F19043 		add	r3, r3, #1207959552
 967 0136 03F6CC33 		addw	r3, r3, #3020
 968 013a 0822     		movs	r2, #8
 969 013c 1946     		mov	r1, r3
 970 013e 2648     		ldr	r0, .L41+48
 971 0140 FFF7FEFF 		bl	CYCONFIGCPY
 531:Generated_Source\PSoC5/cyfitter_cfg.c **** 	CYCONFIGCPY((void CYFAR *)(CYREG_PRT2_DM0), (const void CYFAR *)(BS_IOPINS0_2_VAL), 8u);
 972              		.loc 1 531 0
 973 0144 1A4B     		ldr	r3, .L41+8
 974 0146 03F19043 		add	r3, r3, #1207959552
 975 014a 03F6D433 		addw	r3, r3, #3028
 976 014e 0822     		movs	r2, #8
 977 0150 1946     		mov	r1, r3
 978 0152 2248     		ldr	r0, .L41+52
 979 0154 FFF7FEFF 		bl	CYCONFIGCPY
 532:Generated_Source\PSoC5/cyfitter_cfg.c **** 	CYCONFIGCPY((void CYFAR *)(CYREG_PRT3_DR), (const void CYFAR *)(BS_IOPINS0_3_VAL), 10u);
 980              		.loc 1 532 0
 981 0158 154B     		ldr	r3, .L41+8
 982 015a 03F19043 		add	r3, r3, #1207959552
 983 015e 03F6DC33 		addw	r3, r3, #3036
 984 0162 0A22     		movs	r2, #10
 985 0164 1946     		mov	r1, r3
 986 0166 1E48     		ldr	r0, .L41+56
 987 0168 FFF7FEFF 		bl	CYCONFIGCPY
 533:Generated_Source\PSoC5/cyfitter_cfg.c **** 	/* Switch Boost to the precision bandgap reference from its internal reference */
 534:Generated_Source\PSoC5/cyfitter_cfg.c **** 	CY_SET_REG8((void CYXDATA *)CYREG_BOOST_CR2, (CY_GET_REG8((void CYXDATA *)CYREG_BOOST_CR2) | 0x08u
 988              		.loc 1 534 0
 989 016c 1D4A     		ldr	r2, .L41+60
 990 016e 1D4B     		ldr	r3, .L41+60
 991 0170 1B78     		ldrb	r3, [r3]
 992 0172 DBB2     		uxtb	r3, r3
 993 0174 43F00803 		orr	r3, r3, #8
 994 0178 DBB2     		uxtb	r3, r3
 995 017a 1370     		strb	r3, [r2]
ARM GAS  C:\Users\mgnocco\AppData\Local\Temp\ccu9MjHv.s 			page 28


 535:Generated_Source\PSoC5/cyfitter_cfg.c **** 
 536:Generated_Source\PSoC5/cyfitter_cfg.c **** 	/* Set Flash Cycles based on max possible frequency in case a glitch occurs during ClockSetup(). *
 537:Generated_Source\PSoC5/cyfitter_cfg.c **** 	CY_SET_XTND_REG8((void CYFAR *)(CYREG_CACHE_CC_CTL), (((CYDEV_INSTRUCT_CACHE_ENABLED) != 0) ? 0x61
 996              		.loc 1 537 0
 997 017c 1A4B     		ldr	r3, .L41+64
 998 017e 6122     		movs	r2, #97
 999 0180 1A70     		strb	r2, [r3]
 538:Generated_Source\PSoC5/cyfitter_cfg.c **** 	/* Setup clocks based on selections from Clock DWR */
 539:Generated_Source\PSoC5/cyfitter_cfg.c **** 	ClockSetup();
 1000              		.loc 1 539 0
 1001 0182 FFF7FEFF 		bl	ClockSetup
 540:Generated_Source\PSoC5/cyfitter_cfg.c **** 	/* Set Flash Cycles based on newly configured 48.00MHz Bus Clock. */
 541:Generated_Source\PSoC5/cyfitter_cfg.c **** 	CY_SET_XTND_REG8((void CYFAR *)(CYREG_CACHE_CC_CTL), (((CYDEV_INSTRUCT_CACHE_ENABLED) != 0) ? 0xC1
 1002              		.loc 1 541 0
 1003 0186 184B     		ldr	r3, .L41+64
 1004 0188 C122     		movs	r2, #193
 1005 018a 1A70     		strb	r2, [r3]
 542:Generated_Source\PSoC5/cyfitter_cfg.c **** 	CY_SET_XTND_REG8((void CYFAR *)(CYREG_PANTHER_WAITPIPE), 0x01u);
 1006              		.loc 1 542 0
 1007 018c 174B     		ldr	r3, .L41+68
 1008 018e 0122     		movs	r2, #1
 1009 0190 1A70     		strb	r2, [r3]
 543:Generated_Source\PSoC5/cyfitter_cfg.c **** 
 544:Generated_Source\PSoC5/cyfitter_cfg.c **** 	/* Perform basic analog initialization to defaults */
 545:Generated_Source\PSoC5/cyfitter_cfg.c **** 	AnalogSetDefault();
 1010              		.loc 1 545 0
 1011 0192 FFF7FEFF 		bl	AnalogSetDefault
 546:Generated_Source\PSoC5/cyfitter_cfg.c **** 
 547:Generated_Source\PSoC5/cyfitter_cfg.c **** 	/* Configure alternate active mode */
 548:Generated_Source\PSoC5/cyfitter_cfg.c **** 	CYCONFIGCPY((void CYFAR *)CYDEV_PM_STBY_BASE, (const void CYFAR *)CYDEV_PM_ACT_BASE, 14u);
 1012              		.loc 1 548 0
 1013 0196 0E22     		movs	r2, #14
 1014 0198 0A49     		ldr	r1, .L41+28
 1015 019a 1548     		ldr	r0, .L41+72
 1016 019c FFF7FEFF 		bl	CYCONFIGCPY
 549:Generated_Source\PSoC5/cyfitter_cfg.c **** }
 1017              		.loc 1 549 0
 1018 01a0 00BF     		nop
 1019 01a2 1837     		adds	r7, r7, #24
 1020              		.cfi_def_cfa_offset 8
 1021 01a4 BD46     		mov	sp, r7
 1022              		.cfi_def_cfa_register 13
 1023              		@ sp needed
 1024 01a6 80BD     		pop	{r7, pc}
 1025              	.L42:
 1026              		.align	2
 1027              	.L41:
 1028 01a8 0C000000 		.word	cfg_memset_list.5033
 1029 01ac 3C000000 		.word	cfg_memcpy_list.5034
 1030 01b0 00000000 		.word	CY_ECC_OFFSET
 1031 01b4 83580040 		.word	1073764483
 1032 01b8 50760040 		.word	1073772112
 1033 01bc 03500140 		.word	1073827843
 1034 01c0 13500140 		.word	1073827859
 1035 01c4 A0430040 		.word	1073759136
 1036 01c8 C2430040 		.word	1073759170
 1037 01cc 02510040 		.word	1073762562
ARM GAS  C:\Users\mgnocco\AppData\Local\Temp\ccu9MjHv.s 			page 29


 1038 01d0 C2510040 		.word	1073762754
 1039 01d4 F2510040 		.word	1073762802
 1040 01d8 12510040 		.word	1073762578
 1041 01dc 22510040 		.word	1073762594
 1042 01e0 30510040 		.word	1073762608
 1043 01e4 22430040 		.word	1073759010
 1044 01e8 00480040 		.word	1073760256
 1045 01ec 04000840 		.word	1074266116
 1046 01f0 B0430040 		.word	1073759152
 1047              		.cfi_endproc
 1048              	.LFE10:
 1049              		.size	cyfitter_cfg, .-cyfitter_cfg
 1050              		.section	.rodata
 1051 000a 0000     		.align	2
 1052              		.type	cfg_memset_list.5033, %object
 1053              		.size	cfg_memset_list.5033, 48
 1054              	cfg_memset_list.5033:
 1055 000c 004F0040 		.word	1073762048
 1056 0010 1800     		.short	24
 1057 0012 40510040 		.4byte	1073762624
 1058 0016 3000     		.short	48
 1059 0018 00000140 		.word	1073807360
 1060 001c 8002     		.short	640
 1061 001e 00030140 		.4byte	1073808128
 1062 0022 000D     		.short	3328
 1063 0024 00140140 		.word	1073812480
 1064 0028 0008     		.short	2048
 1065 002a 00400140 		.4byte	1073823744
 1066 002e 000A     		.short	2560
 1067 0030 004C0140 		.word	1073826816
 1068 0034 0002     		.short	512
 1069 0036 10500140 		.4byte	1073827856
 1070 003a 1000     		.short	16
 1071              		.align	2
 1072              		.type	cfg_memcpy_list.5034, %object
 1073              		.size	cfg_memcpy_list.5034, 20
 1074              	cfg_memcpy_list.5034:
 1075 003c 80020140 		.word	1073808000
 1076 0040 240B0048 		.word	CY_ECC_OFFSET+1207962404
 1077 0044 8000     		.short	128
 1078 0046 00500140 		.4byte	1073827840
 1079 004a A40B0048 		.4byte	CY_ECC_OFFSET+1207962532
 1080 004e 1000     		.short	16
 1081              		.text
 1082              	.Letext0:
 1083              		.file 2 "c:\\program files (x86)\\cypress\\psoc creator\\4.4\\psoc creator\\import\\gnu\\arm\\5.4.
 1084              		.file 3 "Generated_Source\\PSoC5\\cytypes.h"