ARM GAS  C:\Users\mgnocco\AppData\Local\Temp\ccpLUlHN.s 			page 1


   1              		.syntax unified
   2              		.cpu cortex-m3
   3              		.fpu softvfp
   4              		.eabi_attribute 20, 1
   5              		.eabi_attribute 21, 1
   6              		.eabi_attribute 23, 3
   7              		.eabi_attribute 24, 1
   8              		.eabi_attribute 25, 1
   9              		.eabi_attribute 26, 1
  10              		.eabi_attribute 30, 6
  11              		.eabi_attribute 34, 1
  12              		.eabi_attribute 18, 4
  13              		.thumb
  14              		.syntax unified
  15              		.file	"interruptions.c"
  16              		.text
  17              	.Ltext0:
  18              		.cfi_sections	.debug_frame
  19              		.section	.rodata
  20              		.align	2
  21              		.type	pwm_preload_values, %object
  22              		.size	pwm_preload_values, 29
  23              	pwm_preload_values:
  24 0000 64       		.byte	100
  25 0001 53       		.byte	83
  26 0002 4E       		.byte	78
  27 0003 4C       		.byte	76
  28 0004 4A       		.byte	74
  29 0005 48       		.byte	72
  30 0006 46       		.byte	70
  31 0007 44       		.byte	68
  32 0008 43       		.byte	67
  33 0009 41       		.byte	65
  34 000a 40       		.byte	64
  35 000b 3F       		.byte	63
  36 000c 3E       		.byte	62
  37 000d 3D       		.byte	61
  38 000e 3C       		.byte	60
  39 000f 3B       		.byte	59
  40 0010 3A       		.byte	58
  41 0011 39       		.byte	57
  42 0012 38       		.byte	56
  43 0013 38       		.byte	56
  44 0014 37       		.byte	55
  45 0015 36       		.byte	54
  46 0016 36       		.byte	54
  47 0017 35       		.byte	53
  48 0018 34       		.byte	52
  49 0019 34       		.byte	52
  50 001a 34       		.byte	52
  51 001b 33       		.byte	51
  52 001c 33       		.byte	51
  53              		.section	.text.ISR_RS485_RX_ExInterrupt,"ax",%progbits
  54              		.align	2
  55              		.global	ISR_RS485_RX_ExInterrupt
  56              		.thumb
  57              		.thumb_func
ARM GAS  C:\Users\mgnocco\AppData\Local\Temp\ccpLUlHN.s 			page 2


  58              		.type	ISR_RS485_RX_ExInterrupt, %function
  59              	ISR_RS485_RX_ExInterrupt:
  60              	.LFB64:
  61              		.file 1 "..\\src\\interruptions.c"
   1:..\src/interruptions.c **** // ----------------------------------------------------------------------------
   2:..\src/interruptions.c **** // BSD 3-Clause License
   3:..\src/interruptions.c **** 
   4:..\src/interruptions.c **** // Copyright (c) 2016, qbrobotics
   5:..\src/interruptions.c **** // Copyright (c) 2017-2020, Centro "E.Piaggio"
   6:..\src/interruptions.c **** // All rights reserved.
   7:..\src/interruptions.c **** 
   8:..\src/interruptions.c **** // Redistribution and use in source and binary forms, with or without
   9:..\src/interruptions.c **** // modification, are permitted provided that the following conditions are met:
  10:..\src/interruptions.c **** 
  11:..\src/interruptions.c **** // * Redistributions of source code must retain the above copyright notice, this
  12:..\src/interruptions.c **** //   list of conditions and the following disclaimer.
  13:..\src/interruptions.c **** 
  14:..\src/interruptions.c **** // * Redistributions in binary form must reproduce the above copyright notice,
  15:..\src/interruptions.c **** //   this list of conditions and the following disclaimer in the documentation
  16:..\src/interruptions.c **** //   and/or other materials provided with the distribution.
  17:..\src/interruptions.c **** 
  18:..\src/interruptions.c **** // * Neither the name of the copyright holder nor the names of its
  19:..\src/interruptions.c **** //   contributors may be used to endorse or promote products derived from
  20:..\src/interruptions.c **** //   this software without specific prior written permission.
  21:..\src/interruptions.c **** 
  22:..\src/interruptions.c **** // THIS SOFTWARE IS PROVIDED BY THE COPYRIGHT HOLDERS AND CONTRIBUTORS "AS IS"
  23:..\src/interruptions.c **** // AND ANY EXPRESS OR IMPLIED WARRANTIES, INCLUDING, BUT NOT LIMITED TO, THE
  24:..\src/interruptions.c **** // IMPLIED WARRANTIES OF MERCHANTABILITY AND FITNESS FOR A PARTICULAR PURPOSE ARE
  25:..\src/interruptions.c **** // DISCLAIMED. IN NO EVENT SHALL THE COPYRIGHT HOLDER OR CONTRIBUTORS BE LIABLE
  26:..\src/interruptions.c **** // FOR ANY DIRECT, INDIRECT, INCIDENTAL, SPECIAL, EXEMPLARY, OR CONSEQUENTIAL
  27:..\src/interruptions.c **** // DAMAGES (INCLUDING, BUT NOT LIMITED TO, PROCUREMENT OF SUBSTITUTE GOODS OR
  28:..\src/interruptions.c **** // SERVICES; LOSS OF USE, DATA, OR PROFITS; OR BUSINESS INTERRUPTION) HOWEVER
  29:..\src/interruptions.c **** // CAUSED AND ON ANY THEORY OF LIABILITY, WHETHER IN CONTRACT, STRICT LIABILITY,
  30:..\src/interruptions.c **** // OR TORT (INCLUDING NEGLIGENCE OR OTHERWISE) ARISING IN ANY WAY OUT OF THE USE
  31:..\src/interruptions.c **** // OF THIS SOFTWARE, EVEN IF ADVISED OF THE POSSIBILITY OF SUCH DAMAGE.
  32:..\src/interruptions.c **** // POSSIBILITY OF SUCH DAMAGE.
  33:..\src/interruptions.c **** // ----------------------------------------------------------------------------
  34:..\src/interruptions.c **** 
  35:..\src/interruptions.c **** /**
  36:..\src/interruptions.c **** * \file         interruptions.c
  37:..\src/interruptions.c **** *
  38:..\src/interruptions.c **** * \brief        Interruption handling and firmware core functions
  39:..\src/interruptions.c **** * \date         March 20th, 2020
  40:..\src/interruptions.c **** * \author       _Centro "E.Piaggio"_
  41:..\src/interruptions.c **** * \copyright    (C) 2012-2016 qbrobotics. All rights reserved.
  42:..\src/interruptions.c **** * \copyright    (C) 2017-2020 Centro "E.Piaggio". All rights reserved.
  43:..\src/interruptions.c **** */
  44:..\src/interruptions.c **** 
  45:..\src/interruptions.c **** 
  46:..\src/interruptions.c **** //=================================================================     includes
  47:..\src/interruptions.c **** #include "interruptions.h"
  48:..\src/interruptions.c **** 
  49:..\src/interruptions.c **** //==============================================================================
  50:..\src/interruptions.c **** //                                                            RS485 RX INTERRUPT
  51:..\src/interruptions.c **** //==============================================================================
  52:..\src/interruptions.c **** // Processing RS-485 data frame:
  53:..\src/interruptions.c **** //
ARM GAS  C:\Users\mgnocco\AppData\Local\Temp\ccpLUlHN.s 			page 3


  54:..\src/interruptions.c **** // - 0:     Waits for beginning characters
  55:..\src/interruptions.c **** // - 1:     Waits for ID;
  56:..\src/interruptions.c **** // - 2:     Data length;
  57:..\src/interruptions.c **** // - 3:     Receive all bytes;
  58:..\src/interruptions.c **** // - 4:     Wait for another device end of transmission;
  59:..\src/interruptions.c **** //
  60:..\src/interruptions.c **** //==============================================================================
  61:..\src/interruptions.c **** 
  62:..\src/interruptions.c **** // PWM values needed to obtain 11.5 V given a certain input tension
  63:..\src/interruptions.c **** // Numbers are sperimentally calculated //[index] (millivolts)
  64:..\src/interruptions.c **** static const uint8 pwm_preload_values[29] = {100,    //0 (11500)
  65:..\src/interruptions.c ****                                               83,
  66:..\src/interruptions.c ****                                               78,
  67:..\src/interruptions.c ****                                               76,
  68:..\src/interruptions.c ****                                               74,
  69:..\src/interruptions.c ****                                               72,    //5 (14000)
  70:..\src/interruptions.c ****                                               70,
  71:..\src/interruptions.c ****                                               68,
  72:..\src/interruptions.c ****                                               67,
  73:..\src/interruptions.c ****                                               65,
  74:..\src/interruptions.c ****                                               64,    //10 (16500)
  75:..\src/interruptions.c ****                                               63,
  76:..\src/interruptions.c ****                                               62,
  77:..\src/interruptions.c ****                                               61,
  78:..\src/interruptions.c ****                                               60,
  79:..\src/interruptions.c ****                                               59,    //15 (19000)
  80:..\src/interruptions.c ****                                               58,
  81:..\src/interruptions.c ****                                               57,
  82:..\src/interruptions.c ****                                               56,
  83:..\src/interruptions.c ****                                               56,
  84:..\src/interruptions.c ****                                               55,    //20 (21500)
  85:..\src/interruptions.c ****                                               54,
  86:..\src/interruptions.c ****                                               54,
  87:..\src/interruptions.c ****                                               53,
  88:..\src/interruptions.c ****                                               52,
  89:..\src/interruptions.c ****                                               52,    //25 (24000)
  90:..\src/interruptions.c ****                                               52,
  91:..\src/interruptions.c ****                                               51,
  92:..\src/interruptions.c ****                                               51};   //28 (25500)
  93:..\src/interruptions.c **** 
  94:..\src/interruptions.c **** //==============================================================================
  95:..\src/interruptions.c **** //                                                            RS485 RX INTERRUPT
  96:..\src/interruptions.c **** //==============================================================================
  97:..\src/interruptions.c **** 
  98:..\src/interruptions.c **** CY_ISR(ISR_RS485_RX_ExInterrupt) {
  62              		.loc 1 98 0
  63              		.cfi_startproc
  64              		@ args = 0, pretend = 0, frame = 0
  65              		@ frame_needed = 1, uses_anonymous_args = 0
  66              		@ link register save eliminated.
  67 0000 80B4     		push	{r7}
  68              		.cfi_def_cfa_offset 4
  69              		.cfi_offset 7, -4
  70 0002 00AF     		add	r7, sp, #0
  71              		.cfi_def_cfa_register 7
  99:..\src/interruptions.c **** 
 100:..\src/interruptions.c ****     // Set RS485 flag
ARM GAS  C:\Users\mgnocco\AppData\Local\Temp\ccpLUlHN.s 			page 4


 101:..\src/interruptions.c ****     
 102:..\src/interruptions.c ****     interrupt_flag = TRUE;
  72              		.loc 1 102 0
  73 0004 034B     		ldr	r3, .L2
  74 0006 0122     		movs	r2, #1
  75 0008 1A70     		strb	r2, [r3]
 103:..\src/interruptions.c ****      
 104:..\src/interruptions.c **** }
  76              		.loc 1 104 0
  77 000a 00BF     		nop
  78 000c BD46     		mov	sp, r7
  79              		.cfi_def_cfa_register 13
  80              		@ sp needed
  81 000e 80BC     		pop	{r7}
  82              		.cfi_restore 7
  83              		.cfi_def_cfa_offset 0
  84 0010 7047     		bx	lr
  85              	.L3:
  86 0012 00BF     		.align	2
  87              	.L2:
  88 0014 00000000 		.word	interrupt_flag
  89              		.cfi_endproc
  90              	.LFE64:
  91              		.size	ISR_RS485_RX_ExInterrupt, .-ISR_RS485_RX_ExInterrupt
  92              		.section	.text.ISR_CYCLES_Handler,"ax",%progbits
  93              		.align	2
  94              		.global	ISR_CYCLES_Handler
  95              		.thumb
  96              		.thumb_func
  97              		.type	ISR_CYCLES_Handler, %function
  98              	ISR_CYCLES_Handler:
  99              	.LFB65:
 105:..\src/interruptions.c **** 
 106:..\src/interruptions.c **** //==============================================================================
 107:..\src/interruptions.c **** //                                                        CYCLES TIMER INTERRUPT
 108:..\src/interruptions.c **** //==============================================================================
 109:..\src/interruptions.c **** CY_ISR(ISR_CYCLES_Handler){
 100              		.loc 1 109 0
 101              		.cfi_startproc
 102              		@ args = 0, pretend = 0, frame = 0
 103              		@ frame_needed = 1, uses_anonymous_args = 0
 104              		@ link register save eliminated.
 105 0000 80B4     		push	{r7}
 106              		.cfi_def_cfa_offset 4
 107              		.cfi_offset 7, -4
 108 0002 00AF     		add	r7, sp, #0
 109              		.cfi_def_cfa_register 7
 110:..\src/interruptions.c **** 
 111:..\src/interruptions.c ****     // Set cycles interrupt flag
 112:..\src/interruptions.c ****     
 113:..\src/interruptions.c ****     cycles_interrupt_flag = TRUE;
 110              		.loc 1 113 0
 111 0004 044B     		ldr	r3, .L5
 112 0006 0122     		movs	r2, #1
 113 0008 1A70     		strb	r2, [r3]
 114:..\src/interruptions.c ****     
 115:..\src/interruptions.c ****     CYCLES_TIMER_STATUS;
ARM GAS  C:\Users\mgnocco\AppData\Local\Temp\ccpLUlHN.s 			page 5


 114              		.loc 1 115 0
 115 000a 044B     		ldr	r3, .L5+4
 116 000c 1B78     		ldrb	r3, [r3]
 116:..\src/interruptions.c **** 
 117:..\src/interruptions.c **** }
 117              		.loc 1 117 0
 118 000e 00BF     		nop
 119 0010 BD46     		mov	sp, r7
 120              		.cfi_def_cfa_register 13
 121              		@ sp needed
 122 0012 80BC     		pop	{r7}
 123              		.cfi_restore 7
 124              		.cfi_def_cfa_offset 0
 125 0014 7047     		bx	lr
 126              	.L6:
 127 0016 00BF     		.align	2
 128              	.L5:
 129 0018 00000000 		.word	cycles_interrupt_flag
 130 001c 034F0040 		.word	1073762051
 131              		.cfi_endproc
 132              	.LFE65:
 133              		.size	ISR_CYCLES_Handler, .-ISR_CYCLES_Handler
 134              		.section	.text.interrupt_manager,"ax",%progbits
 135              		.align	2
 136              		.global	interrupt_manager
 137              		.thumb
 138              		.thumb_func
 139              		.type	interrupt_manager, %function
 140              	interrupt_manager:
 141              	.LFB66:
 118:..\src/interruptions.c **** 
 119:..\src/interruptions.c **** //==============================================================================
 120:..\src/interruptions.c **** //                                                             INTERRUPT MANAGER
 121:..\src/interruptions.c **** //==============================================================================
 122:..\src/interruptions.c **** // Manage interrupt from RS485 
 123:..\src/interruptions.c **** //==============================================================================
 124:..\src/interruptions.c **** // Processing RS-485 data frame:
 125:..\src/interruptions.c **** //
 126:..\src/interruptions.c **** // - WAIT_START:    Waits for beginning characters;
 127:..\src/interruptions.c **** // - WAIT_ID:       Waits for ID;
 128:..\src/interruptions.c **** // - WAIT_LENGTH:   Data length;
 129:..\src/interruptions.c **** // - RECEIVE:       Receive all bytes;
 130:..\src/interruptions.c **** // - UNLOAD:        Wait for another device end of transmission;
 131:..\src/interruptions.c **** //
 132:..\src/interruptions.c **** //==============================================================================
 133:..\src/interruptions.c **** 
 134:..\src/interruptions.c **** void interrupt_manager(){
 142              		.loc 1 134 0
 143              		.cfi_startproc
 144              		@ args = 0, pretend = 0, frame = 8
 145              		@ frame_needed = 1, uses_anonymous_args = 0
 146 0000 80B5     		push	{r7, lr}
 147              		.cfi_def_cfa_offset 8
 148              		.cfi_offset 7, -8
 149              		.cfi_offset 14, -4
 150 0002 82B0     		sub	sp, sp, #8
 151              		.cfi_def_cfa_offset 16
ARM GAS  C:\Users\mgnocco\AppData\Local\Temp\ccpLUlHN.s 			page 6


 152 0004 00AF     		add	r7, sp, #0
 153              		.cfi_def_cfa_register 7
 135:..\src/interruptions.c ****       //===========================================     local variables definition
 136:..\src/interruptions.c **** 
 137:..\src/interruptions.c ****     static uint8 CYDATA state = WAIT_START;                      // state
 138:..\src/interruptions.c ****     
 139:..\src/interruptions.c ****     //------------------------------------------------- local data packet
 140:..\src/interruptions.c ****     static uint8 CYDATA data_packet_index;
 141:..\src/interruptions.c ****     static uint8 CYDATA data_packet_length;
 142:..\src/interruptions.c ****     static uint8 data_packet_buffer[128];                     
 143:..\src/interruptions.c ****     static uint8 CYDATA rx_queue[3];                    // last 2 bytes received
 144:..\src/interruptions.c ****     //-------------------------------------------------
 145:..\src/interruptions.c **** 
 146:..\src/interruptions.c ****     uint8 CYDATA    rx_data;                            // RS485 UART rx data
 147:..\src/interruptions.c ****     CYBIT           rx_data_type = TRUE;                       // my id?
 154              		.loc 1 147 0
 155 0006 0123     		movs	r3, #1
 156 0008 FB71     		strb	r3, [r7, #7]
 148:..\src/interruptions.c ****     uint8 CYDATA    package_count = 0;                     
 157              		.loc 1 148 0
 158 000a 0023     		movs	r3, #0
 159 000c BB71     		strb	r3, [r7, #6]
 149:..\src/interruptions.c **** 
 150:..\src/interruptions.c ****     //======================================================     receive routine
 151:..\src/interruptions.c ****     
 152:..\src/interruptions.c ****     while(UART_RS485_GetRxBufferSize() && (package_count < 100)){
 160              		.loc 1 152 0
 161 000e DFE0     		b	.L8
 162              	.L28:
 153:..\src/interruptions.c ****         // 100 - estimated maximum number of packets we can read without blocking firmware executio
 154:..\src/interruptions.c **** 
 155:..\src/interruptions.c ****         // Get next char
 156:..\src/interruptions.c ****         rx_data = UART_RS485_GetChar();
 163              		.loc 1 156 0
 164 0010 FFF7FEFF 		bl	UART_RS485_GetChar
 165 0014 0346     		mov	r3, r0
 166 0016 7B71     		strb	r3, [r7, #5]
 157:..\src/interruptions.c ****         
 158:..\src/interruptions.c ****         switch (state) {
 167              		.loc 1 158 0
 168 0018 744B     		ldr	r3, .L31
 169 001a 1B78     		ldrb	r3, [r3]	@ zero_extendqisi2
 170 001c 042B     		cmp	r3, #4
 171 001e 00F2D780 		bhi	.L8
 172 0022 01A2     		adr	r2, .L10
 173 0024 52F823F0 		ldr	pc, [r2, r3, lsl #2]
 174              		.p2align 2
 175              	.L10:
 176 0028 3D000000 		.word	.L9+1
 177 002c A3000000 		.word	.L11+1
 178 0030 DF000000 		.word	.L12+1
 179 0034 2D010000 		.word	.L13+1
 180 0038 97010000 		.word	.L14+1
 181              		.p2align 1
 182              	.L9:
 159:..\src/interruptions.c ****             //-----     wait for frame start     -------------------------------
 160:..\src/interruptions.c ****             case WAIT_START:
ARM GAS  C:\Users\mgnocco\AppData\Local\Temp\ccpLUlHN.s 			page 7


 161:..\src/interruptions.c ****             
 162:..\src/interruptions.c ****                 rx_queue[0] = rx_queue[1];
 183              		.loc 1 162 0
 184 003c 6C4B     		ldr	r3, .L31+4
 185 003e 5A78     		ldrb	r2, [r3, #1]	@ zero_extendqisi2
 186 0040 6B4B     		ldr	r3, .L31+4
 187 0042 1A70     		strb	r2, [r3]
 163:..\src/interruptions.c ****                 rx_queue[1] = rx_queue[2];
 188              		.loc 1 163 0
 189 0044 6A4B     		ldr	r3, .L31+4
 190 0046 9A78     		ldrb	r2, [r3, #2]	@ zero_extendqisi2
 191 0048 694B     		ldr	r3, .L31+4
 192 004a 5A70     		strb	r2, [r3, #1]
 164:..\src/interruptions.c ****                 rx_queue[2] = rx_data;
 193              		.loc 1 164 0
 194 004c 684A     		ldr	r2, .L31+4
 195 004e 7B79     		ldrb	r3, [r7, #5]
 196 0050 9370     		strb	r3, [r2, #2]
 165:..\src/interruptions.c ****                 
 166:..\src/interruptions.c ****                 // Check for header configuration package
 167:..\src/interruptions.c ****                 if ((rx_queue[1] == 58) && (rx_queue[2] == 58)) {
 197              		.loc 1 167 0
 198 0052 674B     		ldr	r3, .L31+4
 199 0054 5B78     		ldrb	r3, [r3, #1]	@ zero_extendqisi2
 200 0056 3A2B     		cmp	r3, #58
 201 0058 10D1     		bne	.L15
 202              		.loc 1 167 0 is_stmt 0 discriminator 1
 203 005a 654B     		ldr	r3, .L31+4
 204 005c 9B78     		ldrb	r3, [r3, #2]	@ zero_extendqisi2
 205 005e 3A2B     		cmp	r3, #58
 206 0060 0CD1     		bne	.L15
 168:..\src/interruptions.c ****                     rx_queue[0] = 0;
 207              		.loc 1 168 0 is_stmt 1
 208 0062 634B     		ldr	r3, .L31+4
 209 0064 0022     		movs	r2, #0
 210 0066 1A70     		strb	r2, [r3]
 169:..\src/interruptions.c ****                     rx_queue[1] = 0;
 211              		.loc 1 169 0
 212 0068 614B     		ldr	r3, .L31+4
 213 006a 0022     		movs	r2, #0
 214 006c 5A70     		strb	r2, [r3, #1]
 170:..\src/interruptions.c ****                     rx_queue[2] = 0;
 215              		.loc 1 170 0
 216 006e 604B     		ldr	r3, .L31+4
 217 0070 0022     		movs	r2, #0
 218 0072 9A70     		strb	r2, [r3, #2]
 171:..\src/interruptions.c ****                     state       = WAIT_ID;                    
 219              		.loc 1 171 0
 220 0074 5D4B     		ldr	r3, .L31
 221 0076 0122     		movs	r2, #1
 222 0078 1A70     		strb	r2, [r3]
 223 007a 11E0     		b	.L16
 224              	.L15:
 172:..\src/interruptions.c ****                 }
 173:..\src/interruptions.c ****                 else
 174:..\src/interruptions.c ****                     if ((rx_queue[0] == 63) &&      //ASCII - ?
 225              		.loc 1 174 0
ARM GAS  C:\Users\mgnocco\AppData\Local\Temp\ccpLUlHN.s 			page 8


 226 007c 5C4B     		ldr	r3, .L31+4
 227 007e 1B78     		ldrb	r3, [r3]	@ zero_extendqisi2
 228 0080 3F2B     		cmp	r3, #63
 229 0082 40F0A580 		bne	.L8
 175:..\src/interruptions.c ****                         (rx_queue[1] == 13) &&      //ASCII - CR
 230              		.loc 1 175 0 discriminator 1
 231 0086 5A4B     		ldr	r3, .L31+4
 232 0088 5B78     		ldrb	r3, [r3, #1]	@ zero_extendqisi2
 174:..\src/interruptions.c ****                         (rx_queue[1] == 13) &&      //ASCII - CR
 233              		.loc 1 174 0 discriminator 1
 234 008a 0D2B     		cmp	r3, #13
 235 008c 40F0A080 		bne	.L8
 176:..\src/interruptions.c ****                         (rx_queue[2] == 10))        //ASCII - LF)
 236              		.loc 1 176 0
 237 0090 574B     		ldr	r3, .L31+4
 238 0092 9B78     		ldrb	r3, [r3, #2]	@ zero_extendqisi2
 175:..\src/interruptions.c ****                         (rx_queue[1] == 13) &&      //ASCII - CR
 239              		.loc 1 175 0
 240 0094 0A2B     		cmp	r3, #10
 241 0096 40F09B80 		bne	.L8
 177:..\src/interruptions.c ****                         infoGet(INFO_ALL);
 242              		.loc 1 177 0
 243 009a 0020     		movs	r0, #0
 244 009c FFF7FEFF 		bl	infoGet
 245              	.L16:
 178:..\src/interruptions.c ****                 break;
 246              		.loc 1 178 0
 247 00a0 96E0     		b	.L8
 248              	.L11:
 179:..\src/interruptions.c **** 
 180:..\src/interruptions.c ****             //-----     wait for id     ----------------------------------------
 181:..\src/interruptions.c ****             case  WAIT_ID:
 182:..\src/interruptions.c **** 
 183:..\src/interruptions.c ****                 // packet is for my ID or is broadcast
 184:..\src/interruptions.c **** #ifdef MASTER_FW
 185:..\src/interruptions.c ****                 if (rx_data == c_mem.dev.id || rx_data == 0 || (master_mode && rx_data == c_mem.MS.
 249              		.loc 1 185 0
 250 00a2 544B     		ldr	r3, .L31+8
 251 00a4 1B7C     		ldrb	r3, [r3, #16]	@ zero_extendqisi2
 252 00a6 7A79     		ldrb	r2, [r7, #5]	@ zero_extendqisi2
 253 00a8 9A42     		cmp	r2, r3
 254 00aa 0CD0     		beq	.L17
 255              		.loc 1 185 0 is_stmt 0 discriminator 1
 256 00ac 7B79     		ldrb	r3, [r7, #5]	@ zero_extendqisi2
 257 00ae 002B     		cmp	r3, #0
 258 00b0 09D0     		beq	.L17
 259              		.loc 1 185 0 discriminator 2
 260 00b2 514B     		ldr	r3, .L31+12
 261 00b4 1B78     		ldrb	r3, [r3]	@ zero_extendqisi2
 262 00b6 002B     		cmp	r3, #0
 263 00b8 08D0     		beq	.L18
 264              		.loc 1 185 0 discriminator 3
 265 00ba 4E4B     		ldr	r3, .L31+8
 266 00bc 93F84130 		ldrb	r3, [r3, #65]	@ zero_extendqisi2
 267 00c0 7A79     		ldrb	r2, [r7, #5]	@ zero_extendqisi2
 268 00c2 9A42     		cmp	r2, r3
 269 00c4 02D1     		bne	.L18
ARM GAS  C:\Users\mgnocco\AppData\Local\Temp\ccpLUlHN.s 			page 9


 270              	.L17:
 186:..\src/interruptions.c ****                    rx_data_type = FALSE;
 271              		.loc 1 186 0 is_stmt 1
 272 00c6 0023     		movs	r3, #0
 273 00c8 FB71     		strb	r3, [r7, #7]
 274 00ca 01E0     		b	.L19
 275              	.L18:
 187:..\src/interruptions.c ****                 else                //packet is for others
 188:..\src/interruptions.c ****                     rx_data_type = TRUE;
 276              		.loc 1 188 0
 277 00cc 0123     		movs	r3, #1
 278 00ce FB71     		strb	r3, [r7, #7]
 279              	.L19:
 189:..\src/interruptions.c **** #else
 190:..\src/interruptions.c ****                 if (rx_data == c_mem.dev.id || rx_data == 0)
 191:..\src/interruptions.c ****                     rx_data_type = FALSE;
 192:..\src/interruptions.c ****                 else                //packet is for others
 193:..\src/interruptions.c ****                     rx_data_type = TRUE;
 194:..\src/interruptions.c **** #endif                
 195:..\src/interruptions.c ****                 data_packet_length = 0;
 280              		.loc 1 195 0
 281 00d0 4A4B     		ldr	r3, .L31+16
 282 00d2 0022     		movs	r2, #0
 283 00d4 1A70     		strb	r2, [r3]
 196:..\src/interruptions.c ****                 state = WAIT_LENGTH;
 284              		.loc 1 196 0
 285 00d6 454B     		ldr	r3, .L31
 286 00d8 0222     		movs	r2, #2
 287 00da 1A70     		strb	r2, [r3]
 197:..\src/interruptions.c ****                 break;
 288              		.loc 1 197 0
 289 00dc 78E0     		b	.L8
 290              	.L12:
 198:..\src/interruptions.c **** 
 199:..\src/interruptions.c ****             //-----     wait for length     ------------------------------------
 200:..\src/interruptions.c ****             case  WAIT_LENGTH:
 201:..\src/interruptions.c **** 
 202:..\src/interruptions.c ****                 data_packet_length = rx_data;
 291              		.loc 1 202 0
 292 00de 474A     		ldr	r2, .L31+16
 293 00e0 7B79     		ldrb	r3, [r7, #5]
 294 00e2 1370     		strb	r3, [r2]
 203:..\src/interruptions.c ****                 // check validity of pack length
 204:..\src/interruptions.c ****                 if (data_packet_length <= 1) {
 295              		.loc 1 204 0
 296 00e4 454B     		ldr	r3, .L31+16
 297 00e6 1B78     		ldrb	r3, [r3]	@ zero_extendqisi2
 298 00e8 012B     		cmp	r3, #1
 299 00ea 06D8     		bhi	.L20
 205:..\src/interruptions.c ****                     data_packet_length = 0;
 300              		.loc 1 205 0
 301 00ec 434B     		ldr	r3, .L31+16
 302 00ee 0022     		movs	r2, #0
 303 00f0 1A70     		strb	r2, [r3]
 206:..\src/interruptions.c ****                     state = WAIT_START;
 304              		.loc 1 206 0
 305 00f2 3E4B     		ldr	r3, .L31
ARM GAS  C:\Users\mgnocco\AppData\Local\Temp\ccpLUlHN.s 			page 10


 306 00f4 0022     		movs	r2, #0
 307 00f6 1A70     		strb	r2, [r3]
 308 00f8 6AE0     		b	.L8
 309              	.L20:
 207:..\src/interruptions.c ****                 } else if (data_packet_length > 128) {
 310              		.loc 1 207 0
 311 00fa 404B     		ldr	r3, .L31+16
 312 00fc 1B78     		ldrb	r3, [r3]	@ zero_extendqisi2
 313 00fe 802B     		cmp	r3, #128
 314 0100 06D9     		bls	.L22
 208:..\src/interruptions.c ****                     data_packet_length = 0;
 315              		.loc 1 208 0
 316 0102 3E4B     		ldr	r3, .L31+16
 317 0104 0022     		movs	r2, #0
 318 0106 1A70     		strb	r2, [r3]
 209:..\src/interruptions.c ****                     state = WAIT_START;
 319              		.loc 1 209 0
 320 0108 384B     		ldr	r3, .L31
 321 010a 0022     		movs	r2, #0
 322 010c 1A70     		strb	r2, [r3]
 323 010e 5FE0     		b	.L8
 324              	.L22:
 210:..\src/interruptions.c ****                 } else {
 211:..\src/interruptions.c ****                     data_packet_index = 0;
 325              		.loc 1 211 0
 326 0110 3B4B     		ldr	r3, .L31+20
 327 0112 0022     		movs	r2, #0
 328 0114 1A70     		strb	r2, [r3]
 212:..\src/interruptions.c ****                     
 213:..\src/interruptions.c ****                     if(rx_data_type == FALSE)
 329              		.loc 1 213 0
 330 0116 FB79     		ldrb	r3, [r7, #7]	@ zero_extendqisi2
 331 0118 002B     		cmp	r3, #0
 332 011a 03D1     		bne	.L23
 214:..\src/interruptions.c ****                         state = RECEIVE;          // packet for me or broadcast
 333              		.loc 1 214 0
 334 011c 334B     		ldr	r3, .L31
 335 011e 0322     		movs	r2, #3
 336 0120 1A70     		strb	r2, [r3]
 337 0122 55E0     		b	.L8
 338              	.L23:
 215:..\src/interruptions.c ****                     else
 216:..\src/interruptions.c ****                         state = UNLOAD;           // packet for others
 339              		.loc 1 216 0
 340 0124 314B     		ldr	r3, .L31
 341 0126 0422     		movs	r2, #4
 342 0128 1A70     		strb	r2, [r3]
 217:..\src/interruptions.c ****                 }
 218:..\src/interruptions.c ****                 break;
 343              		.loc 1 218 0
 344 012a 51E0     		b	.L8
 345              	.L13:
 219:..\src/interruptions.c **** 
 220:..\src/interruptions.c ****             //-----     receiving     -------------------------------------------
 221:..\src/interruptions.c ****             case RECEIVE:
 222:..\src/interruptions.c **** 
 223:..\src/interruptions.c ****                 data_packet_buffer[data_packet_index] = rx_data;
ARM GAS  C:\Users\mgnocco\AppData\Local\Temp\ccpLUlHN.s 			page 11


 346              		.loc 1 223 0
 347 012c 344B     		ldr	r3, .L31+20
 348 012e 1B78     		ldrb	r3, [r3]	@ zero_extendqisi2
 349 0130 1946     		mov	r1, r3
 350 0132 344A     		ldr	r2, .L31+24
 351 0134 7B79     		ldrb	r3, [r7, #5]
 352 0136 5354     		strb	r3, [r2, r1]
 224:..\src/interruptions.c ****                 data_packet_index++;
 353              		.loc 1 224 0
 354 0138 314B     		ldr	r3, .L31+20
 355 013a 1B78     		ldrb	r3, [r3]	@ zero_extendqisi2
 356 013c 0133     		adds	r3, r3, #1
 357 013e DAB2     		uxtb	r2, r3
 358 0140 2F4B     		ldr	r3, .L31+20
 359 0142 1A70     		strb	r2, [r3]
 225:..\src/interruptions.c ****                 
 226:..\src/interruptions.c ****                 // check end of transmission
 227:..\src/interruptions.c ****                 if (data_packet_index >= data_packet_length) {
 360              		.loc 1 227 0
 361 0144 2E4B     		ldr	r3, .L31+20
 362 0146 1A78     		ldrb	r2, [r3]	@ zero_extendqisi2
 363 0148 2C4B     		ldr	r3, .L31+16
 364 014a 1B78     		ldrb	r3, [r3]	@ zero_extendqisi2
 365 014c 9A42     		cmp	r2, r3
 366 014e 3FD3     		bcc	.L8
 228:..\src/interruptions.c ****                     // verify if frame ID corresponded to the device ID
 229:..\src/interruptions.c ****                     if (rx_data_type == FALSE) {
 367              		.loc 1 229 0
 368 0150 FB79     		ldrb	r3, [r7, #7]	@ zero_extendqisi2
 369 0152 002B     		cmp	r3, #0
 370 0154 12D1     		bne	.L25
 230:..\src/interruptions.c ****                         // copying data from buffer to global packet
 231:..\src/interruptions.c ****                         memcpy(g_rx.buffer, data_packet_buffer, data_packet_length);
 371              		.loc 1 231 0
 372 0156 294B     		ldr	r3, .L31+16
 373 0158 1B78     		ldrb	r3, [r3]	@ zero_extendqisi2
 374 015a 1A46     		mov	r2, r3
 375 015c 2949     		ldr	r1, .L31+24
 376 015e 2A48     		ldr	r0, .L31+28
 377 0160 FFF7FEFF 		bl	memcpy
 232:..\src/interruptions.c ****                         g_rx.length = data_packet_length;
 378              		.loc 1 232 0
 379 0164 254B     		ldr	r3, .L31+16
 380 0166 1B78     		ldrb	r3, [r3]	@ zero_extendqisi2
 381 0168 1AB2     		sxth	r2, r3
 382 016a 274B     		ldr	r3, .L31+28
 383 016c A3F88020 		strh	r2, [r3, #128]	@ movhi
 233:..\src/interruptions.c ****                         g_rx.ready  = 1;
 384              		.loc 1 233 0
 385 0170 254B     		ldr	r3, .L31+28
 386 0172 0122     		movs	r2, #1
 387 0174 83F88420 		strb	r2, [r3, #132]
 234:..\src/interruptions.c ****                         commProcess();
 388              		.loc 1 234 0
 389 0178 FFF7FEFF 		bl	commProcess
 390              	.L25:
 235:..\src/interruptions.c ****                     }
ARM GAS  C:\Users\mgnocco\AppData\Local\Temp\ccpLUlHN.s 			page 12


 236:..\src/interruptions.c ****                     
 237:..\src/interruptions.c ****                     data_packet_index  = 0;
 391              		.loc 1 237 0
 392 017c 204B     		ldr	r3, .L31+20
 393 017e 0022     		movs	r2, #0
 394 0180 1A70     		strb	r2, [r3]
 238:..\src/interruptions.c ****                     data_packet_length = 0;
 395              		.loc 1 238 0
 396 0182 1E4B     		ldr	r3, .L31+16
 397 0184 0022     		movs	r2, #0
 398 0186 1A70     		strb	r2, [r3]
 239:..\src/interruptions.c ****                     state              = WAIT_START;
 399              		.loc 1 239 0
 400 0188 184B     		ldr	r3, .L31
 401 018a 0022     		movs	r2, #0
 402 018c 1A70     		strb	r2, [r3]
 240:..\src/interruptions.c ****                     package_count++;
 403              		.loc 1 240 0
 404 018e BB79     		ldrb	r3, [r7, #6]	@ zero_extendqisi2
 405 0190 0133     		adds	r3, r3, #1
 406 0192 BB71     		strb	r3, [r7, #6]
 241:..\src/interruptions.c ****                 
 242:..\src/interruptions.c ****                 }
 243:..\src/interruptions.c ****                 break;
 407              		.loc 1 243 0
 408 0194 1CE0     		b	.L8
 409              	.L14:
 244:..\src/interruptions.c **** 
 245:..\src/interruptions.c ****             //-----     other device is receving     ---------------------------
 246:..\src/interruptions.c ****             case UNLOAD:
 247:..\src/interruptions.c ****                 if (!(--data_packet_length)) {
 410              		.loc 1 247 0
 411 0196 194B     		ldr	r3, .L31+16
 412 0198 1B78     		ldrb	r3, [r3]	@ zero_extendqisi2
 413 019a 013B     		subs	r3, r3, #1
 414 019c DAB2     		uxtb	r2, r3
 415 019e 174B     		ldr	r3, .L31+16
 416 01a0 1A70     		strb	r2, [r3]
 417 01a2 164B     		ldr	r3, .L31+16
 418 01a4 1B78     		ldrb	r3, [r3]	@ zero_extendqisi2
 419 01a6 002B     		cmp	r3, #0
 420 01a8 11D1     		bne	.L30
 248:..\src/interruptions.c ****                     data_packet_index  = 0;
 421              		.loc 1 248 0
 422 01aa 154B     		ldr	r3, .L31+20
 423 01ac 0022     		movs	r2, #0
 424 01ae 1A70     		strb	r2, [r3]
 249:..\src/interruptions.c ****                     data_packet_length = 0;
 425              		.loc 1 249 0
 426 01b0 124B     		ldr	r3, .L31+16
 427 01b2 0022     		movs	r2, #0
 428 01b4 1A70     		strb	r2, [r3]
 250:..\src/interruptions.c ****                     RS485_CTS_Write(1);
 429              		.loc 1 250 0
 430 01b6 0120     		movs	r0, #1
 431 01b8 FFF7FEFF 		bl	RS485_CTS_Write
 251:..\src/interruptions.c ****                     RS485_CTS_Write(0);
ARM GAS  C:\Users\mgnocco\AppData\Local\Temp\ccpLUlHN.s 			page 13


 432              		.loc 1 251 0
 433 01bc 0020     		movs	r0, #0
 434 01be FFF7FEFF 		bl	RS485_CTS_Write
 252:..\src/interruptions.c ****                     state              = WAIT_START;
 435              		.loc 1 252 0
 436 01c2 0A4B     		ldr	r3, .L31
 437 01c4 0022     		movs	r2, #0
 438 01c6 1A70     		strb	r2, [r3]
 253:..\src/interruptions.c ****                     package_count++;
 439              		.loc 1 253 0
 440 01c8 BB79     		ldrb	r3, [r7, #6]	@ zero_extendqisi2
 441 01ca 0133     		adds	r3, r3, #1
 442 01cc BB71     		strb	r3, [r7, #6]
 443              	.L30:
 254:..\src/interruptions.c ****                 }
 255:..\src/interruptions.c ****                 break;
 444              		.loc 1 255 0
 445 01ce 00BF     		nop
 446              	.L8:
 152:..\src/interruptions.c ****         // 100 - estimated maximum number of packets we can read without blocking firmware executio
 447              		.loc 1 152 0
 448 01d0 FFF7FEFF 		bl	UART_RS485_GetRxBufferSize
 449 01d4 0346     		mov	r3, r0
 450 01d6 002B     		cmp	r3, #0
 451 01d8 03D0     		beq	.L29
 152:..\src/interruptions.c ****         // 100 - estimated maximum number of packets we can read without blocking firmware executio
 452              		.loc 1 152 0 is_stmt 0 discriminator 1
 453 01da BB79     		ldrb	r3, [r7, #6]	@ zero_extendqisi2
 454 01dc 632B     		cmp	r3, #99
 455 01de 7FF617AF 		bls	.L28
 456              	.L29:
 256:..\src/interruptions.c ****         }
 257:..\src/interruptions.c ****     }
 258:..\src/interruptions.c **** }
 457              		.loc 1 258 0 is_stmt 1
 458 01e2 00BF     		nop
 459 01e4 0837     		adds	r7, r7, #8
 460              		.cfi_def_cfa_offset 8
 461 01e6 BD46     		mov	sp, r7
 462              		.cfi_def_cfa_register 13
 463              		@ sp needed
 464 01e8 80BD     		pop	{r7, pc}
 465              	.L32:
 466 01ea 00BF     		.align	2
 467              	.L31:
 468 01ec 00000000 		.word	state.9774
 469 01f0 04000000 		.word	rx_queue.9778
 470 01f4 00000000 		.word	c_mem
 471 01f8 00000000 		.word	master_mode
 472 01fc 07000000 		.word	data_packet_length.9776
 473 0200 08000000 		.word	data_packet_index.9775
 474 0204 0C000000 		.word	data_packet_buffer.9777
 475 0208 00000000 		.word	g_rx
 476              		.cfi_endproc
 477              	.LFE66:
 478              		.size	interrupt_manager, .-interrupt_manager
 479              		.global	__aeabi_i2f
ARM GAS  C:\Users\mgnocco\AppData\Local\Temp\ccpLUlHN.s 			page 14


 480              		.global	__aeabi_fdiv
 481              		.section	.text.function_scheduler,"ax",%progbits
 482              		.align	2
 483              		.global	function_scheduler
 484              		.thumb
 485              		.thumb_func
 486              		.type	function_scheduler, %function
 487              	function_scheduler:
 488              	.LFB67:
 259:..\src/interruptions.c **** //==============================================================================
 260:..\src/interruptions.c **** //                                                            FUNCTION SCHEDULER
 261:..\src/interruptions.c **** //==============================================================================
 262:..\src/interruptions.c **** // Call all the function with the right frequency
 263:..\src/interruptions.c **** //==============================================================================
 264:..\src/interruptions.c **** // Base frequency 5000 Hz (110 us - max. 200 us cycle time)
 265:..\src/interruptions.c **** //==============================================================================
 266:..\src/interruptions.c **** 
 267:..\src/interruptions.c **** void function_scheduler(void) {
 489              		.loc 1 267 0
 490              		.cfi_startproc
 491              		@ args = 0, pretend = 0, frame = 0
 492              		@ frame_needed = 1, uses_anonymous_args = 0
 493 0000 80B5     		push	{r7, lr}
 494              		.cfi_def_cfa_offset 8
 495              		.cfi_offset 7, -8
 496              		.cfi_offset 14, -4
 497 0002 00AF     		add	r7, sp, #0
 498              		.cfi_def_cfa_register 7
 268:..\src/interruptions.c ****       
 269:..\src/interruptions.c ****     MY_TIMER_REG_Write(0x00);
 499              		.loc 1 269 0
 500 0004 0020     		movs	r0, #0
 501 0006 FFF7FEFF 		bl	MY_TIMER_REG_Write
 270:..\src/interruptions.c ****     timer_value0 = (uint32)MY_TIMER_ReadCounter();
 502              		.loc 1 270 0
 503 000a FFF7FEFF 		bl	MY_TIMER_ReadCounter
 504 000e 0346     		mov	r3, r0
 505 0010 1A46     		mov	r2, r3
 506 0012 694B     		ldr	r3, .L49
 507 0014 1A80     		strh	r2, [r3]	@ movhi
 271:..\src/interruptions.c ****     // Start ADC Conversion, SOC = 1
 272:..\src/interruptions.c ****     ADC_SOC_Write(0x01); 
 508              		.loc 1 272 0
 509 0016 0120     		movs	r0, #1
 510 0018 FFF7FEFF 		bl	ADC_SOC_Write
 273:..\src/interruptions.c ****     flag_master = MASTER_MODE_FLAG_Read();
 511              		.loc 1 273 0
 512 001c FFF7FEFF 		bl	MASTER_MODE_FLAG_Read
 513 0020 0346     		mov	r3, r0
 514 0022 1A46     		mov	r2, r3
 515 0024 654B     		ldr	r3, .L49+4
 516 0026 1A60     		str	r2, [r3]
 274:..\src/interruptions.c **** 
 275:..\src/interruptions.c ****     // Check Interrupt 
 276:..\src/interruptions.c **** 
 277:..\src/interruptions.c ****     if (interrupt_flag){
 517              		.loc 1 277 0
ARM GAS  C:\Users\mgnocco\AppData\Local\Temp\ccpLUlHN.s 			page 15


 518 0028 654B     		ldr	r3, .L49+8
 519 002a 1B78     		ldrb	r3, [r3]	@ zero_extendqisi2
 520 002c 002B     		cmp	r3, #0
 521 002e 04D0     		beq	.L34
 278:..\src/interruptions.c ****         interrupt_flag = FALSE;
 522              		.loc 1 278 0
 523 0030 634B     		ldr	r3, .L49+8
 524 0032 0022     		movs	r2, #0
 525 0034 1A70     		strb	r2, [r3]
 279:..\src/interruptions.c ****         interrupt_manager();
 526              		.loc 1 279 0
 527 0036 FFF7FEFF 		bl	interrupt_manager
 528              	.L34:
 280:..\src/interruptions.c ****     }
 281:..\src/interruptions.c ****    
 282:..\src/interruptions.c ****     // if master_mode parameter is set to 1
 283:..\src/interruptions.c ****     if (g_mem.MS.master_mode_active){  
 529              		.loc 1 283 0
 530 003a 624B     		ldr	r3, .L49+12
 531 003c 93F84030 		ldrb	r3, [r3, #64]	@ zero_extendqisi2
 532 0040 002B     		cmp	r3, #0
 533 0042 0FD0     		beq	.L35
 284:..\src/interruptions.c ****         
 285:..\src/interruptions.c ****         // Check if voltage on pin MASTER MODE VOLTAGE, set by a physical switch, is HIGH or LOW. 
 286:..\src/interruptions.c ****         // This is a way to force exit from master_mode during execution, since USB commands from P
 287:..\src/interruptions.c ****         // are hampered by the communications between the two boards (slave and master)
 288:..\src/interruptions.c ****         
 289:..\src/interruptions.c ****         if (!flag_master)       // if voltage is LOW, exit master mode
 534              		.loc 1 289 0
 535 0044 5D4B     		ldr	r3, .L49+4
 536 0046 1B68     		ldr	r3, [r3]
 537 0048 002B     		cmp	r3, #0
 538 004a 03D1     		bne	.L36
 290:..\src/interruptions.c ****             master_mode = 0;
 539              		.loc 1 290 0
 540 004c 5E4B     		ldr	r3, .L49+16
 541 004e 0022     		movs	r2, #0
 542 0050 1A70     		strb	r2, [r3]
 543 0052 0AE0     		b	.L38
 544              	.L36:
 291:..\src/interruptions.c ****         
 292:..\src/interruptions.c ****         else if (flag_master)  // if voltage is HIGH, enter master mode
 545              		.loc 1 292 0
 546 0054 594B     		ldr	r3, .L49+4
 547 0056 1B68     		ldr	r3, [r3]
 548 0058 002B     		cmp	r3, #0
 549 005a 06D0     		beq	.L38
 293:..\src/interruptions.c ****             master_mode = 1;
 550              		.loc 1 293 0
 551 005c 5A4B     		ldr	r3, .L49+16
 552 005e 0122     		movs	r2, #1
 553 0060 1A70     		strb	r2, [r3]
 554 0062 02E0     		b	.L38
 555              	.L35:
 294:..\src/interruptions.c ****     }
 295:..\src/interruptions.c ****             
 296:..\src/interruptions.c ****     else{
ARM GAS  C:\Users\mgnocco\AppData\Local\Temp\ccpLUlHN.s 			page 16


 297:..\src/interruptions.c ****         master_mode = 0;
 556              		.loc 1 297 0
 557 0064 584B     		ldr	r3, .L49+16
 558 0066 0022     		movs	r2, #0
 559 0068 1A70     		strb	r2, [r3]
 560              	.L38:
 298:..\src/interruptions.c ****     }
 299:..\src/interruptions.c ****                     
 300:..\src/interruptions.c ****     if (master_mode){
 561              		.loc 1 300 0
 562 006a 574B     		ldr	r3, .L49+16
 563 006c 1B78     		ldrb	r3, [r3]	@ zero_extendqisi2
 564 006e 002B     		cmp	r3, #0
 565 0070 3BD0     		beq	.L39
 301:..\src/interruptions.c ****         
 302:..\src/interruptions.c ****         LED_CONTROL_Write(RED);     
 566              		.loc 1 302 0
 567 0072 0220     		movs	r0, #2
 568 0074 FFF7FEFF 		bl	LED_CONTROL_Write
 303:..\src/interruptions.c ****         
 304:..\src/interruptions.c ****         //-------------------------------------------------------------- Air Chamber and Vibrotacti
 305:..\src/interruptions.c ****         if (g_mem.FB.vibrotactile_feedback_active && g_mem.FB.airchamber_feedback_active){         
 569              		.loc 1 305 0
 570 0078 524B     		ldr	r3, .L49+12
 571 007a 93F85C30 		ldrb	r3, [r3, #92]	@ zero_extendqisi2
 572 007e 002B     		cmp	r3, #0
 573 0080 09D0     		beq	.L40
 574              		.loc 1 305 0 is_stmt 0 discriminator 1
 575 0082 504B     		ldr	r3, .L49+12
 576 0084 93F85D30 		ldrb	r3, [r3, #93]	@ zero_extendqisi2
 577 0088 002B     		cmp	r3, #0
 578 008a 04D0     		beq	.L40
 306:..\src/interruptions.c ****             air_chambers_control();
 579              		.loc 1 306 0 is_stmt 1
 580 008c FFF7FEFF 		bl	air_chambers_control
 307:..\src/interruptions.c ****             vibrotactile_control();
 581              		.loc 1 307 0
 582 0090 FFF7FEFF 		bl	vibrotactile_control
 583 0094 0EE0     		b	.L41
 584              	.L40:
 308:..\src/interruptions.c ****         }
 309:..\src/interruptions.c ****         
 310:..\src/interruptions.c ****         //-------------------------------------------------------------- Air Chamber control
 311:..\src/interruptions.c ****         else if (g_mem.FB.airchamber_feedback_active){
 585              		.loc 1 311 0
 586 0096 4B4B     		ldr	r3, .L49+12
 587 0098 93F85D30 		ldrb	r3, [r3, #93]	@ zero_extendqisi2
 588 009c 002B     		cmp	r3, #0
 589 009e 02D0     		beq	.L42
 312:..\src/interruptions.c ****             air_chambers_control();
 590              		.loc 1 312 0
 591 00a0 FFF7FEFF 		bl	air_chambers_control
 592 00a4 06E0     		b	.L41
 593              	.L42:
 313:..\src/interruptions.c ****             
 314:..\src/interruptions.c ****         }
 315:..\src/interruptions.c ****     
ARM GAS  C:\Users\mgnocco\AppData\Local\Temp\ccpLUlHN.s 			page 17


 316:..\src/interruptions.c ****         //-------------------------------------------------------------- Vibrotactile control
 317:..\src/interruptions.c ****         else if (g_mem.FB.vibrotactile_feedback_active){
 594              		.loc 1 317 0
 595 00a6 474B     		ldr	r3, .L49+12
 596 00a8 93F85C30 		ldrb	r3, [r3, #92]	@ zero_extendqisi2
 597 00ac 002B     		cmp	r3, #0
 598 00ae 01D0     		beq	.L41
 318:..\src/interruptions.c ****             vibrotactile_control();
 599              		.loc 1 318 0
 600 00b0 FFF7FEFF 		bl	vibrotactile_control
 601              	.L41:
 319:..\src/interruptions.c ****         }
 320:..\src/interruptions.c ****         
 321:..\src/interruptions.c ****         if (interrupt_flag){
 602              		.loc 1 321 0
 603 00b4 424B     		ldr	r3, .L49+8
 604 00b6 1B78     		ldrb	r3, [r3]	@ zero_extendqisi2
 605 00b8 002B     		cmp	r3, #0
 606 00ba 04D0     		beq	.L43
 322:..\src/interruptions.c ****             interrupt_flag = FALSE;
 607              		.loc 1 322 0
 608 00bc 404B     		ldr	r3, .L49+8
 609 00be 0022     		movs	r2, #0
 610 00c0 1A70     		strb	r2, [r3]
 323:..\src/interruptions.c ****             interrupt_manager();
 611              		.loc 1 323 0
 612 00c2 FFF7FEFF 		bl	interrupt_manager
 613              	.L43:
 324:..\src/interruptions.c ****         }
 325:..\src/interruptions.c ****             
 326:..\src/interruptions.c ****         compute_SH_reference(); // Compute reference for the SH starting from EMG values
 614              		.loc 1 326 0
 615 00c6 FFF7FEFF 		bl	compute_SH_reference
 327:..\src/interruptions.c ****             
 328:..\src/interruptions.c ****         drive_slave(c_mem.MS.slave_ID); // Send reference to the SH calling cmd_set_inputs
 616              		.loc 1 328 0
 617 00ca 404B     		ldr	r3, .L49+20
 618 00cc 93F84130 		ldrb	r3, [r3, #65]	@ zero_extendqisi2
 619 00d0 1846     		mov	r0, r3
 620 00d2 FFF7FEFF 		bl	drive_slave
 329:..\src/interruptions.c ****             
 330:..\src/interruptions.c ****         if (interrupt_flag){
 621              		.loc 1 330 0
 622 00d6 3A4B     		ldr	r3, .L49+8
 623 00d8 1B78     		ldrb	r3, [r3]	@ zero_extendqisi2
 624 00da 002B     		cmp	r3, #0
 625 00dc 11D0     		beq	.L45
 331:..\src/interruptions.c ****             interrupt_flag = FALSE;
 626              		.loc 1 331 0
 627 00de 384B     		ldr	r3, .L49+8
 628 00e0 0022     		movs	r2, #0
 629 00e2 1A70     		strb	r2, [r3]
 332:..\src/interruptions.c ****             interrupt_manager();
 630              		.loc 1 332 0
 631 00e4 FFF7FEFF 		bl	interrupt_manager
 632 00e8 0BE0     		b	.L45
 633              	.L39:
ARM GAS  C:\Users\mgnocco\AppData\Local\Temp\ccpLUlHN.s 			page 18


 333:..\src/interruptions.c ****         }
 334:..\src/interruptions.c ****     }
 335:..\src/interruptions.c ****             
 336:..\src/interruptions.c ****            
 337:..\src/interruptions.c ****     else {
 338:..\src/interruptions.c ****         
 339:..\src/interruptions.c ****         LED_CONTROL_Write(GREEN);     
 634              		.loc 1 339 0
 635 00ea 0120     		movs	r0, #1
 636 00ec FFF7FEFF 		bl	LED_CONTROL_Write
 340:..\src/interruptions.c ****             
 341:..\src/interruptions.c ****         // Check Interrupt 
 342:..\src/interruptions.c ****         if (interrupt_flag){
 637              		.loc 1 342 0
 638 00f0 334B     		ldr	r3, .L49+8
 639 00f2 1B78     		ldrb	r3, [r3]	@ zero_extendqisi2
 640 00f4 002B     		cmp	r3, #0
 641 00f6 04D0     		beq	.L45
 343:..\src/interruptions.c ****             interrupt_flag = FALSE;
 642              		.loc 1 343 0
 643 00f8 314B     		ldr	r3, .L49+8
 644 00fa 0022     		movs	r2, #0
 645 00fc 1A70     		strb	r2, [r3]
 344:..\src/interruptions.c ****             interrupt_manager();
 646              		.loc 1 344 0
 647 00fe FFF7FEFF 		bl	interrupt_manager
 648              	.L45:
 345:..\src/interruptions.c ****         } 
 346:..\src/interruptions.c ****     }
 347:..\src/interruptions.c ****     
 348:..\src/interruptions.c ****     pump_control();  // Compute references and drive air pump
 649              		.loc 1 348 0
 650 0102 FFF7FEFF 		bl	pump_control
 349:..\src/interruptions.c ****     VT_control();  // Compute references and drive air pump
 651              		.loc 1 349 0
 652 0106 FFF7FEFF 		bl	VT_control
 350:..\src/interruptions.c **** 
 351:..\src/interruptions.c ****     if (interrupt_flag){
 653              		.loc 1 351 0
 654 010a 2D4B     		ldr	r3, .L49+8
 655 010c 1B78     		ldrb	r3, [r3]	@ zero_extendqisi2
 656 010e 002B     		cmp	r3, #0
 657 0110 04D0     		beq	.L46
 352:..\src/interruptions.c ****         interrupt_flag = FALSE;
 658              		.loc 1 352 0
 659 0112 2B4B     		ldr	r3, .L49+8
 660 0114 0022     		movs	r2, #0
 661 0116 1A70     		strb	r2, [r3]
 353:..\src/interruptions.c ****         interrupt_manager();
 662              		.loc 1 353 0
 663 0118 FFF7FEFF 		bl	interrupt_manager
 664              	.L46:
 354:..\src/interruptions.c ****     }
 355:..\src/interruptions.c ****                
 356:..\src/interruptions.c ****     //---------------------------------- Read conversion buffer - LOCK function
 357:..\src/interruptions.c **** 
 358:..\src/interruptions.c ****     analog_read_end();
ARM GAS  C:\Users\mgnocco\AppData\Local\Temp\ccpLUlHN.s 			page 19


 665              		.loc 1 358 0
 666 011c FFF7FEFF 		bl	analog_read_end
 359:..\src/interruptions.c **** 
 360:..\src/interruptions.c ****     if (interrupt_flag){
 667              		.loc 1 360 0
 668 0120 274B     		ldr	r3, .L49+8
 669 0122 1B78     		ldrb	r3, [r3]	@ zero_extendqisi2
 670 0124 002B     		cmp	r3, #0
 671 0126 04D0     		beq	.L47
 361:..\src/interruptions.c ****         interrupt_flag = FALSE;
 672              		.loc 1 361 0
 673 0128 254B     		ldr	r3, .L49+8
 674 012a 0022     		movs	r2, #0
 675 012c 1A70     		strb	r2, [r3]
 362:..\src/interruptions.c ****         interrupt_manager();
 676              		.loc 1 362 0
 677 012e FFF7FEFF 		bl	interrupt_manager
 678              	.L47:
 363:..\src/interruptions.c ****     }  
 364:..\src/interruptions.c ****    
 365:..\src/interruptions.c ****     //---------------------------------- Update States
 366:..\src/interruptions.c **** 
 367:..\src/interruptions.c ****     // Load k-1 state
 368:..\src/interruptions.c ****     memcpy( &g_adc_measOld, &g_adc_meas, sizeof(g_adc_meas) );
 679              		.loc 1 368 0
 680 0132 274B     		ldr	r3, .L49+24
 681 0134 274A     		ldr	r2, .L49+28
 682 0136 07CA     		ldmia	r2, {r0, r1, r2}
 683 0138 83E80700 		stmia	r3, {r0, r1, r2}
 369:..\src/interruptions.c ****     memcpy( &SH_refOld, &SH_ref, sizeof(SH_ref) );
 684              		.loc 1 369 0
 685 013c 264B     		ldr	r3, .L49+32
 686 013e 1B68     		ldr	r3, [r3]
 687 0140 264A     		ldr	r2, .L49+36
 688 0142 1360     		str	r3, [r2]
 370:..\src/interruptions.c ****     memcpy( &VT_refOld, &VT_ref, sizeof(VT_ref) );
 689              		.loc 1 370 0
 690 0144 264A     		ldr	r2, .L49+40
 691 0146 274B     		ldr	r3, .L49+44
 692 0148 1B88     		ldrh	r3, [r3]	@ unaligned
 693 014a 1380     		strh	r3, [r2]	@ unaligned
 371:..\src/interruptions.c ****     memcpy( &Pump_refOld, &Pump_ref, sizeof(Pump_ref) );
 694              		.loc 1 371 0
 695 014c 264B     		ldr	r3, .L49+48
 696 014e 1A78     		ldrb	r2, [r3]	@ zero_extendqisi2
 697 0150 264B     		ldr	r3, .L49+52
 698 0152 1A70     		strb	r2, [r3]
 372:..\src/interruptions.c ****     
 373:..\src/interruptions.c ****     // Load k+1 state        
 374:..\src/interruptions.c ****     memcpy( &SH_ref, &SH_refNew, sizeof(SH_ref) );   
 699              		.loc 1 374 0
 700 0154 264B     		ldr	r3, .L49+56
 701 0156 1B68     		ldr	r3, [r3]
 702 0158 1F4A     		ldr	r2, .L49+32
 703 015a 1360     		str	r3, [r2]
 375:..\src/interruptions.c ****     memcpy( &VT_ref, &VT_refNew, sizeof(VT_ref) );
 704              		.loc 1 375 0
ARM GAS  C:\Users\mgnocco\AppData\Local\Temp\ccpLUlHN.s 			page 20


 705 015c 214A     		ldr	r2, .L49+44
 706 015e 254B     		ldr	r3, .L49+60
 707 0160 1B88     		ldrh	r3, [r3]	@ unaligned
 708 0162 1380     		strh	r3, [r2]	@ unaligned
 376:..\src/interruptions.c ****     memcpy( &Pump_ref, &Pump_refNew, sizeof(Pump_ref) );
 709              		.loc 1 376 0
 710 0164 244B     		ldr	r3, .L49+64
 711 0166 1A78     		ldrb	r2, [r3]	@ zero_extendqisi2
 712 0168 1F4B     		ldr	r3, .L49+48
 713 016a 1A70     		strb	r2, [r3]
 377:..\src/interruptions.c ****     
 378:..\src/interruptions.c ****     if (interrupt_flag){
 714              		.loc 1 378 0
 715 016c 144B     		ldr	r3, .L49+8
 716 016e 1B78     		ldrb	r3, [r3]	@ zero_extendqisi2
 717 0170 002B     		cmp	r3, #0
 718 0172 04D0     		beq	.L48
 379:..\src/interruptions.c ****         interrupt_flag = FALSE;
 719              		.loc 1 379 0
 720 0174 124B     		ldr	r3, .L49+8
 721 0176 0022     		movs	r2, #0
 722 0178 1A70     		strb	r2, [r3]
 380:..\src/interruptions.c ****         interrupt_manager();
 723              		.loc 1 380 0
 724 017a FFF7FEFF 		bl	interrupt_manager
 725              	.L48:
 381:..\src/interruptions.c ****     }
 382:..\src/interruptions.c ****     
 383:..\src/interruptions.c ****     timer_value = (uint16)MY_TIMER_ReadCounter();
 726              		.loc 1 383 0
 727 017e FFF7FEFF 		bl	MY_TIMER_ReadCounter
 728 0182 0346     		mov	r3, r0
 729 0184 1A46     		mov	r2, r3
 730 0186 1D4B     		ldr	r3, .L49+68
 731 0188 1A80     		strh	r2, [r3]	@ movhi
 384:..\src/interruptions.c ****     cycle_time = ((float)(timer_value0 - timer_value)/48.0);
 732              		.loc 1 384 0
 733 018a 0B4B     		ldr	r3, .L49
 734 018c 1B88     		ldrh	r3, [r3]
 735 018e 1A46     		mov	r2, r3
 736 0190 1A4B     		ldr	r3, .L49+68
 737 0192 1B88     		ldrh	r3, [r3]
 738 0194 D31A     		subs	r3, r2, r3
 739 0196 1846     		mov	r0, r3
 740 0198 FFF7FEFF 		bl	__aeabi_i2f
 741 019c 0346     		mov	r3, r0
 742 019e 1849     		ldr	r1, .L49+72
 743 01a0 1846     		mov	r0, r3
 744 01a2 FFF7FEFF 		bl	__aeabi_fdiv
 745 01a6 0346     		mov	r3, r0
 746 01a8 1A46     		mov	r2, r3
 747 01aa 164B     		ldr	r3, .L49+76
 748 01ac 1A60     		str	r2, [r3]	@ float
 385:..\src/interruptions.c ****     MY_TIMER_REG_Write(0x01);   // reset timer
 749              		.loc 1 385 0
 750 01ae 0120     		movs	r0, #1
 751 01b0 FFF7FEFF 		bl	MY_TIMER_REG_Write
ARM GAS  C:\Users\mgnocco\AppData\Local\Temp\ccpLUlHN.s 			page 21


 386:..\src/interruptions.c **** 
 387:..\src/interruptions.c **** }
 752              		.loc 1 387 0
 753 01b4 00BF     		nop
 754 01b6 80BD     		pop	{r7, pc}
 755              	.L50:
 756              		.align	2
 757              	.L49:
 758 01b8 00000000 		.word	timer_value0
 759 01bc 00000000 		.word	flag_master
 760 01c0 00000000 		.word	interrupt_flag
 761 01c4 00000000 		.word	g_mem
 762 01c8 00000000 		.word	master_mode
 763 01cc 00000000 		.word	c_mem
 764 01d0 00000000 		.word	g_adc_measOld
 765 01d4 00000000 		.word	g_adc_meas
 766 01d8 00000000 		.word	SH_ref
 767 01dc 00000000 		.word	SH_refOld
 768 01e0 00000000 		.word	VT_refOld
 769 01e4 00000000 		.word	VT_ref
 770 01e8 00000000 		.word	Pump_ref
 771 01ec 00000000 		.word	Pump_refOld
 772 01f0 00000000 		.word	SH_refNew
 773 01f4 00000000 		.word	VT_refNew
 774 01f8 00000000 		.word	Pump_refNew
 775 01fc 00000000 		.word	timer_value
 776 0200 00004042 		.word	1111490560
 777 0204 00000000 		.word	cycle_time
 778              		.cfi_endproc
 779              	.LFE67:
 780              		.size	function_scheduler, .-function_scheduler
 781              		.section	.text.compute_SH_reference,"ax",%progbits
 782              		.align	2
 783              		.global	compute_SH_reference
 784              		.thumb
 785              		.thumb_func
 786              		.type	compute_SH_reference, %function
 787              	compute_SH_reference:
 788              	.LFB68:
 388:..\src/interruptions.c **** 
 389:..\src/interruptions.c **** //==============================================================================
 390:..\src/interruptions.c **** //                                                       COMPUTE MOTOR REFERENCE
 391:..\src/interruptions.c **** //==============================================================================
 392:..\src/interruptions.c **** 
 393:..\src/interruptions.c **** void compute_SH_reference() {
 789              		.loc 1 393 0
 790              		.cfi_startproc
 791              		@ args = 0, pretend = 0, frame = 16
 792              		@ frame_needed = 1, uses_anonymous_args = 0
 793              		@ link register save eliminated.
 794 0000 80B4     		push	{r7}
 795              		.cfi_def_cfa_offset 4
 796              		.cfi_offset 7, -4
 797 0002 85B0     		sub	sp, sp, #20
 798              		.cfi_def_cfa_offset 24
 799 0004 00AF     		add	r7, sp, #0
 800              		.cfi_def_cfa_register 7
ARM GAS  C:\Users\mgnocco\AppData\Local\Temp\ccpLUlHN.s 			page 22


 394:..\src/interruptions.c ****     
 395:..\src/interruptions.c ****     int32 CYDATA err_emg_1, err_emg_2;
 396:..\src/interruptions.c ****     struct st_slave* SH = &c_mem.SH_config;      // SoftHand default motor
 801              		.loc 1 396 0
 802 0006 A24B     		ldr	r3, .L95
 803 0008 FB60     		str	r3, [r7, #12]
 397:..\src/interruptions.c ****     
 398:..\src/interruptions.c ****     static uint8 current_emg = 0;   // 0 NONE // 1 EMG 1 // 2 EMG 2                                
 399:..\src/interruptions.c ****                                                                                                    
 400:..\src/interruptions.c ****     err_emg_1 = g_adc_meas.emg[0] - c_mem.emg.emg_threshold[0];
 804              		.loc 1 400 0
 805 000a A24B     		ldr	r3, .L95+4
 806 000c 1B68     		ldr	r3, [r3]
 807 000e A24A     		ldr	r2, .L95+8
 808 0010 128E     		ldrh	r2, [r2, #48]
 809 0012 9B1A     		subs	r3, r3, r2
 810 0014 BB60     		str	r3, [r7, #8]
 401:..\src/interruptions.c ****     err_emg_2 = g_adc_meas.emg[1] - c_mem.emg.emg_threshold[1];
 811              		.loc 1 401 0
 812 0016 9F4B     		ldr	r3, .L95+4
 813 0018 5B68     		ldr	r3, [r3, #4]
 814 001a 9F4A     		ldr	r2, .L95+8
 815 001c 528E     		ldrh	r2, [r2, #50]
 816 001e 9B1A     		subs	r3, r3, r2
 817 0020 7B60     		str	r3, [r7, #4]
 402:..\src/interruptions.c ****     
 403:..\src/interruptions.c ****      // =========================== POSITION INPUT ==============================            
 404:..\src/interruptions.c ****     switch(SH->input_mode) {
 818              		.loc 1 404 0
 819 0022 FB68     		ldr	r3, [r7, #12]
 820 0024 1B7A     		ldrb	r3, [r3, #8]	@ zero_extendqisi2
 821 0026 023B     		subs	r3, r3, #2
 822 0028 052B     		cmp	r3, #5
 823 002a 00F24381 		bhi	.L88
 824 002e 01A2     		adr	r2, .L54
 825 0030 52F823F0 		ldr	pc, [r2, r3, lsl #2]
 826              		.p2align 2
 827              	.L54:
 828 0034 4D000000 		.word	.L53+1
 829 0038 A9000000 		.word	.L55+1
 830 003c 0D010000 		.word	.L56+1
 831 0040 C3010000 		.word	.L57+1
 832 0044 B5020000 		.word	.L88+1
 833 0048 77000000 		.word	.L58+1
 834              		.p2align 1
 835              	.L53:
 405:..\src/interruptions.c ****             
 406:..\src/interruptions.c ****         case INPUT_MODE_EMG_PROPORTIONAL:
 407:..\src/interruptions.c ****             if (err_emg_1 > 0)
 836              		.loc 1 407 0
 837 004c BB68     		ldr	r3, [r7, #8]
 838 004e 002B     		cmp	r3, #0
 839 0050 0DDD     		ble	.L59
 408:..\src/interruptions.c ****                 SH_ref = (err_emg_1 * g_mem.SH_config.pos_lim_sup) / (1024 - c_mem.emg.emg_threshol
 840              		.loc 1 408 0
 841 0052 924B     		ldr	r3, .L95+12
 842 0054 5B6A     		ldr	r3, [r3, #36]
ARM GAS  C:\Users\mgnocco\AppData\Local\Temp\ccpLUlHN.s 			page 23


 843 0056 BA68     		ldr	r2, [r7, #8]
 844 0058 02FB03F2 		mul	r2, r2, r3
 845 005c 8E4B     		ldr	r3, .L95+8
 846 005e 1B8E     		ldrh	r3, [r3, #48]
 847 0060 C3F58063 		rsb	r3, r3, #1024
 848 0064 92FBF3F3 		sdiv	r3, r2, r3
 849 0068 8D4A     		ldr	r2, .L95+16
 850 006a 1360     		str	r3, [r2]
 409:..\src/interruptions.c ****             else
 410:..\src/interruptions.c ****                 SH_ref = 0;
 411:..\src/interruptions.c ****             break;
 851              		.loc 1 411 0
 852 006c 25E1     		b	.L61
 853              	.L59:
 410:..\src/interruptions.c ****             break;
 854              		.loc 1 410 0
 855 006e 8C4B     		ldr	r3, .L95+16
 856 0070 0022     		movs	r2, #0
 857 0072 1A60     		str	r2, [r3]
 858              		.loc 1 411 0
 859 0074 21E1     		b	.L61
 860              	.L58:
 412:..\src/interruptions.c ****         
 413:..\src/interruptions.c ****         case INPUT_MODE_EMG_PROPORTIONAL_NC:
 414:..\src/interruptions.c ****             if (err_emg_1 > 0)
 861              		.loc 1 414 0
 862 0076 BB68     		ldr	r3, [r7, #8]
 863 0078 002B     		cmp	r3, #0
 864 007a 10DD     		ble	.L62
 415:..\src/interruptions.c ****                 SH_ref = g_mem.SH_config.pos_lim_sup - (err_emg_1 * g_mem.SH_config.pos_lim_sup) / 
 865              		.loc 1 415 0
 866 007c 874B     		ldr	r3, .L95+12
 867 007e 5A6A     		ldr	r2, [r3, #36]
 868 0080 864B     		ldr	r3, .L95+12
 869 0082 5B6A     		ldr	r3, [r3, #36]
 870 0084 B968     		ldr	r1, [r7, #8]
 871 0086 01FB03F1 		mul	r1, r1, r3
 872 008a 834B     		ldr	r3, .L95+8
 873 008c 1B8E     		ldrh	r3, [r3, #48]
 874 008e C3F58063 		rsb	r3, r3, #1024
 875 0092 91FBF3F3 		sdiv	r3, r1, r3
 876 0096 D31A     		subs	r3, r2, r3
 877 0098 814A     		ldr	r2, .L95+16
 878 009a 1360     		str	r3, [r2]
 416:..\src/interruptions.c ****             else
 417:..\src/interruptions.c ****                 SH_ref = g_mem.SH_config.pos_lim_sup;
 418:..\src/interruptions.c ****             break;
 879              		.loc 1 418 0
 880 009c 0DE1     		b	.L61
 881              	.L62:
 417:..\src/interruptions.c ****             break;
 882              		.loc 1 417 0
 883 009e 7F4B     		ldr	r3, .L95+12
 884 00a0 5B6A     		ldr	r3, [r3, #36]
 885 00a2 7F4A     		ldr	r2, .L95+16
 886 00a4 1360     		str	r3, [r2]
 887              		.loc 1 418 0
ARM GAS  C:\Users\mgnocco\AppData\Local\Temp\ccpLUlHN.s 			page 24


 888 00a6 08E1     		b	.L61
 889              	.L55:
 419:..\src/interruptions.c **** 
 420:..\src/interruptions.c ****         case INPUT_MODE_EMG_INTEGRAL:
 421:..\src/interruptions.c ****             SH_ref = SH_refOld;
 890              		.loc 1 421 0
 891 00a8 7E4B     		ldr	r3, .L95+20
 892 00aa 1B68     		ldr	r3, [r3]
 893 00ac 7C4A     		ldr	r2, .L95+16
 894 00ae 1360     		str	r3, [r2]
 422:..\src/interruptions.c ****             if (err_emg_1 > 0) {
 895              		.loc 1 422 0
 896 00b0 BB68     		ldr	r3, [r7, #8]
 897 00b2 002B     		cmp	r3, #0
 898 00b4 12DD     		ble	.L64
 423:..\src/interruptions.c ****                 SH_ref = SH_refOld + (err_emg_1 * (int)g_mem.emg.emg_speed[0] * 2) / (1024 - c_mem.
 899              		.loc 1 423 0
 900 00b6 794B     		ldr	r3, .L95+12
 901 00b8 93F83C30 		ldrb	r3, [r3, #60]	@ zero_extendqisi2
 902 00bc 1A46     		mov	r2, r3
 903 00be BB68     		ldr	r3, [r7, #8]
 904 00c0 03FB02F3 		mul	r3, r3, r2
 905 00c4 5A00     		lsls	r2, r3, #1
 906 00c6 744B     		ldr	r3, .L95+8
 907 00c8 1B8E     		ldrh	r3, [r3, #48]
 908 00ca C3F58063 		rsb	r3, r3, #1024
 909 00ce 92FBF3F2 		sdiv	r2, r2, r3
 910 00d2 744B     		ldr	r3, .L95+20
 911 00d4 1B68     		ldr	r3, [r3]
 912 00d6 1344     		add	r3, r3, r2
 913 00d8 714A     		ldr	r2, .L95+16
 914 00da 1360     		str	r3, [r2]
 915              	.L64:
 424:..\src/interruptions.c ****             }
 425:..\src/interruptions.c ****             if (err_emg_2 > 0) {
 916              		.loc 1 425 0
 917 00dc 7B68     		ldr	r3, [r7, #4]
 918 00de 002B     		cmp	r3, #0
 919 00e0 40F3EA80 		ble	.L89
 426:..\src/interruptions.c ****                 SH_ref = SH_refOld - (err_emg_2 * (int)g_mem.emg.emg_speed[1] * 2) / (1024 - c_mem.
 920              		.loc 1 426 0
 921 00e4 6F4B     		ldr	r3, .L95+20
 922 00e6 1A68     		ldr	r2, [r3]
 923 00e8 6C4B     		ldr	r3, .L95+12
 924 00ea 93F83D30 		ldrb	r3, [r3, #61]	@ zero_extendqisi2
 925 00ee 1946     		mov	r1, r3
 926 00f0 7B68     		ldr	r3, [r7, #4]
 927 00f2 03FB01F3 		mul	r3, r3, r1
 928 00f6 5900     		lsls	r1, r3, #1
 929 00f8 674B     		ldr	r3, .L95+8
 930 00fa 5B8E     		ldrh	r3, [r3, #50]
 931 00fc C3F58063 		rsb	r3, r3, #1024
 932 0100 91FBF3F3 		sdiv	r3, r1, r3
 933 0104 D31A     		subs	r3, r2, r3
 934 0106 664A     		ldr	r2, .L95+16
 935 0108 1360     		str	r3, [r2]
 427:..\src/interruptions.c ****             }
ARM GAS  C:\Users\mgnocco\AppData\Local\Temp\ccpLUlHN.s 			page 25


 428:..\src/interruptions.c ****             break;
 936              		.loc 1 428 0
 937 010a D5E0     		b	.L89
 938              	.L56:
 429:..\src/interruptions.c **** 
 430:..\src/interruptions.c ****         case INPUT_MODE_EMG_FCFS:
 431:..\src/interruptions.c ****             SH_ref= SH_refOld;
 939              		.loc 1 431 0
 940 010c 654B     		ldr	r3, .L95+20
 941 010e 1B68     		ldr	r3, [r3]
 942 0110 634A     		ldr	r2, .L95+16
 943 0112 1360     		str	r3, [r2]
 432:..\src/interruptions.c ****             
 433:..\src/interruptions.c ****                 switch (current_emg) {
 944              		.loc 1 433 0
 945 0114 644B     		ldr	r3, .L95+24
 946 0116 1B78     		ldrb	r3, [r3]	@ zero_extendqisi2
 947 0118 012B     		cmp	r3, #1
 948 011a 1AD0     		beq	.L67
 949 011c 022B     		cmp	r3, #2
 950 011e 33D0     		beq	.L68
 951 0120 002B     		cmp	r3, #0
 952 0122 00D0     		beq	.L69
 434:..\src/interruptions.c ****                     case 0:
 435:..\src/interruptions.c ****                         // Look for the first EMG passing the threshold
 436:..\src/interruptions.c ****                         if (err_emg_1 > 0 && err_emg_1 > err_emg_2) {
 437:..\src/interruptions.c ****                             current_emg= 1;
 438:..\src/interruptions.c ****                             break;
 439:..\src/interruptions.c ****                         }
 440:..\src/interruptions.c ****                         if (err_emg_2 > 0 && err_emg_2 > err_emg_1) {
 441:..\src/interruptions.c ****                             current_emg = 2;
 442:..\src/interruptions.c ****                             break;
 443:..\src/interruptions.c ****                         }
 444:..\src/interruptions.c ****                         break;
 445:..\src/interruptions.c **** 
 446:..\src/interruptions.c ****                     case 1:
 447:..\src/interruptions.c ****                         // EMG 1 is first
 448:..\src/interruptions.c ****                         if (err_emg_1 < 0) {
 449:..\src/interruptions.c ****                             current_emg = 0;
 450:..\src/interruptions.c ****                             break;
 451:..\src/interruptions.c ****                         }
 452:..\src/interruptions.c ****                        SH_ref= SH_refOld + (err_emg_1 * g_mem.emg.emg_speed[0] << 2) / (1024 - c_me
 453:..\src/interruptions.c ****                         break;
 454:..\src/interruptions.c **** 
 455:..\src/interruptions.c ****                     case 2:
 456:..\src/interruptions.c ****                         // EMG 2 is first
 457:..\src/interruptions.c ****                         if (err_emg_2 < 0) {
 458:..\src/interruptions.c ****                             current_emg = 0;
 459:..\src/interruptions.c ****                             break;
 460:..\src/interruptions.c ****                         }
 461:..\src/interruptions.c ****                         SH_ref = SH_refOld - (err_emg_2 * g_mem.emg.emg_speed[1] << 2) / (1024 - c_
 462:..\src/interruptions.c ****                         break;
 463:..\src/interruptions.c **** 
 464:..\src/interruptions.c ****                     default:
 465:..\src/interruptions.c ****                         break;
 953              		.loc 1 465 0
 954 0124 4CE0     		b	.L71
ARM GAS  C:\Users\mgnocco\AppData\Local\Temp\ccpLUlHN.s 			page 26


 955              	.L69:
 436:..\src/interruptions.c ****                             current_emg= 1;
 956              		.loc 1 436 0
 957 0126 BB68     		ldr	r3, [r7, #8]
 958 0128 002B     		cmp	r3, #0
 959 012a 07DD     		ble	.L70
 436:..\src/interruptions.c ****                             current_emg= 1;
 960              		.loc 1 436 0 is_stmt 0 discriminator 1
 961 012c BA68     		ldr	r2, [r7, #8]
 962 012e 7B68     		ldr	r3, [r7, #4]
 963 0130 9A42     		cmp	r2, r3
 964 0132 03DD     		ble	.L70
 437:..\src/interruptions.c ****                             break;
 965              		.loc 1 437 0 is_stmt 1
 966 0134 5C4B     		ldr	r3, .L95+24
 967 0136 0122     		movs	r2, #1
 968 0138 1A70     		strb	r2, [r3]
 438:..\src/interruptions.c ****                         }
 969              		.loc 1 438 0
 970 013a 41E0     		b	.L71
 971              	.L70:
 440:..\src/interruptions.c ****                             current_emg = 2;
 972              		.loc 1 440 0
 973 013c 7B68     		ldr	r3, [r7, #4]
 974 013e 002B     		cmp	r3, #0
 975 0140 3DDD     		ble	.L90
 440:..\src/interruptions.c ****                             current_emg = 2;
 976              		.loc 1 440 0 is_stmt 0 discriminator 1
 977 0142 7A68     		ldr	r2, [r7, #4]
 978 0144 BB68     		ldr	r3, [r7, #8]
 979 0146 9A42     		cmp	r2, r3
 980 0148 39DD     		ble	.L90
 441:..\src/interruptions.c ****                             break;
 981              		.loc 1 441 0 is_stmt 1
 982 014a 574B     		ldr	r3, .L95+24
 983 014c 0222     		movs	r2, #2
 984 014e 1A70     		strb	r2, [r3]
 442:..\src/interruptions.c ****                         }
 985              		.loc 1 442 0
 986 0150 36E0     		b	.L71
 987              	.L67:
 448:..\src/interruptions.c ****                             current_emg = 0;
 988              		.loc 1 448 0
 989 0152 BB68     		ldr	r3, [r7, #8]
 990 0154 002B     		cmp	r3, #0
 991 0156 03DA     		bge	.L73
 449:..\src/interruptions.c ****                             break;
 992              		.loc 1 449 0
 993 0158 534B     		ldr	r3, .L95+24
 994 015a 0022     		movs	r2, #0
 995 015c 1A70     		strb	r2, [r3]
 450:..\src/interruptions.c ****                         }
 996              		.loc 1 450 0
 997 015e 2FE0     		b	.L71
 998              	.L73:
 452:..\src/interruptions.c ****                         break;
 999              		.loc 1 452 0
ARM GAS  C:\Users\mgnocco\AppData\Local\Temp\ccpLUlHN.s 			page 27


 1000 0160 4E4B     		ldr	r3, .L95+12
 1001 0162 93F83C30 		ldrb	r3, [r3, #60]	@ zero_extendqisi2
 1002 0166 1A46     		mov	r2, r3
 1003 0168 BB68     		ldr	r3, [r7, #8]
 1004 016a 03FB02F3 		mul	r3, r3, r2
 1005 016e 9A00     		lsls	r2, r3, #2
 1006 0170 494B     		ldr	r3, .L95+8
 1007 0172 1B8E     		ldrh	r3, [r3, #48]
 1008 0174 C3F58063 		rsb	r3, r3, #1024
 1009 0178 92FBF3F2 		sdiv	r2, r2, r3
 1010 017c 494B     		ldr	r3, .L95+20
 1011 017e 1B68     		ldr	r3, [r3]
 1012 0180 1344     		add	r3, r3, r2
 1013 0182 474A     		ldr	r2, .L95+16
 1014 0184 1360     		str	r3, [r2]
 453:..\src/interruptions.c **** 
 1015              		.loc 1 453 0
 1016 0186 1BE0     		b	.L71
 1017              	.L68:
 457:..\src/interruptions.c ****                             current_emg = 0;
 1018              		.loc 1 457 0
 1019 0188 7B68     		ldr	r3, [r7, #4]
 1020 018a 002B     		cmp	r3, #0
 1021 018c 03DA     		bge	.L74
 458:..\src/interruptions.c ****                             break;
 1022              		.loc 1 458 0
 1023 018e 464B     		ldr	r3, .L95+24
 1024 0190 0022     		movs	r2, #0
 1025 0192 1A70     		strb	r2, [r3]
 459:..\src/interruptions.c ****                         }
 1026              		.loc 1 459 0
 1027 0194 14E0     		b	.L71
 1028              	.L74:
 461:..\src/interruptions.c ****                         break;
 1029              		.loc 1 461 0
 1030 0196 434B     		ldr	r3, .L95+20
 1031 0198 1A68     		ldr	r2, [r3]
 1032 019a 404B     		ldr	r3, .L95+12
 1033 019c 93F83D30 		ldrb	r3, [r3, #61]	@ zero_extendqisi2
 1034 01a0 1946     		mov	r1, r3
 1035 01a2 7B68     		ldr	r3, [r7, #4]
 1036 01a4 03FB01F3 		mul	r3, r3, r1
 1037 01a8 9900     		lsls	r1, r3, #2
 1038 01aa 3B4B     		ldr	r3, .L95+8
 1039 01ac 5B8E     		ldrh	r3, [r3, #50]
 1040 01ae C3F58063 		rsb	r3, r3, #1024
 1041 01b2 91FBF3F3 		sdiv	r3, r1, r3
 1042 01b6 D31A     		subs	r3, r2, r3
 1043 01b8 394A     		ldr	r2, .L95+16
 1044 01ba 1360     		str	r3, [r2]
 462:..\src/interruptions.c **** 
 1045              		.loc 1 462 0
 1046 01bc 00E0     		b	.L71
 1047              	.L90:
 444:..\src/interruptions.c **** 
 1048              		.loc 1 444 0
 1049 01be 00BF     		nop
ARM GAS  C:\Users\mgnocco\AppData\Local\Temp\ccpLUlHN.s 			page 28


 1050              	.L71:
 466:..\src/interruptions.c ****                 }
 467:..\src/interruptions.c ****             
 468:..\src/interruptions.c ****             break;
 1051              		.loc 1 468 0 discriminator 1
 1052 01c0 7BE0     		b	.L61
 1053              	.L57:
 469:..\src/interruptions.c **** 
 470:..\src/interruptions.c ****         case INPUT_MODE_EMG_FCFS_ADV:
 471:..\src/interruptions.c ****             SH_ref = SH_refOld;
 1054              		.loc 1 471 0
 1055 01c2 384B     		ldr	r3, .L95+20
 1056 01c4 1B68     		ldr	r3, [r3]
 1057 01c6 364A     		ldr	r2, .L95+16
 1058 01c8 1360     		str	r3, [r2]
 472:..\src/interruptions.c ****             switch (current_emg) {
 1059              		.loc 1 472 0
 1060 01ca 374B     		ldr	r3, .L95+24
 1061 01cc 1B78     		ldrb	r3, [r3]	@ zero_extendqisi2
 1062 01ce 012B     		cmp	r3, #1
 1063 01d0 1AD0     		beq	.L76
 1064 01d2 022B     		cmp	r3, #2
 1065 01d4 39D0     		beq	.L77
 1066 01d6 002B     		cmp	r3, #0
 1067 01d8 00D0     		beq	.L78
 473:..\src/interruptions.c ****                 // Look for the first EMG passing the threshold
 474:..\src/interruptions.c ****                 case 0:
 475:..\src/interruptions.c ****                     if (err_emg_1 > 0 && err_emg_1 > err_emg_2) {
 476:..\src/interruptions.c ****                         current_emg = 1;
 477:..\src/interruptions.c ****                         break;
 478:..\src/interruptions.c ****                     }
 479:..\src/interruptions.c ****                     if (err_emg_2 > 0 && err_emg_2 > err_emg_1) {
 480:..\src/interruptions.c ****                         current_emg = 2;
 481:..\src/interruptions.c ****                         break;
 482:..\src/interruptions.c ****                     }
 483:..\src/interruptions.c ****                     break;
 484:..\src/interruptions.c **** 
 485:..\src/interruptions.c ****                 // EMG 1 is first
 486:..\src/interruptions.c ****                 case 1:
 487:..\src/interruptions.c ****                     // If both signals are under threshold go back to status 0
 488:..\src/interruptions.c ****                     if ((err_emg_1 < 0) && (err_emg_2 < 0)) {
 489:..\src/interruptions.c ****                         current_emg = 0;
 490:..\src/interruptions.c ****                         break;
 491:..\src/interruptions.c ****                     }
 492:..\src/interruptions.c ****                     // but if the current signal come back over threshold, continue using it
 493:..\src/interruptions.c ****                     if (err_emg_1 > 0) 
 494:..\src/interruptions.c ****                         SH_ref = SH_refOld + (err_emg_1 * g_mem.emg.emg_speed[0] << 2) / (1024 - c_
 495:..\src/interruptions.c ****                     break;
 496:..\src/interruptions.c **** 
 497:..\src/interruptions.c ****                 // EMG 2 is first
 498:..\src/interruptions.c ****                 case 2:
 499:..\src/interruptions.c ****                     // If both signals are under threshold go back to status 0
 500:..\src/interruptions.c ****                     if ((err_emg_1 < 0) && (err_emg_2 < 0)) {
 501:..\src/interruptions.c ****                         current_emg = 0;
 502:..\src/interruptions.c ****                         break;
 503:..\src/interruptions.c ****                     }
 504:..\src/interruptions.c ****                     // but if the current signal come back over threshold, continue using it
ARM GAS  C:\Users\mgnocco\AppData\Local\Temp\ccpLUlHN.s 			page 29


 505:..\src/interruptions.c ****                     if (err_emg_2 > 0) {
 506:..\src/interruptions.c ****                         SH_ref = SH_refOld - (err_emg_2 * c_mem.emg.emg_speed[1] << 2) / (1024 - c_
 507:..\src/interruptions.c ****                     }
 508:..\src/interruptions.c ****                     break;
 509:..\src/interruptions.c **** 
 510:..\src/interruptions.c ****                 default:
 511:..\src/interruptions.c ****                     break;
 1068              		.loc 1 511 0
 1069 01da 6AE0     		b	.L80
 1070              	.L78:
 475:..\src/interruptions.c ****                         current_emg = 1;
 1071              		.loc 1 475 0
 1072 01dc BB68     		ldr	r3, [r7, #8]
 1073 01de 002B     		cmp	r3, #0
 1074 01e0 07DD     		ble	.L79
 475:..\src/interruptions.c ****                         current_emg = 1;
 1075              		.loc 1 475 0 is_stmt 0 discriminator 1
 1076 01e2 BA68     		ldr	r2, [r7, #8]
 1077 01e4 7B68     		ldr	r3, [r7, #4]
 1078 01e6 9A42     		cmp	r2, r3
 1079 01e8 03DD     		ble	.L79
 476:..\src/interruptions.c ****                         break;
 1080              		.loc 1 476 0 is_stmt 1
 1081 01ea 2F4B     		ldr	r3, .L95+24
 1082 01ec 0122     		movs	r2, #1
 1083 01ee 1A70     		strb	r2, [r3]
 477:..\src/interruptions.c ****                     }
 1084              		.loc 1 477 0
 1085 01f0 5FE0     		b	.L80
 1086              	.L79:
 479:..\src/interruptions.c ****                         current_emg = 2;
 1087              		.loc 1 479 0
 1088 01f2 7B68     		ldr	r3, [r7, #4]
 1089 01f4 002B     		cmp	r3, #0
 1090 01f6 49DD     		ble	.L91
 479:..\src/interruptions.c ****                         current_emg = 2;
 1091              		.loc 1 479 0 is_stmt 0 discriminator 1
 1092 01f8 7A68     		ldr	r2, [r7, #4]
 1093 01fa BB68     		ldr	r3, [r7, #8]
 1094 01fc 9A42     		cmp	r2, r3
 1095 01fe 45DD     		ble	.L91
 480:..\src/interruptions.c ****                         break;
 1096              		.loc 1 480 0 is_stmt 1
 1097 0200 294B     		ldr	r3, .L95+24
 1098 0202 0222     		movs	r2, #2
 1099 0204 1A70     		strb	r2, [r3]
 481:..\src/interruptions.c ****                     }
 1100              		.loc 1 481 0
 1101 0206 54E0     		b	.L80
 1102              	.L76:
 488:..\src/interruptions.c ****                         current_emg = 0;
 1103              		.loc 1 488 0
 1104 0208 BB68     		ldr	r3, [r7, #8]
 1105 020a 002B     		cmp	r3, #0
 1106 020c 06DA     		bge	.L82
 488:..\src/interruptions.c ****                         current_emg = 0;
 1107              		.loc 1 488 0 is_stmt 0 discriminator 1
ARM GAS  C:\Users\mgnocco\AppData\Local\Temp\ccpLUlHN.s 			page 30


 1108 020e 7B68     		ldr	r3, [r7, #4]
 1109 0210 002B     		cmp	r3, #0
 1110 0212 03DA     		bge	.L82
 489:..\src/interruptions.c ****                         break;
 1111              		.loc 1 489 0 is_stmt 1
 1112 0214 244B     		ldr	r3, .L95+24
 1113 0216 0022     		movs	r2, #0
 1114 0218 1A70     		strb	r2, [r3]
 490:..\src/interruptions.c ****                     }
 1115              		.loc 1 490 0
 1116 021a 4AE0     		b	.L80
 1117              	.L82:
 493:..\src/interruptions.c ****                         SH_ref = SH_refOld + (err_emg_1 * g_mem.emg.emg_speed[0] << 2) / (1024 - c_
 1118              		.loc 1 493 0
 1119 021c BB68     		ldr	r3, [r7, #8]
 1120 021e 002B     		cmp	r3, #0
 1121 0220 44DD     		ble	.L92
 494:..\src/interruptions.c ****                     break;
 1122              		.loc 1 494 0
 1123 0222 1E4B     		ldr	r3, .L95+12
 1124 0224 93F83C30 		ldrb	r3, [r3, #60]	@ zero_extendqisi2
 1125 0228 1A46     		mov	r2, r3
 1126 022a BB68     		ldr	r3, [r7, #8]
 1127 022c 03FB02F3 		mul	r3, r3, r2
 1128 0230 9A00     		lsls	r2, r3, #2
 1129 0232 194B     		ldr	r3, .L95+8
 1130 0234 1B8E     		ldrh	r3, [r3, #48]
 1131 0236 C3F58063 		rsb	r3, r3, #1024
 1132 023a 92FBF3F2 		sdiv	r2, r2, r3
 1133 023e 194B     		ldr	r3, .L95+20
 1134 0240 1B68     		ldr	r3, [r3]
 1135 0242 1344     		add	r3, r3, r2
 1136 0244 164A     		ldr	r2, .L95+16
 1137 0246 1360     		str	r3, [r2]
 495:..\src/interruptions.c **** 
 1138              		.loc 1 495 0
 1139 0248 30E0     		b	.L92
 1140              	.L77:
 500:..\src/interruptions.c ****                         current_emg = 0;
 1141              		.loc 1 500 0
 1142 024a BB68     		ldr	r3, [r7, #8]
 1143 024c 002B     		cmp	r3, #0
 1144 024e 06DA     		bge	.L84
 500:..\src/interruptions.c ****                         current_emg = 0;
 1145              		.loc 1 500 0 is_stmt 0 discriminator 1
 1146 0250 7B68     		ldr	r3, [r7, #4]
 1147 0252 002B     		cmp	r3, #0
 1148 0254 03DA     		bge	.L84
 501:..\src/interruptions.c ****                         break;
 1149              		.loc 1 501 0 is_stmt 1
 1150 0256 144B     		ldr	r3, .L95+24
 1151 0258 0022     		movs	r2, #0
 1152 025a 1A70     		strb	r2, [r3]
 502:..\src/interruptions.c ****                     }
 1153              		.loc 1 502 0
 1154 025c 29E0     		b	.L80
 1155              	.L84:
ARM GAS  C:\Users\mgnocco\AppData\Local\Temp\ccpLUlHN.s 			page 31


 505:..\src/interruptions.c ****                         SH_ref = SH_refOld - (err_emg_2 * c_mem.emg.emg_speed[1] << 2) / (1024 - c_
 1156              		.loc 1 505 0
 1157 025e 7B68     		ldr	r3, [r7, #4]
 1158 0260 002B     		cmp	r3, #0
 1159 0262 25DD     		ble	.L93
 506:..\src/interruptions.c ****                     }
 1160              		.loc 1 506 0
 1161 0264 0F4B     		ldr	r3, .L95+20
 1162 0266 1A68     		ldr	r2, [r3]
 1163 0268 0B4B     		ldr	r3, .L95+8
 1164 026a 93F83D30 		ldrb	r3, [r3, #61]	@ zero_extendqisi2
 1165 026e 1946     		mov	r1, r3
 1166 0270 7B68     		ldr	r3, [r7, #4]
 1167 0272 03FB01F3 		mul	r3, r3, r1
 1168 0276 9900     		lsls	r1, r3, #2
 1169 0278 074B     		ldr	r3, .L95+8
 1170 027a 5B8E     		ldrh	r3, [r3, #50]
 1171 027c C3F58063 		rsb	r3, r3, #1024
 1172 0280 91FBF3F3 		sdiv	r3, r1, r3
 1173 0284 D31A     		subs	r3, r2, r3
 1174 0286 064A     		ldr	r2, .L95+16
 1175 0288 1360     		str	r3, [r2]
 508:..\src/interruptions.c **** 
 1176              		.loc 1 508 0
 1177 028a 11E0     		b	.L93
 1178              	.L91:
 483:..\src/interruptions.c **** 
 1179              		.loc 1 483 0
 1180 028c 00BF     		nop
 1181 028e 14E0     		b	.L61
 1182              	.L96:
 1183              		.align	2
 1184              	.L95:
 1185 0290 20000000 		.word	c_mem+32
 1186 0294 00000000 		.word	g_adc_meas
 1187 0298 00000000 		.word	c_mem
 1188 029c 00000000 		.word	g_mem
 1189 02a0 00000000 		.word	SH_ref
 1190 02a4 00000000 		.word	SH_refOld
 1191 02a8 8C000000 		.word	current_emg.9799
 1192              	.L92:
 495:..\src/interruptions.c **** 
 1193              		.loc 1 495 0
 1194 02ac 00BF     		nop
 1195 02ae 04E0     		b	.L61
 1196              	.L93:
 508:..\src/interruptions.c **** 
 1197              		.loc 1 508 0
 1198 02b0 00BF     		nop
 1199              	.L80:
 512:..\src/interruptions.c ****             }
 513:..\src/interruptions.c ****             break;
 1200              		.loc 1 513 0 discriminator 3
 1201 02b2 02E0     		b	.L61
 1202              	.L88:
 514:..\src/interruptions.c **** 
 515:..\src/interruptions.c ****         default:
ARM GAS  C:\Users\mgnocco\AppData\Local\Temp\ccpLUlHN.s 			page 32


 516:..\src/interruptions.c ****             break;
 1203              		.loc 1 516 0
 1204 02b4 00BF     		nop
 1205 02b6 00E0     		b	.L61
 1206              	.L89:
 428:..\src/interruptions.c **** 
 1207              		.loc 1 428 0
 1208 02b8 00BF     		nop
 1209              	.L61:
 517:..\src/interruptions.c ****     }
 518:..\src/interruptions.c **** 
 519:..\src/interruptions.c ****     // Position limit saturation
 520:..\src/interruptions.c ****     
 521:..\src/interruptions.c ****         if (SH_ref < SH->pos_lim_inf) 
 1210              		.loc 1 521 0
 1211 02ba FB68     		ldr	r3, [r7, #12]
 1212 02bc 1A68     		ldr	r2, [r3]
 1213 02be 0B4B     		ldr	r3, .L97
 1214 02c0 1B68     		ldr	r3, [r3]
 1215 02c2 9A42     		cmp	r2, r3
 1216 02c4 03DD     		ble	.L86
 522:..\src/interruptions.c ****             SH_ref = SH->pos_lim_inf;
 1217              		.loc 1 522 0
 1218 02c6 FB68     		ldr	r3, [r7, #12]
 1219 02c8 1B68     		ldr	r3, [r3]
 1220 02ca 084A     		ldr	r2, .L97
 1221 02cc 1360     		str	r3, [r2]
 1222              	.L86:
 523:..\src/interruptions.c ****         if (SH_ref > SH->pos_lim_sup) 
 1223              		.loc 1 523 0
 1224 02ce FB68     		ldr	r3, [r7, #12]
 1225 02d0 5A68     		ldr	r2, [r3, #4]
 1226 02d2 064B     		ldr	r3, .L97
 1227 02d4 1B68     		ldr	r3, [r3]
 1228 02d6 9A42     		cmp	r2, r3
 1229 02d8 03DA     		bge	.L94
 524:..\src/interruptions.c ****             SH_ref = SH->pos_lim_sup;
 1230              		.loc 1 524 0
 1231 02da FB68     		ldr	r3, [r7, #12]
 1232 02dc 5B68     		ldr	r3, [r3, #4]
 1233 02de 034A     		ldr	r2, .L97
 1234 02e0 1360     		str	r3, [r2]
 1235              	.L94:
 525:..\src/interruptions.c **** 
 526:..\src/interruptions.c **** }
 1236              		.loc 1 526 0
 1237 02e2 00BF     		nop
 1238 02e4 1437     		adds	r7, r7, #20
 1239              		.cfi_def_cfa_offset 4
 1240 02e6 BD46     		mov	sp, r7
 1241              		.cfi_def_cfa_register 13
 1242              		@ sp needed
 1243 02e8 80BC     		pop	{r7}
 1244              		.cfi_restore 7
 1245              		.cfi_def_cfa_offset 0
 1246 02ea 7047     		bx	lr
 1247              	.L98:
ARM GAS  C:\Users\mgnocco\AppData\Local\Temp\ccpLUlHN.s 			page 33


 1248              		.align	2
 1249              	.L97:
 1250 02ec 00000000 		.word	SH_ref
 1251              		.cfi_endproc
 1252              	.LFE68:
 1253              		.size	compute_SH_reference, .-compute_SH_reference
 1254              		.section	.text.vibrotactile_control_generic,"ax",%progbits
 1255              		.align	2
 1256              		.global	vibrotactile_control_generic
 1257              		.thumb
 1258              		.thumb_func
 1259              		.type	vibrotactile_control_generic, %function
 1260              	vibrotactile_control_generic:
 1261              	.LFB69:
 527:..\src/interruptions.c **** 
 528:..\src/interruptions.c **** 
 529:..\src/interruptions.c **** 
 530:..\src/interruptions.c **** 
 531:..\src/interruptions.c **** //==============================================================================
 532:..\src/interruptions.c **** //                                                  VIBROTACTILE CONTROL GENERIC
 533:..\src/interruptions.c **** //==============================================================================
 534:..\src/interruptions.c **** void vibrotactile_control_generic(uint8 idx) {
 1262              		.loc 1 534 0
 1263              		.cfi_startproc
 1264              		@ args = 0, pretend = 0, frame = 16
 1265              		@ frame_needed = 1, uses_anonymous_args = 0
 1266 0000 80B5     		push	{r7, lr}
 1267              		.cfi_def_cfa_offset 8
 1268              		.cfi_offset 7, -8
 1269              		.cfi_offset 14, -4
 1270 0002 84B0     		sub	sp, sp, #16
 1271              		.cfi_def_cfa_offset 24
 1272 0004 00AF     		add	r7, sp, #0
 1273              		.cfi_def_cfa_register 7
 1274 0006 0346     		mov	r3, r0
 1275 0008 FB71     		strb	r3, [r7, #7]
 535:..\src/interruptions.c ****    
 536:..\src/interruptions.c ****     int16 CYDATA pwm_input = 0;
 1276              		.loc 1 536 0
 1277 000a 0023     		movs	r3, #0
 1278 000c FB81     		strh	r3, [r7, #14]	@ movhi
 537:..\src/interruptions.c **** 
 538:..\src/interruptions.c ****     // Static Variables
 539:..\src/interruptions.c ****    
 540:..\src/interruptions.c ****     static CYBIT motor_dir[NUM_OF_VT_ACTUATORS]; 
 541:..\src/interruptions.c **** 
 542:..\src/interruptions.c ****     // ======================= UPDATE MOTOR REFERENCE ==========================            
 543:..\src/interruptions.c **** 
 544:..\src/interruptions.c ****     pwm_input = VT_ref[idx];
 1279              		.loc 1 544 0
 1280 000e FB79     		ldrb	r3, [r7, #7]	@ zero_extendqisi2
 1281 0010 294A     		ldr	r2, .L112
 1282 0012 D35C     		ldrb	r3, [r2, r3]	@ zero_extendqisi2
 1283 0014 FB81     		strh	r3, [r7, #14]	@ movhi
 545:..\src/interruptions.c **** 
 546:..\src/interruptions.c ****     if (pwm_input > 0) 
 1284              		.loc 1 546 0
ARM GAS  C:\Users\mgnocco\AppData\Local\Temp\ccpLUlHN.s 			page 34


 1285 0016 B7F90E30 		ldrsh	r3, [r7, #14]
 1286 001a 002B     		cmp	r3, #0
 1287 001c 04DD     		ble	.L100
 547:..\src/interruptions.c ****         motor_dir[idx] = TRUE;
 1288              		.loc 1 547 0
 1289 001e FB79     		ldrb	r3, [r7, #7]	@ zero_extendqisi2
 1290 0020 264A     		ldr	r2, .L112+4
 1291 0022 0121     		movs	r1, #1
 1292 0024 D154     		strb	r1, [r2, r3]
 1293 0026 03E0     		b	.L101
 1294              	.L100:
 548:..\src/interruptions.c ****     else 
 549:..\src/interruptions.c ****         motor_dir[idx] = FALSE;
 1295              		.loc 1 549 0
 1296 0028 FB79     		ldrb	r3, [r7, #7]	@ zero_extendqisi2
 1297 002a 244A     		ldr	r2, .L112+4
 1298 002c 0021     		movs	r1, #0
 1299 002e D154     		strb	r1, [r2, r3]
 1300              	.L101:
 550:..\src/interruptions.c ****         
 551:..\src/interruptions.c ****     if (pwm_input > PWM_MAX_VALUE_DC) 
 1301              		.loc 1 551 0
 1302 0030 B7F90E30 		ldrsh	r3, [r7, #14]
 1303 0034 642B     		cmp	r3, #100
 1304 0036 01DD     		ble	.L102
 552:..\src/interruptions.c ****         pwm_input = PWM_MAX_VALUE_DC;
 1305              		.loc 1 552 0
 1306 0038 6423     		movs	r3, #100
 1307 003a FB81     		strh	r3, [r7, #14]	@ movhi
 1308              	.L102:
 553:..\src/interruptions.c ****     if (pwm_input < - PWM_MAX_VALUE_DC) 
 1309              		.loc 1 553 0
 1310 003c B7F90E30 		ldrsh	r3, [r7, #14]
 1311 0040 13F1640F 		cmn	r3, #100
 1312 0044 02DA     		bge	.L103
 554:..\src/interruptions.c ****         pwm_input = - PWM_MAX_VALUE_DC;
 1313              		.loc 1 554 0
 1314 0046 4FF69C73 		movw	r3, #65436
 1315 004a FB81     		strh	r3, [r7, #14]	@ movhi
 1316              	.L103:
 555:..\src/interruptions.c ****      
 556:..\src/interruptions.c ****     // Set motor direction and write pwm value
 557:..\src/interruptions.c ****     switch (idx) {
 1317              		.loc 1 557 0
 1318 004c FB79     		ldrb	r3, [r7, #7]	@ zero_extendqisi2
 1319 004e 002B     		cmp	r3, #0
 1320 0050 02D0     		beq	.L105
 1321 0052 012B     		cmp	r3, #1
 1322 0054 16D0     		beq	.L106
 558:..\src/interruptions.c ****         case 0:         // Motor 1
 559:..\src/interruptions.c ****             if (motor_dir[idx])
 560:..\src/interruptions.c ****                 VT1_DIR_Write(0x00);
 561:..\src/interruptions.c ****             else
 562:..\src/interruptions.c ****                 VT1_DIR_Write(0x01);
 563:..\src/interruptions.c ****          
 564:..\src/interruptions.c ****                PWM_VT_WriteCompare1(abs(pwm_input));    
 565:..\src/interruptions.c ****             
ARM GAS  C:\Users\mgnocco\AppData\Local\Temp\ccpLUlHN.s 			page 35


 566:..\src/interruptions.c ****             break;
 567:..\src/interruptions.c ****         case 1:         // Motor 2
 568:..\src/interruptions.c ****             
 569:..\src/interruptions.c ****             if (motor_dir[idx])
 570:..\src/interruptions.c ****                 VT2_DIR_Write(0x00);          
 571:..\src/interruptions.c ****             else
 572:..\src/interruptions.c ****                 VT2_DIR_Write(0x01);
 573:..\src/interruptions.c ****             
 574:..\src/interruptions.c ****             PWM_VT_WriteCompare2(abs(pwm_input));    
 575:..\src/interruptions.c ****         break;
 576:..\src/interruptions.c ****     }
 577:..\src/interruptions.c ****        
 578:..\src/interruptions.c ****     
 579:..\src/interruptions.c **** }
 1323              		.loc 1 579 0
 1324 0056 2BE0     		b	.L111
 1325              	.L105:
 559:..\src/interruptions.c ****                 VT1_DIR_Write(0x00);
 1326              		.loc 1 559 0
 1327 0058 FB79     		ldrb	r3, [r7, #7]	@ zero_extendqisi2
 1328 005a 184A     		ldr	r2, .L112+4
 1329 005c D35C     		ldrb	r3, [r2, r3]	@ zero_extendqisi2
 1330 005e 002B     		cmp	r3, #0
 1331 0060 03D0     		beq	.L107
 560:..\src/interruptions.c ****             else
 1332              		.loc 1 560 0
 1333 0062 0020     		movs	r0, #0
 1334 0064 FFF7FEFF 		bl	VT1_DIR_Write
 1335 0068 02E0     		b	.L108
 1336              	.L107:
 562:..\src/interruptions.c ****          
 1337              		.loc 1 562 0
 1338 006a 0120     		movs	r0, #1
 1339 006c FFF7FEFF 		bl	VT1_DIR_Write
 1340              	.L108:
 564:..\src/interruptions.c ****             
 1341              		.loc 1 564 0
 1342 0070 B7F90E30 		ldrsh	r3, [r7, #14]
 1343 0074 002B     		cmp	r3, #0
 1344 0076 B8BF     		it	lt
 1345 0078 5B42     		rsblt	r3, r3, #0
 1346 007a 9BB2     		uxth	r3, r3
 1347 007c 1846     		mov	r0, r3
 1348 007e FFF7FEFF 		bl	PWM_VT_WriteCompare1
 566:..\src/interruptions.c ****         case 1:         // Motor 2
 1349              		.loc 1 566 0
 1350 0082 15E0     		b	.L104
 1351              	.L106:
 569:..\src/interruptions.c ****                 VT2_DIR_Write(0x00);          
 1352              		.loc 1 569 0
 1353 0084 FB79     		ldrb	r3, [r7, #7]	@ zero_extendqisi2
 1354 0086 0D4A     		ldr	r2, .L112+4
 1355 0088 D35C     		ldrb	r3, [r2, r3]	@ zero_extendqisi2
 1356 008a 002B     		cmp	r3, #0
 1357 008c 03D0     		beq	.L109
 570:..\src/interruptions.c ****             else
 1358              		.loc 1 570 0
ARM GAS  C:\Users\mgnocco\AppData\Local\Temp\ccpLUlHN.s 			page 36


 1359 008e 0020     		movs	r0, #0
 1360 0090 FFF7FEFF 		bl	VT2_DIR_Write
 1361 0094 02E0     		b	.L110
 1362              	.L109:
 572:..\src/interruptions.c ****             
 1363              		.loc 1 572 0
 1364 0096 0120     		movs	r0, #1
 1365 0098 FFF7FEFF 		bl	VT2_DIR_Write
 1366              	.L110:
 574:..\src/interruptions.c ****         break;
 1367              		.loc 1 574 0
 1368 009c B7F90E30 		ldrsh	r3, [r7, #14]
 1369 00a0 002B     		cmp	r3, #0
 1370 00a2 B8BF     		it	lt
 1371 00a4 5B42     		rsblt	r3, r3, #0
 1372 00a6 9BB2     		uxth	r3, r3
 1373 00a8 1846     		mov	r0, r3
 1374 00aa FFF7FEFF 		bl	PWM_VT_WriteCompare2
 575:..\src/interruptions.c ****     }
 1375              		.loc 1 575 0
 1376 00ae 00BF     		nop
 1377              	.L104:
 1378              	.L111:
 1379              		.loc 1 579 0
 1380 00b0 00BF     		nop
 1381 00b2 1037     		adds	r7, r7, #16
 1382              		.cfi_def_cfa_offset 8
 1383 00b4 BD46     		mov	sp, r7
 1384              		.cfi_def_cfa_register 13
 1385              		@ sp needed
 1386 00b6 80BD     		pop	{r7, pc}
 1387              	.L113:
 1388              		.align	2
 1389              	.L112:
 1390 00b8 00000000 		.word	VT_ref
 1391 00bc 90000000 		.word	motor_dir.9821
 1392              		.cfi_endproc
 1393              	.LFE69:
 1394              		.size	vibrotactile_control_generic, .-vibrotactile_control_generic
 1395              		.section	.text.encoder_reading_SPI,"ax",%progbits
 1396              		.align	2
 1397              		.global	encoder_reading_SPI
 1398              		.thumb
 1399              		.thumb_func
 1400              		.type	encoder_reading_SPI, %function
 1401              	encoder_reading_SPI:
 1402              	.LFB70:
 580:..\src/interruptions.c **** 
 581:..\src/interruptions.c **** //==============================================================================
 582:..\src/interruptions.c **** //                                                           ENCODER READING SPI
 583:..\src/interruptions.c **** //==============================================================================
 584:..\src/interruptions.c **** 
 585:..\src/interruptions.c **** void encoder_reading_SPI(uint8 n_line, uint8 assoc_motor) {
 1403              		.loc 1 585 0
 1404              		.cfi_startproc
 1405              		@ args = 0, pretend = 0, frame = 8
 1406              		@ frame_needed = 1, uses_anonymous_args = 0
ARM GAS  C:\Users\mgnocco\AppData\Local\Temp\ccpLUlHN.s 			page 37


 1407              		@ link register save eliminated.
 1408 0000 80B4     		push	{r7}
 1409              		.cfi_def_cfa_offset 4
 1410              		.cfi_offset 7, -4
 1411 0002 83B0     		sub	sp, sp, #12
 1412              		.cfi_def_cfa_offset 16
 1413 0004 00AF     		add	r7, sp, #0
 1414              		.cfi_def_cfa_register 7
 1415 0006 0346     		mov	r3, r0
 1416 0008 0A46     		mov	r2, r1
 1417 000a FB71     		strb	r3, [r7, #7]
 1418 000c 1346     		mov	r3, r2
 1419 000e BB71     		strb	r3, [r7, #6]
 586:..\src/interruptions.c **** 
 587:..\src/interruptions.c **** }
 1420              		.loc 1 587 0
 1421 0010 00BF     		nop
 1422 0012 0C37     		adds	r7, r7, #12
 1423              		.cfi_def_cfa_offset 4
 1424 0014 BD46     		mov	sp, r7
 1425              		.cfi_def_cfa_register 13
 1426              		@ sp needed
 1427 0016 80BC     		pop	{r7}
 1428              		.cfi_restore 7
 1429              		.cfi_def_cfa_offset 0
 1430 0018 7047     		bx	lr
 1431              		.cfi_endproc
 1432              	.LFE70:
 1433              		.size	encoder_reading_SPI, .-encoder_reading_SPI
 1434              		.global	__aeabi_f2iz
 1435              		.global	__aeabi_f2d
 1436              		.global	__aeabi_ddiv
 1437              		.global	__aeabi_dadd
 1438              		.global	__aeabi_i2d
 1439              		.global	__aeabi_dsub
 1440              		.global	__aeabi_d2iz
 1441 001a 00BF     		.section	.text.analog_read_end,"ax",%progbits
 1442              		.align	2
 1443              		.global	analog_read_end
 1444              		.thumb
 1445              		.thumb_func
 1446              		.type	analog_read_end, %function
 1447              	analog_read_end:
 1448              	.LFB71:
 588:..\src/interruptions.c **** 
 589:..\src/interruptions.c **** //==============================================================================
 590:..\src/interruptions.c **** //                                                           ANALOG MEASUREMENTS
 591:..\src/interruptions.c **** //==============================================================================
 592:..\src/interruptions.c **** 
 593:..\src/interruptions.c **** void analog_read_end() {
 1449              		.loc 1 593 0
 1450              		.cfi_startproc
 1451              		@ args = 0, pretend = 0, frame = 8
 1452              		@ frame_needed = 1, uses_anonymous_args = 0
 1453 0000 B0B5     		push	{r4, r5, r7, lr}
 1454              		.cfi_def_cfa_offset 16
 1455              		.cfi_offset 4, -16
ARM GAS  C:\Users\mgnocco\AppData\Local\Temp\ccpLUlHN.s 			page 38


 1456              		.cfi_offset 5, -12
 1457              		.cfi_offset 7, -8
 1458              		.cfi_offset 14, -4
 1459 0002 82B0     		sub	sp, sp, #8
 1460              		.cfi_def_cfa_offset 24
 1461 0004 00AF     		add	r7, sp, #0
 1462              		.cfi_def_cfa_register 7
 594:..\src/interruptions.c **** 
 595:..\src/interruptions.c ****     /* =========================================================================
 596:..\src/interruptions.c ****     /   Ideal formulation to calculate tension and current
 597:..\src/interruptions.c ****     /
 598:..\src/interruptions.c ****     /   tension = ((read_value_mV - offset) * 101) / gain -> [mV]
 599:..\src/interruptions.c ****     /   current = ((read_value_mV - offset) * 375) / (gain * resistor) -> [mA]
 600:..\src/interruptions.c ****     /
 601:..\src/interruptions.c ****     /   Definition:
 602:..\src/interruptions.c ****     /   read_value_mV = counts_read / 0.819 -> conversion from counts to mV
 603:..\src/interruptions.c ****     /   offset = 2000 -> hardware amplifier bias in mV
 604:..\src/interruptions.c ****     /   gain = 8.086 -> amplifier gain
 605:..\src/interruptions.c ****     /   resistor = 18 -> resistor of voltage divider in KOhm 
 606:..\src/interruptions.c ****     /
 607:..\src/interruptions.c ****     /   Real formulation: tradeoff in good performance and accurancy, ADC_buf[] 
 608:..\src/interruptions.c ****     /   and offset unit of measurement is counts, instead dev_tension and
 609:..\src/interruptions.c ****     /   g_meas.curr[] are converted in properly unit.
 610:..\src/interruptions.c ****     /  =========================================================================
 611:..\src/interruptions.c ****     */
 612:..\src/interruptions.c **** 
 613:..\src/interruptions.c ****     int32 CYDATA i_aux;
 614:..\src/interruptions.c ****     
 615:..\src/interruptions.c ****     static uint8 idx = 0;
 616:..\src/interruptions.c ****     
 617:..\src/interruptions.c ****     // Wait for conversion end
 618:..\src/interruptions.c ****     
 619:..\src/interruptions.c ****     while(!ADC_STATUS_Read()){
 1463              		.loc 1 619 0
 1464 0006 08E0     		b	.L116
 1465              	.L117:
 620:..\src/interruptions.c ****         
 621:..\src/interruptions.c ****         if (interrupt_flag){
 1466              		.loc 1 621 0
 1467 0008 754B     		ldr	r3, .L129+16
 1468 000a 1B78     		ldrb	r3, [r3]	@ zero_extendqisi2
 1469 000c 002B     		cmp	r3, #0
 1470 000e 04D0     		beq	.L116
 622:..\src/interruptions.c ****             interrupt_flag = FALSE;
 1471              		.loc 1 622 0
 1472 0010 734B     		ldr	r3, .L129+16
 1473 0012 0022     		movs	r2, #0
 1474 0014 1A70     		strb	r2, [r3]
 623:..\src/interruptions.c ****             interrupt_manager();
 1475              		.loc 1 623 0
 1476 0016 FFF7FEFF 		bl	interrupt_manager
 1477              	.L116:
 619:..\src/interruptions.c ****         
 1478              		.loc 1 619 0
 1479 001a FFF7FEFF 		bl	ADC_STATUS_Read
 1480 001e 0346     		mov	r3, r0
 1481 0020 002B     		cmp	r3, #0
ARM GAS  C:\Users\mgnocco\AppData\Local\Temp\ccpLUlHN.s 			page 39


 1482 0022 F1D0     		beq	.L117
 624:..\src/interruptions.c ****         }
 625:..\src/interruptions.c ****     }
 626:..\src/interruptions.c **** 
 627:..\src/interruptions.c **** 
 628:..\src/interruptions.c **** 
 629:..\src/interruptions.c ****         // Read pressure in any case
 630:..\src/interruptions.c ****         g_adc_meas.pressure  = (int32)(ADC_buf[0]);    //0 - 4096  
 1483              		.loc 1 630 0
 1484 0024 6F4B     		ldr	r3, .L129+20
 1485 0026 B3F90030 		ldrsh	r3, [r3]
 1486 002a 1846     		mov	r0, r3
 1487 002c FFF7FEFF 		bl	__aeabi_i2f
 1488 0030 0246     		mov	r2, r0
 1489 0032 6D4B     		ldr	r3, .L129+24
 1490 0034 9A60     		str	r2, [r3, #8]	@ float
 631:..\src/interruptions.c ****         pressure_value = g_adc_meas.pressure;
 1491              		.loc 1 631 0
 1492 0036 6C4B     		ldr	r3, .L129+24
 1493 0038 9B68     		ldr	r3, [r3, #8]	@ float
 1494 003a 1846     		mov	r0, r3
 1495 003c FFF7FEFF 		bl	__aeabi_f2iz
 1496 0040 0246     		mov	r2, r0
 1497 0042 6A4B     		ldr	r3, .L129+28
 1498 0044 1A60     		str	r2, [r3]
 632:..\src/interruptions.c ****         pressure_value =(((float)pressure_value/4096.0 + 0.00842)/0.002421) - atm_pressure;       /
 1499              		.loc 1 632 0
 1500 0046 694B     		ldr	r3, .L129+28
 1501 0048 1B68     		ldr	r3, [r3]
 1502 004a 1846     		mov	r0, r3
 1503 004c FFF7FEFF 		bl	__aeabi_i2f
 1504 0050 0346     		mov	r3, r0
 1505 0052 1846     		mov	r0, r3
 1506 0054 FFF7FEFF 		bl	__aeabi_f2d
 1507 0058 4FF00002 		mov	r2, #0
 1508 005c 644B     		ldr	r3, .L129+32
 1509 005e FFF7FEFF 		bl	__aeabi_ddiv
 1510 0062 0346     		mov	r3, r0
 1511 0064 0C46     		mov	r4, r1
 1512 0066 1846     		mov	r0, r3
 1513 0068 2146     		mov	r1, r4
 1514 006a 59A3     		adr	r3, .L129
 1515 006c D3E90023 		ldrd	r2, [r3]
 1516 0070 FFF7FEFF 		bl	__aeabi_dadd
 1517 0074 0346     		mov	r3, r0
 1518 0076 0C46     		mov	r4, r1
 1519 0078 1846     		mov	r0, r3
 1520 007a 2146     		mov	r1, r4
 1521 007c 56A3     		adr	r3, .L129+8
 1522 007e D3E90023 		ldrd	r2, [r3]
 1523 0082 FFF7FEFF 		bl	__aeabi_ddiv
 1524 0086 0346     		mov	r3, r0
 1525 0088 0C46     		mov	r4, r1
 1526 008a 2546     		mov	r5, r4
 1527 008c 1C46     		mov	r4, r3
 1528 008e 594B     		ldr	r3, .L129+36
 1529 0090 1B68     		ldr	r3, [r3]
ARM GAS  C:\Users\mgnocco\AppData\Local\Temp\ccpLUlHN.s 			page 40


 1530 0092 1846     		mov	r0, r3
 1531 0094 FFF7FEFF 		bl	__aeabi_i2d
 1532 0098 0246     		mov	r2, r0
 1533 009a 0B46     		mov	r3, r1
 1534 009c 2046     		mov	r0, r4
 1535 009e 2946     		mov	r1, r5
 1536 00a0 FFF7FEFF 		bl	__aeabi_dsub
 1537 00a4 0346     		mov	r3, r0
 1538 00a6 0C46     		mov	r4, r1
 1539 00a8 1846     		mov	r0, r3
 1540 00aa 2146     		mov	r1, r4
 1541 00ac FFF7FEFF 		bl	__aeabi_d2iz
 1542 00b0 0246     		mov	r2, r0
 1543 00b2 4E4B     		ldr	r3, .L129+28
 1544 00b4 1A60     		str	r2, [r3]
 633:..\src/interruptions.c ****     
 634:..\src/interruptions.c ****         if (pressure_value < 0) 
 1545              		.loc 1 634 0
 1546 00b6 4D4B     		ldr	r3, .L129+28
 1547 00b8 1B68     		ldr	r3, [r3]
 1548 00ba 002B     		cmp	r3, #0
 1549 00bc 02DA     		bge	.L118
 635:..\src/interruptions.c ****             pressure_value = 0;
 1550              		.loc 1 635 0
 1551 00be 4B4B     		ldr	r3, .L129+28
 1552 00c0 0022     		movs	r2, #0
 1553 00c2 1A60     		str	r2, [r3]
 1554              	.L118:
 636:..\src/interruptions.c ****             
 637:..\src/interruptions.c ****         // Reset emg
 638:..\src/interruptions.c ****         for (idx = 0; idx < NUM_OF_INPUT_EMGS; idx++){
 1555              		.loc 1 638 0
 1556 00c4 4C4B     		ldr	r3, .L129+40
 1557 00c6 0022     		movs	r2, #0
 1558 00c8 1A70     		strb	r2, [r3]
 1559 00ca 0CE0     		b	.L119
 1560              	.L120:
 639:..\src/interruptions.c ****             g_adc_meas.emg[idx] = 0;
 1561              		.loc 1 639 0 discriminator 3
 1562 00cc 4A4B     		ldr	r3, .L129+40
 1563 00ce 1B78     		ldrb	r3, [r3]	@ zero_extendqisi2
 1564 00d0 1946     		mov	r1, r3
 1565 00d2 454B     		ldr	r3, .L129+24
 1566 00d4 0022     		movs	r2, #0
 1567 00d6 43F82120 		str	r2, [r3, r1, lsl #2]
 638:..\src/interruptions.c ****             g_adc_meas.emg[idx] = 0;
 1568              		.loc 1 638 0 discriminator 3
 1569 00da 474B     		ldr	r3, .L129+40
 1570 00dc 1B78     		ldrb	r3, [r3]	@ zero_extendqisi2
 1571 00de 0133     		adds	r3, r3, #1
 1572 00e0 DAB2     		uxtb	r2, r3
 1573 00e2 454B     		ldr	r3, .L129+40
 1574 00e4 1A70     		strb	r2, [r3]
 1575              	.L119:
 638:..\src/interruptions.c ****             g_adc_meas.emg[idx] = 0;
 1576              		.loc 1 638 0 is_stmt 0 discriminator 1
 1577 00e6 444B     		ldr	r3, .L129+40
ARM GAS  C:\Users\mgnocco\AppData\Local\Temp\ccpLUlHN.s 			page 41


 1578 00e8 1B78     		ldrb	r3, [r3]	@ zero_extendqisi2
 1579 00ea 012B     		cmp	r3, #1
 1580 00ec EED9     		bls	.L120
 640:..\src/interruptions.c ****         }
 641:..\src/interruptions.c ****          
 642:..\src/interruptions.c ****         // Read EMG channel 1
 643:..\src/interruptions.c ****         i_aux = 0;  
 1581              		.loc 1 643 0 is_stmt 1
 1582 00ee 0023     		movs	r3, #0
 1583 00f0 7B60     		str	r3, [r7, #4]
 644:..\src/interruptions.c ****         i_aux = (int32)(ADC_buf[1 + c_mem.emg.switch_emg]);
 1584              		.loc 1 644 0
 1585 00f2 424B     		ldr	r3, .L129+44
 1586 00f4 93F83E30 		ldrb	r3, [r3, #62]	@ zero_extendqisi2
 1587 00f8 0133     		adds	r3, r3, #1
 1588 00fa 3A4A     		ldr	r2, .L129+20
 1589 00fc 32F91330 		ldrsh	r3, [r2, r3, lsl #1]
 1590 0100 7B60     		str	r3, [r7, #4]
 645:..\src/interruptions.c ****         if (i_aux < 0) 
 1591              		.loc 1 645 0
 1592 0102 7B68     		ldr	r3, [r7, #4]
 1593 0104 002B     		cmp	r3, #0
 1594 0106 01DA     		bge	.L121
 646:..\src/interruptions.c ****             i_aux = 0;
 1595              		.loc 1 646 0
 1596 0108 0023     		movs	r3, #0
 1597 010a 7B60     		str	r3, [r7, #4]
 1598              	.L121:
 647:..\src/interruptions.c ****         i_aux = filter(i_aux, &filt_emg[0]);
 1599              		.loc 1 647 0
 1600 010c 3C49     		ldr	r1, .L129+48
 1601 010e 7868     		ldr	r0, [r7, #4]
 1602 0110 FFF7FEFF 		bl	filter
 1603 0114 7860     		str	r0, [r7, #4]
 648:..\src/interruptions.c ****         i_aux = (i_aux << 10) / g_mem.emg.emg_max_value[0];
 1604              		.loc 1 648 0
 1605 0116 7B68     		ldr	r3, [r7, #4]
 1606 0118 9B02     		lsls	r3, r3, #10
 1607 011a 1A46     		mov	r2, r3
 1608 011c 394B     		ldr	r3, .L129+52
 1609 011e 5B6B     		ldr	r3, [r3, #52]
 1610 0120 B2FBF3F3 		udiv	r3, r2, r3
 1611 0124 7B60     		str	r3, [r7, #4]
 649:..\src/interruptions.c **** 
 650:..\src/interruptions.c ****         if (interrupt_flag){
 1612              		.loc 1 650 0
 1613 0126 2E4B     		ldr	r3, .L129+16
 1614 0128 1B78     		ldrb	r3, [r3]	@ zero_extendqisi2
 1615 012a 002B     		cmp	r3, #0
 1616 012c 04D0     		beq	.L122
 651:..\src/interruptions.c ****             interrupt_flag = FALSE;
 1617              		.loc 1 651 0
 1618 012e 2C4B     		ldr	r3, .L129+16
 1619 0130 0022     		movs	r2, #0
 1620 0132 1A70     		strb	r2, [r3]
 652:..\src/interruptions.c ****             interrupt_manager();
 1621              		.loc 1 652 0
ARM GAS  C:\Users\mgnocco\AppData\Local\Temp\ccpLUlHN.s 			page 42


 1622 0134 FFF7FEFF 		bl	interrupt_manager
 1623              	.L122:
 653:..\src/interruptions.c ****         }
 654:..\src/interruptions.c ****         
 655:..\src/interruptions.c ****         //Saturation
 656:..\src/interruptions.c ****         if (i_aux < 0) 
 1624              		.loc 1 656 0
 1625 0138 7B68     		ldr	r3, [r7, #4]
 1626 013a 002B     		cmp	r3, #0
 1627 013c 02DA     		bge	.L123
 657:..\src/interruptions.c ****             i_aux = 0;
 1628              		.loc 1 657 0
 1629 013e 0023     		movs	r3, #0
 1630 0140 7B60     		str	r3, [r7, #4]
 1631 0142 06E0     		b	.L124
 1632              	.L123:
 658:..\src/interruptions.c ****         else 
 659:..\src/interruptions.c ****             if (i_aux > 1024)
 1633              		.loc 1 659 0
 1634 0144 7B68     		ldr	r3, [r7, #4]
 1635 0146 B3F5806F 		cmp	r3, #1024
 1636 014a 02DD     		ble	.L124
 660:..\src/interruptions.c ****                 i_aux = 1024;
 1637              		.loc 1 660 0
 1638 014c 4FF48063 		mov	r3, #1024
 1639 0150 7B60     		str	r3, [r7, #4]
 1640              	.L124:
 661:..\src/interruptions.c ****         
 662:..\src/interruptions.c ****         g_adc_meas.emg[0] = i_aux;
 1641              		.loc 1 662 0
 1642 0152 254A     		ldr	r2, .L129+24
 1643 0154 7B68     		ldr	r3, [r7, #4]
 1644 0156 1360     		str	r3, [r2]
 663:..\src/interruptions.c ****         
 664:..\src/interruptions.c ****         // Read EMG channel 2
 665:..\src/interruptions.c ****         i_aux = 0;  
 1645              		.loc 1 665 0
 1646 0158 0023     		movs	r3, #0
 1647 015a 7B60     		str	r3, [r7, #4]
 666:..\src/interruptions.c ****         i_aux = (int32)(ADC_buf[2 - c_mem.emg.switch_emg]);
 1648              		.loc 1 666 0
 1649 015c 274B     		ldr	r3, .L129+44
 1650 015e 93F83E30 		ldrb	r3, [r3, #62]	@ zero_extendqisi2
 1651 0162 C3F10203 		rsb	r3, r3, #2
 1652 0166 1F4A     		ldr	r2, .L129+20
 1653 0168 32F91330 		ldrsh	r3, [r2, r3, lsl #1]
 1654 016c 7B60     		str	r3, [r7, #4]
 667:..\src/interruptions.c ****         
 668:..\src/interruptions.c ****         if (i_aux < 0)
 1655              		.loc 1 668 0
 1656 016e 7B68     		ldr	r3, [r7, #4]
 1657 0170 002B     		cmp	r3, #0
 1658 0172 01DA     		bge	.L125
 669:..\src/interruptions.c ****             i_aux = 0;
 1659              		.loc 1 669 0
 1660 0174 0023     		movs	r3, #0
 1661 0176 7B60     		str	r3, [r7, #4]
ARM GAS  C:\Users\mgnocco\AppData\Local\Temp\ccpLUlHN.s 			page 43


 1662              	.L125:
 670:..\src/interruptions.c ****         i_aux = filter(i_aux, &filt_emg[1]);
 1663              		.loc 1 670 0
 1664 0178 2349     		ldr	r1, .L129+56
 1665 017a 7868     		ldr	r0, [r7, #4]
 1666 017c FFF7FEFF 		bl	filter
 1667 0180 7860     		str	r0, [r7, #4]
 671:..\src/interruptions.c ****         i_aux = (i_aux << 10) / g_mem.emg.emg_max_value[1];
 1668              		.loc 1 671 0
 1669 0182 7B68     		ldr	r3, [r7, #4]
 1670 0184 9B02     		lsls	r3, r3, #10
 1671 0186 1A46     		mov	r2, r3
 1672 0188 1E4B     		ldr	r3, .L129+52
 1673 018a 9B6B     		ldr	r3, [r3, #56]
 1674 018c B2FBF3F3 		udiv	r3, r2, r3
 1675 0190 7B60     		str	r3, [r7, #4]
 672:..\src/interruptions.c **** 
 673:..\src/interruptions.c ****         if (interrupt_flag){
 1676              		.loc 1 673 0
 1677 0192 134B     		ldr	r3, .L129+16
 1678 0194 1B78     		ldrb	r3, [r3]	@ zero_extendqisi2
 1679 0196 002B     		cmp	r3, #0
 1680 0198 04D0     		beq	.L126
 674:..\src/interruptions.c ****             interrupt_flag = FALSE;
 1681              		.loc 1 674 0
 1682 019a 114B     		ldr	r3, .L129+16
 1683 019c 0022     		movs	r2, #0
 1684 019e 1A70     		strb	r2, [r3]
 675:..\src/interruptions.c ****             interrupt_manager();
 1685              		.loc 1 675 0
 1686 01a0 FFF7FEFF 		bl	interrupt_manager
 1687              	.L126:
 676:..\src/interruptions.c ****         }
 677:..\src/interruptions.c ****         
 678:..\src/interruptions.c ****         if (i_aux < 0) 
 1688              		.loc 1 678 0
 1689 01a4 7B68     		ldr	r3, [r7, #4]
 1690 01a6 002B     		cmp	r3, #0
 1691 01a8 02DA     		bge	.L127
 679:..\src/interruptions.c ****             i_aux = 0;
 1692              		.loc 1 679 0
 1693 01aa 0023     		movs	r3, #0
 1694 01ac 7B60     		str	r3, [r7, #4]
 1695 01ae 06E0     		b	.L128
 1696              	.L127:
 680:..\src/interruptions.c ****         else 
 681:..\src/interruptions.c ****             if (i_aux > 1024)
 1697              		.loc 1 681 0
 1698 01b0 7B68     		ldr	r3, [r7, #4]
 1699 01b2 B3F5806F 		cmp	r3, #1024
 1700 01b6 02DD     		ble	.L128
 682:..\src/interruptions.c ****                 i_aux = 1024;
 1701              		.loc 1 682 0
 1702 01b8 4FF48063 		mov	r3, #1024
 1703 01bc 7B60     		str	r3, [r7, #4]
 1704              	.L128:
 683:..\src/interruptions.c ****        
ARM GAS  C:\Users\mgnocco\AppData\Local\Temp\ccpLUlHN.s 			page 44


 684:..\src/interruptions.c ****         g_adc_meas.emg[1] = i_aux;
 1705              		.loc 1 684 0
 1706 01be 0A4A     		ldr	r2, .L129+24
 1707 01c0 7B68     		ldr	r3, [r7, #4]
 1708 01c2 5360     		str	r3, [r2, #4]
 685:..\src/interruptions.c ****     
 686:..\src/interruptions.c **** }
 1709              		.loc 1 686 0
 1710 01c4 00BF     		nop
 1711 01c6 0837     		adds	r7, r7, #8
 1712              		.cfi_def_cfa_offset 16
 1713 01c8 BD46     		mov	sp, r7
 1714              		.cfi_def_cfa_register 13
 1715              		@ sp needed
 1716 01ca B0BD     		pop	{r4, r5, r7, pc}
 1717              	.L130:
 1718 01cc AFF30080 		.align	3
 1719              	.L129:
 1720 01d0 CAFD0E45 		.word	1158610378
 1721 01d4 813E813F 		.word	1065434753
 1722 01d8 F10F5B7A 		.word	2052788209
 1723 01dc 34D5633F 		.word	1063507252
 1724 01e0 00000000 		.word	interrupt_flag
 1725 01e4 00000000 		.word	ADC_buf
 1726 01e8 00000000 		.word	g_adc_meas
 1727 01ec 00000000 		.word	pressure_value
 1728 01f0 0000B040 		.word	1085276160
 1729 01f4 00000000 		.word	atm_pressure
 1730 01f8 92000000 		.word	idx.9832
 1731 01fc 00000000 		.word	c_mem
 1732 0200 00000000 		.word	filt_emg
 1733 0204 00000000 		.word	g_mem
 1734 0208 08000000 		.word	filt_emg+8
 1735              		.cfi_endproc
 1736              	.LFE71:
 1737              		.size	analog_read_end, .-analog_read_end
 1738              		.section	.text.overcurrent_control,"ax",%progbits
 1739              		.align	2
 1740              		.global	overcurrent_control
 1741              		.thumb
 1742              		.thumb_func
 1743              		.type	overcurrent_control, %function
 1744              	overcurrent_control:
 1745              	.LFB72:
 687:..\src/interruptions.c **** 
 688:..\src/interruptions.c **** //==============================================================================
 689:..\src/interruptions.c **** //                                                           OVERCURRENT CONTROL
 690:..\src/interruptions.c **** //==============================================================================
 691:..\src/interruptions.c **** 
 692:..\src/interruptions.c **** void overcurrent_control() {
 1746              		.loc 1 692 0
 1747              		.cfi_startproc
 1748              		@ args = 0, pretend = 0, frame = 0
 1749              		@ frame_needed = 1, uses_anonymous_args = 0
 1750              		@ link register save eliminated.
 1751 0000 80B4     		push	{r7}
 1752              		.cfi_def_cfa_offset 4
ARM GAS  C:\Users\mgnocco\AppData\Local\Temp\ccpLUlHN.s 			page 45


 1753              		.cfi_offset 7, -4
 1754 0002 00AF     		add	r7, sp, #0
 1755              		.cfi_def_cfa_register 7
 693:..\src/interruptions.c ****     
 694:..\src/interruptions.c **** }
 1756              		.loc 1 694 0
 1757 0004 00BF     		nop
 1758 0006 BD46     		mov	sp, r7
 1759              		.cfi_def_cfa_register 13
 1760              		@ sp needed
 1761 0008 80BC     		pop	{r7}
 1762              		.cfi_restore 7
 1763              		.cfi_def_cfa_offset 0
 1764 000a 7047     		bx	lr
 1765              		.cfi_endproc
 1766              	.LFE72:
 1767              		.size	overcurrent_control, .-overcurrent_control
 1768              		.section	.text.pwm_limit_search,"ax",%progbits
 1769              		.align	2
 1770              		.global	pwm_limit_search
 1771              		.thumb
 1772              		.thumb_func
 1773              		.type	pwm_limit_search, %function
 1774              	pwm_limit_search:
 1775              	.LFB73:
 695:..\src/interruptions.c **** 
 696:..\src/interruptions.c **** //==============================================================================
 697:..\src/interruptions.c **** //                                                              PWM_LIMIT_SEARCH
 698:..\src/interruptions.c **** //==============================================================================
 699:..\src/interruptions.c **** 
 700:..\src/interruptions.c **** void pwm_limit_search(uint8 mot_idx) {
 1776              		.loc 1 700 0
 1777              		.cfi_startproc
 1778              		@ args = 0, pretend = 0, frame = 8
 1779              		@ frame_needed = 1, uses_anonymous_args = 0
 1780              		@ link register save eliminated.
 1781 0000 80B4     		push	{r7}
 1782              		.cfi_def_cfa_offset 4
 1783              		.cfi_offset 7, -4
 1784 0002 83B0     		sub	sp, sp, #12
 1785              		.cfi_def_cfa_offset 16
 1786 0004 00AF     		add	r7, sp, #0
 1787              		.cfi_def_cfa_register 7
 1788 0006 0346     		mov	r3, r0
 1789 0008 FB71     		strb	r3, [r7, #7]
 701:..\src/interruptions.c **** 
 702:..\src/interruptions.c **** }
 1790              		.loc 1 702 0
 1791 000a 00BF     		nop
 1792 000c 0C37     		adds	r7, r7, #12
 1793              		.cfi_def_cfa_offset 4
 1794 000e BD46     		mov	sp, r7
 1795              		.cfi_def_cfa_register 13
 1796              		@ sp needed
 1797 0010 80BC     		pop	{r7}
 1798              		.cfi_restore 7
 1799              		.cfi_def_cfa_offset 0
ARM GAS  C:\Users\mgnocco\AppData\Local\Temp\ccpLUlHN.s 			page 46


 1800 0012 7047     		bx	lr
 1801              		.cfi_endproc
 1802              	.LFE73:
 1803              		.size	pwm_limit_search, .-pwm_limit_search
 1804              		.section	.text.cycles_counter_update,"ax",%progbits
 1805              		.align	2
 1806              		.global	cycles_counter_update
 1807              		.thumb
 1808              		.thumb_func
 1809              		.type	cycles_counter_update, %function
 1810              	cycles_counter_update:
 1811              	.LFB74:
 703:..\src/interruptions.c **** 
 704:..\src/interruptions.c **** //==============================================================================
 705:..\src/interruptions.c **** //                                                         CYCLES COUNTER UPDATE
 706:..\src/interruptions.c **** //==============================================================================
 707:..\src/interruptions.c **** 
 708:..\src/interruptions.c **** void cycles_counter_update() {
 1812              		.loc 1 708 0
 1813              		.cfi_startproc
 1814              		@ args = 0, pretend = 0, frame = 0
 1815              		@ frame_needed = 1, uses_anonymous_args = 0
 1816              		@ link register save eliminated.
 1817 0000 80B4     		push	{r7}
 1818              		.cfi_def_cfa_offset 4
 1819              		.cfi_offset 7, -4
 1820 0002 00AF     		add	r7, sp, #0
 1821              		.cfi_def_cfa_register 7
 709:..\src/interruptions.c **** 	
 710:..\src/interruptions.c **** }
 1822              		.loc 1 710 0
 1823 0004 00BF     		nop
 1824 0006 BD46     		mov	sp, r7
 1825              		.cfi_def_cfa_register 13
 1826              		@ sp needed
 1827 0008 80BC     		pop	{r7}
 1828              		.cfi_restore 7
 1829              		.cfi_def_cfa_offset 0
 1830 000a 7047     		bx	lr
 1831              		.cfi_endproc
 1832              	.LFE74:
 1833              		.size	cycles_counter_update, .-cycles_counter_update
 1834              		.section	.text.save_cycles_eeprom,"ax",%progbits
 1835              		.align	2
 1836              		.global	save_cycles_eeprom
 1837              		.thumb
 1838              		.thumb_func
 1839              		.type	save_cycles_eeprom, %function
 1840              	save_cycles_eeprom:
 1841              	.LFB75:
 711:..\src/interruptions.c **** 
 712:..\src/interruptions.c **** //==============================================================================
 713:..\src/interruptions.c **** //                                                            SAVE CYCLES EEPROM
 714:..\src/interruptions.c **** //==============================================================================
 715:..\src/interruptions.c **** 
 716:..\src/interruptions.c **** void save_cycles_eeprom() {
 1842              		.loc 1 716 0
ARM GAS  C:\Users\mgnocco\AppData\Local\Temp\ccpLUlHN.s 			page 47


 1843              		.cfi_startproc
 1844              		@ args = 0, pretend = 0, frame = 0
 1845              		@ frame_needed = 1, uses_anonymous_args = 0
 1846              		@ link register save eliminated.
 1847 0000 80B4     		push	{r7}
 1848              		.cfi_def_cfa_offset 4
 1849              		.cfi_offset 7, -4
 1850 0002 00AF     		add	r7, sp, #0
 1851              		.cfi_def_cfa_register 7
 717:..\src/interruptions.c **** 
 718:..\src/interruptions.c **** }
 1852              		.loc 1 718 0
 1853 0004 00BF     		nop
 1854 0006 BD46     		mov	sp, r7
 1855              		.cfi_def_cfa_register 13
 1856              		@ sp needed
 1857 0008 80BC     		pop	{r7}
 1858              		.cfi_restore 7
 1859              		.cfi_def_cfa_offset 0
 1860 000a 7047     		bx	lr
 1861              		.cfi_endproc
 1862              	.LFE75:
 1863              		.size	save_cycles_eeprom, .-save_cycles_eeprom
 1864              		.bss
 1865              	state.9774:
 1866 0000 00       		.space	1
 1867 0001 000000   		.align	2
 1868              	rx_queue.9778:
 1869 0004 000000   		.space	3
 1870              	data_packet_length.9776:
 1871 0007 00       		.space	1
 1872              	data_packet_index.9775:
 1873 0008 00       		.space	1
 1874 0009 000000   		.align	2
 1875              	data_packet_buffer.9777:
 1876 000c 00000000 		.space	128
 1876      00000000 
 1876      00000000 
 1876      00000000 
 1876      00000000 
 1877              	current_emg.9799:
 1878 008c 00       		.space	1
 1879 008d 000000   		.align	2
 1880              	motor_dir.9821:
 1881 0090 0000     		.space	2
 1882              	idx.9832:
 1883 0092 00       		.space	1
 1884              		.text
 1885              	.Letext0:
 1886              		.file 2 "c:\\program files (x86)\\cypress\\psoc creator\\4.4\\psoc creator\\import\\gnu\\arm\\5.4.
 1887              		.file 3 "c:\\program files (x86)\\cypress\\psoc creator\\4.4\\psoc creator\\import\\gnu\\arm\\5.4.
 1888              		.file 4 "Generated_Source\\PSoC5/cytypes.h"
 1889              		.file 5 "..\\src\\globals.h"
 1890              		.file 6 "Generated_Source\\PSoC5/core_cm3.h"
 1891              		.file 7 "..\\src\\commands.h"