ARM GAS  C:\Users\mgnocco\AppData\Local\Temp\ccga5MX6.s 			page 1


   1              		.syntax unified
   2              		.cpu cortex-m3
   3              		.fpu softvfp
   4              		.eabi_attribute 20, 1
   5              		.eabi_attribute 21, 1
   6              		.eabi_attribute 23, 3
   7              		.eabi_attribute 24, 1
   8              		.eabi_attribute 25, 1
   9              		.eabi_attribute 26, 1
  10              		.eabi_attribute 30, 6
  11              		.eabi_attribute 34, 1
  12              		.eabi_attribute 18, 4
  13              		.thumb
  14              		.syntax unified
  15              		.file	"command_processing.c"
  16              		.text
  17              	.Ltext0:
  18              		.cfi_sections	.debug_frame
  19              		.global	EEPROM_ADDR
  20              		.data
  21              		.align	2
  22              		.type	EEPROM_ADDR, %object
  23              		.size	EEPROM_ADDR, 4
  24              	EEPROM_ADDR:
  25 0000 00800040 		.word	1073774592
  26              		.section	.text.commProcess,"ax",%progbits
  27              		.align	2
  28              		.global	commProcess
  29              		.thumb
  30              		.thumb_func
  31              		.type	commProcess, %function
  32              	commProcess:
  33              	.LFB64:
  34              		.file 1 "..\\src\\command_processing.c"
   1:..\src/command_processing.c **** // ----------------------------------------------------------------------------
   2:..\src/command_processing.c **** // BSD 3-Clause License
   3:..\src/command_processing.c **** 
   4:..\src/command_processing.c **** // Copyright (c) 2016, qbrobotics
   5:..\src/command_processing.c **** // Copyright (c) 2017-2020, Centro "E.Piaggio"
   6:..\src/command_processing.c **** // All rights reserved.
   7:..\src/command_processing.c **** 
   8:..\src/command_processing.c **** // Redistribution and use in source and binary forms, with or without
   9:..\src/command_processing.c **** // modification, are permitted provided that the following conditions are met:
  10:..\src/command_processing.c **** 
  11:..\src/command_processing.c **** // * Redistributions of source code must retain the above copyright notice, this
  12:..\src/command_processing.c **** //   list of conditions and the following disclaimer.
  13:..\src/command_processing.c **** 
  14:..\src/command_processing.c **** // * Redistributions in binary form must reproduce the above copyright notice,
  15:..\src/command_processing.c **** //   this list of conditions and the following disclaimer in the documentation
  16:..\src/command_processing.c **** //   and/or other materials provided with the distribution.
  17:..\src/command_processing.c **** 
  18:..\src/command_processing.c **** // * Neither the name of the copyright holder nor the names of its
  19:..\src/command_processing.c **** //   contributors may be used to endorse or promote products derived from
  20:..\src/command_processing.c **** //   this software without specific prior written permission.
  21:..\src/command_processing.c **** 
  22:..\src/command_processing.c **** // THIS SOFTWARE IS PROVIDED BY THE COPYRIGHT HOLDERS AND CONTRIBUTORS "AS IS"
  23:..\src/command_processing.c **** // AND ANY EXPRESS OR IMPLIED WARRANTIES, INCLUDING, BUT NOT LIMITED TO, THE
ARM GAS  C:\Users\mgnocco\AppData\Local\Temp\ccga5MX6.s 			page 2


  24:..\src/command_processing.c **** // IMPLIED WARRANTIES OF MERCHANTABILITY AND FITNESS FOR A PARTICULAR PURPOSE ARE
  25:..\src/command_processing.c **** // DISCLAIMED. IN NO EVENT SHALL THE COPYRIGHT HOLDER OR CONTRIBUTORS BE LIABLE
  26:..\src/command_processing.c **** // FOR ANY DIRECT, INDIRECT, INCIDENTAL, SPECIAL, EXEMPLARY, OR CONSEQUENTIAL
  27:..\src/command_processing.c **** // DAMAGES (INCLUDING, BUT NOT LIMITED TO, PROCUREMENT OF SUBSTITUTE GOODS OR
  28:..\src/command_processing.c **** // SERVICES; LOSS OF USE, DATA, OR PROFITS; OR BUSINESS INTERRUPTION) HOWEVER
  29:..\src/command_processing.c **** // CAUSED AND ON ANY THEORY OF LIABILITY, WHETHER IN CONTRACT, STRICT LIABILITY,
  30:..\src/command_processing.c **** // OR TORT (INCLUDING NEGLIGENCE OR OTHERWISE) ARISING IN ANY WAY OUT OF THE USE
  31:..\src/command_processing.c **** // OF THIS SOFTWARE, EVEN IF ADVISED OF THE POSSIBILITY OF SUCH DAMAGE.
  32:..\src/command_processing.c **** // POSSIBILITY OF SUCH DAMAGE.
  33:..\src/command_processing.c **** // ----------------------------------------------------------------------------
  34:..\src/command_processing.c **** 
  35:..\src/command_processing.c **** 
  36:..\src/command_processing.c **** /**
  37:..\src/command_processing.c **** * \file         command_processing.c
  38:..\src/command_processing.c **** *
  39:..\src/command_processing.c **** 
  40:..\src/command_processing.c **** * \brief        Command processing functions.
  41:..\src/command_processing.c **** * \date         March 20th, 2020
  42:..\src/command_processing.c **** * \author       _Centro "E.Piaggio"_
  43:..\src/command_processing.c **** * \copyright    (C) 2012-2016 qbrobotics. All rights reserved.
  44:..\src/command_processing.c **** * \copyright    (C) 2017-2020 Centro "E.Piaggio". All rights reserved.
  45:..\src/command_processing.c **** */
  46:..\src/command_processing.c **** //=================================================================     includes
  47:..\src/command_processing.c **** #include "command_processing.h"
  48:..\src/command_processing.c **** 
  49:..\src/command_processing.c **** //================================================================     variables
  50:..\src/command_processing.c **** 
  51:..\src/command_processing.c **** reg8 * EEPROM_ADDR = (reg8 *) CYDEV_EE_BASE;
  52:..\src/command_processing.c **** 
  53:..\src/command_processing.c **** //==============================================================================
  54:..\src/command_processing.c **** //                                                            RX DATA PROCESSING
  55:..\src/command_processing.c **** //==============================================================================
  56:..\src/command_processing.c **** //  This function checks for the availability of a data packet and process it:
  57:..\src/command_processing.c **** //      - Verify checksum;
  58:..\src/command_processing.c **** //      - Process commands;
  59:..\src/command_processing.c **** //==============================================================================
  60:..\src/command_processing.c **** 
  61:..\src/command_processing.c **** void commProcess(void){
  35              		.loc 1 61 0
  36              		.cfi_startproc
  37              		@ args = 0, pretend = 0, frame = 48
  38              		@ frame_needed = 1, uses_anonymous_args = 0
  39 0000 80B5     		push	{r7, lr}
  40              		.cfi_def_cfa_offset 8
  41              		.cfi_offset 7, -8
  42              		.cfi_offset 14, -4
  43 0002 8CB0     		sub	sp, sp, #48
  44              		.cfi_def_cfa_offset 56
  45 0004 00AF     		add	r7, sp, #0
  46              		.cfi_def_cfa_register 7
  62:..\src/command_processing.c **** 
  63:..\src/command_processing.c ****     uint8 CYDATA rx_cmd;
  64:..\src/command_processing.c ****     rx_cmd = g_rx.buffer[0];
  47              		.loc 1 64 0
  48 0006 E44B     		ldr	r3, .L53
  49 0008 1B78     		ldrb	r3, [r3]
  50 000a 87F82F30 		strb	r3, [r7, #47]
ARM GAS  C:\Users\mgnocco\AppData\Local\Temp\ccga5MX6.s 			page 3


  65:..\src/command_processing.c **** 
  66:..\src/command_processing.c **** //==========================================================     verify checksum
  67:..\src/command_processing.c **** 
  68:..\src/command_processing.c ****     if (!(LCRChecksum(g_rx.buffer, g_rx.length - 1) == g_rx.buffer[g_rx.length - 1])){
  51              		.loc 1 68 0
  52 000e E24B     		ldr	r3, .L53
  53 0010 B3F98030 		ldrsh	r3, [r3, #128]
  54 0014 DBB2     		uxtb	r3, r3
  55 0016 013B     		subs	r3, r3, #1
  56 0018 DBB2     		uxtb	r3, r3
  57 001a 1946     		mov	r1, r3
  58 001c DE48     		ldr	r0, .L53
  59 001e FFF7FEFF 		bl	LCRChecksum
  60 0022 0346     		mov	r3, r0
  61 0024 1946     		mov	r1, r3
  62 0026 DC4B     		ldr	r3, .L53
  63 0028 B3F98030 		ldrsh	r3, [r3, #128]
  64 002c 013B     		subs	r3, r3, #1
  65 002e DA4A     		ldr	r2, .L53
  66 0030 D35C     		ldrb	r3, [r2, r3]	@ zero_extendqisi2
  67 0032 9942     		cmp	r1, r3
  68 0034 04D0     		beq	.L2
  69:..\src/command_processing.c ****         // Wrong checksum
  70:..\src/command_processing.c ****         g_rx.ready = 0;
  69              		.loc 1 70 0
  70 0036 D84B     		ldr	r3, .L53
  71 0038 0022     		movs	r2, #0
  72 003a 83F88420 		strb	r2, [r3, #132]
  71:..\src/command_processing.c ****         return;
  73              		.loc 1 71 0
  74 003e 61E2     		b	.L1
  75              	.L2:
  72:..\src/command_processing.c ****     }
  73:..\src/command_processing.c **** 
  74:..\src/command_processing.c ****     switch(rx_cmd) {
  76              		.loc 1 74 0
  77 0040 97F82F30 		ldrb	r3, [r7, #47]	@ zero_extendqisi2
  78 0044 A82B     		cmp	r3, #168
  79 0046 00F25C82 		bhi	.L52
  80 004a 01A2     		adr	r2, .L6
  81 004c 52F823F0 		ldr	pc, [r2, r3, lsl #2]
  82              		.p2align 2
  83              	.L6:
  84 0050 79030000 		.word	.L5+1
  85 0054 5B030000 		.word	.L7+1
  86 0058 03050000 		.word	.L52+1
  87 005c 7F030000 		.word	.L8+1
  88 0060 85030000 		.word	.L9+1
  89 0064 A9030000 		.word	.L10+1
  90 0068 43030000 		.word	.L11+1
  91 006c 03050000 		.word	.L52+1
  92 0070 03050000 		.word	.L52+1
  93 0074 DD030000 		.word	.L12+1
  94 0078 C3030000 		.word	.L13+1
  95 007c 03050000 		.word	.L52+1
  96 0080 61030000 		.word	.L14+1
  97 0084 FF030000 		.word	.L15+1
ARM GAS  C:\Users\mgnocco\AppData\Local\Temp\ccga5MX6.s 			page 4


  98 0088 03050000 		.word	.L52+1
  99 008c 03050000 		.word	.L52+1
 100 0090 03050000 		.word	.L52+1
 101 0094 03050000 		.word	.L52+1
 102 0098 03050000 		.word	.L52+1
 103 009c 03050000 		.word	.L52+1
 104 00a0 03050000 		.word	.L52+1
 105 00a4 03050000 		.word	.L52+1
 106 00a8 03050000 		.word	.L52+1
 107 00ac 03050000 		.word	.L52+1
 108 00b0 03050000 		.word	.L52+1
 109 00b4 03050000 		.word	.L52+1
 110 00b8 03050000 		.word	.L52+1
 111 00bc 03050000 		.word	.L52+1
 112 00c0 03050000 		.word	.L52+1
 113 00c4 03050000 		.word	.L52+1
 114 00c8 03050000 		.word	.L52+1
 115 00cc 03050000 		.word	.L52+1
 116 00d0 03050000 		.word	.L52+1
 117 00d4 03050000 		.word	.L52+1
 118 00d8 03050000 		.word	.L52+1
 119 00dc 03050000 		.word	.L52+1
 120 00e0 03050000 		.word	.L52+1
 121 00e4 03050000 		.word	.L52+1
 122 00e8 03050000 		.word	.L52+1
 123 00ec 03050000 		.word	.L52+1
 124 00f0 03050000 		.word	.L52+1
 125 00f4 03050000 		.word	.L52+1
 126 00f8 03050000 		.word	.L52+1
 127 00fc 03050000 		.word	.L52+1
 128 0100 03050000 		.word	.L52+1
 129 0104 03050000 		.word	.L52+1
 130 0108 03050000 		.word	.L52+1
 131 010c 03050000 		.word	.L52+1
 132 0110 03050000 		.word	.L52+1
 133 0114 03050000 		.word	.L52+1
 134 0118 03050000 		.word	.L52+1
 135 011c 03050000 		.word	.L52+1
 136 0120 03050000 		.word	.L52+1
 137 0124 03050000 		.word	.L52+1
 138 0128 03050000 		.word	.L52+1
 139 012c 03050000 		.word	.L52+1
 140 0130 03050000 		.word	.L52+1
 141 0134 03050000 		.word	.L52+1
 142 0138 03050000 		.word	.L52+1
 143 013c 03050000 		.word	.L52+1
 144 0140 03050000 		.word	.L52+1
 145 0144 03050000 		.word	.L52+1
 146 0148 03050000 		.word	.L52+1
 147 014c 03050000 		.word	.L52+1
 148 0150 03050000 		.word	.L52+1
 149 0154 03050000 		.word	.L52+1
 150 0158 03050000 		.word	.L52+1
 151 015c 03050000 		.word	.L52+1
 152 0160 03050000 		.word	.L52+1
 153 0164 03050000 		.word	.L52+1
 154 0168 03050000 		.word	.L52+1
ARM GAS  C:\Users\mgnocco\AppData\Local\Temp\ccga5MX6.s 			page 5


 155 016c 03050000 		.word	.L52+1
 156 0170 03050000 		.word	.L52+1
 157 0174 03050000 		.word	.L52+1
 158 0178 03050000 		.word	.L52+1
 159 017c 03050000 		.word	.L52+1
 160 0180 03050000 		.word	.L52+1
 161 0184 03050000 		.word	.L52+1
 162 0188 03050000 		.word	.L52+1
 163 018c 03050000 		.word	.L52+1
 164 0190 03050000 		.word	.L52+1
 165 0194 03050000 		.word	.L52+1
 166 0198 03050000 		.word	.L52+1
 167 019c 03050000 		.word	.L52+1
 168 01a0 03050000 		.word	.L52+1
 169 01a4 03050000 		.word	.L52+1
 170 01a8 03050000 		.word	.L52+1
 171 01ac 03050000 		.word	.L52+1
 172 01b0 03050000 		.word	.L52+1
 173 01b4 03050000 		.word	.L52+1
 174 01b8 03050000 		.word	.L52+1
 175 01bc 03050000 		.word	.L52+1
 176 01c0 03050000 		.word	.L52+1
 177 01c4 03050000 		.word	.L52+1
 178 01c8 03050000 		.word	.L52+1
 179 01cc 03050000 		.word	.L52+1
 180 01d0 03050000 		.word	.L52+1
 181 01d4 03050000 		.word	.L52+1
 182 01d8 03050000 		.word	.L52+1
 183 01dc 03050000 		.word	.L52+1
 184 01e0 03050000 		.word	.L52+1
 185 01e4 03050000 		.word	.L52+1
 186 01e8 03050000 		.word	.L52+1
 187 01ec 03050000 		.word	.L52+1
 188 01f0 03050000 		.word	.L52+1
 189 01f4 03050000 		.word	.L52+1
 190 01f8 03050000 		.word	.L52+1
 191 01fc 03050000 		.word	.L52+1
 192 0200 03050000 		.word	.L52+1
 193 0204 03050000 		.word	.L52+1
 194 0208 03050000 		.word	.L52+1
 195 020c 03050000 		.word	.L52+1
 196 0210 03050000 		.word	.L52+1
 197 0214 03050000 		.word	.L52+1
 198 0218 03050000 		.word	.L52+1
 199 021c 03050000 		.word	.L52+1
 200 0220 03050000 		.word	.L52+1
 201 0224 03050000 		.word	.L52+1
 202 0228 03050000 		.word	.L52+1
 203 022c 03050000 		.word	.L52+1
 204 0230 03050000 		.word	.L52+1
 205 0234 03050000 		.word	.L52+1
 206 0238 03050000 		.word	.L52+1
 207 023c 03050000 		.word	.L52+1
 208 0240 03050000 		.word	.L52+1
 209 0244 03050000 		.word	.L52+1
 210 0248 03050000 		.word	.L52+1
 211 024c 03050000 		.word	.L52+1
ARM GAS  C:\Users\mgnocco\AppData\Local\Temp\ccga5MX6.s 			page 6


 212 0250 F5020000 		.word	.L16+1
 213 0254 31030000 		.word	.L17+1
 214 0258 FB020000 		.word	.L18+1
 215 025c 3D030000 		.word	.L19+1
 216 0260 01030000 		.word	.L20+1
 217 0264 0D030000 		.word	.L21+1
 218 0268 07030000 		.word	.L22+1
 219 026c 03050000 		.word	.L52+1
 220 0270 2B030000 		.word	.L23+1
 221 0274 19030000 		.word	.L24+1
 222 0278 03050000 		.word	.L52+1
 223 027c 1F030000 		.word	.L25+1
 224 0280 13030000 		.word	.L26+1
 225 0284 03050000 		.word	.L52+1
 226 0288 03050000 		.word	.L52+1
 227 028c 03050000 		.word	.L52+1
 228 0290 37030000 		.word	.L27+1
 229 0294 03050000 		.word	.L52+1
 230 0298 25030000 		.word	.L28+1
 231 029c 03050000 		.word	.L52+1
 232 02a0 03050000 		.word	.L52+1
 233 02a4 03050000 		.word	.L52+1
 234 02a8 03050000 		.word	.L52+1
 235 02ac 03050000 		.word	.L52+1
 236 02b0 03050000 		.word	.L52+1
 237 02b4 03050000 		.word	.L52+1
 238 02b8 03050000 		.word	.L52+1
 239 02bc 03050000 		.word	.L52+1
 240 02c0 03050000 		.word	.L52+1
 241 02c4 03050000 		.word	.L52+1
 242 02c8 03050000 		.word	.L52+1
 243 02cc 03050000 		.word	.L52+1
 244 02d0 03050000 		.word	.L52+1
 245 02d4 9D040000 		.word	.L29+1
 246 02d8 A3040000 		.word	.L30+1
 247 02dc BB040000 		.word	.L31+1
 248 02e0 C1040000 		.word	.L32+1
 249 02e4 C7040000 		.word	.L33+1
 250 02e8 CD040000 		.word	.L34+1
 251 02ec D3040000 		.word	.L35+1
 252 02f0 EB040000 		.word	.L36+1
 253              		.p2align 1
 254              	.L16:
  75:..\src/command_processing.c **** 
  76:..\src/command_processing.c **** //=============================================================     CMD_ACTIVATE
  77:..\src/command_processing.c ****         case CMD_ACTIVATE:
  78:..\src/command_processing.c ****             cmd_activate();
 255              		.loc 1 78 0
 256 02f4 FFF7FEFF 		bl	cmd_activate
  79:..\src/command_processing.c ****             break;
 257              		.loc 1 79 0
 258 02f8 04E1     		b	.L1
 259              	.L18:
  80:..\src/command_processing.c **** 
  81:..\src/command_processing.c **** //===========================================================     CMD_SET_INPUTS
  82:..\src/command_processing.c **** 
  83:..\src/command_processing.c ****         case CMD_SET_INPUTS:
ARM GAS  C:\Users\mgnocco\AppData\Local\Temp\ccga5MX6.s 			page 7


  84:..\src/command_processing.c ****             cmd_set_inputs();
 260              		.loc 1 84 0
 261 02fa FFF7FEFF 		bl	cmd_set_inputs
  85:..\src/command_processing.c ****             break;
 262              		.loc 1 85 0
 263 02fe 01E1     		b	.L1
 264              	.L20:
  86:..\src/command_processing.c **** 
  87:..\src/command_processing.c **** //=====================================================     CMD_GET_MEASUREMENTS
  88:..\src/command_processing.c **** 
  89:..\src/command_processing.c ****         case CMD_GET_MEASUREMENTS:
  90:..\src/command_processing.c ****             cmd_get_measurements();
 265              		.loc 1 90 0
 266 0300 FFF7FEFF 		bl	cmd_get_measurements
  91:..\src/command_processing.c ****             break;
 267              		.loc 1 91 0
 268 0304 FEE0     		b	.L1
 269              	.L22:
  92:..\src/command_processing.c **** 
  93:..\src/command_processing.c **** //=====================================================     CMD_GET_CURR_AND_MEAS
  94:..\src/command_processing.c **** 
  95:..\src/command_processing.c ****         case CMD_GET_CURR_AND_MEAS:
  96:..\src/command_processing.c ****             cmd_get_curr_and_meas();
 270              		.loc 1 96 0
 271 0306 FFF7FEFF 		bl	cmd_get_curr_and_meas
  97:..\src/command_processing.c ****             break;
 272              		.loc 1 97 0
 273 030a FBE0     		b	.L1
 274              	.L21:
  98:..\src/command_processing.c ****             
  99:..\src/command_processing.c **** //=========================================================     CMD_GET_CURRENTS
 100:..\src/command_processing.c **** 
 101:..\src/command_processing.c ****         case CMD_GET_CURRENTS:
 102:..\src/command_processing.c ****             cmd_get_currents();
 275              		.loc 1 102 0
 276 030c FFF7FEFF 		bl	cmd_get_currents
 103:..\src/command_processing.c ****             break;
 277              		.loc 1 103 0
 278 0310 F8E0     		b	.L1
 279              	.L26:
 104:..\src/command_processing.c **** 
 105:..\src/command_processing.c **** //=========================================================     CMD_GET_CURR_DIFF
 106:..\src/command_processing.c ****          
 107:..\src/command_processing.c ****         case CMD_GET_CURR_DIFF:
 108:..\src/command_processing.c ****             cmd_get_currents_for_cuff();
 280              		.loc 1 108 0
 281 0312 FFF7FEFF 		bl	cmd_get_currents_for_cuff
 109:..\src/command_processing.c ****             break;
 282              		.loc 1 109 0
 283 0316 F5E0     		b	.L1
 284              	.L24:
 110:..\src/command_processing.c ****             
 111:..\src/command_processing.c **** //=========================================================     CMD_GET_CURR_DIFF
 112:..\src/command_processing.c ****         
 113:..\src/command_processing.c ****         case CMD_GET_VELOCITIES:
 114:..\src/command_processing.c ****             cmd_get_velocities();
 285              		.loc 1 114 0
ARM GAS  C:\Users\mgnocco\AppData\Local\Temp\ccga5MX6.s 			page 8


 286 0318 FFF7FEFF 		bl	cmd_get_velocities
 115:..\src/command_processing.c ****             break;
 287              		.loc 1 115 0
 288 031c F2E0     		b	.L1
 289              	.L25:
 116:..\src/command_processing.c ****             
 117:..\src/command_processing.c **** //=========================================================     CMD_GET_CURR_DIFF
 118:..\src/command_processing.c **** 
 119:..\src/command_processing.c ****         case CMD_GET_ACCEL:
 120:..\src/command_processing.c ****             cmd_get_accelerations();
 290              		.loc 1 120 0
 291 031e FFF7FEFF 		bl	cmd_get_accelerations
 121:..\src/command_processing.c ****             break;
 292              		.loc 1 121 0
 293 0322 EFE0     		b	.L1
 294              	.L28:
 122:..\src/command_processing.c **** 
 123:..\src/command_processing.c **** //=========================================================     CMD_GET_JOYSTICK
 124:..\src/command_processing.c **** 
 125:..\src/command_processing.c ****         case CMD_GET_JOYSTICK:
 126:..\src/command_processing.c ****             cmd_get_joystick();
 295              		.loc 1 126 0
 296 0324 FFF7FEFF 		bl	cmd_get_joystick
 127:..\src/command_processing.c ****         break;
 297              		.loc 1 127 0
 298 0328 ECE0     		b	.L1
 299              	.L23:
 128:..\src/command_processing.c ****             
 129:..\src/command_processing.c **** //=========================================================     CMD_GET_EMG
 130:..\src/command_processing.c **** 
 131:..\src/command_processing.c ****         case CMD_GET_EMG:
 132:..\src/command_processing.c ****             cmd_get_emg();
 300              		.loc 1 132 0
 301 032a FFF7FEFF 		bl	cmd_get_emg
 133:..\src/command_processing.c ****             break;
 302              		.loc 1 133 0
 303 032e E9E0     		b	.L1
 304              	.L17:
 134:..\src/command_processing.c ****             
 135:..\src/command_processing.c **** //=========================================================     CMD_GET_ACTIVATE
 136:..\src/command_processing.c ****             
 137:..\src/command_processing.c ****         case CMD_GET_ACTIVATE:
 138:..\src/command_processing.c ****             cmd_get_activate();
 305              		.loc 1 138 0
 306 0330 FFF7FEFF 		bl	cmd_get_activate
 139:..\src/command_processing.c ****             break;
 307              		.loc 1 139 0
 308 0334 E6E0     		b	.L1
 309              	.L27:
 140:..\src/command_processing.c ****             
 141:..\src/command_processing.c **** //=========================================================     CMD_SET_BAUDRATE
 142:..\src/command_processing.c ****             
 143:..\src/command_processing.c ****         case CMD_SET_BAUDRATE:
 144:..\src/command_processing.c ****             cmd_set_baudrate();
 310              		.loc 1 144 0
 311 0336 FFF7FEFF 		bl	cmd_set_baudrate
 145:..\src/command_processing.c ****             break;  
ARM GAS  C:\Users\mgnocco\AppData\Local\Temp\ccga5MX6.s 			page 9


 312              		.loc 1 145 0
 313 033a E3E0     		b	.L1
 314              	.L19:
 146:..\src/command_processing.c ****             
 147:..\src/command_processing.c **** //============================================================     CMD_GET_INPUT
 148:..\src/command_processing.c **** 
 149:..\src/command_processing.c ****         case CMD_GET_INPUTS:
 150:..\src/command_processing.c ****             cmd_get_inputs();
 315              		.loc 1 150 0
 316 033c FFF7FEFF 		bl	cmd_get_inputs
 151:..\src/command_processing.c ****             break;
 317              		.loc 1 151 0
 318 0340 E0E0     		b	.L1
 319              	.L11:
 152:..\src/command_processing.c **** 
 153:..\src/command_processing.c **** //=============================================================     CMD_GET_INFO
 154:..\src/command_processing.c **** 
 155:..\src/command_processing.c ****         case CMD_GET_INFO:
 156:..\src/command_processing.c ****             infoGet(  __REV16(*((uint16 *) &g_rx.buffer[1])) );
 320              		.loc 1 156 0
 321 0342 164B     		ldr	r3, .L53+4
 322 0344 1B88     		ldrh	r3, [r3]
 323 0346 BB61     		str	r3, [r7, #24]
 324              	.LBB12:
 325              	.LBB13:
 326              		.file 2 "Generated_Source\\PSoC5/cmsis_gcc.h"
   1:Generated_Source\PSoC5/cmsis_gcc.h **** /**************************************************************************//**
   2:Generated_Source\PSoC5/cmsis_gcc.h ****  * @file     cmsis_gcc.h
   3:Generated_Source\PSoC5/cmsis_gcc.h ****  * @brief    CMSIS Cortex-M Core Function/Instruction Header File
   4:Generated_Source\PSoC5/cmsis_gcc.h ****  * @version  V5.00
   5:Generated_Source\PSoC5/cmsis_gcc.h ****  * @date     28. October 2016
   6:Generated_Source\PSoC5/cmsis_gcc.h ****  ******************************************************************************/
   7:Generated_Source\PSoC5/cmsis_gcc.h **** /*
   8:Generated_Source\PSoC5/cmsis_gcc.h ****  * Copyright (c) 2009-2016 ARM Limited. All rights reserved.
   9:Generated_Source\PSoC5/cmsis_gcc.h ****  *
  10:Generated_Source\PSoC5/cmsis_gcc.h ****  * SPDX-License-Identifier: Apache-2.0
  11:Generated_Source\PSoC5/cmsis_gcc.h ****  *
  12:Generated_Source\PSoC5/cmsis_gcc.h ****  * Licensed under the Apache License, Version 2.0 (the License); you may
  13:Generated_Source\PSoC5/cmsis_gcc.h ****  * not use this file except in compliance with the License.
  14:Generated_Source\PSoC5/cmsis_gcc.h ****  * You may obtain a copy of the License at
  15:Generated_Source\PSoC5/cmsis_gcc.h ****  *
  16:Generated_Source\PSoC5/cmsis_gcc.h ****  * http://www.apache.org/licenses/LICENSE-2.0
  17:Generated_Source\PSoC5/cmsis_gcc.h ****  *
  18:Generated_Source\PSoC5/cmsis_gcc.h ****  * Unless required by applicable law or agreed to in writing, software
  19:Generated_Source\PSoC5/cmsis_gcc.h ****  * distributed under the License is distributed on an AS IS BASIS, WITHOUT
  20:Generated_Source\PSoC5/cmsis_gcc.h ****  * WARRANTIES OR CONDITIONS OF ANY KIND, either express or implied.
  21:Generated_Source\PSoC5/cmsis_gcc.h ****  * See the License for the specific language governing permissions and
  22:Generated_Source\PSoC5/cmsis_gcc.h ****  * limitations under the License.
  23:Generated_Source\PSoC5/cmsis_gcc.h ****  */
  24:Generated_Source\PSoC5/cmsis_gcc.h **** 
  25:Generated_Source\PSoC5/cmsis_gcc.h **** #ifndef __CMSIS_GCC_H
  26:Generated_Source\PSoC5/cmsis_gcc.h **** #define __CMSIS_GCC_H
  27:Generated_Source\PSoC5/cmsis_gcc.h **** 
  28:Generated_Source\PSoC5/cmsis_gcc.h **** /* ignore some GCC warnings */
  29:Generated_Source\PSoC5/cmsis_gcc.h **** #pragma GCC diagnostic push
  30:Generated_Source\PSoC5/cmsis_gcc.h **** #pragma GCC diagnostic ignored "-Wsign-conversion"
  31:Generated_Source\PSoC5/cmsis_gcc.h **** #pragma GCC diagnostic ignored "-Wconversion"
ARM GAS  C:\Users\mgnocco\AppData\Local\Temp\ccga5MX6.s 			page 10


  32:Generated_Source\PSoC5/cmsis_gcc.h **** #pragma GCC diagnostic ignored "-Wunused-parameter"
  33:Generated_Source\PSoC5/cmsis_gcc.h **** 
  34:Generated_Source\PSoC5/cmsis_gcc.h **** /* CMSIS compiler specific defines */
  35:Generated_Source\PSoC5/cmsis_gcc.h **** #ifndef   __ASM
  36:Generated_Source\PSoC5/cmsis_gcc.h ****   #define __ASM                     __asm
  37:Generated_Source\PSoC5/cmsis_gcc.h **** #endif
  38:Generated_Source\PSoC5/cmsis_gcc.h **** #ifndef   __INLINE
  39:Generated_Source\PSoC5/cmsis_gcc.h ****   #define __INLINE                  inline
  40:Generated_Source\PSoC5/cmsis_gcc.h **** #endif
  41:Generated_Source\PSoC5/cmsis_gcc.h **** #ifndef   __STATIC_INLINE
  42:Generated_Source\PSoC5/cmsis_gcc.h ****   #define __STATIC_INLINE           static inline
  43:Generated_Source\PSoC5/cmsis_gcc.h **** #endif
  44:Generated_Source\PSoC5/cmsis_gcc.h **** #ifndef   __NO_RETURN
  45:Generated_Source\PSoC5/cmsis_gcc.h ****   #define __NO_RETURN               __attribute__((noreturn))
  46:Generated_Source\PSoC5/cmsis_gcc.h **** #endif
  47:Generated_Source\PSoC5/cmsis_gcc.h **** #ifndef   __USED
  48:Generated_Source\PSoC5/cmsis_gcc.h ****   #define __USED                    __attribute__((used))
  49:Generated_Source\PSoC5/cmsis_gcc.h **** #endif
  50:Generated_Source\PSoC5/cmsis_gcc.h **** #ifndef   _WEAK
  51:Generated_Source\PSoC5/cmsis_gcc.h ****   #define __WEAK                    __attribute__((weak))
  52:Generated_Source\PSoC5/cmsis_gcc.h **** #endif
  53:Generated_Source\PSoC5/cmsis_gcc.h **** #ifndef   __UNALIGNED_UINT32
  54:Generated_Source\PSoC5/cmsis_gcc.h ****   struct __attribute__((packed)) T_UINT32 { uint32_t v; };
  55:Generated_Source\PSoC5/cmsis_gcc.h ****   #define __UNALIGNED_UINT32(x)     (((struct T_UINT32 *)(x))->v)
  56:Generated_Source\PSoC5/cmsis_gcc.h **** #endif
  57:Generated_Source\PSoC5/cmsis_gcc.h **** #ifndef   __ALIGNED
  58:Generated_Source\PSoC5/cmsis_gcc.h ****   #define __ALIGNED(x)              __attribute__((aligned(x)))
  59:Generated_Source\PSoC5/cmsis_gcc.h **** #endif
  60:Generated_Source\PSoC5/cmsis_gcc.h **** #ifndef   __PACKED
  61:Generated_Source\PSoC5/cmsis_gcc.h ****   #define __PACKED                  __attribute__((packed, aligned(1)))
  62:Generated_Source\PSoC5/cmsis_gcc.h **** #endif
  63:Generated_Source\PSoC5/cmsis_gcc.h **** 
  64:Generated_Source\PSoC5/cmsis_gcc.h **** 
  65:Generated_Source\PSoC5/cmsis_gcc.h **** /* ###########################  Core Function Access  ########################### */
  66:Generated_Source\PSoC5/cmsis_gcc.h **** /** \ingroup  CMSIS_Core_FunctionInterface
  67:Generated_Source\PSoC5/cmsis_gcc.h ****     \defgroup CMSIS_Core_RegAccFunctions CMSIS Core Register Access Functions
  68:Generated_Source\PSoC5/cmsis_gcc.h ****   @{
  69:Generated_Source\PSoC5/cmsis_gcc.h ****  */
  70:Generated_Source\PSoC5/cmsis_gcc.h **** 
  71:Generated_Source\PSoC5/cmsis_gcc.h **** /**
  72:Generated_Source\PSoC5/cmsis_gcc.h ****   \brief   Enable IRQ Interrupts
  73:Generated_Source\PSoC5/cmsis_gcc.h ****   \details Enables IRQ interrupts by clearing the I-bit in the CPSR.
  74:Generated_Source\PSoC5/cmsis_gcc.h ****            Can only be executed in Privileged modes.
  75:Generated_Source\PSoC5/cmsis_gcc.h ****  */
  76:Generated_Source\PSoC5/cmsis_gcc.h **** __attribute__((always_inline)) __STATIC_INLINE void __enable_irq(void)
  77:Generated_Source\PSoC5/cmsis_gcc.h **** {
  78:Generated_Source\PSoC5/cmsis_gcc.h ****   __ASM volatile ("cpsie i" : : : "memory");
  79:Generated_Source\PSoC5/cmsis_gcc.h **** }
  80:Generated_Source\PSoC5/cmsis_gcc.h **** 
  81:Generated_Source\PSoC5/cmsis_gcc.h **** 
  82:Generated_Source\PSoC5/cmsis_gcc.h **** /**
  83:Generated_Source\PSoC5/cmsis_gcc.h ****   \brief   Disable IRQ Interrupts
  84:Generated_Source\PSoC5/cmsis_gcc.h ****   \details Disables IRQ interrupts by setting the I-bit in the CPSR.
  85:Generated_Source\PSoC5/cmsis_gcc.h ****            Can only be executed in Privileged modes.
  86:Generated_Source\PSoC5/cmsis_gcc.h ****  */
  87:Generated_Source\PSoC5/cmsis_gcc.h **** __attribute__((always_inline)) __STATIC_INLINE void __disable_irq(void)
  88:Generated_Source\PSoC5/cmsis_gcc.h **** {
ARM GAS  C:\Users\mgnocco\AppData\Local\Temp\ccga5MX6.s 			page 11


  89:Generated_Source\PSoC5/cmsis_gcc.h ****   __ASM volatile ("cpsid i" : : : "memory");
  90:Generated_Source\PSoC5/cmsis_gcc.h **** }
  91:Generated_Source\PSoC5/cmsis_gcc.h **** 
  92:Generated_Source\PSoC5/cmsis_gcc.h **** 
  93:Generated_Source\PSoC5/cmsis_gcc.h **** /**
  94:Generated_Source\PSoC5/cmsis_gcc.h ****   \brief   Get Control Register
  95:Generated_Source\PSoC5/cmsis_gcc.h ****   \details Returns the content of the Control Register.
  96:Generated_Source\PSoC5/cmsis_gcc.h ****   \return               Control Register value
  97:Generated_Source\PSoC5/cmsis_gcc.h ****  */
  98:Generated_Source\PSoC5/cmsis_gcc.h **** __attribute__((always_inline)) __STATIC_INLINE uint32_t __get_CONTROL(void)
  99:Generated_Source\PSoC5/cmsis_gcc.h **** {
 100:Generated_Source\PSoC5/cmsis_gcc.h ****   uint32_t result;
 101:Generated_Source\PSoC5/cmsis_gcc.h **** 
 102:Generated_Source\PSoC5/cmsis_gcc.h ****   __ASM volatile ("MRS %0, control" : "=r" (result) );
 103:Generated_Source\PSoC5/cmsis_gcc.h ****   return(result);
 104:Generated_Source\PSoC5/cmsis_gcc.h **** }
 105:Generated_Source\PSoC5/cmsis_gcc.h **** 
 106:Generated_Source\PSoC5/cmsis_gcc.h **** 
 107:Generated_Source\PSoC5/cmsis_gcc.h **** #if (defined (__ARM_FEATURE_CMSE ) && (__ARM_FEATURE_CMSE == 3))
 108:Generated_Source\PSoC5/cmsis_gcc.h **** /**
 109:Generated_Source\PSoC5/cmsis_gcc.h ****   \brief   Get Control Register (non-secure)
 110:Generated_Source\PSoC5/cmsis_gcc.h ****   \details Returns the content of the non-secure Control Register when in secure mode.
 111:Generated_Source\PSoC5/cmsis_gcc.h ****   \return               non-secure Control Register value
 112:Generated_Source\PSoC5/cmsis_gcc.h ****  */
 113:Generated_Source\PSoC5/cmsis_gcc.h **** __attribute__((always_inline)) __STATIC_INLINE uint32_t __TZ_get_CONTROL_NS(void)
 114:Generated_Source\PSoC5/cmsis_gcc.h **** {
 115:Generated_Source\PSoC5/cmsis_gcc.h ****   uint32_t result;
 116:Generated_Source\PSoC5/cmsis_gcc.h **** 
 117:Generated_Source\PSoC5/cmsis_gcc.h ****   __ASM volatile ("MRS %0, control_ns" : "=r" (result) );
 118:Generated_Source\PSoC5/cmsis_gcc.h ****   return(result);
 119:Generated_Source\PSoC5/cmsis_gcc.h **** }
 120:Generated_Source\PSoC5/cmsis_gcc.h **** #endif
 121:Generated_Source\PSoC5/cmsis_gcc.h **** 
 122:Generated_Source\PSoC5/cmsis_gcc.h **** 
 123:Generated_Source\PSoC5/cmsis_gcc.h **** /**
 124:Generated_Source\PSoC5/cmsis_gcc.h ****   \brief   Set Control Register
 125:Generated_Source\PSoC5/cmsis_gcc.h ****   \details Writes the given value to the Control Register.
 126:Generated_Source\PSoC5/cmsis_gcc.h ****   \param [in]    control  Control Register value to set
 127:Generated_Source\PSoC5/cmsis_gcc.h ****  */
 128:Generated_Source\PSoC5/cmsis_gcc.h **** __attribute__((always_inline)) __STATIC_INLINE void __set_CONTROL(uint32_t control)
 129:Generated_Source\PSoC5/cmsis_gcc.h **** {
 130:Generated_Source\PSoC5/cmsis_gcc.h ****   __ASM volatile ("MSR control, %0" : : "r" (control) : "memory");
 131:Generated_Source\PSoC5/cmsis_gcc.h **** }
 132:Generated_Source\PSoC5/cmsis_gcc.h **** 
 133:Generated_Source\PSoC5/cmsis_gcc.h **** 
 134:Generated_Source\PSoC5/cmsis_gcc.h **** #if (defined (__ARM_FEATURE_CMSE ) && (__ARM_FEATURE_CMSE == 3))
 135:Generated_Source\PSoC5/cmsis_gcc.h **** /**
 136:Generated_Source\PSoC5/cmsis_gcc.h ****   \brief   Set Control Register (non-secure)
 137:Generated_Source\PSoC5/cmsis_gcc.h ****   \details Writes the given value to the non-secure Control Register when in secure state.
 138:Generated_Source\PSoC5/cmsis_gcc.h ****   \param [in]    control  Control Register value to set
 139:Generated_Source\PSoC5/cmsis_gcc.h ****  */
 140:Generated_Source\PSoC5/cmsis_gcc.h **** __attribute__((always_inline)) __STATIC_INLINE void __TZ_set_CONTROL_NS(uint32_t control)
 141:Generated_Source\PSoC5/cmsis_gcc.h **** {
 142:Generated_Source\PSoC5/cmsis_gcc.h ****   __ASM volatile ("MSR control_ns, %0" : : "r" (control) : "memory");
 143:Generated_Source\PSoC5/cmsis_gcc.h **** }
 144:Generated_Source\PSoC5/cmsis_gcc.h **** #endif
 145:Generated_Source\PSoC5/cmsis_gcc.h **** 
ARM GAS  C:\Users\mgnocco\AppData\Local\Temp\ccga5MX6.s 			page 12


 146:Generated_Source\PSoC5/cmsis_gcc.h **** 
 147:Generated_Source\PSoC5/cmsis_gcc.h **** /**
 148:Generated_Source\PSoC5/cmsis_gcc.h ****   \brief   Get IPSR Register
 149:Generated_Source\PSoC5/cmsis_gcc.h ****   \details Returns the content of the IPSR Register.
 150:Generated_Source\PSoC5/cmsis_gcc.h ****   \return               IPSR Register value
 151:Generated_Source\PSoC5/cmsis_gcc.h ****  */
 152:Generated_Source\PSoC5/cmsis_gcc.h **** __attribute__((always_inline)) __STATIC_INLINE uint32_t __get_IPSR(void)
 153:Generated_Source\PSoC5/cmsis_gcc.h **** {
 154:Generated_Source\PSoC5/cmsis_gcc.h ****   uint32_t result;
 155:Generated_Source\PSoC5/cmsis_gcc.h **** 
 156:Generated_Source\PSoC5/cmsis_gcc.h ****   __ASM volatile ("MRS %0, ipsr" : "=r" (result) );
 157:Generated_Source\PSoC5/cmsis_gcc.h ****   return(result);
 158:Generated_Source\PSoC5/cmsis_gcc.h **** }
 159:Generated_Source\PSoC5/cmsis_gcc.h **** 
 160:Generated_Source\PSoC5/cmsis_gcc.h **** 
 161:Generated_Source\PSoC5/cmsis_gcc.h **** /**
 162:Generated_Source\PSoC5/cmsis_gcc.h ****   \brief   Get APSR Register
 163:Generated_Source\PSoC5/cmsis_gcc.h ****   \details Returns the content of the APSR Register.
 164:Generated_Source\PSoC5/cmsis_gcc.h ****   \return               APSR Register value
 165:Generated_Source\PSoC5/cmsis_gcc.h ****  */
 166:Generated_Source\PSoC5/cmsis_gcc.h **** __attribute__((always_inline)) __STATIC_INLINE uint32_t __get_APSR(void)
 167:Generated_Source\PSoC5/cmsis_gcc.h **** {
 168:Generated_Source\PSoC5/cmsis_gcc.h ****   uint32_t result;
 169:Generated_Source\PSoC5/cmsis_gcc.h **** 
 170:Generated_Source\PSoC5/cmsis_gcc.h ****   __ASM volatile ("MRS %0, apsr" : "=r" (result) );
 171:Generated_Source\PSoC5/cmsis_gcc.h ****   return(result);
 172:Generated_Source\PSoC5/cmsis_gcc.h **** }
 173:Generated_Source\PSoC5/cmsis_gcc.h **** 
 174:Generated_Source\PSoC5/cmsis_gcc.h **** 
 175:Generated_Source\PSoC5/cmsis_gcc.h **** /**
 176:Generated_Source\PSoC5/cmsis_gcc.h ****   \brief   Get xPSR Register
 177:Generated_Source\PSoC5/cmsis_gcc.h ****   \details Returns the content of the xPSR Register.
 178:Generated_Source\PSoC5/cmsis_gcc.h ****   \return               xPSR Register value
 179:Generated_Source\PSoC5/cmsis_gcc.h ****  */
 180:Generated_Source\PSoC5/cmsis_gcc.h **** __attribute__((always_inline)) __STATIC_INLINE uint32_t __get_xPSR(void)
 181:Generated_Source\PSoC5/cmsis_gcc.h **** {
 182:Generated_Source\PSoC5/cmsis_gcc.h ****   uint32_t result;
 183:Generated_Source\PSoC5/cmsis_gcc.h **** 
 184:Generated_Source\PSoC5/cmsis_gcc.h ****   __ASM volatile ("MRS %0, xpsr" : "=r" (result) );
 185:Generated_Source\PSoC5/cmsis_gcc.h ****   return(result);
 186:Generated_Source\PSoC5/cmsis_gcc.h **** }
 187:Generated_Source\PSoC5/cmsis_gcc.h **** 
 188:Generated_Source\PSoC5/cmsis_gcc.h **** 
 189:Generated_Source\PSoC5/cmsis_gcc.h **** /**
 190:Generated_Source\PSoC5/cmsis_gcc.h ****   \brief   Get Process Stack Pointer
 191:Generated_Source\PSoC5/cmsis_gcc.h ****   \details Returns the current value of the Process Stack Pointer (PSP).
 192:Generated_Source\PSoC5/cmsis_gcc.h ****   \return               PSP Register value
 193:Generated_Source\PSoC5/cmsis_gcc.h ****  */
 194:Generated_Source\PSoC5/cmsis_gcc.h **** __attribute__((always_inline)) __STATIC_INLINE uint32_t __get_PSP(void)
 195:Generated_Source\PSoC5/cmsis_gcc.h **** {
 196:Generated_Source\PSoC5/cmsis_gcc.h ****   register uint32_t result;
 197:Generated_Source\PSoC5/cmsis_gcc.h **** 
 198:Generated_Source\PSoC5/cmsis_gcc.h ****   __ASM volatile ("MRS %0, psp"  : "=r" (result) );
 199:Generated_Source\PSoC5/cmsis_gcc.h ****   return(result);
 200:Generated_Source\PSoC5/cmsis_gcc.h **** }
 201:Generated_Source\PSoC5/cmsis_gcc.h **** 
 202:Generated_Source\PSoC5/cmsis_gcc.h **** 
ARM GAS  C:\Users\mgnocco\AppData\Local\Temp\ccga5MX6.s 			page 13


 203:Generated_Source\PSoC5/cmsis_gcc.h **** #if (defined (__ARM_FEATURE_CMSE ) && (__ARM_FEATURE_CMSE == 3))
 204:Generated_Source\PSoC5/cmsis_gcc.h **** /**
 205:Generated_Source\PSoC5/cmsis_gcc.h ****   \brief   Get Process Stack Pointer (non-secure)
 206:Generated_Source\PSoC5/cmsis_gcc.h ****   \details Returns the current value of the non-secure Process Stack Pointer (PSP) when in secure s
 207:Generated_Source\PSoC5/cmsis_gcc.h ****   \return               PSP Register value
 208:Generated_Source\PSoC5/cmsis_gcc.h ****  */
 209:Generated_Source\PSoC5/cmsis_gcc.h **** __attribute__((always_inline)) __STATIC_INLINE uint32_t __TZ_get_PSP_NS(void)
 210:Generated_Source\PSoC5/cmsis_gcc.h **** {
 211:Generated_Source\PSoC5/cmsis_gcc.h ****   register uint32_t result;
 212:Generated_Source\PSoC5/cmsis_gcc.h **** 
 213:Generated_Source\PSoC5/cmsis_gcc.h ****   __ASM volatile ("MRS %0, psp_ns"  : "=r" (result) );
 214:Generated_Source\PSoC5/cmsis_gcc.h ****   return(result);
 215:Generated_Source\PSoC5/cmsis_gcc.h **** }
 216:Generated_Source\PSoC5/cmsis_gcc.h **** #endif
 217:Generated_Source\PSoC5/cmsis_gcc.h **** 
 218:Generated_Source\PSoC5/cmsis_gcc.h **** 
 219:Generated_Source\PSoC5/cmsis_gcc.h **** /**
 220:Generated_Source\PSoC5/cmsis_gcc.h ****   \brief   Set Process Stack Pointer
 221:Generated_Source\PSoC5/cmsis_gcc.h ****   \details Assigns the given value to the Process Stack Pointer (PSP).
 222:Generated_Source\PSoC5/cmsis_gcc.h ****   \param [in]    topOfProcStack  Process Stack Pointer value to set
 223:Generated_Source\PSoC5/cmsis_gcc.h ****  */
 224:Generated_Source\PSoC5/cmsis_gcc.h **** __attribute__((always_inline)) __STATIC_INLINE void __set_PSP(uint32_t topOfProcStack)
 225:Generated_Source\PSoC5/cmsis_gcc.h **** {
 226:Generated_Source\PSoC5/cmsis_gcc.h ****   __ASM volatile ("MSR psp, %0" : : "r" (topOfProcStack) : "sp");
 227:Generated_Source\PSoC5/cmsis_gcc.h **** }
 228:Generated_Source\PSoC5/cmsis_gcc.h **** 
 229:Generated_Source\PSoC5/cmsis_gcc.h **** 
 230:Generated_Source\PSoC5/cmsis_gcc.h **** #if (defined (__ARM_FEATURE_CMSE ) && (__ARM_FEATURE_CMSE == 3))
 231:Generated_Source\PSoC5/cmsis_gcc.h **** /**
 232:Generated_Source\PSoC5/cmsis_gcc.h ****   \brief   Set Process Stack Pointer (non-secure)
 233:Generated_Source\PSoC5/cmsis_gcc.h ****   \details Assigns the given value to the non-secure Process Stack Pointer (PSP) when in secure sta
 234:Generated_Source\PSoC5/cmsis_gcc.h ****   \param [in]    topOfProcStack  Process Stack Pointer value to set
 235:Generated_Source\PSoC5/cmsis_gcc.h ****  */
 236:Generated_Source\PSoC5/cmsis_gcc.h **** __attribute__((always_inline)) __STATIC_INLINE void __TZ_set_PSP_NS(uint32_t topOfProcStack)
 237:Generated_Source\PSoC5/cmsis_gcc.h **** {
 238:Generated_Source\PSoC5/cmsis_gcc.h ****   __ASM volatile ("MSR psp_ns, %0" : : "r" (topOfProcStack) : "sp");
 239:Generated_Source\PSoC5/cmsis_gcc.h **** }
 240:Generated_Source\PSoC5/cmsis_gcc.h **** #endif
 241:Generated_Source\PSoC5/cmsis_gcc.h **** 
 242:Generated_Source\PSoC5/cmsis_gcc.h **** 
 243:Generated_Source\PSoC5/cmsis_gcc.h **** /**
 244:Generated_Source\PSoC5/cmsis_gcc.h ****   \brief   Get Main Stack Pointer
 245:Generated_Source\PSoC5/cmsis_gcc.h ****   \details Returns the current value of the Main Stack Pointer (MSP).
 246:Generated_Source\PSoC5/cmsis_gcc.h ****   \return               MSP Register value
 247:Generated_Source\PSoC5/cmsis_gcc.h ****  */
 248:Generated_Source\PSoC5/cmsis_gcc.h **** __attribute__((always_inline)) __STATIC_INLINE uint32_t __get_MSP(void)
 249:Generated_Source\PSoC5/cmsis_gcc.h **** {
 250:Generated_Source\PSoC5/cmsis_gcc.h ****   register uint32_t result;
 251:Generated_Source\PSoC5/cmsis_gcc.h **** 
 252:Generated_Source\PSoC5/cmsis_gcc.h ****   __ASM volatile ("MRS %0, msp" : "=r" (result) );
 253:Generated_Source\PSoC5/cmsis_gcc.h ****   return(result);
 254:Generated_Source\PSoC5/cmsis_gcc.h **** }
 255:Generated_Source\PSoC5/cmsis_gcc.h **** 
 256:Generated_Source\PSoC5/cmsis_gcc.h **** 
 257:Generated_Source\PSoC5/cmsis_gcc.h **** #if (defined (__ARM_FEATURE_CMSE ) && (__ARM_FEATURE_CMSE == 3))
 258:Generated_Source\PSoC5/cmsis_gcc.h **** /**
 259:Generated_Source\PSoC5/cmsis_gcc.h ****   \brief   Get Main Stack Pointer (non-secure)
ARM GAS  C:\Users\mgnocco\AppData\Local\Temp\ccga5MX6.s 			page 14


 260:Generated_Source\PSoC5/cmsis_gcc.h ****   \details Returns the current value of the non-secure Main Stack Pointer (MSP) when in secure stat
 261:Generated_Source\PSoC5/cmsis_gcc.h ****   \return               MSP Register value
 262:Generated_Source\PSoC5/cmsis_gcc.h ****  */
 263:Generated_Source\PSoC5/cmsis_gcc.h **** __attribute__((always_inline)) __STATIC_INLINE uint32_t __TZ_get_MSP_NS(void)
 264:Generated_Source\PSoC5/cmsis_gcc.h **** {
 265:Generated_Source\PSoC5/cmsis_gcc.h ****   register uint32_t result;
 266:Generated_Source\PSoC5/cmsis_gcc.h **** 
 267:Generated_Source\PSoC5/cmsis_gcc.h ****   __ASM volatile ("MRS %0, msp_ns" : "=r" (result) );
 268:Generated_Source\PSoC5/cmsis_gcc.h ****   return(result);
 269:Generated_Source\PSoC5/cmsis_gcc.h **** }
 270:Generated_Source\PSoC5/cmsis_gcc.h **** #endif
 271:Generated_Source\PSoC5/cmsis_gcc.h **** 
 272:Generated_Source\PSoC5/cmsis_gcc.h **** 
 273:Generated_Source\PSoC5/cmsis_gcc.h **** /**
 274:Generated_Source\PSoC5/cmsis_gcc.h ****   \brief   Set Main Stack Pointer
 275:Generated_Source\PSoC5/cmsis_gcc.h ****   \details Assigns the given value to the Main Stack Pointer (MSP).
 276:Generated_Source\PSoC5/cmsis_gcc.h ****   \param [in]    topOfMainStack  Main Stack Pointer value to set
 277:Generated_Source\PSoC5/cmsis_gcc.h ****  */
 278:Generated_Source\PSoC5/cmsis_gcc.h **** __attribute__((always_inline)) __STATIC_INLINE void __set_MSP(uint32_t topOfMainStack)
 279:Generated_Source\PSoC5/cmsis_gcc.h **** {
 280:Generated_Source\PSoC5/cmsis_gcc.h ****   __ASM volatile ("MSR msp, %0" : : "r" (topOfMainStack) : "sp");
 281:Generated_Source\PSoC5/cmsis_gcc.h **** }
 282:Generated_Source\PSoC5/cmsis_gcc.h **** 
 283:Generated_Source\PSoC5/cmsis_gcc.h **** 
 284:Generated_Source\PSoC5/cmsis_gcc.h **** #if (defined (__ARM_FEATURE_CMSE ) && (__ARM_FEATURE_CMSE == 3))
 285:Generated_Source\PSoC5/cmsis_gcc.h **** /**
 286:Generated_Source\PSoC5/cmsis_gcc.h ****   \brief   Set Main Stack Pointer (non-secure)
 287:Generated_Source\PSoC5/cmsis_gcc.h ****   \details Assigns the given value to the non-secure Main Stack Pointer (MSP) when in secure state.
 288:Generated_Source\PSoC5/cmsis_gcc.h ****   \param [in]    topOfMainStack  Main Stack Pointer value to set
 289:Generated_Source\PSoC5/cmsis_gcc.h ****  */
 290:Generated_Source\PSoC5/cmsis_gcc.h **** __attribute__((always_inline)) __STATIC_INLINE void __TZ_set_MSP_NS(uint32_t topOfMainStack)
 291:Generated_Source\PSoC5/cmsis_gcc.h **** {
 292:Generated_Source\PSoC5/cmsis_gcc.h ****   __ASM volatile ("MSR msp_ns, %0" : : "r" (topOfMainStack) : "sp");
 293:Generated_Source\PSoC5/cmsis_gcc.h **** }
 294:Generated_Source\PSoC5/cmsis_gcc.h **** #endif
 295:Generated_Source\PSoC5/cmsis_gcc.h **** 
 296:Generated_Source\PSoC5/cmsis_gcc.h **** 
 297:Generated_Source\PSoC5/cmsis_gcc.h **** /**
 298:Generated_Source\PSoC5/cmsis_gcc.h ****   \brief   Get Priority Mask
 299:Generated_Source\PSoC5/cmsis_gcc.h ****   \details Returns the current state of the priority mask bit from the Priority Mask Register.
 300:Generated_Source\PSoC5/cmsis_gcc.h ****   \return               Priority Mask value
 301:Generated_Source\PSoC5/cmsis_gcc.h ****  */
 302:Generated_Source\PSoC5/cmsis_gcc.h **** __attribute__((always_inline)) __STATIC_INLINE uint32_t __get_PRIMASK(void)
 303:Generated_Source\PSoC5/cmsis_gcc.h **** {
 304:Generated_Source\PSoC5/cmsis_gcc.h ****   uint32_t result;
 305:Generated_Source\PSoC5/cmsis_gcc.h **** 
 306:Generated_Source\PSoC5/cmsis_gcc.h ****   __ASM volatile ("MRS %0, primask" : "=r" (result) );
 307:Generated_Source\PSoC5/cmsis_gcc.h ****   return(result);
 308:Generated_Source\PSoC5/cmsis_gcc.h **** }
 309:Generated_Source\PSoC5/cmsis_gcc.h **** 
 310:Generated_Source\PSoC5/cmsis_gcc.h **** 
 311:Generated_Source\PSoC5/cmsis_gcc.h **** #if (defined (__ARM_FEATURE_CMSE ) && (__ARM_FEATURE_CMSE == 3))
 312:Generated_Source\PSoC5/cmsis_gcc.h **** /**
 313:Generated_Source\PSoC5/cmsis_gcc.h ****   \brief   Get Priority Mask (non-secure)
 314:Generated_Source\PSoC5/cmsis_gcc.h ****   \details Returns the current state of the non-secure priority mask bit from the Priority Mask Reg
 315:Generated_Source\PSoC5/cmsis_gcc.h ****   \return               Priority Mask value
 316:Generated_Source\PSoC5/cmsis_gcc.h ****  */
ARM GAS  C:\Users\mgnocco\AppData\Local\Temp\ccga5MX6.s 			page 15


 317:Generated_Source\PSoC5/cmsis_gcc.h **** __attribute__((always_inline)) __STATIC_INLINE uint32_t __TZ_get_PRIMASK_NS(void)
 318:Generated_Source\PSoC5/cmsis_gcc.h **** {
 319:Generated_Source\PSoC5/cmsis_gcc.h ****   uint32_t result;
 320:Generated_Source\PSoC5/cmsis_gcc.h **** 
 321:Generated_Source\PSoC5/cmsis_gcc.h ****   __ASM volatile ("MRS %0, primask_ns" : "=r" (result) );
 322:Generated_Source\PSoC5/cmsis_gcc.h ****   return(result);
 323:Generated_Source\PSoC5/cmsis_gcc.h **** }
 324:Generated_Source\PSoC5/cmsis_gcc.h **** #endif
 325:Generated_Source\PSoC5/cmsis_gcc.h **** 
 326:Generated_Source\PSoC5/cmsis_gcc.h **** 
 327:Generated_Source\PSoC5/cmsis_gcc.h **** /**
 328:Generated_Source\PSoC5/cmsis_gcc.h ****   \brief   Set Priority Mask
 329:Generated_Source\PSoC5/cmsis_gcc.h ****   \details Assigns the given value to the Priority Mask Register.
 330:Generated_Source\PSoC5/cmsis_gcc.h ****   \param [in]    priMask  Priority Mask
 331:Generated_Source\PSoC5/cmsis_gcc.h ****  */
 332:Generated_Source\PSoC5/cmsis_gcc.h **** __attribute__((always_inline)) __STATIC_INLINE void __set_PRIMASK(uint32_t priMask)
 333:Generated_Source\PSoC5/cmsis_gcc.h **** {
 334:Generated_Source\PSoC5/cmsis_gcc.h ****   __ASM volatile ("MSR primask, %0" : : "r" (priMask) : "memory");
 335:Generated_Source\PSoC5/cmsis_gcc.h **** }
 336:Generated_Source\PSoC5/cmsis_gcc.h **** 
 337:Generated_Source\PSoC5/cmsis_gcc.h **** 
 338:Generated_Source\PSoC5/cmsis_gcc.h **** #if (defined (__ARM_FEATURE_CMSE ) && (__ARM_FEATURE_CMSE == 3))
 339:Generated_Source\PSoC5/cmsis_gcc.h **** /**
 340:Generated_Source\PSoC5/cmsis_gcc.h ****   \brief   Set Priority Mask (non-secure)
 341:Generated_Source\PSoC5/cmsis_gcc.h ****   \details Assigns the given value to the non-secure Priority Mask Register when in secure state.
 342:Generated_Source\PSoC5/cmsis_gcc.h ****   \param [in]    priMask  Priority Mask
 343:Generated_Source\PSoC5/cmsis_gcc.h ****  */
 344:Generated_Source\PSoC5/cmsis_gcc.h **** __attribute__((always_inline)) __STATIC_INLINE void __TZ_set_PRIMASK_NS(uint32_t priMask)
 345:Generated_Source\PSoC5/cmsis_gcc.h **** {
 346:Generated_Source\PSoC5/cmsis_gcc.h ****   __ASM volatile ("MSR primask_ns, %0" : : "r" (priMask) : "memory");
 347:Generated_Source\PSoC5/cmsis_gcc.h **** }
 348:Generated_Source\PSoC5/cmsis_gcc.h **** #endif
 349:Generated_Source\PSoC5/cmsis_gcc.h **** 
 350:Generated_Source\PSoC5/cmsis_gcc.h **** 
 351:Generated_Source\PSoC5/cmsis_gcc.h **** #if ((defined (__ARM_ARCH_7M__      ) && (__ARM_ARCH_7M__      == 1)) || \
 352:Generated_Source\PSoC5/cmsis_gcc.h ****      (defined (__ARM_ARCH_7EM__     ) && (__ARM_ARCH_7EM__     == 1)) || \
 353:Generated_Source\PSoC5/cmsis_gcc.h ****      (defined (__ARM_ARCH_8M_MAIN__ ) && (__ARM_ARCH_8M_MAIN__ == 1))    )
 354:Generated_Source\PSoC5/cmsis_gcc.h **** /**
 355:Generated_Source\PSoC5/cmsis_gcc.h ****   \brief   Enable FIQ
 356:Generated_Source\PSoC5/cmsis_gcc.h ****   \details Enables FIQ interrupts by clearing the F-bit in the CPSR.
 357:Generated_Source\PSoC5/cmsis_gcc.h ****            Can only be executed in Privileged modes.
 358:Generated_Source\PSoC5/cmsis_gcc.h ****  */
 359:Generated_Source\PSoC5/cmsis_gcc.h **** __attribute__((always_inline)) __STATIC_INLINE void __enable_fault_irq(void)
 360:Generated_Source\PSoC5/cmsis_gcc.h **** {
 361:Generated_Source\PSoC5/cmsis_gcc.h ****   __ASM volatile ("cpsie f" : : : "memory");
 362:Generated_Source\PSoC5/cmsis_gcc.h **** }
 363:Generated_Source\PSoC5/cmsis_gcc.h **** 
 364:Generated_Source\PSoC5/cmsis_gcc.h **** 
 365:Generated_Source\PSoC5/cmsis_gcc.h **** /**
 366:Generated_Source\PSoC5/cmsis_gcc.h ****   \brief   Disable FIQ
 367:Generated_Source\PSoC5/cmsis_gcc.h ****   \details Disables FIQ interrupts by setting the F-bit in the CPSR.
 368:Generated_Source\PSoC5/cmsis_gcc.h ****            Can only be executed in Privileged modes.
 369:Generated_Source\PSoC5/cmsis_gcc.h ****  */
 370:Generated_Source\PSoC5/cmsis_gcc.h **** __attribute__((always_inline)) __STATIC_INLINE void __disable_fault_irq(void)
 371:Generated_Source\PSoC5/cmsis_gcc.h **** {
 372:Generated_Source\PSoC5/cmsis_gcc.h ****   __ASM volatile ("cpsid f" : : : "memory");
 373:Generated_Source\PSoC5/cmsis_gcc.h **** }
ARM GAS  C:\Users\mgnocco\AppData\Local\Temp\ccga5MX6.s 			page 16


 374:Generated_Source\PSoC5/cmsis_gcc.h **** 
 375:Generated_Source\PSoC5/cmsis_gcc.h **** 
 376:Generated_Source\PSoC5/cmsis_gcc.h **** /**
 377:Generated_Source\PSoC5/cmsis_gcc.h ****   \brief   Get Base Priority
 378:Generated_Source\PSoC5/cmsis_gcc.h ****   \details Returns the current value of the Base Priority register.
 379:Generated_Source\PSoC5/cmsis_gcc.h ****   \return               Base Priority register value
 380:Generated_Source\PSoC5/cmsis_gcc.h ****  */
 381:Generated_Source\PSoC5/cmsis_gcc.h **** __attribute__((always_inline)) __STATIC_INLINE uint32_t __get_BASEPRI(void)
 382:Generated_Source\PSoC5/cmsis_gcc.h **** {
 383:Generated_Source\PSoC5/cmsis_gcc.h ****   uint32_t result;
 384:Generated_Source\PSoC5/cmsis_gcc.h **** 
 385:Generated_Source\PSoC5/cmsis_gcc.h ****   __ASM volatile ("MRS %0, basepri" : "=r" (result) );
 386:Generated_Source\PSoC5/cmsis_gcc.h ****   return(result);
 387:Generated_Source\PSoC5/cmsis_gcc.h **** }
 388:Generated_Source\PSoC5/cmsis_gcc.h **** 
 389:Generated_Source\PSoC5/cmsis_gcc.h **** 
 390:Generated_Source\PSoC5/cmsis_gcc.h **** #if (defined (__ARM_FEATURE_CMSE ) && (__ARM_FEATURE_CMSE == 3))
 391:Generated_Source\PSoC5/cmsis_gcc.h **** /**
 392:Generated_Source\PSoC5/cmsis_gcc.h ****   \brief   Get Base Priority (non-secure)
 393:Generated_Source\PSoC5/cmsis_gcc.h ****   \details Returns the current value of the non-secure Base Priority register when in secure state.
 394:Generated_Source\PSoC5/cmsis_gcc.h ****   \return               Base Priority register value
 395:Generated_Source\PSoC5/cmsis_gcc.h ****  */
 396:Generated_Source\PSoC5/cmsis_gcc.h **** __attribute__((always_inline)) __STATIC_INLINE uint32_t __TZ_get_BASEPRI_NS(void)
 397:Generated_Source\PSoC5/cmsis_gcc.h **** {
 398:Generated_Source\PSoC5/cmsis_gcc.h ****   uint32_t result;
 399:Generated_Source\PSoC5/cmsis_gcc.h **** 
 400:Generated_Source\PSoC5/cmsis_gcc.h ****   __ASM volatile ("MRS %0, basepri_ns" : "=r" (result) );
 401:Generated_Source\PSoC5/cmsis_gcc.h ****   return(result);
 402:Generated_Source\PSoC5/cmsis_gcc.h **** }
 403:Generated_Source\PSoC5/cmsis_gcc.h **** #endif
 404:Generated_Source\PSoC5/cmsis_gcc.h **** 
 405:Generated_Source\PSoC5/cmsis_gcc.h **** 
 406:Generated_Source\PSoC5/cmsis_gcc.h **** /**
 407:Generated_Source\PSoC5/cmsis_gcc.h ****   \brief   Set Base Priority
 408:Generated_Source\PSoC5/cmsis_gcc.h ****   \details Assigns the given value to the Base Priority register.
 409:Generated_Source\PSoC5/cmsis_gcc.h ****   \param [in]    basePri  Base Priority value to set
 410:Generated_Source\PSoC5/cmsis_gcc.h ****  */
 411:Generated_Source\PSoC5/cmsis_gcc.h **** __attribute__((always_inline)) __STATIC_INLINE void __set_BASEPRI(uint32_t basePri)
 412:Generated_Source\PSoC5/cmsis_gcc.h **** {
 413:Generated_Source\PSoC5/cmsis_gcc.h ****   __ASM volatile ("MSR basepri, %0" : : "r" (basePri) : "memory");
 414:Generated_Source\PSoC5/cmsis_gcc.h **** }
 415:Generated_Source\PSoC5/cmsis_gcc.h **** 
 416:Generated_Source\PSoC5/cmsis_gcc.h **** 
 417:Generated_Source\PSoC5/cmsis_gcc.h **** #if (defined (__ARM_FEATURE_CMSE ) && (__ARM_FEATURE_CMSE == 3))
 418:Generated_Source\PSoC5/cmsis_gcc.h **** /**
 419:Generated_Source\PSoC5/cmsis_gcc.h ****   \brief   Set Base Priority (non-secure)
 420:Generated_Source\PSoC5/cmsis_gcc.h ****   \details Assigns the given value to the non-secure Base Priority register when in secure state.
 421:Generated_Source\PSoC5/cmsis_gcc.h ****   \param [in]    basePri  Base Priority value to set
 422:Generated_Source\PSoC5/cmsis_gcc.h ****  */
 423:Generated_Source\PSoC5/cmsis_gcc.h **** __attribute__((always_inline)) __STATIC_INLINE void __TZ_set_BASEPRI_NS(uint32_t basePri)
 424:Generated_Source\PSoC5/cmsis_gcc.h **** {
 425:Generated_Source\PSoC5/cmsis_gcc.h ****   __ASM volatile ("MSR basepri_ns, %0" : : "r" (basePri) : "memory");
 426:Generated_Source\PSoC5/cmsis_gcc.h **** }
 427:Generated_Source\PSoC5/cmsis_gcc.h **** #endif
 428:Generated_Source\PSoC5/cmsis_gcc.h **** 
 429:Generated_Source\PSoC5/cmsis_gcc.h **** 
 430:Generated_Source\PSoC5/cmsis_gcc.h **** /**
ARM GAS  C:\Users\mgnocco\AppData\Local\Temp\ccga5MX6.s 			page 17


 431:Generated_Source\PSoC5/cmsis_gcc.h ****   \brief   Set Base Priority with condition
 432:Generated_Source\PSoC5/cmsis_gcc.h ****   \details Assigns the given value to the Base Priority register only if BASEPRI masking is disable
 433:Generated_Source\PSoC5/cmsis_gcc.h ****            or the new value increases the BASEPRI priority level.
 434:Generated_Source\PSoC5/cmsis_gcc.h ****   \param [in]    basePri  Base Priority value to set
 435:Generated_Source\PSoC5/cmsis_gcc.h ****  */
 436:Generated_Source\PSoC5/cmsis_gcc.h **** __attribute__((always_inline)) __STATIC_INLINE void __set_BASEPRI_MAX(uint32_t basePri)
 437:Generated_Source\PSoC5/cmsis_gcc.h **** {
 438:Generated_Source\PSoC5/cmsis_gcc.h ****   __ASM volatile ("MSR basepri_max, %0" : : "r" (basePri) : "memory");
 439:Generated_Source\PSoC5/cmsis_gcc.h **** }
 440:Generated_Source\PSoC5/cmsis_gcc.h **** 
 441:Generated_Source\PSoC5/cmsis_gcc.h **** 
 442:Generated_Source\PSoC5/cmsis_gcc.h **** /**
 443:Generated_Source\PSoC5/cmsis_gcc.h ****   \brief   Get Fault Mask
 444:Generated_Source\PSoC5/cmsis_gcc.h ****   \details Returns the current value of the Fault Mask register.
 445:Generated_Source\PSoC5/cmsis_gcc.h ****   \return               Fault Mask register value
 446:Generated_Source\PSoC5/cmsis_gcc.h ****  */
 447:Generated_Source\PSoC5/cmsis_gcc.h **** __attribute__((always_inline)) __STATIC_INLINE uint32_t __get_FAULTMASK(void)
 448:Generated_Source\PSoC5/cmsis_gcc.h **** {
 449:Generated_Source\PSoC5/cmsis_gcc.h ****   uint32_t result;
 450:Generated_Source\PSoC5/cmsis_gcc.h **** 
 451:Generated_Source\PSoC5/cmsis_gcc.h ****   __ASM volatile ("MRS %0, faultmask" : "=r" (result) );
 452:Generated_Source\PSoC5/cmsis_gcc.h ****   return(result);
 453:Generated_Source\PSoC5/cmsis_gcc.h **** }
 454:Generated_Source\PSoC5/cmsis_gcc.h **** 
 455:Generated_Source\PSoC5/cmsis_gcc.h **** 
 456:Generated_Source\PSoC5/cmsis_gcc.h **** #if (defined (__ARM_FEATURE_CMSE ) && (__ARM_FEATURE_CMSE == 3))
 457:Generated_Source\PSoC5/cmsis_gcc.h **** /**
 458:Generated_Source\PSoC5/cmsis_gcc.h ****   \brief   Get Fault Mask (non-secure)
 459:Generated_Source\PSoC5/cmsis_gcc.h ****   \details Returns the current value of the non-secure Fault Mask register when in secure state.
 460:Generated_Source\PSoC5/cmsis_gcc.h ****   \return               Fault Mask register value
 461:Generated_Source\PSoC5/cmsis_gcc.h ****  */
 462:Generated_Source\PSoC5/cmsis_gcc.h **** __attribute__((always_inline)) __STATIC_INLINE uint32_t __TZ_get_FAULTMASK_NS(void)
 463:Generated_Source\PSoC5/cmsis_gcc.h **** {
 464:Generated_Source\PSoC5/cmsis_gcc.h ****   uint32_t result;
 465:Generated_Source\PSoC5/cmsis_gcc.h **** 
 466:Generated_Source\PSoC5/cmsis_gcc.h ****   __ASM volatile ("MRS %0, faultmask_ns" : "=r" (result) );
 467:Generated_Source\PSoC5/cmsis_gcc.h ****   return(result);
 468:Generated_Source\PSoC5/cmsis_gcc.h **** }
 469:Generated_Source\PSoC5/cmsis_gcc.h **** #endif
 470:Generated_Source\PSoC5/cmsis_gcc.h **** 
 471:Generated_Source\PSoC5/cmsis_gcc.h **** 
 472:Generated_Source\PSoC5/cmsis_gcc.h **** /**
 473:Generated_Source\PSoC5/cmsis_gcc.h ****   \brief   Set Fault Mask
 474:Generated_Source\PSoC5/cmsis_gcc.h ****   \details Assigns the given value to the Fault Mask register.
 475:Generated_Source\PSoC5/cmsis_gcc.h ****   \param [in]    faultMask  Fault Mask value to set
 476:Generated_Source\PSoC5/cmsis_gcc.h ****  */
 477:Generated_Source\PSoC5/cmsis_gcc.h **** __attribute__((always_inline)) __STATIC_INLINE void __set_FAULTMASK(uint32_t faultMask)
 478:Generated_Source\PSoC5/cmsis_gcc.h **** {
 479:Generated_Source\PSoC5/cmsis_gcc.h ****   __ASM volatile ("MSR faultmask, %0" : : "r" (faultMask) : "memory");
 480:Generated_Source\PSoC5/cmsis_gcc.h **** }
 481:Generated_Source\PSoC5/cmsis_gcc.h **** 
 482:Generated_Source\PSoC5/cmsis_gcc.h **** 
 483:Generated_Source\PSoC5/cmsis_gcc.h **** #if (defined (__ARM_FEATURE_CMSE ) && (__ARM_FEATURE_CMSE == 3))
 484:Generated_Source\PSoC5/cmsis_gcc.h **** /**
 485:Generated_Source\PSoC5/cmsis_gcc.h ****   \brief   Set Fault Mask (non-secure)
 486:Generated_Source\PSoC5/cmsis_gcc.h ****   \details Assigns the given value to the non-secure Fault Mask register when in secure state.
 487:Generated_Source\PSoC5/cmsis_gcc.h ****   \param [in]    faultMask  Fault Mask value to set
ARM GAS  C:\Users\mgnocco\AppData\Local\Temp\ccga5MX6.s 			page 18


 488:Generated_Source\PSoC5/cmsis_gcc.h ****  */
 489:Generated_Source\PSoC5/cmsis_gcc.h **** __attribute__((always_inline)) __STATIC_INLINE void __TZ_set_FAULTMASK_NS(uint32_t faultMask)
 490:Generated_Source\PSoC5/cmsis_gcc.h **** {
 491:Generated_Source\PSoC5/cmsis_gcc.h ****   __ASM volatile ("MSR faultmask_ns, %0" : : "r" (faultMask) : "memory");
 492:Generated_Source\PSoC5/cmsis_gcc.h **** }
 493:Generated_Source\PSoC5/cmsis_gcc.h **** #endif
 494:Generated_Source\PSoC5/cmsis_gcc.h **** 
 495:Generated_Source\PSoC5/cmsis_gcc.h **** #endif /* ((defined (__ARM_ARCH_7M__      ) && (__ARM_ARCH_7M__      == 1)) || \
 496:Generated_Source\PSoC5/cmsis_gcc.h ****            (defined (__ARM_ARCH_7EM__     ) && (__ARM_ARCH_7EM__     == 1)) || \
 497:Generated_Source\PSoC5/cmsis_gcc.h ****            (defined (__ARM_ARCH_8M_MAIN__ ) && (__ARM_ARCH_8M_MAIN__ == 1))    ) */
 498:Generated_Source\PSoC5/cmsis_gcc.h **** 
 499:Generated_Source\PSoC5/cmsis_gcc.h **** 
 500:Generated_Source\PSoC5/cmsis_gcc.h **** #if ((defined (__ARM_ARCH_8M_MAIN__ ) && (__ARM_ARCH_8M_MAIN__ == 1U)) || \
 501:Generated_Source\PSoC5/cmsis_gcc.h ****      (defined (__ARM_ARCH_8M_BASE__ ) && (__ARM_ARCH_8M_BASE__ == 1U))    )
 502:Generated_Source\PSoC5/cmsis_gcc.h **** 
 503:Generated_Source\PSoC5/cmsis_gcc.h **** /**
 504:Generated_Source\PSoC5/cmsis_gcc.h ****   \brief   Get Process Stack Pointer Limit
 505:Generated_Source\PSoC5/cmsis_gcc.h ****   \details Returns the current value of the Process Stack Pointer Limit (PSPLIM).
 506:Generated_Source\PSoC5/cmsis_gcc.h ****   \return               PSPLIM Register value
 507:Generated_Source\PSoC5/cmsis_gcc.h ****  */
 508:Generated_Source\PSoC5/cmsis_gcc.h **** __attribute__((always_inline)) __STATIC_INLINE uint32_t __get_PSPLIM(void)
 509:Generated_Source\PSoC5/cmsis_gcc.h **** {
 510:Generated_Source\PSoC5/cmsis_gcc.h ****   register uint32_t result;
 511:Generated_Source\PSoC5/cmsis_gcc.h **** 
 512:Generated_Source\PSoC5/cmsis_gcc.h ****   __ASM volatile ("MRS %0, psplim"  : "=r" (result) );
 513:Generated_Source\PSoC5/cmsis_gcc.h ****   return(result);
 514:Generated_Source\PSoC5/cmsis_gcc.h **** }
 515:Generated_Source\PSoC5/cmsis_gcc.h **** 
 516:Generated_Source\PSoC5/cmsis_gcc.h **** 
 517:Generated_Source\PSoC5/cmsis_gcc.h **** #if ((defined (__ARM_FEATURE_CMSE  ) && (__ARM_FEATURE_CMSE   == 3)) && \
 518:Generated_Source\PSoC5/cmsis_gcc.h ****      (defined (__ARM_ARCH_8M_MAIN__) && (__ARM_ARCH_8M_MAIN__ == 1))    )
 519:Generated_Source\PSoC5/cmsis_gcc.h **** /**
 520:Generated_Source\PSoC5/cmsis_gcc.h ****   \brief   Get Process Stack Pointer Limit (non-secure)
 521:Generated_Source\PSoC5/cmsis_gcc.h ****   \details Returns the current value of the non-secure Process Stack Pointer Limit (PSPLIM) when in
 522:Generated_Source\PSoC5/cmsis_gcc.h ****   \return               PSPLIM Register value
 523:Generated_Source\PSoC5/cmsis_gcc.h ****  */
 524:Generated_Source\PSoC5/cmsis_gcc.h **** __attribute__((always_inline)) __STATIC_INLINE uint32_t __TZ_get_PSPLIM_NS(void)
 525:Generated_Source\PSoC5/cmsis_gcc.h **** {
 526:Generated_Source\PSoC5/cmsis_gcc.h ****   register uint32_t result;
 527:Generated_Source\PSoC5/cmsis_gcc.h **** 
 528:Generated_Source\PSoC5/cmsis_gcc.h ****   __ASM volatile ("MRS %0, psplim_ns"  : "=r" (result) );
 529:Generated_Source\PSoC5/cmsis_gcc.h ****   return(result);
 530:Generated_Source\PSoC5/cmsis_gcc.h **** }
 531:Generated_Source\PSoC5/cmsis_gcc.h **** #endif
 532:Generated_Source\PSoC5/cmsis_gcc.h **** 
 533:Generated_Source\PSoC5/cmsis_gcc.h **** 
 534:Generated_Source\PSoC5/cmsis_gcc.h **** /**
 535:Generated_Source\PSoC5/cmsis_gcc.h ****   \brief   Set Process Stack Pointer Limit
 536:Generated_Source\PSoC5/cmsis_gcc.h ****   \details Assigns the given value to the Process Stack Pointer Limit (PSPLIM).
 537:Generated_Source\PSoC5/cmsis_gcc.h ****   \param [in]    ProcStackPtrLimit  Process Stack Pointer Limit value to set
 538:Generated_Source\PSoC5/cmsis_gcc.h ****  */
 539:Generated_Source\PSoC5/cmsis_gcc.h **** __attribute__((always_inline)) __STATIC_INLINE void __set_PSPLIM(uint32_t ProcStackPtrLimit)
 540:Generated_Source\PSoC5/cmsis_gcc.h **** {
 541:Generated_Source\PSoC5/cmsis_gcc.h ****   __ASM volatile ("MSR psplim, %0" : : "r" (ProcStackPtrLimit));
 542:Generated_Source\PSoC5/cmsis_gcc.h **** }
 543:Generated_Source\PSoC5/cmsis_gcc.h **** 
 544:Generated_Source\PSoC5/cmsis_gcc.h **** 
ARM GAS  C:\Users\mgnocco\AppData\Local\Temp\ccga5MX6.s 			page 19


 545:Generated_Source\PSoC5/cmsis_gcc.h **** #if ((defined (__ARM_FEATURE_CMSE  ) && (__ARM_FEATURE_CMSE   == 3)) && \
 546:Generated_Source\PSoC5/cmsis_gcc.h ****      (defined (__ARM_ARCH_8M_MAIN__) && (__ARM_ARCH_8M_MAIN__ == 1))    )
 547:Generated_Source\PSoC5/cmsis_gcc.h **** /**
 548:Generated_Source\PSoC5/cmsis_gcc.h ****   \brief   Set Process Stack Pointer (non-secure)
 549:Generated_Source\PSoC5/cmsis_gcc.h ****   \details Assigns the given value to the non-secure Process Stack Pointer Limit (PSPLIM) when in s
 550:Generated_Source\PSoC5/cmsis_gcc.h ****   \param [in]    ProcStackPtrLimit  Process Stack Pointer Limit value to set
 551:Generated_Source\PSoC5/cmsis_gcc.h ****  */
 552:Generated_Source\PSoC5/cmsis_gcc.h **** __attribute__((always_inline)) __STATIC_INLINE void __TZ_set_PSPLIM_NS(uint32_t ProcStackPtrLimit)
 553:Generated_Source\PSoC5/cmsis_gcc.h **** {
 554:Generated_Source\PSoC5/cmsis_gcc.h ****   __ASM volatile ("MSR psplim_ns, %0\n" : : "r" (ProcStackPtrLimit));
 555:Generated_Source\PSoC5/cmsis_gcc.h **** }
 556:Generated_Source\PSoC5/cmsis_gcc.h **** #endif
 557:Generated_Source\PSoC5/cmsis_gcc.h **** 
 558:Generated_Source\PSoC5/cmsis_gcc.h **** 
 559:Generated_Source\PSoC5/cmsis_gcc.h **** /**
 560:Generated_Source\PSoC5/cmsis_gcc.h ****   \brief   Get Main Stack Pointer Limit
 561:Generated_Source\PSoC5/cmsis_gcc.h ****   \details Returns the current value of the Main Stack Pointer Limit (MSPLIM).
 562:Generated_Source\PSoC5/cmsis_gcc.h ****   \return               MSPLIM Register value
 563:Generated_Source\PSoC5/cmsis_gcc.h ****  */
 564:Generated_Source\PSoC5/cmsis_gcc.h **** __attribute__((always_inline)) __STATIC_INLINE uint32_t __get_MSPLIM(void)
 565:Generated_Source\PSoC5/cmsis_gcc.h **** {
 566:Generated_Source\PSoC5/cmsis_gcc.h ****   register uint32_t result;
 567:Generated_Source\PSoC5/cmsis_gcc.h **** 
 568:Generated_Source\PSoC5/cmsis_gcc.h ****   __ASM volatile ("MRS %0, msplim" : "=r" (result) );
 569:Generated_Source\PSoC5/cmsis_gcc.h **** 
 570:Generated_Source\PSoC5/cmsis_gcc.h ****   return(result);
 571:Generated_Source\PSoC5/cmsis_gcc.h **** }
 572:Generated_Source\PSoC5/cmsis_gcc.h **** 
 573:Generated_Source\PSoC5/cmsis_gcc.h **** 
 574:Generated_Source\PSoC5/cmsis_gcc.h **** #if ((defined (__ARM_FEATURE_CMSE  ) && (__ARM_FEATURE_CMSE   == 3)) && \
 575:Generated_Source\PSoC5/cmsis_gcc.h ****      (defined (__ARM_ARCH_8M_MAIN__) && (__ARM_ARCH_8M_MAIN__ == 1))    )
 576:Generated_Source\PSoC5/cmsis_gcc.h **** /**
 577:Generated_Source\PSoC5/cmsis_gcc.h ****   \brief   Get Main Stack Pointer Limit (non-secure)
 578:Generated_Source\PSoC5/cmsis_gcc.h ****   \details Returns the current value of the non-secure Main Stack Pointer Limit(MSPLIM) when in sec
 579:Generated_Source\PSoC5/cmsis_gcc.h ****   \return               MSPLIM Register value
 580:Generated_Source\PSoC5/cmsis_gcc.h ****  */
 581:Generated_Source\PSoC5/cmsis_gcc.h **** __attribute__((always_inline)) __STATIC_INLINE uint32_t __TZ_get_MSPLIM_NS(void)
 582:Generated_Source\PSoC5/cmsis_gcc.h **** {
 583:Generated_Source\PSoC5/cmsis_gcc.h ****   register uint32_t result;
 584:Generated_Source\PSoC5/cmsis_gcc.h **** 
 585:Generated_Source\PSoC5/cmsis_gcc.h ****   __ASM volatile ("MRS %0, msplim_ns" : "=r" (result) );
 586:Generated_Source\PSoC5/cmsis_gcc.h ****   return(result);
 587:Generated_Source\PSoC5/cmsis_gcc.h **** }
 588:Generated_Source\PSoC5/cmsis_gcc.h **** #endif
 589:Generated_Source\PSoC5/cmsis_gcc.h **** 
 590:Generated_Source\PSoC5/cmsis_gcc.h **** 
 591:Generated_Source\PSoC5/cmsis_gcc.h **** /**
 592:Generated_Source\PSoC5/cmsis_gcc.h ****   \brief   Set Main Stack Pointer Limit
 593:Generated_Source\PSoC5/cmsis_gcc.h ****   \details Assigns the given value to the Main Stack Pointer Limit (MSPLIM).
 594:Generated_Source\PSoC5/cmsis_gcc.h ****   \param [in]    MainStackPtrLimit  Main Stack Pointer Limit value to set
 595:Generated_Source\PSoC5/cmsis_gcc.h ****  */
 596:Generated_Source\PSoC5/cmsis_gcc.h **** __attribute__((always_inline)) __STATIC_INLINE void __set_MSPLIM(uint32_t MainStackPtrLimit)
 597:Generated_Source\PSoC5/cmsis_gcc.h **** {
 598:Generated_Source\PSoC5/cmsis_gcc.h ****   __ASM volatile ("MSR msplim, %0" : : "r" (MainStackPtrLimit));
 599:Generated_Source\PSoC5/cmsis_gcc.h **** }
 600:Generated_Source\PSoC5/cmsis_gcc.h **** 
 601:Generated_Source\PSoC5/cmsis_gcc.h **** 
ARM GAS  C:\Users\mgnocco\AppData\Local\Temp\ccga5MX6.s 			page 20


 602:Generated_Source\PSoC5/cmsis_gcc.h **** #if ((defined (__ARM_FEATURE_CMSE  ) && (__ARM_FEATURE_CMSE   == 3)) && \
 603:Generated_Source\PSoC5/cmsis_gcc.h ****      (defined (__ARM_ARCH_8M_MAIN__) && (__ARM_ARCH_8M_MAIN__ == 1))    )
 604:Generated_Source\PSoC5/cmsis_gcc.h **** /**
 605:Generated_Source\PSoC5/cmsis_gcc.h ****   \brief   Set Main Stack Pointer Limit (non-secure)
 606:Generated_Source\PSoC5/cmsis_gcc.h ****   \details Assigns the given value to the non-secure Main Stack Pointer Limit (MSPLIM) when in secu
 607:Generated_Source\PSoC5/cmsis_gcc.h ****   \param [in]    MainStackPtrLimit  Main Stack Pointer value to set
 608:Generated_Source\PSoC5/cmsis_gcc.h ****  */
 609:Generated_Source\PSoC5/cmsis_gcc.h **** __attribute__((always_inline)) __STATIC_INLINE void __TZ_set_MSPLIM_NS(uint32_t MainStackPtrLimit)
 610:Generated_Source\PSoC5/cmsis_gcc.h **** {
 611:Generated_Source\PSoC5/cmsis_gcc.h ****   __ASM volatile ("MSR msplim_ns, %0" : : "r" (MainStackPtrLimit));
 612:Generated_Source\PSoC5/cmsis_gcc.h **** }
 613:Generated_Source\PSoC5/cmsis_gcc.h **** #endif
 614:Generated_Source\PSoC5/cmsis_gcc.h **** 
 615:Generated_Source\PSoC5/cmsis_gcc.h **** #endif /* ((defined (__ARM_ARCH_8M_MAIN__ ) && (__ARM_ARCH_8M_MAIN__ == 1U)) || \
 616:Generated_Source\PSoC5/cmsis_gcc.h ****            (defined (__ARM_ARCH_8M_BASE__ ) && (__ARM_ARCH_8M_BASE__ == 1U))    ) */
 617:Generated_Source\PSoC5/cmsis_gcc.h **** 
 618:Generated_Source\PSoC5/cmsis_gcc.h **** 
 619:Generated_Source\PSoC5/cmsis_gcc.h **** #if ((defined (__ARM_ARCH_7EM__     ) && (__ARM_ARCH_7EM__     == 1)) || \
 620:Generated_Source\PSoC5/cmsis_gcc.h ****      (defined (__ARM_ARCH_8M_MAIN__ ) && (__ARM_ARCH_8M_MAIN__ == 1))    )
 621:Generated_Source\PSoC5/cmsis_gcc.h **** 
 622:Generated_Source\PSoC5/cmsis_gcc.h **** /**
 623:Generated_Source\PSoC5/cmsis_gcc.h ****   \brief   Get FPSCR
 624:Generated_Source\PSoC5/cmsis_gcc.h ****   \details Returns the current value of the Floating Point Status/Control register.
 625:Generated_Source\PSoC5/cmsis_gcc.h ****   \return               Floating Point Status/Control register value
 626:Generated_Source\PSoC5/cmsis_gcc.h ****  */
 627:Generated_Source\PSoC5/cmsis_gcc.h **** __attribute__((always_inline)) __STATIC_INLINE uint32_t __get_FPSCR(void)
 628:Generated_Source\PSoC5/cmsis_gcc.h **** {
 629:Generated_Source\PSoC5/cmsis_gcc.h **** #if ((defined (__FPU_PRESENT) && (__FPU_PRESENT == 1U)) && \
 630:Generated_Source\PSoC5/cmsis_gcc.h ****      (defined (__FPU_USED   ) && (__FPU_USED    == 1U))     )
 631:Generated_Source\PSoC5/cmsis_gcc.h ****   uint32_t result;
 632:Generated_Source\PSoC5/cmsis_gcc.h **** 
 633:Generated_Source\PSoC5/cmsis_gcc.h ****   __ASM volatile ("");                                 /* Empty asm statement works as a scheduling
 634:Generated_Source\PSoC5/cmsis_gcc.h ****   __ASM volatile ("VMRS %0, fpscr" : "=r" (result) );
 635:Generated_Source\PSoC5/cmsis_gcc.h ****   __ASM volatile ("");
 636:Generated_Source\PSoC5/cmsis_gcc.h ****   return(result);
 637:Generated_Source\PSoC5/cmsis_gcc.h **** #else
 638:Generated_Source\PSoC5/cmsis_gcc.h ****    return(0U);
 639:Generated_Source\PSoC5/cmsis_gcc.h **** #endif
 640:Generated_Source\PSoC5/cmsis_gcc.h **** }
 641:Generated_Source\PSoC5/cmsis_gcc.h **** 
 642:Generated_Source\PSoC5/cmsis_gcc.h **** 
 643:Generated_Source\PSoC5/cmsis_gcc.h **** /**
 644:Generated_Source\PSoC5/cmsis_gcc.h ****   \brief   Set FPSCR
 645:Generated_Source\PSoC5/cmsis_gcc.h ****   \details Assigns the given value to the Floating Point Status/Control register.
 646:Generated_Source\PSoC5/cmsis_gcc.h ****   \param [in]    fpscr  Floating Point Status/Control value to set
 647:Generated_Source\PSoC5/cmsis_gcc.h ****  */
 648:Generated_Source\PSoC5/cmsis_gcc.h **** __attribute__((always_inline)) __STATIC_INLINE void __set_FPSCR(uint32_t fpscr)
 649:Generated_Source\PSoC5/cmsis_gcc.h **** {
 650:Generated_Source\PSoC5/cmsis_gcc.h **** #if ((defined (__FPU_PRESENT) && (__FPU_PRESENT == 1U)) && \
 651:Generated_Source\PSoC5/cmsis_gcc.h ****      (defined (__FPU_USED   ) && (__FPU_USED    == 1U))     )
 652:Generated_Source\PSoC5/cmsis_gcc.h ****   __ASM volatile ("");                                           /* Empty asm statement works as a 
 653:Generated_Source\PSoC5/cmsis_gcc.h ****   __ASM volatile ("VMSR fpscr, %0" : : "r" (fpscr) : "vfpcc");
 654:Generated_Source\PSoC5/cmsis_gcc.h ****   __ASM volatile ("");
 655:Generated_Source\PSoC5/cmsis_gcc.h **** #endif
 656:Generated_Source\PSoC5/cmsis_gcc.h **** }
 657:Generated_Source\PSoC5/cmsis_gcc.h **** 
 658:Generated_Source\PSoC5/cmsis_gcc.h **** #endif /* ((defined (__ARM_ARCH_7EM__     ) && (__ARM_ARCH_7EM__     == 1)) || \
ARM GAS  C:\Users\mgnocco\AppData\Local\Temp\ccga5MX6.s 			page 21


 659:Generated_Source\PSoC5/cmsis_gcc.h ****            (defined (__ARM_ARCH_8M_MAIN__ ) && (__ARM_ARCH_8M_MAIN__ == 1))    ) */
 660:Generated_Source\PSoC5/cmsis_gcc.h **** 
 661:Generated_Source\PSoC5/cmsis_gcc.h **** 
 662:Generated_Source\PSoC5/cmsis_gcc.h **** 
 663:Generated_Source\PSoC5/cmsis_gcc.h **** /*@} end of CMSIS_Core_RegAccFunctions */
 664:Generated_Source\PSoC5/cmsis_gcc.h **** 
 665:Generated_Source\PSoC5/cmsis_gcc.h **** 
 666:Generated_Source\PSoC5/cmsis_gcc.h **** /* ##########################  Core Instruction Access  ######################### */
 667:Generated_Source\PSoC5/cmsis_gcc.h **** /** \defgroup CMSIS_Core_InstructionInterface CMSIS Core Instruction Interface
 668:Generated_Source\PSoC5/cmsis_gcc.h ****   Access to dedicated instructions
 669:Generated_Source\PSoC5/cmsis_gcc.h ****   @{
 670:Generated_Source\PSoC5/cmsis_gcc.h **** */
 671:Generated_Source\PSoC5/cmsis_gcc.h **** 
 672:Generated_Source\PSoC5/cmsis_gcc.h **** /* Define macros for porting to both thumb1 and thumb2.
 673:Generated_Source\PSoC5/cmsis_gcc.h ****  * For thumb1, use low register (r0-r7), specified by constraint "l"
 674:Generated_Source\PSoC5/cmsis_gcc.h ****  * Otherwise, use general registers, specified by constraint "r" */
 675:Generated_Source\PSoC5/cmsis_gcc.h **** #if defined (__thumb__) && !defined (__thumb2__)
 676:Generated_Source\PSoC5/cmsis_gcc.h **** #define __CMSIS_GCC_OUT_REG(r) "=l" (r)
 677:Generated_Source\PSoC5/cmsis_gcc.h **** #define __CMSIS_GCC_RW_REG(r) "+l" (r)
 678:Generated_Source\PSoC5/cmsis_gcc.h **** #define __CMSIS_GCC_USE_REG(r) "l" (r)
 679:Generated_Source\PSoC5/cmsis_gcc.h **** #else
 680:Generated_Source\PSoC5/cmsis_gcc.h **** #define __CMSIS_GCC_OUT_REG(r) "=r" (r)
 681:Generated_Source\PSoC5/cmsis_gcc.h **** #define __CMSIS_GCC_RW_REG(r) "+r" (r)
 682:Generated_Source\PSoC5/cmsis_gcc.h **** #define __CMSIS_GCC_USE_REG(r) "r" (r)
 683:Generated_Source\PSoC5/cmsis_gcc.h **** #endif
 684:Generated_Source\PSoC5/cmsis_gcc.h **** 
 685:Generated_Source\PSoC5/cmsis_gcc.h **** /**
 686:Generated_Source\PSoC5/cmsis_gcc.h ****   \brief   No Operation
 687:Generated_Source\PSoC5/cmsis_gcc.h ****   \details No Operation does nothing. This instruction can be used for code alignment purposes.
 688:Generated_Source\PSoC5/cmsis_gcc.h ****  */
 689:Generated_Source\PSoC5/cmsis_gcc.h **** //__attribute__((always_inline)) __STATIC_INLINE void __NOP(void)
 690:Generated_Source\PSoC5/cmsis_gcc.h **** //{
 691:Generated_Source\PSoC5/cmsis_gcc.h **** //  __ASM volatile ("nop");
 692:Generated_Source\PSoC5/cmsis_gcc.h **** //}
 693:Generated_Source\PSoC5/cmsis_gcc.h **** #define __NOP()                             __ASM volatile ("nop")       /* This implementation gen
 694:Generated_Source\PSoC5/cmsis_gcc.h **** 
 695:Generated_Source\PSoC5/cmsis_gcc.h **** /**
 696:Generated_Source\PSoC5/cmsis_gcc.h ****   \brief   Wait For Interrupt
 697:Generated_Source\PSoC5/cmsis_gcc.h ****   \details Wait For Interrupt is a hint instruction that suspends execution until one of a number o
 698:Generated_Source\PSoC5/cmsis_gcc.h ****  */
 699:Generated_Source\PSoC5/cmsis_gcc.h **** //__attribute__((always_inline)) __STATIC_INLINE void __WFI(void)
 700:Generated_Source\PSoC5/cmsis_gcc.h **** //{
 701:Generated_Source\PSoC5/cmsis_gcc.h **** //  __ASM volatile ("wfi");
 702:Generated_Source\PSoC5/cmsis_gcc.h **** //}
 703:Generated_Source\PSoC5/cmsis_gcc.h **** #define __WFI()                             __ASM volatile ("wfi")       /* This implementation gen
 704:Generated_Source\PSoC5/cmsis_gcc.h **** 
 705:Generated_Source\PSoC5/cmsis_gcc.h **** 
 706:Generated_Source\PSoC5/cmsis_gcc.h **** /**
 707:Generated_Source\PSoC5/cmsis_gcc.h ****   \brief   Wait For Event
 708:Generated_Source\PSoC5/cmsis_gcc.h ****   \details Wait For Event is a hint instruction that permits the processor to enter
 709:Generated_Source\PSoC5/cmsis_gcc.h ****            a low-power state until one of a number of events occurs.
 710:Generated_Source\PSoC5/cmsis_gcc.h ****  */
 711:Generated_Source\PSoC5/cmsis_gcc.h **** //__attribute__((always_inline)) __STATIC_INLINE void __WFE(void)
 712:Generated_Source\PSoC5/cmsis_gcc.h **** //{
 713:Generated_Source\PSoC5/cmsis_gcc.h **** //  __ASM volatile ("wfe");
 714:Generated_Source\PSoC5/cmsis_gcc.h **** //}
 715:Generated_Source\PSoC5/cmsis_gcc.h **** #define __WFE()                             __ASM volatile ("wfe")       /* This implementation gen
ARM GAS  C:\Users\mgnocco\AppData\Local\Temp\ccga5MX6.s 			page 22


 716:Generated_Source\PSoC5/cmsis_gcc.h **** 
 717:Generated_Source\PSoC5/cmsis_gcc.h **** 
 718:Generated_Source\PSoC5/cmsis_gcc.h **** /**
 719:Generated_Source\PSoC5/cmsis_gcc.h ****   \brief   Send Event
 720:Generated_Source\PSoC5/cmsis_gcc.h ****   \details Send Event is a hint instruction. It causes an event to be signaled to the CPU.
 721:Generated_Source\PSoC5/cmsis_gcc.h ****  */
 722:Generated_Source\PSoC5/cmsis_gcc.h **** //__attribute__((always_inline)) __STATIC_INLINE void __SEV(void)
 723:Generated_Source\PSoC5/cmsis_gcc.h **** //{
 724:Generated_Source\PSoC5/cmsis_gcc.h **** //  __ASM volatile ("sev");
 725:Generated_Source\PSoC5/cmsis_gcc.h **** //}
 726:Generated_Source\PSoC5/cmsis_gcc.h **** #define __SEV()                             __ASM volatile ("sev")       /* This implementation gen
 727:Generated_Source\PSoC5/cmsis_gcc.h **** 
 728:Generated_Source\PSoC5/cmsis_gcc.h **** 
 729:Generated_Source\PSoC5/cmsis_gcc.h **** /**
 730:Generated_Source\PSoC5/cmsis_gcc.h ****   \brief   Instruction Synchronization Barrier
 731:Generated_Source\PSoC5/cmsis_gcc.h ****   \details Instruction Synchronization Barrier flushes the pipeline in the processor,
 732:Generated_Source\PSoC5/cmsis_gcc.h ****            so that all instructions following the ISB are fetched from cache or memory,
 733:Generated_Source\PSoC5/cmsis_gcc.h ****            after the instruction has been completed.
 734:Generated_Source\PSoC5/cmsis_gcc.h ****  */
 735:Generated_Source\PSoC5/cmsis_gcc.h **** __attribute__((always_inline)) __STATIC_INLINE void __ISB(void)
 736:Generated_Source\PSoC5/cmsis_gcc.h **** {
 737:Generated_Source\PSoC5/cmsis_gcc.h ****   __ASM volatile ("isb 0xF":::"memory");
 738:Generated_Source\PSoC5/cmsis_gcc.h **** }
 739:Generated_Source\PSoC5/cmsis_gcc.h **** 
 740:Generated_Source\PSoC5/cmsis_gcc.h **** 
 741:Generated_Source\PSoC5/cmsis_gcc.h **** /**
 742:Generated_Source\PSoC5/cmsis_gcc.h ****   \brief   Data Synchronization Barrier
 743:Generated_Source\PSoC5/cmsis_gcc.h ****   \details Acts as a special kind of Data Memory Barrier.
 744:Generated_Source\PSoC5/cmsis_gcc.h ****            It completes when all explicit memory accesses before this instruction complete.
 745:Generated_Source\PSoC5/cmsis_gcc.h ****  */
 746:Generated_Source\PSoC5/cmsis_gcc.h **** __attribute__((always_inline)) __STATIC_INLINE void __DSB(void)
 747:Generated_Source\PSoC5/cmsis_gcc.h **** {
 748:Generated_Source\PSoC5/cmsis_gcc.h ****   __ASM volatile ("dsb 0xF":::"memory");
 749:Generated_Source\PSoC5/cmsis_gcc.h **** }
 750:Generated_Source\PSoC5/cmsis_gcc.h **** 
 751:Generated_Source\PSoC5/cmsis_gcc.h **** 
 752:Generated_Source\PSoC5/cmsis_gcc.h **** /**
 753:Generated_Source\PSoC5/cmsis_gcc.h ****   \brief   Data Memory Barrier
 754:Generated_Source\PSoC5/cmsis_gcc.h ****   \details Ensures the apparent order of the explicit memory operations before
 755:Generated_Source\PSoC5/cmsis_gcc.h ****            and after the instruction, without ensuring their completion.
 756:Generated_Source\PSoC5/cmsis_gcc.h ****  */
 757:Generated_Source\PSoC5/cmsis_gcc.h **** __attribute__((always_inline)) __STATIC_INLINE void __DMB(void)
 758:Generated_Source\PSoC5/cmsis_gcc.h **** {
 759:Generated_Source\PSoC5/cmsis_gcc.h ****   __ASM volatile ("dmb 0xF":::"memory");
 760:Generated_Source\PSoC5/cmsis_gcc.h **** }
 761:Generated_Source\PSoC5/cmsis_gcc.h **** 
 762:Generated_Source\PSoC5/cmsis_gcc.h **** 
 763:Generated_Source\PSoC5/cmsis_gcc.h **** /**
 764:Generated_Source\PSoC5/cmsis_gcc.h ****   \brief   Reverse byte order (32 bit)
 765:Generated_Source\PSoC5/cmsis_gcc.h ****   \details Reverses the byte order in integer value.
 766:Generated_Source\PSoC5/cmsis_gcc.h ****   \param [in]    value  Value to reverse
 767:Generated_Source\PSoC5/cmsis_gcc.h ****   \return               Reversed value
 768:Generated_Source\PSoC5/cmsis_gcc.h ****  */
 769:Generated_Source\PSoC5/cmsis_gcc.h **** __attribute__((always_inline)) __STATIC_INLINE uint32_t __REV(uint32_t value)
 770:Generated_Source\PSoC5/cmsis_gcc.h **** {
 771:Generated_Source\PSoC5/cmsis_gcc.h **** #if (__GNUC__ > 4) || (__GNUC__ == 4 && __GNUC_MINOR__ >= 5)
 772:Generated_Source\PSoC5/cmsis_gcc.h ****   return __builtin_bswap32(value);
ARM GAS  C:\Users\mgnocco\AppData\Local\Temp\ccga5MX6.s 			page 23


 773:Generated_Source\PSoC5/cmsis_gcc.h **** #else
 774:Generated_Source\PSoC5/cmsis_gcc.h ****   uint32_t result;
 775:Generated_Source\PSoC5/cmsis_gcc.h **** 
 776:Generated_Source\PSoC5/cmsis_gcc.h ****   __ASM volatile ("rev %0, %1" : __CMSIS_GCC_OUT_REG (result) : __CMSIS_GCC_USE_REG (value) );
 777:Generated_Source\PSoC5/cmsis_gcc.h ****   return(result);
 778:Generated_Source\PSoC5/cmsis_gcc.h **** #endif
 779:Generated_Source\PSoC5/cmsis_gcc.h **** }
 780:Generated_Source\PSoC5/cmsis_gcc.h **** 
 781:Generated_Source\PSoC5/cmsis_gcc.h **** 
 782:Generated_Source\PSoC5/cmsis_gcc.h **** /**
 783:Generated_Source\PSoC5/cmsis_gcc.h ****   \brief   Reverse byte order (16 bit)
 784:Generated_Source\PSoC5/cmsis_gcc.h ****   \details Reverses the byte order in two unsigned short values.
 785:Generated_Source\PSoC5/cmsis_gcc.h ****   \param [in]    value  Value to reverse
 786:Generated_Source\PSoC5/cmsis_gcc.h ****   \return               Reversed value
 787:Generated_Source\PSoC5/cmsis_gcc.h ****  */
 788:Generated_Source\PSoC5/cmsis_gcc.h **** __attribute__((always_inline)) __STATIC_INLINE uint32_t __REV16(uint32_t value)
 789:Generated_Source\PSoC5/cmsis_gcc.h **** {
 790:Generated_Source\PSoC5/cmsis_gcc.h ****   uint32_t result;
 791:Generated_Source\PSoC5/cmsis_gcc.h **** 
 792:Generated_Source\PSoC5/cmsis_gcc.h ****   __ASM volatile ("rev16 %0, %1" : __CMSIS_GCC_OUT_REG (result) : __CMSIS_GCC_USE_REG (value) );
 327              		.loc 2 792 0
 328 0348 BB69     		ldr	r3, [r7, #24]
 329              		.syntax unified
 330              	@ 792 "Generated_Source\PSoC5/cmsis_gcc.h" 1
 331 034a 5BBA     		rev16 r3, r3
 332              	@ 0 "" 2
 333              		.thumb
 334              		.syntax unified
 335 034c 7B61     		str	r3, [r7, #20]
 793:Generated_Source\PSoC5/cmsis_gcc.h ****   return(result);
 336              		.loc 2 793 0
 337 034e 7B69     		ldr	r3, [r7, #20]
 338              	.LBE13:
 339              	.LBE12:
 340              		.loc 1 156 0
 341 0350 9BB2     		uxth	r3, r3
 342 0352 1846     		mov	r0, r3
 343 0354 FFF7FEFF 		bl	infoGet
 157:..\src/command_processing.c ****             break;
 344              		.loc 1 157 0
 345 0358 D4E0     		b	.L1
 346              	.L7:
 158:..\src/command_processing.c **** 
 159:..\src/command_processing.c **** //============================================================     CMD_SET_PARAM
 160:..\src/command_processing.c **** 
 161:..\src/command_processing.c ****         case CMD_SET_ZEROS:
 162:..\src/command_processing.c ****             setZeros();
 347              		.loc 1 162 0
 348 035a FFF7FEFF 		bl	setZeros
 163:..\src/command_processing.c ****             break;
 349              		.loc 1 163 0
 350 035e D1E0     		b	.L1
 351              	.L14:
 164:..\src/command_processing.c **** 
 165:..\src/command_processing.c **** //============================================================     CMD_GET_PARAM
 166:..\src/command_processing.c **** 
 167:..\src/command_processing.c ****         case CMD_GET_PARAM_LIST:
ARM GAS  C:\Users\mgnocco\AppData\Local\Temp\ccga5MX6.s 			page 24


 168:..\src/command_processing.c ****             manage_param_list( __REV16(*((uint16 *) &g_rx.buffer[1])) );
 352              		.loc 1 168 0
 353 0360 0E4B     		ldr	r3, .L53+4
 354 0362 1B88     		ldrh	r3, [r3]
 355 0364 BB62     		str	r3, [r7, #40]
 356              	.LBB14:
 357              	.LBB15:
 792:Generated_Source\PSoC5/cmsis_gcc.h ****   return(result);
 358              		.loc 2 792 0
 359 0366 BB6A     		ldr	r3, [r7, #40]
 360              		.syntax unified
 361              	@ 792 "Generated_Source\PSoC5/cmsis_gcc.h" 1
 362 0368 5BBA     		rev16 r3, r3
 363              	@ 0 "" 2
 364              		.thumb
 365              		.syntax unified
 366 036a 3B61     		str	r3, [r7, #16]
 367              		.loc 2 793 0
 368 036c 3B69     		ldr	r3, [r7, #16]
 369              	.LBE15:
 370              	.LBE14:
 371              		.loc 1 168 0
 372 036e 9BB2     		uxth	r3, r3
 373 0370 1846     		mov	r0, r3
 374 0372 FFF7FEFF 		bl	manage_param_list
 169:..\src/command_processing.c ****             break;
 375              		.loc 1 169 0
 376 0376 C5E0     		b	.L1
 377              	.L5:
 170:..\src/command_processing.c **** 
 171:..\src/command_processing.c **** //=================================================================     CMD_PING
 172:..\src/command_processing.c ****             
 173:..\src/command_processing.c ****         case CMD_PING:
 174:..\src/command_processing.c ****             cmd_ping();
 378              		.loc 1 174 0
 379 0378 FFF7FEFF 		bl	cmd_ping
 175:..\src/command_processing.c ****             break;
 380              		.loc 1 175 0
 381 037c C2E0     		b	.L1
 382              	.L8:
 176:..\src/command_processing.c **** 
 177:..\src/command_processing.c **** //=========================================================     CMD_STORE_PARAMS
 178:..\src/command_processing.c ****             
 179:..\src/command_processing.c ****         case CMD_STORE_PARAMS:
 180:..\src/command_processing.c ****             cmd_store_params();
 383              		.loc 1 180 0
 384 037e FFF7FEFF 		bl	cmd_store_params
 181:..\src/command_processing.c ****             break;
 385              		.loc 1 181 0
 386 0382 BFE0     		b	.L1
 387              	.L9:
 182:..\src/command_processing.c **** 
 183:..\src/command_processing.c **** //=================================================     CMD_STORE_DEFAULT_PARAMS
 184:..\src/command_processing.c **** 
 185:..\src/command_processing.c ****         case CMD_STORE_DEFAULT_PARAMS:
 186:..\src/command_processing.c ****             if(memStore(DEFAULT_EEPROM_DISPLACEMENT))
 388              		.loc 1 186 0
ARM GAS  C:\Users\mgnocco\AppData\Local\Temp\ccga5MX6.s 			page 25


 389 0384 3220     		movs	r0, #50
 390 0386 FFF7FEFF 		bl	memStore
 391 038a 0346     		mov	r3, r0
 392 038c 002B     		cmp	r3, #0
 393 038e 07D0     		beq	.L39
 187:..\src/command_processing.c ****                 sendAcknowledgment(ACK_OK);
 394              		.loc 1 187 0
 395 0390 0120     		movs	r0, #1
 396 0392 FFF7FEFF 		bl	sendAcknowledgment
 188:..\src/command_processing.c ****             else
 189:..\src/command_processing.c ****                 sendAcknowledgment(ACK_ERROR);
 190:..\src/command_processing.c ****             break;
 397              		.loc 1 190 0
 398 0396 B5E0     		b	.L1
 399              	.L54:
 400              		.align	2
 401              	.L53:
 402 0398 00000000 		.word	g_rx
 403 039c 01000000 		.word	g_rx+1
 404              	.L39:
 189:..\src/command_processing.c ****             break;
 405              		.loc 1 189 0
 406 03a0 0020     		movs	r0, #0
 407 03a2 FFF7FEFF 		bl	sendAcknowledgment
 408              		.loc 1 190 0
 409 03a6 ADE0     		b	.L1
 410              	.L10:
 191:..\src/command_processing.c **** 
 192:..\src/command_processing.c **** //=======================================================     CMD_RESTORE_PARAMS
 193:..\src/command_processing.c **** 
 194:..\src/command_processing.c ****         case CMD_RESTORE_PARAMS:
 195:..\src/command_processing.c ****             if(memRestore())
 411              		.loc 1 195 0
 412 03a8 FFF7FEFF 		bl	memRestore
 413 03ac 0346     		mov	r3, r0
 414 03ae 002B     		cmp	r3, #0
 415 03b0 03D0     		beq	.L41
 196:..\src/command_processing.c ****                 sendAcknowledgment(ACK_OK);
 416              		.loc 1 196 0
 417 03b2 0120     		movs	r0, #1
 418 03b4 FFF7FEFF 		bl	sendAcknowledgment
 197:..\src/command_processing.c ****             else
 198:..\src/command_processing.c ****                 sendAcknowledgment(ACK_ERROR);
 199:..\src/command_processing.c ****             break;
 419              		.loc 1 199 0
 420 03b8 A4E0     		b	.L1
 421              	.L41:
 198:..\src/command_processing.c ****             break;
 422              		.loc 1 198 0
 423 03ba 0020     		movs	r0, #0
 424 03bc FFF7FEFF 		bl	sendAcknowledgment
 425              		.loc 1 199 0
 426 03c0 A0E0     		b	.L1
 427              	.L13:
 200:..\src/command_processing.c **** 
 201:..\src/command_processing.c **** //=============================================================     CMD_INIT_MEM
 202:..\src/command_processing.c **** 
ARM GAS  C:\Users\mgnocco\AppData\Local\Temp\ccga5MX6.s 			page 26


 203:..\src/command_processing.c ****         case CMD_INIT_MEM:            
 204:..\src/command_processing.c ****             if(memInit())
 428              		.loc 1 204 0
 429 03c2 FFF7FEFF 		bl	memInit
 430 03c6 0346     		mov	r3, r0
 431 03c8 002B     		cmp	r3, #0
 432 03ca 03D0     		beq	.L43
 205:..\src/command_processing.c ****                 sendAcknowledgment(ACK_OK);
 433              		.loc 1 205 0
 434 03cc 0120     		movs	r0, #1
 435 03ce FFF7FEFF 		bl	sendAcknowledgment
 206:..\src/command_processing.c ****             else
 207:..\src/command_processing.c ****                 sendAcknowledgment(ACK_ERROR);
 208:..\src/command_processing.c ****             break;
 436              		.loc 1 208 0
 437 03d2 97E0     		b	.L1
 438              	.L43:
 207:..\src/command_processing.c ****             break;
 439              		.loc 1 207 0
 440 03d4 0020     		movs	r0, #0
 441 03d6 FFF7FEFF 		bl	sendAcknowledgment
 442              		.loc 1 208 0
 443 03da 93E0     		b	.L1
 444              	.L12:
 209:..\src/command_processing.c **** 
 210:..\src/command_processing.c **** //===========================================================     CMD_BOOTLOADER
 211:..\src/command_processing.c **** 
 212:..\src/command_processing.c ****         case CMD_BOOTLOADER:
 213:..\src/command_processing.c ****             //Not sure if ACK_OK is correct, should check
 214:..\src/command_processing.c ****             sendAcknowledgment(ACK_OK);
 445              		.loc 1 214 0
 446 03dc 0120     		movs	r0, #1
 447 03de FFF7FEFF 		bl	sendAcknowledgment
 215:..\src/command_processing.c ****             CyDelay(1000);
 448              		.loc 1 215 0
 449 03e2 4FF47A70 		mov	r0, #1000
 450 03e6 FFF7FEFF 		bl	CyDelay
 216:..\src/command_processing.c ****             FTDI_ENABLE_Write(0x00);
 451              		.loc 1 216 0
 452 03ea 0020     		movs	r0, #0
 453 03ec FFF7FEFF 		bl	FTDI_ENABLE_Write
 217:..\src/command_processing.c ****             CyDelay(1000);
 454              		.loc 1 217 0
 455 03f0 4FF47A70 		mov	r0, #1000
 456 03f4 FFF7FEFF 		bl	CyDelay
 218:..\src/command_processing.c ****             Bootloadable_Load();
 457              		.loc 1 218 0
 458 03f8 FFF7FEFF 		bl	Bootloadable_Load
 219:..\src/command_processing.c ****             break;
 459              		.loc 1 219 0
 460 03fc 82E0     		b	.L1
 461              	.L15:
 220:..\src/command_processing.c **** 
 221:..\src/command_processing.c **** //============================================================     CMD_HAND_CALIBRATE
 222:..\src/command_processing.c **** 
 223:..\src/command_processing.c ****         case CMD_HAND_CALIBRATE:
 224:..\src/command_processing.c ****             calib.speed = (int16)(g_rx.buffer[1]<<8 | g_rx.buffer[2]);
ARM GAS  C:\Users\mgnocco\AppData\Local\Temp\ccga5MX6.s 			page 27


 462              		.loc 1 224 0
 463 03fe 434B     		ldr	r3, .L55
 464 0400 5B78     		ldrb	r3, [r3, #1]	@ zero_extendqisi2
 465 0402 1B02     		lsls	r3, r3, #8
 466 0404 1AB2     		sxth	r2, r3
 467 0406 414B     		ldr	r3, .L55
 468 0408 9B78     		ldrb	r3, [r3, #2]	@ zero_extendqisi2
 469 040a 1BB2     		sxth	r3, r3
 470 040c 1343     		orrs	r3, r3, r2
 471 040e 1AB2     		sxth	r2, r3
 472 0410 3F4B     		ldr	r3, .L55+4
 473 0412 5A80     		strh	r2, [r3, #2]	@ movhi
 225:..\src/command_processing.c ****             calib.repetitions = (int16)(g_rx.buffer[3]<<8 | g_rx.buffer[4]);
 474              		.loc 1 225 0
 475 0414 3D4B     		ldr	r3, .L55
 476 0416 DB78     		ldrb	r3, [r3, #3]	@ zero_extendqisi2
 477 0418 1B02     		lsls	r3, r3, #8
 478 041a 1AB2     		sxth	r2, r3
 479 041c 3B4B     		ldr	r3, .L55
 480 041e 1B79     		ldrb	r3, [r3, #4]	@ zero_extendqisi2
 481 0420 1BB2     		sxth	r3, r3
 482 0422 1343     		orrs	r3, r3, r2
 483 0424 1AB2     		sxth	r2, r3
 484 0426 3A4B     		ldr	r3, .L55+4
 485 0428 9A80     		strh	r2, [r3, #4]	@ movhi
 226:..\src/command_processing.c ****             
 227:..\src/command_processing.c ****             if(calib.speed == -1 && calib.repetitions == -1) {
 486              		.loc 1 227 0
 487 042a 394B     		ldr	r3, .L55+4
 488 042c B3F90230 		ldrsh	r3, [r3, #2]
 489 0430 B3F1FF3F 		cmp	r3, #-1
 490 0434 0FD1     		bne	.L45
 491              		.loc 1 227 0 is_stmt 0 discriminator 1
 492 0436 364B     		ldr	r3, .L55+4
 493 0438 B3F90430 		ldrsh	r3, [r3, #4]
 494 043c B3F1FF3F 		cmp	r3, #-1
 495 0440 09D1     		bne	.L45
 228:..\src/command_processing.c ****                 calib.enabled = FALSE;
 496              		.loc 1 228 0 is_stmt 1
 497 0442 334B     		ldr	r3, .L55+4
 498 0444 0022     		movs	r2, #0
 499 0446 1A70     		strb	r2, [r3]
 229:..\src/command_processing.c ****                 calib.speed = 0;
 500              		.loc 1 229 0
 501 0448 314B     		ldr	r3, .L55+4
 502 044a 0022     		movs	r2, #0
 503 044c 5A80     		strh	r2, [r3, #2]	@ movhi
 230:..\src/command_processing.c ****                 calib.repetitions = 0;
 504              		.loc 1 230 0
 505 044e 304B     		ldr	r3, .L55+4
 506 0450 0022     		movs	r2, #0
 507 0452 9A80     		strh	r2, [r3, #4]	@ movhi
 231:..\src/command_processing.c ****                 break;
 508              		.loc 1 231 0
 509 0454 56E0     		b	.L1
 510              	.L45:
 232:..\src/command_processing.c ****             }
ARM GAS  C:\Users\mgnocco\AppData\Local\Temp\ccga5MX6.s 			page 28


 233:..\src/command_processing.c ****             // Speed & repetitions saturations
 234:..\src/command_processing.c ****             if (calib.speed < 0) {
 511              		.loc 1 234 0
 512 0456 2E4B     		ldr	r3, .L55+4
 513 0458 B3F90230 		ldrsh	r3, [r3, #2]
 514 045c 002B     		cmp	r3, #0
 515 045e 03DA     		bge	.L46
 235:..\src/command_processing.c ****                 calib.speed = 0;
 516              		.loc 1 235 0
 517 0460 2B4B     		ldr	r3, .L55+4
 518 0462 0022     		movs	r2, #0
 519 0464 5A80     		strh	r2, [r3, #2]	@ movhi
 520 0466 07E0     		b	.L47
 521              	.L46:
 236:..\src/command_processing.c ****             } else if (calib.speed > 200) {
 522              		.loc 1 236 0
 523 0468 294B     		ldr	r3, .L55+4
 524 046a B3F90230 		ldrsh	r3, [r3, #2]
 525 046e C82B     		cmp	r3, #200
 526 0470 02DD     		ble	.L47
 237:..\src/command_processing.c ****                 calib.speed = 200;
 527              		.loc 1 237 0
 528 0472 274B     		ldr	r3, .L55+4
 529 0474 C822     		movs	r2, #200
 530 0476 5A80     		strh	r2, [r3, #2]	@ movhi
 531              	.L47:
 238:..\src/command_processing.c ****             }
 239:..\src/command_processing.c ****             if (calib.repetitions < 0) {
 532              		.loc 1 239 0
 533 0478 254B     		ldr	r3, .L55+4
 534 047a B3F90430 		ldrsh	r3, [r3, #4]
 535 047e 002B     		cmp	r3, #0
 536 0480 02DA     		bge	.L48
 240:..\src/command_processing.c ****                 calib.repetitions = 0;
 537              		.loc 1 240 0
 538 0482 234B     		ldr	r3, .L55+4
 539 0484 0022     		movs	r2, #0
 540 0486 9A80     		strh	r2, [r3, #4]	@ movhi
 541              	.L48:
 241:..\src/command_processing.c ****             } else if (calib.repetitions > 32767) {
 242:..\src/command_processing.c ****                 calib.repetitions = 32767;
 243:..\src/command_processing.c ****             }
 244:..\src/command_processing.c ****             
 245:..\src/command_processing.c ****             g_refNew[0].pos = 0;                    // SoftHand is on motor 1
 542              		.loc 1 245 0
 543 0488 224B     		ldr	r3, .L55+8
 544 048a 0022     		movs	r2, #0
 545 048c 1A60     		str	r2, [r3]
 246:..\src/command_processing.c ****             calib.enabled = TRUE;
 546              		.loc 1 246 0
 547 048e 204B     		ldr	r3, .L55+4
 548 0490 0122     		movs	r2, #1
 549 0492 1A70     		strb	r2, [r3]
 247:..\src/command_processing.c ****          
 248:..\src/command_processing.c ****             sendAcknowledgment(ACK_OK);
 550              		.loc 1 248 0
 551 0494 0120     		movs	r0, #1
ARM GAS  C:\Users\mgnocco\AppData\Local\Temp\ccga5MX6.s 			page 29


 552 0496 FFF7FEFF 		bl	sendAcknowledgment
 249:..\src/command_processing.c ****             break;
 553              		.loc 1 249 0
 554 049a 33E0     		b	.L1
 555              	.L29:
 250:..\src/command_processing.c ****             
 251:..\src/command_processing.c **** //=====================================================     CMD_GET_IMU_READINGS
 252:..\src/command_processing.c **** 
 253:..\src/command_processing.c ****         case CMD_GET_IMU_READINGS:
 254:..\src/command_processing.c ****             cmd_get_imu_readings();
 556              		.loc 1 254 0
 557 049c FFF7FEFF 		bl	cmd_get_imu_readings
 255:..\src/command_processing.c ****             break; 
 558              		.loc 1 255 0
 559 04a0 30E0     		b	.L1
 560              	.L30:
 256:..\src/command_processing.c ****             
 257:..\src/command_processing.c **** //=====================================================     CMD_GET_IMU_PARAM
 258:..\src/command_processing.c **** 
 259:..\src/command_processing.c ****         case CMD_GET_IMU_PARAM:
 260:..\src/command_processing.c ****             get_IMU_param_list( __REV16(*((uint16 *) &g_rx.buffer[1])) );
 561              		.loc 1 260 0
 562 04a2 1D4B     		ldr	r3, .L55+12
 563 04a4 1B88     		ldrh	r3, [r3]
 564 04a6 7B62     		str	r3, [r7, #36]
 565              	.LBB16:
 566              	.LBB17:
 792:Generated_Source\PSoC5/cmsis_gcc.h ****   return(result);
 567              		.loc 2 792 0
 568 04a8 7B6A     		ldr	r3, [r7, #36]
 569              		.syntax unified
 570              	@ 792 "Generated_Source\PSoC5/cmsis_gcc.h" 1
 571 04aa 5BBA     		rev16 r3, r3
 572              	@ 0 "" 2
 573              		.thumb
 574              		.syntax unified
 575 04ac FB60     		str	r3, [r7, #12]
 576              		.loc 2 793 0
 577 04ae FB68     		ldr	r3, [r7, #12]
 578              	.LBE17:
 579              	.LBE16:
 580              		.loc 1 260 0
 581 04b0 9BB2     		uxth	r3, r3
 582 04b2 1846     		mov	r0, r3
 583 04b4 FFF7FEFF 		bl	get_IMU_param_list
 261:..\src/command_processing.c ****             break;             
 584              		.loc 1 261 0
 585 04b8 24E0     		b	.L1
 586              	.L31:
 262:..\src/command_processing.c ****             
 263:..\src/command_processing.c **** //=====================================================     CMD_GET_ENCODER_CONF
 264:..\src/command_processing.c **** 
 265:..\src/command_processing.c ****         case CMD_GET_ENCODER_CONF:
 266:..\src/command_processing.c ****             cmd_get_encoder_map();
 587              		.loc 1 266 0
 588 04ba FFF7FEFF 		bl	cmd_get_encoder_map
 267:..\src/command_processing.c ****             break; 
ARM GAS  C:\Users\mgnocco\AppData\Local\Temp\ccga5MX6.s 			page 30


 589              		.loc 1 267 0
 590 04be 21E0     		b	.L1
 591              	.L32:
 268:..\src/command_processing.c **** 
 269:..\src/command_processing.c **** //=====================================================     CMD_GET_ENCODER_RAW
 270:..\src/command_processing.c **** 
 271:..\src/command_processing.c ****         case CMD_GET_ENCODER_RAW:
 272:..\src/command_processing.c ****             cmd_get_encoder_raw();
 592              		.loc 1 272 0
 593 04c0 FFF7FEFF 		bl	cmd_get_encoder_raw
 273:..\src/command_processing.c ****             break; 
 594              		.loc 1 273 0
 595 04c4 1EE0     		b	.L1
 596              	.L33:
 274:..\src/command_processing.c **** 
 275:..\src/command_processing.c **** //=====================================================     CMD_GET_ADC_CONF
 276:..\src/command_processing.c **** 
 277:..\src/command_processing.c ****         case CMD_GET_ADC_CONF:
 278:..\src/command_processing.c ****             cmd_get_ADC_map();
 597              		.loc 1 278 0
 598 04c6 FFF7FEFF 		bl	cmd_get_ADC_map
 279:..\src/command_processing.c ****             break; 
 599              		.loc 1 279 0
 600 04ca 1BE0     		b	.L1
 601              	.L34:
 280:..\src/command_processing.c ****             
 281:..\src/command_processing.c **** //=====================================================     CMD_GET_ADC_RAW
 282:..\src/command_processing.c **** 
 283:..\src/command_processing.c ****         case CMD_GET_ADC_RAW:
 284:..\src/command_processing.c ****             cmd_get_ADC_raw();
 602              		.loc 1 284 0
 603 04cc FFF7FEFF 		bl	cmd_get_ADC_raw
 285:..\src/command_processing.c ****             break; 
 604              		.loc 1 285 0
 605 04d0 18E0     		b	.L1
 606              	.L35:
 286:..\src/command_processing.c ****             
 287:..\src/command_processing.c **** //=====================================================     CMD_GET_SD_SINGLE_FILE
 288:..\src/command_processing.c **** 
 289:..\src/command_processing.c ****         case CMD_GET_SD_SINGLE_FILE:
 290:..\src/command_processing.c ****             cmd_get_SD_file( __REV16(*((uint16 *) &g_rx.buffer[1])) );
 607              		.loc 1 290 0
 608 04d2 114B     		ldr	r3, .L55+12
 609 04d4 1B88     		ldrh	r3, [r3]
 610 04d6 3B62     		str	r3, [r7, #32]
 611              	.LBB18:
 612              	.LBB19:
 792:Generated_Source\PSoC5/cmsis_gcc.h ****   return(result);
 613              		.loc 2 792 0
 614 04d8 3B6A     		ldr	r3, [r7, #32]
 615              		.syntax unified
 616              	@ 792 "Generated_Source\PSoC5/cmsis_gcc.h" 1
 617 04da 5BBA     		rev16 r3, r3
 618              	@ 0 "" 2
 619              		.thumb
 620              		.syntax unified
 621 04dc BB60     		str	r3, [r7, #8]
ARM GAS  C:\Users\mgnocco\AppData\Local\Temp\ccga5MX6.s 			page 31


 622              		.loc 2 793 0
 623 04de BB68     		ldr	r3, [r7, #8]
 624              	.LBE19:
 625              	.LBE18:
 626              		.loc 1 290 0
 627 04e0 9BB2     		uxth	r3, r3
 628 04e2 1846     		mov	r0, r3
 629 04e4 FFF7FEFF 		bl	cmd_get_SD_file
 291:..\src/command_processing.c ****             break;   
 630              		.loc 1 291 0
 631 04e8 0CE0     		b	.L1
 632              	.L36:
 292:..\src/command_processing.c ****             
 293:..\src/command_processing.c **** //=====================================================     CMD_REMOVE_SD_SINGLE_FILE
 294:..\src/command_processing.c **** 
 295:..\src/command_processing.c ****         case CMD_REMOVE_SD_SINGLE_FILE:
 296:..\src/command_processing.c ****             cmd_remove_SD_file( __REV16(*((uint16 *) &g_rx.buffer[1])) );
 633              		.loc 1 296 0
 634 04ea 0B4B     		ldr	r3, .L55+12
 635 04ec 1B88     		ldrh	r3, [r3]
 636 04ee FB61     		str	r3, [r7, #28]
 637              	.LBB20:
 638              	.LBB21:
 792:Generated_Source\PSoC5/cmsis_gcc.h ****   return(result);
 639              		.loc 2 792 0
 640 04f0 FB69     		ldr	r3, [r7, #28]
 641              		.syntax unified
 642              	@ 792 "Generated_Source\PSoC5/cmsis_gcc.h" 1
 643 04f2 5BBA     		rev16 r3, r3
 644              	@ 0 "" 2
 645              		.thumb
 646              		.syntax unified
 647 04f4 7B60     		str	r3, [r7, #4]
 648              		.loc 2 793 0
 649 04f6 7B68     		ldr	r3, [r7, #4]
 650              	.LBE21:
 651              	.LBE20:
 652              		.loc 1 296 0
 653 04f8 9BB2     		uxth	r3, r3
 654 04fa 1846     		mov	r0, r3
 655 04fc FFF7FEFF 		bl	cmd_remove_SD_file
 297:..\src/command_processing.c ****             break;               
 656              		.loc 1 297 0
 657 0500 00E0     		b	.L1
 658              	.L52:
 298:..\src/command_processing.c ****             
 299:..\src/command_processing.c **** //=========================================================== ALL OTHER COMMANDS
 300:..\src/command_processing.c ****         default:
 301:..\src/command_processing.c ****             break;
 659              		.loc 1 301 0
 660 0502 00BF     		nop
 661              	.L1:
 302:..\src/command_processing.c **** 
 303:..\src/command_processing.c ****     }
 304:..\src/command_processing.c **** }  
 662              		.loc 1 304 0
 663 0504 3037     		adds	r7, r7, #48
ARM GAS  C:\Users\mgnocco\AppData\Local\Temp\ccga5MX6.s 			page 32


 664              		.cfi_def_cfa_offset 8
 665 0506 BD46     		mov	sp, r7
 666              		.cfi_def_cfa_register 13
 667              		@ sp needed
 668 0508 80BD     		pop	{r7, pc}
 669              	.L56:
 670 050a 00BF     		.align	2
 671              	.L55:
 672 050c 00000000 		.word	g_rx
 673 0510 00000000 		.word	calib
 674 0514 00000000 		.word	g_refNew
 675 0518 01000000 		.word	g_rx+1
 676              		.cfi_endproc
 677              	.LFE64:
 678              		.size	commProcess, .-commProcess
 679              		.section	.text.infoSend,"ax",%progbits
 680              		.align	2
 681              		.global	infoSend
 682              		.thumb
 683              		.thumb_func
 684              		.type	infoSend, %function
 685              	infoSend:
 686              	.LFB65:
 305:..\src/command_processing.c **** 
 306:..\src/command_processing.c **** //==============================================================================
 307:..\src/command_processing.c **** //                                                                     INFO SEND
 308:..\src/command_processing.c **** //==============================================================================
 309:..\src/command_processing.c **** 
 310:..\src/command_processing.c **** void infoSend(void){
 687              		.loc 1 310 0
 688              		.cfi_startproc
 689              		@ args = 0, pretend = 0, frame = 1504
 690              		@ frame_needed = 1, uses_anonymous_args = 0
 691 0000 80B5     		push	{r7, lr}
 692              		.cfi_def_cfa_offset 8
 693              		.cfi_offset 7, -8
 694              		.cfi_offset 14, -4
 695 0002 ADF5BC6D 		sub	sp, sp, #1504
 696              		.cfi_def_cfa_offset 1512
 697 0006 00AF     		add	r7, sp, #0
 698              		.cfi_def_cfa_register 7
 311:..\src/command_processing.c ****     char packet_string[1500];
 312:..\src/command_processing.c ****     
 313:..\src/command_processing.c ****     prepare_generic_info(packet_string);
 699              		.loc 1 313 0
 700 0008 3B1D     		adds	r3, r7, #4
 701 000a 1846     		mov	r0, r3
 702 000c FFF7FEFF 		bl	prepare_generic_info
 314:..\src/command_processing.c ****     UART_RS485_PutString(packet_string);
 703              		.loc 1 314 0
 704 0010 3B1D     		adds	r3, r7, #4
 705 0012 1846     		mov	r0, r3
 706 0014 FFF7FEFF 		bl	UART_RS485_PutString
 315:..\src/command_processing.c **** }
 707              		.loc 1 315 0
 708 0018 00BF     		nop
 709 001a 07F5BC67 		add	r7, r7, #1504
ARM GAS  C:\Users\mgnocco\AppData\Local\Temp\ccga5MX6.s 			page 33


 710              		.cfi_def_cfa_offset 8
 711 001e BD46     		mov	sp, r7
 712              		.cfi_def_cfa_register 13
 713              		@ sp needed
 714 0020 80BD     		pop	{r7, pc}
 715              		.cfi_endproc
 716              	.LFE65:
 717              		.size	infoSend, .-infoSend
 718 0022 00BF     		.section	.text.infoGet,"ax",%progbits
 719              		.align	2
 720              		.global	infoGet
 721              		.thumb
 722              		.thumb_func
 723              		.type	infoGet, %function
 724              	infoGet:
 725              	.LFB66:
 316:..\src/command_processing.c **** 
 317:..\src/command_processing.c **** 
 318:..\src/command_processing.c **** //==============================================================================
 319:..\src/command_processing.c **** //                                                              COMMAND GET INFO
 320:..\src/command_processing.c **** //==============================================================================
 321:..\src/command_processing.c **** 
 322:..\src/command_processing.c **** void infoGet(uint16 info_type) {
 726              		.loc 1 322 0
 727              		.cfi_startproc
 728              		@ args = 0, pretend = 0, frame = 24008
 729              		@ frame_needed = 1, uses_anonymous_args = 0
 730 0000 80B5     		push	{r7, lr}
 731              		.cfi_def_cfa_offset 8
 732              		.cfi_offset 7, -8
 733              		.cfi_offset 14, -4
 734 0002 ADF5BB4D 		sub	sp, sp, #23936
 735              		.cfi_def_cfa_offset 23944
 736 0006 92B0     		sub	sp, sp, #72
 737              		.cfi_def_cfa_offset 24016
 738 0008 00AF     		add	r7, sp, #0
 739              		.cfi_def_cfa_register 7
 740 000a 0246     		mov	r2, r0
 741 000c 07F14803 		add	r3, r7, #72
 742 0010 423B     		subs	r3, r3, #66
 743 0012 1A80     		strh	r2, [r3]	@ movhi
 323:..\src/command_processing.c ****     char CYDATA packet_string[4000] = "";
 744              		.loc 1 323 0
 745 0014 07F59C43 		add	r3, r7, #19968
 746 0018 03F12803 		add	r3, r3, #40
 747 001c 0022     		movs	r2, #0
 748 001e 1A60     		str	r2, [r3]
 749 0020 0433     		adds	r3, r3, #4
 750 0022 40F69C72 		movw	r2, #3996
 751 0026 0021     		movs	r1, #0
 752 0028 1846     		mov	r0, r3
 753 002a FFF7FEFF 		bl	memset
 324:..\src/command_processing.c ****     char CYDATA str_sd_data[20000] = "";
 754              		.loc 1 324 0
 755 002e 07F14803 		add	r3, r7, #72
 756 0032 403B     		subs	r3, r3, #64
 757 0034 0022     		movs	r2, #0
ARM GAS  C:\Users\mgnocco\AppData\Local\Temp\ccga5MX6.s 			page 34


 758 0036 1A60     		str	r2, [r3]
 759 0038 0433     		adds	r3, r3, #4
 760 003a 44F61C62 		movw	r2, #19996
 761 003e 0021     		movs	r1, #0
 762 0040 1846     		mov	r0, r3
 763 0042 FFF7FEFF 		bl	memset
 325:..\src/command_processing.c ****     //==================================     choose info type and prepare string
 326:..\src/command_processing.c **** 
 327:..\src/command_processing.c ****     switch (info_type) {
 764              		.loc 1 327 0
 765 0046 07F14803 		add	r3, r7, #72
 766 004a 423B     		subs	r3, r3, #66
 767 004c 1B88     		ldrh	r3, [r3]
 768 004e 062B     		cmp	r3, #6
 769 0050 7DD8     		bhi	.L69
 770 0052 01A2     		adr	r2, .L61
 771 0054 52F823F0 		ldr	pc, [r2, r3, lsl #2]
 772              		.p2align 2
 773              	.L61:
 774 0058 75000000 		.word	.L60+1
 775 005c 97000000 		.word	.L62+1
 776 0060 B9000000 		.word	.L63+1
 777 0064 E1000000 		.word	.L64+1
 778 0068 03010000 		.word	.L65+1
 779 006c 21010000 		.word	.L66+1
 780 0070 27010000 		.word	.L67+1
 781              		.p2align 1
 782              	.L60:
 328:..\src/command_processing.c ****         case INFO_ALL:
 329:..\src/command_processing.c ****             prepare_generic_info(packet_string);
 783              		.loc 1 329 0
 784 0074 07F59C43 		add	r3, r7, #19968
 785 0078 03F12803 		add	r3, r3, #40
 786 007c 1846     		mov	r0, r3
 787 007e FFF7FEFF 		bl	prepare_generic_info
 330:..\src/command_processing.c ****             UART_RS485_ClearTxBuffer(); 
 788              		.loc 1 330 0
 789 0082 FFF7FEFF 		bl	UART_RS485_ClearTxBuffer
 331:..\src/command_processing.c ****             UART_RS485_PutString(packet_string);
 790              		.loc 1 331 0
 791 0086 07F59C43 		add	r3, r7, #19968
 792 008a 03F12803 		add	r3, r3, #40
 793 008e 1846     		mov	r0, r3
 794 0090 FFF7FEFF 		bl	UART_RS485_PutString
 332:..\src/command_processing.c ****             break;
 795              		.loc 1 332 0
 796 0094 5CE0     		b	.L68
 797              	.L62:
 333:..\src/command_processing.c ****         case CYCLES_INFO:
 334:..\src/command_processing.c ****             prepare_counter_info(packet_string);
 798              		.loc 1 334 0
 799 0096 07F59C43 		add	r3, r7, #19968
 800 009a 03F12803 		add	r3, r3, #40
 801 009e 1846     		mov	r0, r3
 802 00a0 FFF7FEFF 		bl	prepare_counter_info
 335:..\src/command_processing.c ****             UART_RS485_ClearTxBuffer();
 803              		.loc 1 335 0
ARM GAS  C:\Users\mgnocco\AppData\Local\Temp\ccga5MX6.s 			page 35


 804 00a4 FFF7FEFF 		bl	UART_RS485_ClearTxBuffer
 336:..\src/command_processing.c ****             UART_RS485_PutString(packet_string);
 805              		.loc 1 336 0
 806 00a8 07F59C43 		add	r3, r7, #19968
 807 00ac 03F12803 		add	r3, r3, #40
 808 00b0 1846     		mov	r0, r3
 809 00b2 FFF7FEFF 		bl	UART_RS485_PutString
 337:..\src/command_processing.c ****             break;
 810              		.loc 1 337 0
 811 00b6 4BE0     		b	.L68
 812              	.L63:
 338:..\src/command_processing.c ****         case GET_SD_PARAM:
 339:..\src/command_processing.c ****             Read_SD_Closed_File(sdParam, packet_string, sizeof(packet_string));
 813              		.loc 1 339 0
 814 00b8 07F59C43 		add	r3, r7, #19968
 815 00bc 03F12803 		add	r3, r3, #40
 816 00c0 4FF47A62 		mov	r2, #4000
 817 00c4 1946     		mov	r1, r3
 818 00c6 2548     		ldr	r0, .L70
 819 00c8 FFF7FEFF 		bl	Read_SD_Closed_File
 340:..\src/command_processing.c ****             UART_RS485_ClearTxBuffer();
 820              		.loc 1 340 0
 821 00cc FFF7FEFF 		bl	UART_RS485_ClearTxBuffer
 341:..\src/command_processing.c ****             UART_RS485_PutString(packet_string);
 822              		.loc 1 341 0
 823 00d0 07F59C43 		add	r3, r7, #19968
 824 00d4 03F12803 		add	r3, r3, #40
 825 00d8 1846     		mov	r0, r3
 826 00da FFF7FEFF 		bl	UART_RS485_PutString
 342:..\src/command_processing.c ****             break;
 827              		.loc 1 342 0
 828 00de 37E0     		b	.L68
 829              	.L64:
 343:..\src/command_processing.c ****         case GET_SD_DATA:
 344:..\src/command_processing.c ****             Read_SD_Current_Data(str_sd_data, sizeof(str_sd_data));
 830              		.loc 1 344 0
 831 00e0 07F14803 		add	r3, r7, #72
 832 00e4 403B     		subs	r3, r3, #64
 833 00e6 44F62061 		movw	r1, #20000
 834 00ea 1846     		mov	r0, r3
 835 00ec FFF7FEFF 		bl	Read_SD_Current_Data
 345:..\src/command_processing.c ****             UART_RS485_ClearTxBuffer();
 836              		.loc 1 345 0
 837 00f0 FFF7FEFF 		bl	UART_RS485_ClearTxBuffer
 346:..\src/command_processing.c ****             UART_RS485_PutString(str_sd_data);
 838              		.loc 1 346 0
 839 00f4 07F14803 		add	r3, r7, #72
 840 00f8 403B     		subs	r3, r3, #64
 841 00fa 1846     		mov	r0, r3
 842 00fc FFF7FEFF 		bl	UART_RS485_PutString
 347:..\src/command_processing.c ****             break;
 843              		.loc 1 347 0
 844 0100 26E0     		b	.L68
 845              	.L65:
 348:..\src/command_processing.c ****         case GET_SD_FS_TREE:
 349:..\src/command_processing.c ****             Get_SD_FS(str_sd_data);
 846              		.loc 1 349 0
ARM GAS  C:\Users\mgnocco\AppData\Local\Temp\ccga5MX6.s 			page 36


 847 0102 07F14803 		add	r3, r7, #72
 848 0106 403B     		subs	r3, r3, #64
 849 0108 1846     		mov	r0, r3
 850 010a FFF7FEFF 		bl	Get_SD_FS
 350:..\src/command_processing.c ****             UART_RS485_ClearTxBuffer();
 851              		.loc 1 350 0
 852 010e FFF7FEFF 		bl	UART_RS485_ClearTxBuffer
 351:..\src/command_processing.c ****             UART_RS485_PutString(str_sd_data);
 853              		.loc 1 351 0
 854 0112 07F14803 		add	r3, r7, #72
 855 0116 403B     		subs	r3, r3, #64
 856 0118 1846     		mov	r0, r3
 857 011a FFF7FEFF 		bl	UART_RS485_PutString
 352:..\src/command_processing.c ****             break;
 858              		.loc 1 352 0
 859 011e 17E0     		b	.L68
 860              	.L66:
 353:..\src/command_processing.c ****         case GET_SD_EMG_HIST:
 354:..\src/command_processing.c ****             // Send every single byte inside the function, since it could be a large file to send
 355:..\src/command_processing.c ****             Read_SD_EMG_History_Data();
 861              		.loc 1 355 0
 862 0120 FFF7FEFF 		bl	Read_SD_EMG_History_Data
 356:..\src/command_processing.c ****             break;
 863              		.loc 1 356 0
 864 0124 14E0     		b	.L68
 865              	.L67:
 357:..\src/command_processing.c ****         case GET_SD_R01_SUMM:
 358:..\src/command_processing.c ****             Read_SD_Closed_File(sdR01File, packet_string, sizeof(packet_string));
 866              		.loc 1 358 0
 867 0126 07F59C43 		add	r3, r7, #19968
 868 012a 03F12803 		add	r3, r3, #40
 869 012e 4FF47A62 		mov	r2, #4000
 870 0132 1946     		mov	r1, r3
 871 0134 0A48     		ldr	r0, .L70+4
 872 0136 FFF7FEFF 		bl	Read_SD_Closed_File
 359:..\src/command_processing.c ****             UART_RS485_ClearTxBuffer();
 873              		.loc 1 359 0
 874 013a FFF7FEFF 		bl	UART_RS485_ClearTxBuffer
 360:..\src/command_processing.c ****             UART_RS485_PutString(packet_string);
 875              		.loc 1 360 0
 876 013e 07F59C43 		add	r3, r7, #19968
 877 0142 03F12803 		add	r3, r3, #40
 878 0146 1846     		mov	r0, r3
 879 0148 FFF7FEFF 		bl	UART_RS485_PutString
 361:..\src/command_processing.c ****             break;            
 880              		.loc 1 361 0
 881 014c 00E0     		b	.L68
 882              	.L69:
 362:..\src/command_processing.c ****         default:
 363:..\src/command_processing.c ****             break;
 883              		.loc 1 363 0
 884 014e 00BF     		nop
 885              	.L68:
 364:..\src/command_processing.c ****     }
 365:..\src/command_processing.c **** }
 886              		.loc 1 365 0 discriminator 1
 887 0150 00BF     		nop
ARM GAS  C:\Users\mgnocco\AppData\Local\Temp\ccga5MX6.s 			page 37


 888 0152 07F5BB47 		add	r7, r7, #23936
 889 0156 4837     		adds	r7, r7, #72
 890              		.cfi_def_cfa_offset 8
 891 0158 BD46     		mov	sp, r7
 892              		.cfi_def_cfa_register 13
 893              		@ sp needed
 894 015a 80BD     		pop	{r7, pc}
 895              	.L71:
 896              		.align	2
 897              	.L70:
 898 015c 00000000 		.word	sdParam
 899 0160 00000000 		.word	sdR01File
 900              		.cfi_endproc
 901              	.LFE66:
 902              		.size	infoGet, .-infoGet
 903              		.global	__aeabi_i2f
 904              		.global	__aeabi_fdiv
 905              		.section	.rodata
 906              		.align	2
 907              	.LC88:
 908 0000 20557362 		.ascii	" Usb\000"
 908      00
 909 0005 000000   		.align	2
 910              	.LC89:
 911 0008 2048616E 		.ascii	" Handle\000"
 911      646C6500 
 912              		.align	2
 913              	.LC90:
 914 0010 20454D47 		.ascii	" EMG proportional\000"
 914      2070726F 
 914      706F7274 
 914      696F6E61 
 914      6C00
 915 0022 0000     		.align	2
 916              	.LC91:
 917 0024 20454D47 		.ascii	" EMG integral\000"
 917      20696E74 
 917      65677261 
 917      6C00
 918 0032 0000     		.align	2
 919              	.LC92:
 920 0034 20454D47 		.ascii	" EMG FCFS\000"
 920      20464346 
 920      5300
 921 003e 0000     		.align	2
 922              	.LC93:
 923 0040 20454D47 		.ascii	" EMG FCFS Advanced\000"
 923      20464346 
 923      53204164 
 923      76616E63 
 923      656400
 924 0053 00       		.align	2
 925              	.LC94:
 926 0054 204A6F79 		.ascii	" Joystick\000"
 926      73746963 
 926      6B00
 927 005e 0000     		.align	2
ARM GAS  C:\Users\mgnocco\AppData\Local\Temp\ccga5MX6.s 			page 38


 928              	.LC95:
 929 0060 20454D47 		.ascii	" EMG proportional Normally Closed\000"
 929      2070726F 
 929      706F7274 
 929      696F6E61 
 929      6C204E6F 
 930 0082 0000     		.align	2
 931              	.LC96:
 932 0084 20506F73 		.ascii	" Position\000"
 932      6974696F 
 932      6E00
 933 008e 0000     		.align	2
 934              	.LC97:
 935 0090 2050574D 		.ascii	" PWM\000"
 935      00
 936 0095 000000   		.align	2
 937              	.LC98:
 938 0098 20437572 		.ascii	" Current\000"
 938      72656E74 
 938      00
 939 00a1 000000   		.align	2
 940              	.LC99:
 941 00a4 20506F73 		.ascii	" Position and Current\000"
 941      6974696F 
 941      6E20616E 
 941      64204375 
 941      7272656E 
 942 00ba 0000     		.align	2
 943              	.LC100:
 944 00bc 20594553 		.ascii	" YES\000\000"
 944      0000
 945 00c2 0000     		.align	2
 946              	.LC101:
 947 00c4 204E4F00 		.ascii	" NO\000\000"
 947      00
 948 00c9 000000   		.align	2
 949              	.LC102:
 950 00cc 20526967 		.ascii	" Right\000\000"
 950      68740000 
 951              		.align	2
 952              	.LC103:
 953 00d4 204C6566 		.ascii	" Left\000\000"
 953      740000
 954 00db 00       		.align	2
 955              	.LC104:
 956 00dc 204F4646 		.ascii	" OFF\000\000"
 956      0000
 957 00e2 0000     		.align	2
 958              	.LC105:
 959 00e4 204F4E00 		.ascii	" ON\000\000"
 959      00
 960 00e9 000000   		.align	2
 961              	.LC106:
 962 00ec 204E6F6E 		.ascii	" None\000\000"
 962      650000
 963 00f3 00       		.align	2
 964              	.LC107:
ARM GAS  C:\Users\mgnocco\AppData\Local\Temp\ccga5MX6.s 			page 39


 965 00f4 2053442F 		.ascii	" SD/RTC board\000\000"
 965      52544320 
 965      626F6172 
 965      640000
 966 0103 00       		.align	2
 967              	.LC108:
 968 0104 20576946 		.ascii	" WiFi board [N/A]\000\000"
 968      6920626F 
 968      61726420 
 968      5B4E2F41 
 968      5D0000
 969 0117 00       		.align	2
 970              	.LC109:
 971 0118 204F7468 		.ascii	" Other [N/A]\000\000"
 971      6572205B 
 971      4E2F415D 
 971      0000
 972 0126 0000     		.align	2
 973              	.LC110:
 974 0128 204C6F77 		.ascii	" Low\000\000"
 974      0000
 975 012e 0000     		.align	2
 976              	.LC111:
 977 0130 20486967 		.ascii	" High\000\000"
 977      680000
 978 0137 00       		.align	2
 979              	.LC112:
 980 0138 2047454E 		.ascii	" GENERIC USER\000\000"
 980      45524943 
 980      20555345 
 980      520000
 981 0147 00       		.align	2
 982              	.LC113:
 983 0148 204D4152 		.ascii	" MARIA\000\000"
 983      49410000 
 984              		.align	2
 985              	.LC114:
 986 0150 20523031 		.ascii	" R01\000\000"
 986      0000
 987 0156 0000     		.align	2
 988              	.LC115:
 989 0158 204D4333 		.ascii	" MC33887 (Standard)\000\000"
 989      33383837 
 989      20285374 
 989      616E6461 
 989      72642900 
 990 016d 000000   		.align	2
 991              	.LC116:
 992 0170 20564E48 		.ascii	" VNH5019 (High power)\000\000"
 992      35303139 
 992      20284869 
 992      67682070 
 992      6F776572 
 993 0187 00       		.align	2
 994              	.LC117:
 995 0188 20455343 		.ascii	" ESC (Brushless)\000\000"
 995      20284272 
ARM GAS  C:\Users\mgnocco\AppData\Local\Temp\ccga5MX6.s 			page 40


 995      7573686C 
 995      65737329 
 995      0000
 996 019a 0000     		.align	2
 997              	.LC118:
 998 019c 20534F46 		.ascii	" SOFTHAND PRO\000\000"
 998      5448414E 
 998      44205052 
 998      4F0000
 999 01ab 00       		.align	2
 1000              	.LC119:
 1001 01ac 2047454E 		.ascii	" GENERIC 2 MOTORS\000\000"
 1001      45524943 
 1001      2032204D 
 1001      4F544F52 
 1001      530000
 1002 01bf 00       		.align	2
 1003              	.LC120:
 1004 01c0 20414952 		.ascii	" AIR CHAMBERS\000\000"
 1004      20434841 
 1004      4D424552 
 1004      530000
 1005 01cf 00       		.align	2
 1006              	.LC121:
 1007 01d0 204F5454 		.ascii	" OTTOBOCK WRIST\000\000"
 1007      4F424F43 
 1007      4B205752 
 1007      49535400 
 1007      00
 1008 01e1 000000   		.align	2
 1009              	.LC122:
 1010 01e4 20534F46 		.ascii	" SOFTHAND 2 MOTORS\000\000"
 1010      5448414E 
 1010      44203220 
 1010      4D4F544F 
 1010      52530000 
 1011              		.align	2
 1012              	.LC123:
 1013 01f8 20466173 		.ascii	" Fast:syn2, Slow:syn1\000\000"
 1013      743A7379 
 1013      6E322C20 
 1013      536C6F77 
 1013      3A73796E 
 1014 020f 00       		.align	2
 1015              	.LC124:
 1016 0210 20466173 		.ascii	" Fast:wrist,Slow:hand\000\000"
 1016      743A7772 
 1016      6973742C 
 1016      536C6F77 
 1016      3A68616E 
 1017 0227 00       		.align	2
 1018              	.LC125:
 1019 0228 20536C6F 		.ascii	" Slow:syn2, Fast:syn1\000\000"
 1019      773A7379 
 1019      6E322C20 
 1019      46617374 
 1019      3A73796E 
ARM GAS  C:\Users\mgnocco\AppData\Local\Temp\ccga5MX6.s 			page 41


 1020 023f 00       		.align	2
 1021              	.LC126:
 1022 0240 20536C6F 		.ascii	" Slow:wrist,Fast:hand\000\000"
 1022      773A7772 
 1022      6973742C 
 1022      46617374 
 1022      3A68616E 
 1023 0257 00       		.align	2
 1024              	.LC127:
 1025 0258 20436C6F 		.ascii	" Close:CW, Open:CCW\000\000"
 1025      73653A43 
 1025      572C204F 
 1025      70656E3A 
 1025      43435700 
 1026 026d 000000   		.align	2
 1027              	.LC128:
 1028 0270 20436C6F 		.ascii	" Close:CCW, Open:CW\000\000"
 1028      73653A43 
 1028      43572C20 
 1028      4F70656E 
 1028      3A435700 
 1029              		.section	.text.get_param_list,"ax",%progbits
 1030              		.align	2
 1031              		.global	get_param_list
 1032              		.thumb
 1033              		.thumb_func
 1034              		.type	get_param_list, %function
 1035              	get_param_list:
 1036              	.LFB67:
 366:..\src/command_processing.c **** 
 367:..\src/command_processing.c **** 
 368:..\src/command_processing.c **** //==============================================================================
 369:..\src/command_processing.c **** //                                                                GET PARAM LIST
 370:..\src/command_processing.c **** //==============================================================================
 371:..\src/command_processing.c **** 
 372:..\src/command_processing.c **** void get_param_list (uint8* VAR_P[NUM_OF_PARAMS], uint8 TYPES[NUM_OF_PARAMS], 
 373:..\src/command_processing.c ****                      uint8 NUM_ITEMS[NUM_OF_PARAMS], uint8 NUM_STRUCT[NUM_OF_PARAMS],
 374:..\src/command_processing.c ****                      uint8* NUM_MENU, const char* PARAMS_STR[NUM_OF_PARAMS], 
 375:..\src/command_processing.c ****                      uint8 CUSTOM_PARAM_GET[NUM_OF_PARAMS], const char* MENU_STR[NUM_OF_PARAMS_MENU
 1037              		.loc 1 375 0
 1038              		.cfi_startproc
 1039              		@ args = 16, pretend = 0, frame = 6104
 1040              		@ frame_needed = 1, uses_anonymous_args = 0
 1041 0000 F0B5     		push	{r4, r5, r6, r7, lr}
 1042              		.cfi_def_cfa_offset 20
 1043              		.cfi_offset 4, -20
 1044              		.cfi_offset 5, -16
 1045              		.cfi_offset 6, -12
 1046              		.cfi_offset 7, -8
 1047              		.cfi_offset 14, -4
 1048 0002 ADF5BE5D 		sub	sp, sp, #6080
 1049              		.cfi_def_cfa_offset 6100
 1050 0006 87B0     		sub	sp, sp, #28
 1051              		.cfi_def_cfa_offset 6128
 1052 0008 00AF     		add	r7, sp, #0
 1053              		.cfi_def_cfa_register 7
 1054 000a 07F11804 		add	r4, r7, #24
ARM GAS  C:\Users\mgnocco\AppData\Local\Temp\ccga5MX6.s 			page 42


 1055 000e 0C3C     		subs	r4, r4, #12
 1056 0010 2060     		str	r0, [r4]
 1057 0012 07F11800 		add	r0, r7, #24
 1058 0016 1038     		subs	r0, r0, #16
 1059 0018 0160     		str	r1, [r0]
 1060 001a 07F11801 		add	r1, r7, #24
 1061 001e 1439     		subs	r1, r1, #20
 1062 0020 0A60     		str	r2, [r1]
 1063 0022 07F11802 		add	r2, r7, #24
 1064 0026 183A     		subs	r2, r2, #24
 1065 0028 1360     		str	r3, [r2]
 376:..\src/command_processing.c ****     
 377:..\src/command_processing.c ****     //Package to be sent variables
 378:..\src/command_processing.c ****     uint8 packet_data[PARAM_BYTE_SLOT*NUM_OF_DEV_PARAMS + PARAM_MENU_SLOT*NUM_OF_DEV_PARAM_MENUS + 
 1066              		.loc 1 378 0
 1067 002a 07F15803 		add	r3, r7, #88
 1068 002e 043B     		subs	r3, r3, #4
 1069 0030 0022     		movs	r2, #0
 1070 0032 1A60     		str	r2, [r3]
 1071 0034 0433     		adds	r3, r3, #4
 1072 0036 41F26C72 		movw	r2, #5996
 1073 003a 0021     		movs	r1, #0
 1074 003c 1846     		mov	r0, r3
 1075 003e FFF7FEFF 		bl	memset
 379:..\src/command_processing.c ****     uint16 packet_lenght = PARAM_BYTE_SLOT*NUM_OF_DEV_PARAMS + PARAM_MENU_SLOT*NUM_OF_DEV_PARAM_MEN
 1076              		.loc 1 379 0
 1077 0042 41F27073 		movw	r3, #6000
 1078 0046 07F5BE52 		add	r2, r7, #6080
 1079 004a 02F11002 		add	r2, r2, #16
 1080 004e 1380     		strh	r3, [r2]	@ movhi
 380:..\src/command_processing.c **** 
 381:..\src/command_processing.c ****     //Auxiliary variables
 382:..\src/command_processing.c ****     uint8 CYDATA i, j;
 383:..\src/command_processing.c ****     uint8 CYDATA idx = 0;       //Parameter number
 1081              		.loc 1 383 0
 1082 0050 0023     		movs	r3, #0
 1083 0052 07F5BE52 		add	r2, r7, #6080
 1084 0056 02F11502 		add	r2, r2, #21
 1085 005a 1370     		strb	r3, [r2]
 384:..\src/command_processing.c ****     uint8 CYDATA idx_menu = 0;
 1086              		.loc 1 384 0
 1087 005c 0023     		movs	r3, #0
 1088 005e 07F5BE52 		add	r2, r7, #6080
 1089 0062 02F11402 		add	r2, r2, #20
 1090 0066 1370     		strb	r3, [r2]
 385:..\src/command_processing.c ****     uint8 CYDATA sod = 0;       //sizeof data
 1091              		.loc 1 385 0
 1092 0068 0023     		movs	r3, #0
 1093 006a 07F5BE52 		add	r2, r7, #6080
 1094 006e 02F11302 		add	r2, r2, #19
 1095 0072 1370     		strb	r3, [r2]
 386:..\src/command_processing.c ****     uint8 CYDATA string_lenght;
 387:..\src/command_processing.c ****     char CYDATA aux_str[50] = "";
 1096              		.loc 1 387 0
 1097 0074 07F13803 		add	r3, r7, #56
 1098 0078 183B     		subs	r3, r3, #24
 1099 007a 0022     		movs	r2, #0
ARM GAS  C:\Users\mgnocco\AppData\Local\Temp\ccga5MX6.s 			page 43


 1100 007c 1A60     		str	r2, [r3]
 1101 007e 0433     		adds	r3, r3, #4
 1102 0080 2E22     		movs	r2, #46
 1103 0082 0021     		movs	r1, #0
 1104 0084 1846     		mov	r0, r3
 1105 0086 FFF7FEFF 		bl	memset
 388:..\src/command_processing.c ****     float aux_float;
 389:..\src/command_processing.c ****     int16 aux_int16;
 390:..\src/command_processing.c ****     uint16 aux_uint16;
 391:..\src/command_processing.c ****     int32 aux_int32;
 392:..\src/command_processing.c ****     uint32 aux_uint32;
 393:..\src/command_processing.c **** 
 394:..\src/command_processing.c ****     uint8 MOTOR_IDX = 0;
 1106              		.loc 1 394 0
 1107 008a 0023     		movs	r3, #0
 1108 008c 07F5BE52 		add	r2, r7, #6080
 1109 0090 02F10F02 		add	r2, r2, #15
 1110 0094 1370     		strb	r3, [r2]
 395:..\src/command_processing.c ****     uint8 SECOND_MOTOR_IDX = 1;
 1111              		.loc 1 395 0
 1112 0096 0123     		movs	r3, #1
 1113 0098 07F5BE52 		add	r2, r7, #6080
 1114 009c 02F10E02 		add	r2, r2, #14
 1115 00a0 1370     		strb	r3, [r2]
 396:..\src/command_processing.c ****   
 397:..\src/command_processing.c ****     uint8* m_addr = (uint8*)VAR_P[0];
 1116              		.loc 1 397 0
 1117 00a2 07F11803 		add	r3, r7, #24
 1118 00a6 0C3B     		subs	r3, r3, #12
 1119 00a8 1B68     		ldr	r3, [r3]
 1120 00aa 1B68     		ldr	r3, [r3]
 1121 00ac 07F5BE52 		add	r2, r7, #6080
 1122 00b0 02F10802 		add	r2, r2, #8
 1123 00b4 1360     		str	r3, [r2]
 398:..\src/command_processing.c ****     uint8* m_tmp = m_addr;
 1124              		.loc 1 398 0
 1125 00b6 07F5BE53 		add	r3, r7, #6080
 1126 00ba 03F10803 		add	r3, r3, #8
 1127 00be 1B68     		ldr	r3, [r3]
 1128 00c0 07F5BE52 		add	r2, r7, #6080
 1129 00c4 02F10402 		add	r2, r2, #4
 1130 00c8 1360     		str	r3, [r2]
 399:..\src/command_processing.c ****         
 400:..\src/command_processing.c ****     packet_data[0] = CMD_GET_PARAM_LIST;
 1131              		.loc 1 400 0
 1132 00ca 07F15803 		add	r3, r7, #88
 1133 00ce 043B     		subs	r3, r3, #4
 1134 00d0 0C22     		movs	r2, #12
 1135 00d2 1A70     		strb	r2, [r3]
 401:..\src/command_processing.c ****     packet_data[1] = NUM_OF_DEV_PARAMS;
 1136              		.loc 1 401 0
 1137 00d4 07F15803 		add	r3, r7, #88
 1138 00d8 043B     		subs	r3, r3, #4
 1139 00da 5322     		movs	r2, #83
 1140 00dc 5A70     		strb	r2, [r3, #1]
 402:..\src/command_processing.c ****     
 403:..\src/command_processing.c ****     for (idx = 0; idx < NUM_OF_DEV_PARAMS; idx++) {
ARM GAS  C:\Users\mgnocco\AppData\Local\Temp\ccga5MX6.s 			page 44


 1141              		.loc 1 403 0
 1142 00de 0023     		movs	r3, #0
 1143 00e0 07F5BE52 		add	r2, r7, #6080
 1144 00e4 02F11502 		add	r2, r2, #21
 1145 00e8 1370     		strb	r3, [r2]
 1146 00ea 03F025B8 		b	.L73
 1147              	.L278:
 404:..\src/command_processing.c ****         
 405:..\src/command_processing.c ****         // Assign m_addr memory address
 406:..\src/command_processing.c ****         m_addr = (uint8*)VAR_P[idx];
 1148              		.loc 1 406 0
 1149 00ee 07F5BE53 		add	r3, r7, #6080
 1150 00f2 03F11503 		add	r3, r3, #21
 1151 00f6 1B78     		ldrb	r3, [r3]	@ zero_extendqisi2
 1152 00f8 9A00     		lsls	r2, r3, #2
 1153 00fa 07F11803 		add	r3, r7, #24
 1154 00fe 0C3B     		subs	r3, r3, #12
 1155 0100 1B68     		ldr	r3, [r3]
 1156 0102 1344     		add	r3, r3, r2
 1157 0104 1B68     		ldr	r3, [r3]
 1158 0106 07F5BE52 		add	r2, r7, #6080
 1159 010a 02F10802 		add	r2, r2, #8
 1160 010e 1360     		str	r3, [r2]
 407:..\src/command_processing.c ****         
 408:..\src/command_processing.c ****         // Add parameter type and size to packet
 409:..\src/command_processing.c ****         packet_data[2 + PARAM_BYTE_SLOT*idx] = TYPES[idx];
 1161              		.loc 1 409 0
 1162 0110 07F5BE53 		add	r3, r7, #6080
 1163 0114 03F11503 		add	r3, r3, #21
 1164 0118 1B78     		ldrb	r3, [r3]	@ zero_extendqisi2
 1165 011a 3222     		movs	r2, #50
 1166 011c 02FB03F3 		mul	r3, r2, r3
 1167 0120 9A1C     		adds	r2, r3, #2
 1168 0122 07F5BE53 		add	r3, r7, #6080
 1169 0126 03F11503 		add	r3, r3, #21
 1170 012a 1978     		ldrb	r1, [r3]	@ zero_extendqisi2
 1171 012c 07F11803 		add	r3, r7, #24
 1172 0130 103B     		subs	r3, r3, #16
 1173 0132 1B68     		ldr	r3, [r3]
 1174 0134 0B44     		add	r3, r3, r1
 1175 0136 1978     		ldrb	r1, [r3]	@ zero_extendqisi2
 1176 0138 07F15803 		add	r3, r7, #88
 1177 013c 043B     		subs	r3, r3, #4
 1178 013e 9954     		strb	r1, [r3, r2]
 410:..\src/command_processing.c ****         packet_data[3 + PARAM_BYTE_SLOT*idx] = NUM_ITEMS[idx];
 1179              		.loc 1 410 0
 1180 0140 07F5BE53 		add	r3, r7, #6080
 1181 0144 03F11503 		add	r3, r3, #21
 1182 0148 1B78     		ldrb	r3, [r3]	@ zero_extendqisi2
 1183 014a 3222     		movs	r2, #50
 1184 014c 02FB03F3 		mul	r3, r2, r3
 1185 0150 DA1C     		adds	r2, r3, #3
 1186 0152 07F5BE53 		add	r3, r7, #6080
 1187 0156 03F11503 		add	r3, r3, #21
 1188 015a 1978     		ldrb	r1, [r3]	@ zero_extendqisi2
 1189 015c 07F11803 		add	r3, r7, #24
 1190 0160 143B     		subs	r3, r3, #20
ARM GAS  C:\Users\mgnocco\AppData\Local\Temp\ccga5MX6.s 			page 45


 1191 0162 1B68     		ldr	r3, [r3]
 1192 0164 0B44     		add	r3, r3, r1
 1193 0166 1978     		ldrb	r1, [r3]	@ zero_extendqisi2
 1194 0168 07F15803 		add	r3, r7, #88
 1195 016c 043B     		subs	r3, r3, #4
 1196 016e 9954     		strb	r1, [r3, r2]
 411:..\src/command_processing.c ****         
 412:..\src/command_processing.c ****         // Find size of data
 413:..\src/command_processing.c ****         switch (TYPES[idx]) {
 1197              		.loc 1 413 0
 1198 0170 07F5BE53 		add	r3, r7, #6080
 1199 0174 03F11503 		add	r3, r3, #21
 1200 0178 1A78     		ldrb	r2, [r3]	@ zero_extendqisi2
 1201 017a 07F11803 		add	r3, r7, #24
 1202 017e 103B     		subs	r3, r3, #16
 1203 0180 1B68     		ldr	r3, [r3]
 1204 0182 1344     		add	r3, r3, r2
 1205 0184 1B78     		ldrb	r3, [r3]	@ zero_extendqisi2
 1206 0186 092B     		cmp	r3, #9
 1207 0188 2BD8     		bhi	.L74
 1208 018a 01A2     		adr	r2, .L76
 1209 018c 52F823F0 		ldr	pc, [r2, r3, lsl #2]
 1210              		.p2align 2
 1211              	.L76:
 1212 0190 B9010000 		.word	.L75+1
 1213 0194 B9010000 		.word	.L75+1
 1214 0198 B9010000 		.word	.L75+1
 1215 019c C7010000 		.word	.L77+1
 1216 01a0 C7010000 		.word	.L77+1
 1217 01a4 D5010000 		.word	.L78+1
 1218 01a8 D5010000 		.word	.L78+1
 1219 01ac D5010000 		.word	.L78+1
 1220 01b0 E3010000 		.word	.L74+1
 1221 01b4 B9010000 		.word	.L75+1
 1222              		.p2align 1
 1223              	.L75:
 414:..\src/command_processing.c ****             case TYPE_FLAG: case TYPE_INT8: case TYPE_UINT8: case TYPE_STRING:
 415:..\src/command_processing.c ****                 sod = 1; break;
 1224              		.loc 1 415 0
 1225 01b8 0123     		movs	r3, #1
 1226 01ba 07F5BE52 		add	r2, r7, #6080
 1227 01be 02F11302 		add	r2, r2, #19
 1228 01c2 1370     		strb	r3, [r2]
 1229 01c4 0DE0     		b	.L74
 1230              	.L77:
 416:..\src/command_processing.c ****             case TYPE_INT16: case TYPE_UINT16:
 417:..\src/command_processing.c ****                 sod = 2; break;
 1231              		.loc 1 417 0
 1232 01c6 0223     		movs	r3, #2
 1233 01c8 07F5BE52 		add	r2, r7, #6080
 1234 01cc 02F11302 		add	r2, r2, #19
 1235 01d0 1370     		strb	r3, [r2]
 1236 01d2 06E0     		b	.L74
 1237              	.L78:
 418:..\src/command_processing.c ****             case TYPE_INT32: case TYPE_UINT32: case TYPE_FLOAT:
 419:..\src/command_processing.c ****                 sod = 4; break;
 1238              		.loc 1 419 0
ARM GAS  C:\Users\mgnocco\AppData\Local\Temp\ccga5MX6.s 			page 46


 1239 01d4 0423     		movs	r3, #4
 1240 01d6 07F5BE52 		add	r2, r7, #6080
 1241 01da 02F11302 		add	r2, r2, #19
 1242 01de 1370     		strb	r3, [r2]
 1243 01e0 00BF     		nop
 1244              	.L74:
 420:..\src/command_processing.c ****         }
 421:..\src/command_processing.c ****             
 422:..\src/command_processing.c ****         if (!CUSTOM_PARAM_GET[idx]) {       // Default param get
 1245              		.loc 1 422 0
 1246 01e2 07F5BE53 		add	r3, r7, #6080
 1247 01e6 03F11503 		add	r3, r3, #21
 1248 01ea 1B78     		ldrb	r3, [r3]	@ zero_extendqisi2
 1249 01ec 07F5BF52 		add	r2, r7, #6112
 1250 01f0 02F11802 		add	r2, r2, #24
 1251 01f4 1268     		ldr	r2, [r2]
 1252 01f6 1344     		add	r3, r3, r2
 1253 01f8 1B78     		ldrb	r3, [r3]	@ zero_extendqisi2
 1254 01fa 002B     		cmp	r3, #0
 1255 01fc 40F0DA83 		bne	.L79
 423:..\src/command_processing.c ****             
 424:..\src/command_processing.c ****             // Add parameter data to packet
 425:..\src/command_processing.c ****             switch (TYPES[idx]) {
 1256              		.loc 1 425 0
 1257 0200 07F5BE53 		add	r3, r7, #6080
 1258 0204 03F11503 		add	r3, r3, #21
 1259 0208 1A78     		ldrb	r2, [r3]	@ zero_extendqisi2
 1260 020a 07F11803 		add	r3, r7, #24
 1261 020e 103B     		subs	r3, r3, #16
 1262 0210 1B68     		ldr	r3, [r3]
 1263 0212 1344     		add	r3, r3, r2
 1264 0214 1B78     		ldrb	r3, [r3]	@ zero_extendqisi2
 1265 0216 092B     		cmp	r3, #9
 1266 0218 02F25781 		bhi	.L113
 1267 021c 01A2     		adr	r2, .L82
 1268 021e 52F823F0 		ldr	pc, [r2, r3, lsl #2]
 1269 0222 00BF     		.p2align 2
 1270              	.L82:
 1271 0224 4D020000 		.word	.L81+1
 1272 0228 09030000 		.word	.L83+1
 1273 022c 4D020000 		.word	.L81+1
 1274 0230 C5030000 		.word	.L84+1
 1275 0234 F7040000 		.word	.L85+1
 1276 0238 23060000 		.word	.L86+1
 1277 023c 53070000 		.word	.L87+1
 1278 0240 83080000 		.word	.L88+1
 1279 0244 CB240000 		.word	.L113+1
 1280 0248 4D020000 		.word	.L81+1
 1281              		.p2align 1
 1282              	.L81:
 426:..\src/command_processing.c ****                 case TYPE_FLAG: case TYPE_UINT8: case TYPE_STRING:
 427:..\src/command_processing.c ****                     for (i=0; i<NUM_ITEMS[idx]; i++){
 1283              		.loc 1 427 0
 1284 024c 0023     		movs	r3, #0
 1285 024e 07F5BE52 		add	r2, r7, #6080
 1286 0252 02F11702 		add	r2, r2, #23
 1287 0256 1370     		strb	r3, [r2]
ARM GAS  C:\Users\mgnocco\AppData\Local\Temp\ccga5MX6.s 			page 47


 1288 0258 42E0     		b	.L89
 1289              	.L90:
 428:..\src/command_processing.c ****                         m_tmp = m_addr + i*sod;
 1290              		.loc 1 428 0 discriminator 3
 1291 025a 07F5BE53 		add	r3, r7, #6080
 1292 025e 03F11703 		add	r3, r3, #23
 1293 0262 1B78     		ldrb	r3, [r3]	@ zero_extendqisi2
 1294 0264 07F5BE52 		add	r2, r7, #6080
 1295 0268 02F11302 		add	r2, r2, #19
 1296 026c 1278     		ldrb	r2, [r2]	@ zero_extendqisi2
 1297 026e 02FB03F3 		mul	r3, r2, r3
 1298 0272 1A46     		mov	r2, r3
 1299 0274 07F5BE53 		add	r3, r7, #6080
 1300 0278 03F10803 		add	r3, r3, #8
 1301 027c 1B68     		ldr	r3, [r3]
 1302 027e 1344     		add	r3, r3, r2
 1303 0280 07F5BE52 		add	r2, r7, #6080
 1304 0284 02F10402 		add	r2, r2, #4
 1305 0288 1360     		str	r3, [r2]
 429:..\src/command_processing.c ****                         packet_data[4 + PARAM_BYTE_SLOT*idx + i*sod] = *m_tmp;
 1306              		.loc 1 429 0 discriminator 3
 1307 028a 07F5BE53 		add	r3, r7, #6080
 1308 028e 03F11503 		add	r3, r3, #21
 1309 0292 1B78     		ldrb	r3, [r3]	@ zero_extendqisi2
 1310 0294 3222     		movs	r2, #50
 1311 0296 02FB03F3 		mul	r3, r2, r3
 1312 029a 1A1D     		adds	r2, r3, #4
 1313 029c 07F5BE53 		add	r3, r7, #6080
 1314 02a0 03F11703 		add	r3, r3, #23
 1315 02a4 1B78     		ldrb	r3, [r3]	@ zero_extendqisi2
 1316 02a6 07F5BE51 		add	r1, r7, #6080
 1317 02aa 01F11301 		add	r1, r1, #19
 1318 02ae 0978     		ldrb	r1, [r1]	@ zero_extendqisi2
 1319 02b0 01FB03F3 		mul	r3, r1, r3
 1320 02b4 1A44     		add	r2, r2, r3
 1321 02b6 07F5BE53 		add	r3, r7, #6080
 1322 02ba 03F10403 		add	r3, r3, #4
 1323 02be 1B68     		ldr	r3, [r3]
 1324 02c0 1978     		ldrb	r1, [r3]	@ zero_extendqisi2
 1325 02c2 07F15803 		add	r3, r7, #88
 1326 02c6 043B     		subs	r3, r3, #4
 1327 02c8 9954     		strb	r1, [r3, r2]
 427:..\src/command_processing.c ****                         m_tmp = m_addr + i*sod;
 1328              		.loc 1 427 0 discriminator 3
 1329 02ca 07F5BE53 		add	r3, r7, #6080
 1330 02ce 03F11703 		add	r3, r3, #23
 1331 02d2 1B78     		ldrb	r3, [r3]	@ zero_extendqisi2
 1332 02d4 0133     		adds	r3, r3, #1
 1333 02d6 07F5BE52 		add	r2, r7, #6080
 1334 02da 02F11702 		add	r2, r2, #23
 1335 02de 1370     		strb	r3, [r2]
 1336              	.L89:
 427:..\src/command_processing.c ****                         m_tmp = m_addr + i*sod;
 1337              		.loc 1 427 0 is_stmt 0 discriminator 1
 1338 02e0 07F5BE53 		add	r3, r7, #6080
 1339 02e4 03F11503 		add	r3, r3, #21
 1340 02e8 1A78     		ldrb	r2, [r3]	@ zero_extendqisi2
ARM GAS  C:\Users\mgnocco\AppData\Local\Temp\ccga5MX6.s 			page 48


 1341 02ea 07F11803 		add	r3, r7, #24
 1342 02ee 143B     		subs	r3, r3, #20
 1343 02f0 1B68     		ldr	r3, [r3]
 1344 02f2 1344     		add	r3, r3, r2
 1345 02f4 1B78     		ldrb	r3, [r3]	@ zero_extendqisi2
 1346 02f6 07F5BE52 		add	r2, r7, #6080
 1347 02fa 02F11702 		add	r2, r2, #23
 1348 02fe 1278     		ldrb	r2, [r2]	@ zero_extendqisi2
 1349 0300 9A42     		cmp	r2, r3
 1350 0302 AAD3     		bcc	.L90
 430:..\src/command_processing.c ****                     }
 431:..\src/command_processing.c ****                     break;                
 1351              		.loc 1 431 0 is_stmt 1
 1352 0304 02F0E1B8 		b	.L113
 1353              	.L83:
 432:..\src/command_processing.c ****                 case TYPE_INT8:
 433:..\src/command_processing.c ****                     for (i=0; i<NUM_ITEMS[idx]; i++){
 1354              		.loc 1 433 0
 1355 0308 0023     		movs	r3, #0
 1356 030a 07F5BE52 		add	r2, r7, #6080
 1357 030e 02F11702 		add	r2, r2, #23
 1358 0312 1370     		strb	r3, [r2]
 1359 0314 42E0     		b	.L91
 1360              	.L92:
 434:..\src/command_processing.c ****                         m_tmp = m_addr + i*sod;
 1361              		.loc 1 434 0 discriminator 3
 1362 0316 07F5BE53 		add	r3, r7, #6080
 1363 031a 03F11703 		add	r3, r3, #23
 1364 031e 1B78     		ldrb	r3, [r3]	@ zero_extendqisi2
 1365 0320 07F5BE52 		add	r2, r7, #6080
 1366 0324 02F11302 		add	r2, r2, #19
 1367 0328 1278     		ldrb	r2, [r2]	@ zero_extendqisi2
 1368 032a 02FB03F3 		mul	r3, r2, r3
 1369 032e 1A46     		mov	r2, r3
 1370 0330 07F5BE53 		add	r3, r7, #6080
 1371 0334 03F10803 		add	r3, r3, #8
 1372 0338 1B68     		ldr	r3, [r3]
 1373 033a 1344     		add	r3, r3, r2
 1374 033c 07F5BE52 		add	r2, r7, #6080
 1375 0340 02F10402 		add	r2, r2, #4
 1376 0344 1360     		str	r3, [r2]
 435:..\src/command_processing.c ****                         packet_data[4 + PARAM_BYTE_SLOT*idx + i*sod] = *m_tmp;
 1377              		.loc 1 435 0 discriminator 3
 1378 0346 07F5BE53 		add	r3, r7, #6080
 1379 034a 03F11503 		add	r3, r3, #21
 1380 034e 1B78     		ldrb	r3, [r3]	@ zero_extendqisi2
 1381 0350 3222     		movs	r2, #50
 1382 0352 02FB03F3 		mul	r3, r2, r3
 1383 0356 1A1D     		adds	r2, r3, #4
 1384 0358 07F5BE53 		add	r3, r7, #6080
 1385 035c 03F11703 		add	r3, r3, #23
 1386 0360 1B78     		ldrb	r3, [r3]	@ zero_extendqisi2
 1387 0362 07F5BE51 		add	r1, r7, #6080
 1388 0366 01F11301 		add	r1, r1, #19
 1389 036a 0978     		ldrb	r1, [r1]	@ zero_extendqisi2
 1390 036c 01FB03F3 		mul	r3, r1, r3
 1391 0370 1A44     		add	r2, r2, r3
ARM GAS  C:\Users\mgnocco\AppData\Local\Temp\ccga5MX6.s 			page 49


 1392 0372 07F5BE53 		add	r3, r7, #6080
 1393 0376 03F10403 		add	r3, r3, #4
 1394 037a 1B68     		ldr	r3, [r3]
 1395 037c 1978     		ldrb	r1, [r3]	@ zero_extendqisi2
 1396 037e 07F15803 		add	r3, r7, #88
 1397 0382 043B     		subs	r3, r3, #4
 1398 0384 9954     		strb	r1, [r3, r2]
 433:..\src/command_processing.c ****                         m_tmp = m_addr + i*sod;
 1399              		.loc 1 433 0 discriminator 3
 1400 0386 07F5BE53 		add	r3, r7, #6080
 1401 038a 03F11703 		add	r3, r3, #23
 1402 038e 1B78     		ldrb	r3, [r3]	@ zero_extendqisi2
 1403 0390 0133     		adds	r3, r3, #1
 1404 0392 07F5BE52 		add	r2, r7, #6080
 1405 0396 02F11702 		add	r2, r2, #23
 1406 039a 1370     		strb	r3, [r2]
 1407              	.L91:
 433:..\src/command_processing.c ****                         m_tmp = m_addr + i*sod;
 1408              		.loc 1 433 0 is_stmt 0 discriminator 1
 1409 039c 07F5BE53 		add	r3, r7, #6080
 1410 03a0 03F11503 		add	r3, r3, #21
 1411 03a4 1A78     		ldrb	r2, [r3]	@ zero_extendqisi2
 1412 03a6 07F11803 		add	r3, r7, #24
 1413 03aa 143B     		subs	r3, r3, #20
 1414 03ac 1B68     		ldr	r3, [r3]
 1415 03ae 1344     		add	r3, r3, r2
 1416 03b0 1B78     		ldrb	r3, [r3]	@ zero_extendqisi2
 1417 03b2 07F5BE52 		add	r2, r7, #6080
 1418 03b6 02F11702 		add	r2, r2, #23
 1419 03ba 1278     		ldrb	r2, [r2]	@ zero_extendqisi2
 1420 03bc 9A42     		cmp	r2, r3
 1421 03be AAD3     		bcc	.L92
 436:..\src/command_processing.c ****                     }
 437:..\src/command_processing.c ****                     break;
 1422              		.loc 1 437 0 is_stmt 1
 1423 03c0 02F083B8 		b	.L113
 1424              	.L84:
 438:..\src/command_processing.c ****                 case TYPE_INT16:
 439:..\src/command_processing.c ****                     for (i=0; i<NUM_ITEMS[idx]; i++){
 1425              		.loc 1 439 0
 1426 03c4 0023     		movs	r3, #0
 1427 03c6 07F5BE52 		add	r2, r7, #6080
 1428 03ca 02F11702 		add	r2, r2, #23
 1429 03ce 1370     		strb	r3, [r2]
 1430 03d0 7CE0     		b	.L93
 1431              	.L96:
 440:..\src/command_processing.c ****                         m_tmp = m_addr + i*sod;
 1432              		.loc 1 440 0
 1433 03d2 07F5BE53 		add	r3, r7, #6080
 1434 03d6 03F11703 		add	r3, r3, #23
 1435 03da 1B78     		ldrb	r3, [r3]	@ zero_extendqisi2
 1436 03dc 07F5BE52 		add	r2, r7, #6080
 1437 03e0 02F11302 		add	r2, r2, #19
 1438 03e4 1278     		ldrb	r2, [r2]	@ zero_extendqisi2
 1439 03e6 02FB03F3 		mul	r3, r2, r3
 1440 03ea 1A46     		mov	r2, r3
 1441 03ec 07F5BE53 		add	r3, r7, #6080
ARM GAS  C:\Users\mgnocco\AppData\Local\Temp\ccga5MX6.s 			page 50


 1442 03f0 03F10803 		add	r3, r3, #8
 1443 03f4 1B68     		ldr	r3, [r3]
 1444 03f6 1344     		add	r3, r3, r2
 1445 03f8 07F5BE52 		add	r2, r7, #6080
 1446 03fc 02F10402 		add	r2, r2, #4
 1447 0400 1360     		str	r3, [r2]
 441:..\src/command_processing.c ****                         aux_int16 = *((int16*)m_tmp);
 1448              		.loc 1 441 0
 1449 0402 07F5BE53 		add	r3, r7, #6080
 1450 0406 03F10403 		add	r3, r3, #4
 1451 040a 1B68     		ldr	r3, [r3]
 1452 040c B3F90020 		ldrsh	r2, [r3]
 1453 0410 07F13803 		add	r3, r7, #56
 1454 0414 1E3B     		subs	r3, r3, #30
 1455 0416 1A80     		strh	r2, [r3]	@ movhi
 442:..\src/command_processing.c ****                         for(j = 0; j < sod; j++) {
 1456              		.loc 1 442 0
 1457 0418 0023     		movs	r3, #0
 1458 041a 07F5BE52 		add	r2, r7, #6080
 1459 041e 02F11602 		add	r2, r2, #22
 1460 0422 1370     		strb	r3, [r2]
 1461 0424 3BE0     		b	.L94
 1462              	.L95:
 443:..\src/command_processing.c ****                             packet_data[(4 + PARAM_BYTE_SLOT*idx + i*sod) + sod - j -1] = ((char*)(
 1463              		.loc 1 443 0 discriminator 3
 1464 0426 07F5BE53 		add	r3, r7, #6080
 1465 042a 03F11503 		add	r3, r3, #21
 1466 042e 1B78     		ldrb	r3, [r3]	@ zero_extendqisi2
 1467 0430 3222     		movs	r2, #50
 1468 0432 02FB03F3 		mul	r3, r2, r3
 1469 0436 1A1D     		adds	r2, r3, #4
 1470 0438 07F5BE53 		add	r3, r7, #6080
 1471 043c 03F11703 		add	r3, r3, #23
 1472 0440 1B78     		ldrb	r3, [r3]	@ zero_extendqisi2
 1473 0442 07F5BE51 		add	r1, r7, #6080
 1474 0446 01F11301 		add	r1, r1, #19
 1475 044a 0978     		ldrb	r1, [r1]	@ zero_extendqisi2
 1476 044c 01FB03F3 		mul	r3, r1, r3
 1477 0450 1A44     		add	r2, r2, r3
 1478 0452 07F5BE53 		add	r3, r7, #6080
 1479 0456 03F11303 		add	r3, r3, #19
 1480 045a 1B78     		ldrb	r3, [r3]	@ zero_extendqisi2
 1481 045c 1A44     		add	r2, r2, r3
 1482 045e 07F5BE53 		add	r3, r7, #6080
 1483 0462 03F11603 		add	r3, r3, #22
 1484 0466 1B78     		ldrb	r3, [r3]	@ zero_extendqisi2
 1485 0468 D31A     		subs	r3, r2, r3
 1486 046a 5A1E     		subs	r2, r3, #1
 1487 046c 07F5BE53 		add	r3, r7, #6080
 1488 0470 03F11603 		add	r3, r3, #22
 1489 0474 1978     		ldrb	r1, [r3]	@ zero_extendqisi2
 1490 0476 07F13803 		add	r3, r7, #56
 1491 047a 1E3B     		subs	r3, r3, #30
 1492 047c 0B44     		add	r3, r3, r1
 1493 047e 1978     		ldrb	r1, [r3]	@ zero_extendqisi2
 1494 0480 07F15803 		add	r3, r7, #88
 1495 0484 043B     		subs	r3, r3, #4
ARM GAS  C:\Users\mgnocco\AppData\Local\Temp\ccga5MX6.s 			page 51


 1496 0486 9954     		strb	r1, [r3, r2]
 442:..\src/command_processing.c ****                         for(j = 0; j < sod; j++) {
 1497              		.loc 1 442 0 discriminator 3
 1498 0488 07F5BE53 		add	r3, r7, #6080
 1499 048c 03F11603 		add	r3, r3, #22
 1500 0490 1B78     		ldrb	r3, [r3]	@ zero_extendqisi2
 1501 0492 0133     		adds	r3, r3, #1
 1502 0494 07F5BE52 		add	r2, r7, #6080
 1503 0498 02F11602 		add	r2, r2, #22
 1504 049c 1370     		strb	r3, [r2]
 1505              	.L94:
 442:..\src/command_processing.c ****                         for(j = 0; j < sod; j++) {
 1506              		.loc 1 442 0 is_stmt 0 discriminator 1
 1507 049e 07F5BE53 		add	r3, r7, #6080
 1508 04a2 03F11603 		add	r3, r3, #22
 1509 04a6 1A78     		ldrb	r2, [r3]	@ zero_extendqisi2
 1510 04a8 07F5BE53 		add	r3, r7, #6080
 1511 04ac 03F11303 		add	r3, r3, #19
 1512 04b0 1B78     		ldrb	r3, [r3]	@ zero_extendqisi2
 1513 04b2 9A42     		cmp	r2, r3
 1514 04b4 B7D3     		bcc	.L95
 439:..\src/command_processing.c ****                         m_tmp = m_addr + i*sod;
 1515              		.loc 1 439 0 is_stmt 1 discriminator 2
 1516 04b6 07F5BE53 		add	r3, r7, #6080
 1517 04ba 03F11703 		add	r3, r3, #23
 1518 04be 1B78     		ldrb	r3, [r3]	@ zero_extendqisi2
 1519 04c0 0133     		adds	r3, r3, #1
 1520 04c2 07F5BE52 		add	r2, r7, #6080
 1521 04c6 02F11702 		add	r2, r2, #23
 1522 04ca 1370     		strb	r3, [r2]
 1523              	.L93:
 439:..\src/command_processing.c ****                         m_tmp = m_addr + i*sod;
 1524              		.loc 1 439 0 is_stmt 0 discriminator 1
 1525 04cc 07F5BE53 		add	r3, r7, #6080
 1526 04d0 03F11503 		add	r3, r3, #21
 1527 04d4 1A78     		ldrb	r2, [r3]	@ zero_extendqisi2
 1528 04d6 07F11803 		add	r3, r7, #24
 1529 04da 143B     		subs	r3, r3, #20
 1530 04dc 1B68     		ldr	r3, [r3]
 1531 04de 1344     		add	r3, r3, r2
 1532 04e0 1B78     		ldrb	r3, [r3]	@ zero_extendqisi2
 1533 04e2 07F5BE52 		add	r2, r7, #6080
 1534 04e6 02F11702 		add	r2, r2, #23
 1535 04ea 1278     		ldrb	r2, [r2]	@ zero_extendqisi2
 1536 04ec 9A42     		cmp	r2, r3
 1537 04ee FFF470AF 		bcc	.L96
 444:..\src/command_processing.c ****                         }
 445:..\src/command_processing.c ****                     }
 446:..\src/command_processing.c ****                     break;
 1538              		.loc 1 446 0 is_stmt 1
 1539 04f2 01F0EABF 		b	.L113
 1540              	.L85:
 447:..\src/command_processing.c ****                 case TYPE_UINT16:
 448:..\src/command_processing.c ****                     for (i=0; i<NUM_ITEMS[idx]; i++){
 1541              		.loc 1 448 0
 1542 04f6 0023     		movs	r3, #0
 1543 04f8 07F5BE52 		add	r2, r7, #6080
ARM GAS  C:\Users\mgnocco\AppData\Local\Temp\ccga5MX6.s 			page 52


 1544 04fc 02F11702 		add	r2, r2, #23
 1545 0500 1370     		strb	r3, [r2]
 1546 0502 79E0     		b	.L97
 1547              	.L100:
 449:..\src/command_processing.c ****                         m_tmp = m_addr + i*sod;
 1548              		.loc 1 449 0
 1549 0504 07F5BE53 		add	r3, r7, #6080
 1550 0508 03F11703 		add	r3, r3, #23
 1551 050c 1B78     		ldrb	r3, [r3]	@ zero_extendqisi2
 1552 050e 07F5BE52 		add	r2, r7, #6080
 1553 0512 02F11302 		add	r2, r2, #19
 1554 0516 1278     		ldrb	r2, [r2]	@ zero_extendqisi2
 1555 0518 02FB03F3 		mul	r3, r2, r3
 1556 051c 1A46     		mov	r2, r3
 1557 051e 07F5BE53 		add	r3, r7, #6080
 1558 0522 03F10803 		add	r3, r3, #8
 1559 0526 1B68     		ldr	r3, [r3]
 1560 0528 1344     		add	r3, r3, r2
 1561 052a 07F5BE52 		add	r2, r7, #6080
 1562 052e 02F10402 		add	r2, r2, #4
 1563 0532 1360     		str	r3, [r2]
 450:..\src/command_processing.c ****                         aux_uint16 = *((uint16*)m_tmp);
 1564              		.loc 1 450 0
 1565 0534 07F5BE53 		add	r3, r7, #6080
 1566 0538 03F10403 		add	r3, r3, #4
 1567 053c 1B68     		ldr	r3, [r3]
 1568 053e 1A88     		ldrh	r2, [r3]
 1569 0540 07F11803 		add	r3, r7, #24
 1570 0544 1A80     		strh	r2, [r3]	@ movhi
 451:..\src/command_processing.c ****                         for(j = 0; j < sod; j++) {
 1571              		.loc 1 451 0
 1572 0546 0023     		movs	r3, #0
 1573 0548 07F5BE52 		add	r2, r7, #6080
 1574 054c 02F11602 		add	r2, r2, #22
 1575 0550 1370     		strb	r3, [r2]
 1576 0552 3AE0     		b	.L98
 1577              	.L99:
 452:..\src/command_processing.c ****                             packet_data[(4 + PARAM_BYTE_SLOT*idx + i*sod) + sod - j -1] = ((char*)(
 1578              		.loc 1 452 0 discriminator 3
 1579 0554 07F5BE53 		add	r3, r7, #6080
 1580 0558 03F11503 		add	r3, r3, #21
 1581 055c 1B78     		ldrb	r3, [r3]	@ zero_extendqisi2
 1582 055e 3222     		movs	r2, #50
 1583 0560 02FB03F3 		mul	r3, r2, r3
 1584 0564 1A1D     		adds	r2, r3, #4
 1585 0566 07F5BE53 		add	r3, r7, #6080
 1586 056a 03F11703 		add	r3, r3, #23
 1587 056e 1B78     		ldrb	r3, [r3]	@ zero_extendqisi2
 1588 0570 07F5BE51 		add	r1, r7, #6080
 1589 0574 01F11301 		add	r1, r1, #19
 1590 0578 0978     		ldrb	r1, [r1]	@ zero_extendqisi2
 1591 057a 01FB03F3 		mul	r3, r1, r3
 1592 057e 1A44     		add	r2, r2, r3
 1593 0580 07F5BE53 		add	r3, r7, #6080
 1594 0584 03F11303 		add	r3, r3, #19
 1595 0588 1B78     		ldrb	r3, [r3]	@ zero_extendqisi2
 1596 058a 1A44     		add	r2, r2, r3
ARM GAS  C:\Users\mgnocco\AppData\Local\Temp\ccga5MX6.s 			page 53


 1597 058c 07F5BE53 		add	r3, r7, #6080
 1598 0590 03F11603 		add	r3, r3, #22
 1599 0594 1B78     		ldrb	r3, [r3]	@ zero_extendqisi2
 1600 0596 D31A     		subs	r3, r2, r3
 1601 0598 5A1E     		subs	r2, r3, #1
 1602 059a 07F5BE53 		add	r3, r7, #6080
 1603 059e 03F11603 		add	r3, r3, #22
 1604 05a2 1B78     		ldrb	r3, [r3]	@ zero_extendqisi2
 1605 05a4 07F11801 		add	r1, r7, #24
 1606 05a8 0B44     		add	r3, r3, r1
 1607 05aa 1978     		ldrb	r1, [r3]	@ zero_extendqisi2
 1608 05ac 07F15803 		add	r3, r7, #88
 1609 05b0 043B     		subs	r3, r3, #4
 1610 05b2 9954     		strb	r1, [r3, r2]
 451:..\src/command_processing.c ****                         for(j = 0; j < sod; j++) {
 1611              		.loc 1 451 0 discriminator 3
 1612 05b4 07F5BE53 		add	r3, r7, #6080
 1613 05b8 03F11603 		add	r3, r3, #22
 1614 05bc 1B78     		ldrb	r3, [r3]	@ zero_extendqisi2
 1615 05be 0133     		adds	r3, r3, #1
 1616 05c0 07F5BE52 		add	r2, r7, #6080
 1617 05c4 02F11602 		add	r2, r2, #22
 1618 05c8 1370     		strb	r3, [r2]
 1619              	.L98:
 451:..\src/command_processing.c ****                         for(j = 0; j < sod; j++) {
 1620              		.loc 1 451 0 is_stmt 0 discriminator 1
 1621 05ca 07F5BE53 		add	r3, r7, #6080
 1622 05ce 03F11603 		add	r3, r3, #22
 1623 05d2 1A78     		ldrb	r2, [r3]	@ zero_extendqisi2
 1624 05d4 07F5BE53 		add	r3, r7, #6080
 1625 05d8 03F11303 		add	r3, r3, #19
 1626 05dc 1B78     		ldrb	r3, [r3]	@ zero_extendqisi2
 1627 05de 9A42     		cmp	r2, r3
 1628 05e0 B8D3     		bcc	.L99
 448:..\src/command_processing.c ****                         m_tmp = m_addr + i*sod;
 1629              		.loc 1 448 0 is_stmt 1 discriminator 2
 1630 05e2 07F5BE53 		add	r3, r7, #6080
 1631 05e6 03F11703 		add	r3, r3, #23
 1632 05ea 1B78     		ldrb	r3, [r3]	@ zero_extendqisi2
 1633 05ec 0133     		adds	r3, r3, #1
 1634 05ee 07F5BE52 		add	r2, r7, #6080
 1635 05f2 02F11702 		add	r2, r2, #23
 1636 05f6 1370     		strb	r3, [r2]
 1637              	.L97:
 448:..\src/command_processing.c ****                         m_tmp = m_addr + i*sod;
 1638              		.loc 1 448 0 is_stmt 0 discriminator 1
 1639 05f8 07F5BE53 		add	r3, r7, #6080
 1640 05fc 03F11503 		add	r3, r3, #21
 1641 0600 1A78     		ldrb	r2, [r3]	@ zero_extendqisi2
 1642 0602 07F11803 		add	r3, r7, #24
 1643 0606 143B     		subs	r3, r3, #20
 1644 0608 1B68     		ldr	r3, [r3]
 1645 060a 1344     		add	r3, r3, r2
 1646 060c 1B78     		ldrb	r3, [r3]	@ zero_extendqisi2
 1647 060e 07F5BE52 		add	r2, r7, #6080
 1648 0612 02F11702 		add	r2, r2, #23
 1649 0616 1278     		ldrb	r2, [r2]	@ zero_extendqisi2
ARM GAS  C:\Users\mgnocco\AppData\Local\Temp\ccga5MX6.s 			page 54


 1650 0618 9A42     		cmp	r2, r3
 1651 061a FFF473AF 		bcc	.L100
 453:..\src/command_processing.c ****                         }
 454:..\src/command_processing.c ****                     }
 455:..\src/command_processing.c ****                     break;
 1652              		.loc 1 455 0 is_stmt 1
 1653 061e 01F054BF 		b	.L113
 1654              	.L86:
 456:..\src/command_processing.c ****                 case TYPE_INT32: 
 457:..\src/command_processing.c ****                     for (i=0; i<NUM_ITEMS[idx]; i++){
 1655              		.loc 1 457 0
 1656 0622 0023     		movs	r3, #0
 1657 0624 07F5BE52 		add	r2, r7, #6080
 1658 0628 02F11702 		add	r2, r2, #23
 1659 062c 1370     		strb	r3, [r2]
 1660 062e 7BE0     		b	.L101
 1661              	.L104:
 458:..\src/command_processing.c ****                         m_tmp = m_addr + i*sod;
 1662              		.loc 1 458 0
 1663 0630 07F5BE53 		add	r3, r7, #6080
 1664 0634 03F11703 		add	r3, r3, #23
 1665 0638 1B78     		ldrb	r3, [r3]	@ zero_extendqisi2
 1666 063a 07F5BE52 		add	r2, r7, #6080
 1667 063e 02F11302 		add	r2, r2, #19
 1668 0642 1278     		ldrb	r2, [r2]	@ zero_extendqisi2
 1669 0644 02FB03F3 		mul	r3, r2, r3
 1670 0648 1A46     		mov	r2, r3
 1671 064a 07F5BE53 		add	r3, r7, #6080
 1672 064e 03F10803 		add	r3, r3, #8
 1673 0652 1B68     		ldr	r3, [r3]
 1674 0654 1344     		add	r3, r3, r2
 1675 0656 07F5BE52 		add	r2, r7, #6080
 1676 065a 02F10402 		add	r2, r2, #4
 1677 065e 1360     		str	r3, [r2]
 459:..\src/command_processing.c ****                         aux_int32 = *((int32*)m_tmp);
 1678              		.loc 1 459 0
 1679 0660 07F5BE53 		add	r3, r7, #6080
 1680 0664 03F10403 		add	r3, r3, #4
 1681 0668 1B68     		ldr	r3, [r3]
 1682 066a 1A68     		ldr	r2, [r3]
 1683 066c 07F11803 		add	r3, r7, #24
 1684 0670 043B     		subs	r3, r3, #4
 1685 0672 1A60     		str	r2, [r3]
 460:..\src/command_processing.c ****                         for(j = 0; j < sod; j++) {
 1686              		.loc 1 460 0
 1687 0674 0023     		movs	r3, #0
 1688 0676 07F5BE52 		add	r2, r7, #6080
 1689 067a 02F11602 		add	r2, r2, #22
 1690 067e 1370     		strb	r3, [r2]
 1691 0680 3BE0     		b	.L102
 1692              	.L103:
 461:..\src/command_processing.c ****                             packet_data[(4 + PARAM_BYTE_SLOT*idx + i*sod) + sod - j -1] = ((char*)(
 1693              		.loc 1 461 0 discriminator 3
 1694 0682 07F5BE53 		add	r3, r7, #6080
 1695 0686 03F11503 		add	r3, r3, #21
 1696 068a 1B78     		ldrb	r3, [r3]	@ zero_extendqisi2
 1697 068c 3222     		movs	r2, #50
ARM GAS  C:\Users\mgnocco\AppData\Local\Temp\ccga5MX6.s 			page 55


 1698 068e 02FB03F3 		mul	r3, r2, r3
 1699 0692 1A1D     		adds	r2, r3, #4
 1700 0694 07F5BE53 		add	r3, r7, #6080
 1701 0698 03F11703 		add	r3, r3, #23
 1702 069c 1B78     		ldrb	r3, [r3]	@ zero_extendqisi2
 1703 069e 07F5BE51 		add	r1, r7, #6080
 1704 06a2 01F11301 		add	r1, r1, #19
 1705 06a6 0978     		ldrb	r1, [r1]	@ zero_extendqisi2
 1706 06a8 01FB03F3 		mul	r3, r1, r3
 1707 06ac 1A44     		add	r2, r2, r3
 1708 06ae 07F5BE53 		add	r3, r7, #6080
 1709 06b2 03F11303 		add	r3, r3, #19
 1710 06b6 1B78     		ldrb	r3, [r3]	@ zero_extendqisi2
 1711 06b8 1A44     		add	r2, r2, r3
 1712 06ba 07F5BE53 		add	r3, r7, #6080
 1713 06be 03F11603 		add	r3, r3, #22
 1714 06c2 1B78     		ldrb	r3, [r3]	@ zero_extendqisi2
 1715 06c4 D31A     		subs	r3, r2, r3
 1716 06c6 5A1E     		subs	r2, r3, #1
 1717 06c8 07F5BE53 		add	r3, r7, #6080
 1718 06cc 03F11603 		add	r3, r3, #22
 1719 06d0 1978     		ldrb	r1, [r3]	@ zero_extendqisi2
 1720 06d2 07F11803 		add	r3, r7, #24
 1721 06d6 043B     		subs	r3, r3, #4
 1722 06d8 0B44     		add	r3, r3, r1
 1723 06da 1978     		ldrb	r1, [r3]	@ zero_extendqisi2
 1724 06dc 07F15803 		add	r3, r7, #88
 1725 06e0 043B     		subs	r3, r3, #4
 1726 06e2 9954     		strb	r1, [r3, r2]
 460:..\src/command_processing.c ****                         for(j = 0; j < sod; j++) {
 1727              		.loc 1 460 0 discriminator 3
 1728 06e4 07F5BE53 		add	r3, r7, #6080
 1729 06e8 03F11603 		add	r3, r3, #22
 1730 06ec 1B78     		ldrb	r3, [r3]	@ zero_extendqisi2
 1731 06ee 0133     		adds	r3, r3, #1
 1732 06f0 07F5BE52 		add	r2, r7, #6080
 1733 06f4 02F11602 		add	r2, r2, #22
 1734 06f8 1370     		strb	r3, [r2]
 1735              	.L102:
 460:..\src/command_processing.c ****                         for(j = 0; j < sod; j++) {
 1736              		.loc 1 460 0 is_stmt 0 discriminator 1
 1737 06fa 07F5BE53 		add	r3, r7, #6080
 1738 06fe 03F11603 		add	r3, r3, #22
 1739 0702 1A78     		ldrb	r2, [r3]	@ zero_extendqisi2
 1740 0704 07F5BE53 		add	r3, r7, #6080
 1741 0708 03F11303 		add	r3, r3, #19
 1742 070c 1B78     		ldrb	r3, [r3]	@ zero_extendqisi2
 1743 070e 9A42     		cmp	r2, r3
 1744 0710 B7D3     		bcc	.L103
 457:..\src/command_processing.c ****                         m_tmp = m_addr + i*sod;
 1745              		.loc 1 457 0 is_stmt 1 discriminator 2
 1746 0712 07F5BE53 		add	r3, r7, #6080
 1747 0716 03F11703 		add	r3, r3, #23
 1748 071a 1B78     		ldrb	r3, [r3]	@ zero_extendqisi2
 1749 071c 0133     		adds	r3, r3, #1
 1750 071e 07F5BE52 		add	r2, r7, #6080
 1751 0722 02F11702 		add	r2, r2, #23
ARM GAS  C:\Users\mgnocco\AppData\Local\Temp\ccga5MX6.s 			page 56


 1752 0726 1370     		strb	r3, [r2]
 1753              	.L101:
 457:..\src/command_processing.c ****                         m_tmp = m_addr + i*sod;
 1754              		.loc 1 457 0 is_stmt 0 discriminator 1
 1755 0728 07F5BE53 		add	r3, r7, #6080
 1756 072c 03F11503 		add	r3, r3, #21
 1757 0730 1A78     		ldrb	r2, [r3]	@ zero_extendqisi2
 1758 0732 07F11803 		add	r3, r7, #24
 1759 0736 143B     		subs	r3, r3, #20
 1760 0738 1B68     		ldr	r3, [r3]
 1761 073a 1344     		add	r3, r3, r2
 1762 073c 1B78     		ldrb	r3, [r3]	@ zero_extendqisi2
 1763 073e 07F5BE52 		add	r2, r7, #6080
 1764 0742 02F11702 		add	r2, r2, #23
 1765 0746 1278     		ldrb	r2, [r2]	@ zero_extendqisi2
 1766 0748 9A42     		cmp	r2, r3
 1767 074a FFF471AF 		bcc	.L104
 462:..\src/command_processing.c ****                         }
 463:..\src/command_processing.c ****                     }
 464:..\src/command_processing.c ****                     break;
 1768              		.loc 1 464 0 is_stmt 1
 1769 074e 01F0BCBE 		b	.L113
 1770              	.L87:
 465:..\src/command_processing.c ****                 case TYPE_UINT32: 
 466:..\src/command_processing.c ****                     for (i=0; i<NUM_ITEMS[idx]; i++){
 1771              		.loc 1 466 0
 1772 0752 0023     		movs	r3, #0
 1773 0754 07F5BE52 		add	r2, r7, #6080
 1774 0758 02F11702 		add	r2, r2, #23
 1775 075c 1370     		strb	r3, [r2]
 1776 075e 7BE0     		b	.L105
 1777              	.L108:
 467:..\src/command_processing.c ****                         m_tmp = m_addr + i*sod;
 1778              		.loc 1 467 0
 1779 0760 07F5BE53 		add	r3, r7, #6080
 1780 0764 03F11703 		add	r3, r3, #23
 1781 0768 1B78     		ldrb	r3, [r3]	@ zero_extendqisi2
 1782 076a 07F5BE52 		add	r2, r7, #6080
 1783 076e 02F11302 		add	r2, r2, #19
 1784 0772 1278     		ldrb	r2, [r2]	@ zero_extendqisi2
 1785 0774 02FB03F3 		mul	r3, r2, r3
 1786 0778 1A46     		mov	r2, r3
 1787 077a 07F5BE53 		add	r3, r7, #6080
 1788 077e 03F10803 		add	r3, r3, #8
 1789 0782 1B68     		ldr	r3, [r3]
 1790 0784 1344     		add	r3, r3, r2
 1791 0786 07F5BE52 		add	r2, r7, #6080
 1792 078a 02F10402 		add	r2, r2, #4
 1793 078e 1360     		str	r3, [r2]
 468:..\src/command_processing.c ****                         aux_uint32 = *((uint32*)m_tmp);
 1794              		.loc 1 468 0
 1795 0790 07F5BE53 		add	r3, r7, #6080
 1796 0794 03F10403 		add	r3, r3, #4
 1797 0798 1B68     		ldr	r3, [r3]
 1798 079a 1A68     		ldr	r2, [r3]
 1799 079c 07F11803 		add	r3, r7, #24
 1800 07a0 083B     		subs	r3, r3, #8
ARM GAS  C:\Users\mgnocco\AppData\Local\Temp\ccga5MX6.s 			page 57


 1801 07a2 1A60     		str	r2, [r3]
 469:..\src/command_processing.c ****                         for(j = 0; j < sod; j++) {
 1802              		.loc 1 469 0
 1803 07a4 0023     		movs	r3, #0
 1804 07a6 07F5BE52 		add	r2, r7, #6080
 1805 07aa 02F11602 		add	r2, r2, #22
 1806 07ae 1370     		strb	r3, [r2]
 1807 07b0 3BE0     		b	.L106
 1808              	.L107:
 470:..\src/command_processing.c ****                             packet_data[(4 + PARAM_BYTE_SLOT*idx + i*sod) + sod - j -1] = ((char*)(
 1809              		.loc 1 470 0 discriminator 3
 1810 07b2 07F5BE53 		add	r3, r7, #6080
 1811 07b6 03F11503 		add	r3, r3, #21
 1812 07ba 1B78     		ldrb	r3, [r3]	@ zero_extendqisi2
 1813 07bc 3222     		movs	r2, #50
 1814 07be 02FB03F3 		mul	r3, r2, r3
 1815 07c2 1A1D     		adds	r2, r3, #4
 1816 07c4 07F5BE53 		add	r3, r7, #6080
 1817 07c8 03F11703 		add	r3, r3, #23
 1818 07cc 1B78     		ldrb	r3, [r3]	@ zero_extendqisi2
 1819 07ce 07F5BE51 		add	r1, r7, #6080
 1820 07d2 01F11301 		add	r1, r1, #19
 1821 07d6 0978     		ldrb	r1, [r1]	@ zero_extendqisi2
 1822 07d8 01FB03F3 		mul	r3, r1, r3
 1823 07dc 1A44     		add	r2, r2, r3
 1824 07de 07F5BE53 		add	r3, r7, #6080
 1825 07e2 03F11303 		add	r3, r3, #19
 1826 07e6 1B78     		ldrb	r3, [r3]	@ zero_extendqisi2
 1827 07e8 1A44     		add	r2, r2, r3
 1828 07ea 07F5BE53 		add	r3, r7, #6080
 1829 07ee 03F11603 		add	r3, r3, #22
 1830 07f2 1B78     		ldrb	r3, [r3]	@ zero_extendqisi2
 1831 07f4 D31A     		subs	r3, r2, r3
 1832 07f6 5A1E     		subs	r2, r3, #1
 1833 07f8 07F5BE53 		add	r3, r7, #6080
 1834 07fc 03F11603 		add	r3, r3, #22
 1835 0800 1978     		ldrb	r1, [r3]	@ zero_extendqisi2
 1836 0802 07F11803 		add	r3, r7, #24
 1837 0806 083B     		subs	r3, r3, #8
 1838 0808 0B44     		add	r3, r3, r1
 1839 080a 1978     		ldrb	r1, [r3]	@ zero_extendqisi2
 1840 080c 07F15803 		add	r3, r7, #88
 1841 0810 043B     		subs	r3, r3, #4
 1842 0812 9954     		strb	r1, [r3, r2]
 469:..\src/command_processing.c ****                         for(j = 0; j < sod; j++) {
 1843              		.loc 1 469 0 discriminator 3
 1844 0814 07F5BE53 		add	r3, r7, #6080
 1845 0818 03F11603 		add	r3, r3, #22
 1846 081c 1B78     		ldrb	r3, [r3]	@ zero_extendqisi2
 1847 081e 0133     		adds	r3, r3, #1
 1848 0820 07F5BE52 		add	r2, r7, #6080
 1849 0824 02F11602 		add	r2, r2, #22
 1850 0828 1370     		strb	r3, [r2]
 1851              	.L106:
 469:..\src/command_processing.c ****                         for(j = 0; j < sod; j++) {
 1852              		.loc 1 469 0 is_stmt 0 discriminator 1
 1853 082a 07F5BE53 		add	r3, r7, #6080
ARM GAS  C:\Users\mgnocco\AppData\Local\Temp\ccga5MX6.s 			page 58


 1854 082e 03F11603 		add	r3, r3, #22
 1855 0832 1A78     		ldrb	r2, [r3]	@ zero_extendqisi2
 1856 0834 07F5BE53 		add	r3, r7, #6080
 1857 0838 03F11303 		add	r3, r3, #19
 1858 083c 1B78     		ldrb	r3, [r3]	@ zero_extendqisi2
 1859 083e 9A42     		cmp	r2, r3
 1860 0840 B7D3     		bcc	.L107
 466:..\src/command_processing.c ****                         m_tmp = m_addr + i*sod;
 1861              		.loc 1 466 0 is_stmt 1 discriminator 2
 1862 0842 07F5BE53 		add	r3, r7, #6080
 1863 0846 03F11703 		add	r3, r3, #23
 1864 084a 1B78     		ldrb	r3, [r3]	@ zero_extendqisi2
 1865 084c 0133     		adds	r3, r3, #1
 1866 084e 07F5BE52 		add	r2, r7, #6080
 1867 0852 02F11702 		add	r2, r2, #23
 1868 0856 1370     		strb	r3, [r2]
 1869              	.L105:
 466:..\src/command_processing.c ****                         m_tmp = m_addr + i*sod;
 1870              		.loc 1 466 0 is_stmt 0 discriminator 1
 1871 0858 07F5BE53 		add	r3, r7, #6080
 1872 085c 03F11503 		add	r3, r3, #21
 1873 0860 1A78     		ldrb	r2, [r3]	@ zero_extendqisi2
 1874 0862 07F11803 		add	r3, r7, #24
 1875 0866 143B     		subs	r3, r3, #20
 1876 0868 1B68     		ldr	r3, [r3]
 1877 086a 1344     		add	r3, r3, r2
 1878 086c 1B78     		ldrb	r3, [r3]	@ zero_extendqisi2
 1879 086e 07F5BE52 		add	r2, r7, #6080
 1880 0872 02F11702 		add	r2, r2, #23
 1881 0876 1278     		ldrb	r2, [r2]	@ zero_extendqisi2
 1882 0878 9A42     		cmp	r2, r3
 1883 087a FFF471AF 		bcc	.L108
 471:..\src/command_processing.c ****                         }
 472:..\src/command_processing.c ****                     }
 473:..\src/command_processing.c ****                     break;
 1884              		.loc 1 473 0 is_stmt 1
 1885 087e 01F024BE 		b	.L113
 1886              	.L88:
 474:..\src/command_processing.c ****                     
 475:..\src/command_processing.c ****                 case TYPE_FLOAT:
 476:..\src/command_processing.c ****                     for (i=0; i<NUM_ITEMS[idx]; i++){
 1887              		.loc 1 476 0
 1888 0882 0023     		movs	r3, #0
 1889 0884 07F5BE52 		add	r2, r7, #6080
 1890 0888 02F11702 		add	r2, r2, #23
 1891 088c 1370     		strb	r3, [r2]
 1892 088e 7BE0     		b	.L109
 1893              	.L112:
 477:..\src/command_processing.c ****                         m_tmp = m_addr + i*sod;
 1894              		.loc 1 477 0
 1895 0890 07F5BE53 		add	r3, r7, #6080
 1896 0894 03F11703 		add	r3, r3, #23
 1897 0898 1B78     		ldrb	r3, [r3]	@ zero_extendqisi2
 1898 089a 07F5BE52 		add	r2, r7, #6080
 1899 089e 02F11302 		add	r2, r2, #19
 1900 08a2 1278     		ldrb	r2, [r2]	@ zero_extendqisi2
 1901 08a4 02FB03F3 		mul	r3, r2, r3
ARM GAS  C:\Users\mgnocco\AppData\Local\Temp\ccga5MX6.s 			page 59


 1902 08a8 1A46     		mov	r2, r3
 1903 08aa 07F5BE53 		add	r3, r7, #6080
 1904 08ae 03F10803 		add	r3, r3, #8
 1905 08b2 1B68     		ldr	r3, [r3]
 1906 08b4 1344     		add	r3, r3, r2
 1907 08b6 07F5BE52 		add	r2, r7, #6080
 1908 08ba 02F10402 		add	r2, r2, #4
 1909 08be 1360     		str	r3, [r2]
 478:..\src/command_processing.c ****                         aux_float = *((float*)m_tmp);
 1910              		.loc 1 478 0
 1911 08c0 07F5BE53 		add	r3, r7, #6080
 1912 08c4 03F10403 		add	r3, r3, #4
 1913 08c8 1B68     		ldr	r3, [r3]
 1914 08ca 1A68     		ldr	r2, [r3]	@ float
 1915 08cc 07F13803 		add	r3, r7, #56
 1916 08d0 1C3B     		subs	r3, r3, #28
 1917 08d2 1A60     		str	r2, [r3]	@ float
 479:..\src/command_processing.c ****                         for(j = 0; j < sod; j++) {
 1918              		.loc 1 479 0
 1919 08d4 0023     		movs	r3, #0
 1920 08d6 07F5BE52 		add	r2, r7, #6080
 1921 08da 02F11602 		add	r2, r2, #22
 1922 08de 1370     		strb	r3, [r2]
 1923 08e0 3BE0     		b	.L110
 1924              	.L111:
 480:..\src/command_processing.c ****                             packet_data[(4 + PARAM_BYTE_SLOT*idx + i*sod) + sod - j -1] = ((char*)(
 1925              		.loc 1 480 0 discriminator 3
 1926 08e2 07F5BE53 		add	r3, r7, #6080
 1927 08e6 03F11503 		add	r3, r3, #21
 1928 08ea 1B78     		ldrb	r3, [r3]	@ zero_extendqisi2
 1929 08ec 3222     		movs	r2, #50
 1930 08ee 02FB03F3 		mul	r3, r2, r3
 1931 08f2 1A1D     		adds	r2, r3, #4
 1932 08f4 07F5BE53 		add	r3, r7, #6080
 1933 08f8 03F11703 		add	r3, r3, #23
 1934 08fc 1B78     		ldrb	r3, [r3]	@ zero_extendqisi2
 1935 08fe 07F5BE51 		add	r1, r7, #6080
 1936 0902 01F11301 		add	r1, r1, #19
 1937 0906 0978     		ldrb	r1, [r1]	@ zero_extendqisi2
 1938 0908 01FB03F3 		mul	r3, r1, r3
 1939 090c 1A44     		add	r2, r2, r3
 1940 090e 07F5BE53 		add	r3, r7, #6080
 1941 0912 03F11303 		add	r3, r3, #19
 1942 0916 1B78     		ldrb	r3, [r3]	@ zero_extendqisi2
 1943 0918 1A44     		add	r2, r2, r3
 1944 091a 07F5BE53 		add	r3, r7, #6080
 1945 091e 03F11603 		add	r3, r3, #22
 1946 0922 1B78     		ldrb	r3, [r3]	@ zero_extendqisi2
 1947 0924 D31A     		subs	r3, r2, r3
 1948 0926 5A1E     		subs	r2, r3, #1
 1949 0928 07F5BE53 		add	r3, r7, #6080
 1950 092c 03F11603 		add	r3, r3, #22
 1951 0930 1978     		ldrb	r1, [r3]	@ zero_extendqisi2
 1952 0932 07F13803 		add	r3, r7, #56
 1953 0936 1C3B     		subs	r3, r3, #28
 1954 0938 0B44     		add	r3, r3, r1
 1955 093a 1978     		ldrb	r1, [r3]	@ zero_extendqisi2
ARM GAS  C:\Users\mgnocco\AppData\Local\Temp\ccga5MX6.s 			page 60


 1956 093c 07F15803 		add	r3, r7, #88
 1957 0940 043B     		subs	r3, r3, #4
 1958 0942 9954     		strb	r1, [r3, r2]
 479:..\src/command_processing.c ****                         for(j = 0; j < sod; j++) {
 1959              		.loc 1 479 0 discriminator 3
 1960 0944 07F5BE53 		add	r3, r7, #6080
 1961 0948 03F11603 		add	r3, r3, #22
 1962 094c 1B78     		ldrb	r3, [r3]	@ zero_extendqisi2
 1963 094e 0133     		adds	r3, r3, #1
 1964 0950 07F5BE52 		add	r2, r7, #6080
 1965 0954 02F11602 		add	r2, r2, #22
 1966 0958 1370     		strb	r3, [r2]
 1967              	.L110:
 479:..\src/command_processing.c ****                         for(j = 0; j < sod; j++) {
 1968              		.loc 1 479 0 is_stmt 0 discriminator 1
 1969 095a 07F5BE53 		add	r3, r7, #6080
 1970 095e 03F11603 		add	r3, r3, #22
 1971 0962 1A78     		ldrb	r2, [r3]	@ zero_extendqisi2
 1972 0964 07F5BE53 		add	r3, r7, #6080
 1973 0968 03F11303 		add	r3, r3, #19
 1974 096c 1B78     		ldrb	r3, [r3]	@ zero_extendqisi2
 1975 096e 9A42     		cmp	r2, r3
 1976 0970 B7D3     		bcc	.L111
 476:..\src/command_processing.c ****                         m_tmp = m_addr + i*sod;
 1977              		.loc 1 476 0 is_stmt 1 discriminator 2
 1978 0972 07F5BE53 		add	r3, r7, #6080
 1979 0976 03F11703 		add	r3, r3, #23
 1980 097a 1B78     		ldrb	r3, [r3]	@ zero_extendqisi2
 1981 097c 0133     		adds	r3, r3, #1
 1982 097e 07F5BE52 		add	r2, r7, #6080
 1983 0982 02F11702 		add	r2, r2, #23
 1984 0986 1370     		strb	r3, [r2]
 1985              	.L109:
 476:..\src/command_processing.c ****                         m_tmp = m_addr + i*sod;
 1986              		.loc 1 476 0 is_stmt 0 discriminator 1
 1987 0988 07F5BE53 		add	r3, r7, #6080
 1988 098c 03F11503 		add	r3, r3, #21
 1989 0990 1A78     		ldrb	r2, [r3]	@ zero_extendqisi2
 1990 0992 07F11803 		add	r3, r7, #24
 1991 0996 143B     		subs	r3, r3, #20
 1992 0998 1B68     		ldr	r3, [r3]
 1993 099a 1344     		add	r3, r3, r2
 1994 099c 1B78     		ldrb	r3, [r3]	@ zero_extendqisi2
 1995 099e 07F5BE52 		add	r2, r7, #6080
 1996 09a2 02F11702 		add	r2, r2, #23
 1997 09a6 1278     		ldrb	r2, [r2]	@ zero_extendqisi2
 1998 09a8 9A42     		cmp	r2, r3
 1999 09aa FFF471AF 		bcc	.L112
 481:..\src/command_processing.c ****                         }
 482:..\src/command_processing.c ****                     }
 483:..\src/command_processing.c ****                     break;   
 2000              		.loc 1 483 0 is_stmt 1 discriminator 7
 2001 09ae 00BF     		nop
 2002 09b0 01F08BBD 		b	.L113
 2003              	.L79:
 484:..\src/command_processing.c ****             }
 485:..\src/command_processing.c ****         }
ARM GAS  C:\Users\mgnocco\AppData\Local\Temp\ccga5MX6.s 			page 61


 486:..\src/command_processing.c ****         else {
 487:..\src/command_processing.c ****             
 488:..\src/command_processing.c **** // DO NOT MODIFY THE FUNCTION BEFORE THIS LINE
 489:..\src/command_processing.c ****             
 490:..\src/command_processing.c **** // MODIFY CUSTOM PARAM            
 491:..\src/command_processing.c ****                 switch(idx+1){
 2004              		.loc 1 491 0
 2005 09b4 07F5BE53 		add	r3, r7, #6080
 2006 09b8 03F11503 		add	r3, r3, #21
 2007 09bc 1B78     		ldrb	r3, [r3]	@ zero_extendqisi2
 2008 09be 0133     		adds	r3, r3, #1
 2009 09c0 023B     		subs	r3, r3, #2
 2010 09c2 332B     		cmp	r3, #51
 2011 09c4 01F28085 		bhi	.L283
 2012 09c8 01A2     		adr	r2, .L116
 2013 09ca 52F823F0 		ldr	pc, [r2, r3, lsl #2]
 2014 09ce 00BF     		.p2align 2
 2015              	.L116:
 2016 09d0 A10A0000 		.word	.L115+1
 2017 09d4 6D0F0000 		.word	.L117+1
 2018 09d8 C9240000 		.word	.L283+1
 2019 09dc C9240000 		.word	.L283+1
 2020 09e0 C9240000 		.word	.L283+1
 2021 09e4 C9240000 		.word	.L283+1
 2022 09e8 37140000 		.word	.L118+1
 2023 09ec C9240000 		.word	.L283+1
 2024 09f0 C9240000 		.word	.L283+1
 2025 09f4 AB150000 		.word	.L119+1
 2026 09f8 C9240000 		.word	.L283+1
 2027 09fc C9240000 		.word	.L283+1
 2028 0a00 C9240000 		.word	.L283+1
 2029 0a04 C9240000 		.word	.L283+1
 2030 0a08 C9240000 		.word	.L283+1
 2031 0a0c C9240000 		.word	.L283+1
 2032 0a10 C9240000 		.word	.L283+1
 2033 0a14 C9240000 		.word	.L283+1
 2034 0a18 C9240000 		.word	.L283+1
 2035 0a1c C9240000 		.word	.L283+1
 2036 0a20 C9240000 		.word	.L283+1
 2037 0a24 79170000 		.word	.L120+1
 2038 0a28 C9240000 		.word	.L283+1
 2039 0a2c C9240000 		.word	.L283+1
 2040 0a30 C9240000 		.word	.L283+1
 2041 0a34 C9240000 		.word	.L283+1
 2042 0a38 C9240000 		.word	.L283+1
 2043 0a3c C9240000 		.word	.L283+1
 2044 0a40 C9240000 		.word	.L283+1
 2045 0a44 C9240000 		.word	.L283+1
 2046 0a48 C9240000 		.word	.L283+1
 2047 0a4c C9240000 		.word	.L283+1
 2048 0a50 C9240000 		.word	.L283+1
 2049 0a54 C9240000 		.word	.L283+1
 2050 0a58 C9240000 		.word	.L283+1
 2051 0a5c C9240000 		.word	.L283+1
 2052 0a60 C9240000 		.word	.L283+1
 2053 0a64 C9240000 		.word	.L283+1
 2054 0a68 C9240000 		.word	.L283+1
ARM GAS  C:\Users\mgnocco\AppData\Local\Temp\ccga5MX6.s 			page 62


 2055 0a6c C9240000 		.word	.L283+1
 2056 0a70 C9240000 		.word	.L283+1
 2057 0a74 C9240000 		.word	.L283+1
 2058 0a78 43180000 		.word	.L121+1
 2059 0a7c 111D0000 		.word	.L122+1
 2060 0a80 C9240000 		.word	.L283+1
 2061 0a84 C9240000 		.word	.L283+1
 2062 0a88 C9240000 		.word	.L283+1
 2063 0a8c C9240000 		.word	.L283+1
 2064 0a90 DB210000 		.word	.L123+1
 2065 0a94 C9240000 		.word	.L283+1
 2066 0a98 C9240000 		.word	.L283+1
 2067 0a9c FF220000 		.word	.L124+1
 2068              		.p2align 1
 2069              	.L115:
 492:..\src/command_processing.c ****                     case 2:         // Position PID
 493:..\src/command_processing.c ****                         if(c_mem.motor[MOTOR_IDX].control_mode != CURR_AND_POS_CONTROL) {
 2070              		.loc 1 493 0
 2071 0aa0 07F5BE53 		add	r3, r7, #6080
 2072 0aa4 03F10F03 		add	r3, r3, #15
 2073 0aa8 1A78     		ldrb	r2, [r3]	@ zero_extendqisi2
 2074 0aaa AC49     		ldr	r1, .L289
 2075 0aac 1346     		mov	r3, r2
 2076 0aae DB00     		lsls	r3, r3, #3
 2077 0ab0 9B1A     		subs	r3, r3, r2
 2078 0ab2 1B01     		lsls	r3, r3, #4
 2079 0ab4 0B44     		add	r3, r3, r1
 2080 0ab6 03F20F13 		addw	r3, r3, #271
 2081 0aba 1B78     		ldrb	r3, [r3]	@ zero_extendqisi2
 2082 0abc 032B     		cmp	r3, #3
 2083 0abe 00F02981 		beq	.L125
 494:..\src/command_processing.c ****                             aux_float = (float) c_mem.motor[MOTOR_IDX].k_p / 65536;
 2084              		.loc 1 494 0
 2085 0ac2 07F5BE53 		add	r3, r7, #6080
 2086 0ac6 03F10F03 		add	r3, r3, #15
 2087 0aca 1A78     		ldrb	r2, [r3]	@ zero_extendqisi2
 2088 0acc A349     		ldr	r1, .L289
 2089 0ace 1346     		mov	r3, r2
 2090 0ad0 DB00     		lsls	r3, r3, #3
 2091 0ad2 9B1A     		subs	r3, r3, r2
 2092 0ad4 1B01     		lsls	r3, r3, #4
 2093 0ad6 0B44     		add	r3, r3, r1
 2094 0ad8 B033     		adds	r3, r3, #176
 2095 0ada 1B68     		ldr	r3, [r3]
 2096 0adc 1846     		mov	r0, r3
 2097 0ade FFF7FEFF 		bl	__aeabi_i2f
 2098 0ae2 0346     		mov	r3, r0
 2099 0ae4 4FF08F41 		mov	r1, #1199570944
 2100 0ae8 1846     		mov	r0, r3
 2101 0aea FFF7FEFF 		bl	__aeabi_fdiv
 2102 0aee 0346     		mov	r3, r0
 2103 0af0 1A46     		mov	r2, r3
 2104 0af2 07F13803 		add	r3, r7, #56
 2105 0af6 1C3B     		subs	r3, r3, #28
 2106 0af8 1A60     		str	r2, [r3]	@ float
 495:..\src/command_processing.c ****                             for(i = 0; i < sod; i++) {
 2107              		.loc 1 495 0
ARM GAS  C:\Users\mgnocco\AppData\Local\Temp\ccga5MX6.s 			page 63


 2108 0afa 0023     		movs	r3, #0
 2109 0afc 07F5BE52 		add	r2, r7, #6080
 2110 0b00 02F11702 		add	r2, r2, #23
 2111 0b04 1370     		strb	r3, [r2]
 2112 0b06 2EE0     		b	.L126
 2113              	.L127:
 496:..\src/command_processing.c ****                                 packet_data[(4 + PARAM_BYTE_SLOT*idx) + sod - i -1] = ((char*)(&aux
 2114              		.loc 1 496 0 discriminator 3
 2115 0b08 07F5BE53 		add	r3, r7, #6080
 2116 0b0c 03F11503 		add	r3, r3, #21
 2117 0b10 1B78     		ldrb	r3, [r3]	@ zero_extendqisi2
 2118 0b12 3222     		movs	r2, #50
 2119 0b14 02FB03F3 		mul	r3, r2, r3
 2120 0b18 1A1D     		adds	r2, r3, #4
 2121 0b1a 07F5BE53 		add	r3, r7, #6080
 2122 0b1e 03F11303 		add	r3, r3, #19
 2123 0b22 1B78     		ldrb	r3, [r3]	@ zero_extendqisi2
 2124 0b24 1A44     		add	r2, r2, r3
 2125 0b26 07F5BE53 		add	r3, r7, #6080
 2126 0b2a 03F11703 		add	r3, r3, #23
 2127 0b2e 1B78     		ldrb	r3, [r3]	@ zero_extendqisi2
 2128 0b30 D31A     		subs	r3, r2, r3
 2129 0b32 5A1E     		subs	r2, r3, #1
 2130 0b34 07F5BE53 		add	r3, r7, #6080
 2131 0b38 03F11703 		add	r3, r3, #23
 2132 0b3c 1978     		ldrb	r1, [r3]	@ zero_extendqisi2
 2133 0b3e 07F13803 		add	r3, r7, #56
 2134 0b42 1C3B     		subs	r3, r3, #28
 2135 0b44 0B44     		add	r3, r3, r1
 2136 0b46 1978     		ldrb	r1, [r3]	@ zero_extendqisi2
 2137 0b48 07F15803 		add	r3, r7, #88
 2138 0b4c 043B     		subs	r3, r3, #4
 2139 0b4e 9954     		strb	r1, [r3, r2]
 495:..\src/command_processing.c ****                             for(i = 0; i < sod; i++) {
 2140              		.loc 1 495 0 discriminator 3
 2141 0b50 07F5BE53 		add	r3, r7, #6080
 2142 0b54 03F11703 		add	r3, r3, #23
 2143 0b58 1B78     		ldrb	r3, [r3]	@ zero_extendqisi2
 2144 0b5a 0133     		adds	r3, r3, #1
 2145 0b5c 07F5BE52 		add	r2, r7, #6080
 2146 0b60 02F11702 		add	r2, r2, #23
 2147 0b64 1370     		strb	r3, [r2]
 2148              	.L126:
 495:..\src/command_processing.c ****                             for(i = 0; i < sod; i++) {
 2149              		.loc 1 495 0 is_stmt 0 discriminator 1
 2150 0b66 07F5BE53 		add	r3, r7, #6080
 2151 0b6a 03F11703 		add	r3, r3, #23
 2152 0b6e 1A78     		ldrb	r2, [r3]	@ zero_extendqisi2
 2153 0b70 07F5BE53 		add	r3, r7, #6080
 2154 0b74 03F11303 		add	r3, r3, #19
 2155 0b78 1B78     		ldrb	r3, [r3]	@ zero_extendqisi2
 2156 0b7a 9A42     		cmp	r2, r3
 2157 0b7c C4D3     		bcc	.L127
 497:..\src/command_processing.c ****                             }
 498:..\src/command_processing.c ****                             aux_float = (float) c_mem.motor[MOTOR_IDX].k_i / 65536;
 2158              		.loc 1 498 0 is_stmt 1
 2159 0b7e 07F5BE53 		add	r3, r7, #6080
ARM GAS  C:\Users\mgnocco\AppData\Local\Temp\ccga5MX6.s 			page 64


 2160 0b82 03F10F03 		add	r3, r3, #15
 2161 0b86 1A78     		ldrb	r2, [r3]	@ zero_extendqisi2
 2162 0b88 7449     		ldr	r1, .L289
 2163 0b8a 1346     		mov	r3, r2
 2164 0b8c DB00     		lsls	r3, r3, #3
 2165 0b8e 9B1A     		subs	r3, r3, r2
 2166 0b90 1B01     		lsls	r3, r3, #4
 2167 0b92 0B44     		add	r3, r3, r1
 2168 0b94 B433     		adds	r3, r3, #180
 2169 0b96 1B68     		ldr	r3, [r3]
 2170 0b98 1846     		mov	r0, r3
 2171 0b9a FFF7FEFF 		bl	__aeabi_i2f
 2172 0b9e 0346     		mov	r3, r0
 2173 0ba0 4FF08F41 		mov	r1, #1199570944
 2174 0ba4 1846     		mov	r0, r3
 2175 0ba6 FFF7FEFF 		bl	__aeabi_fdiv
 2176 0baa 0346     		mov	r3, r0
 2177 0bac 1A46     		mov	r2, r3
 2178 0bae 07F13803 		add	r3, r7, #56
 2179 0bb2 1C3B     		subs	r3, r3, #28
 2180 0bb4 1A60     		str	r2, [r3]	@ float
 499:..\src/command_processing.c ****                             for(i = 0; i < sod; i++) {
 2181              		.loc 1 499 0
 2182 0bb6 0023     		movs	r3, #0
 2183 0bb8 07F5BE52 		add	r2, r7, #6080
 2184 0bbc 02F11702 		add	r2, r2, #23
 2185 0bc0 1370     		strb	r3, [r2]
 2186 0bc2 34E0     		b	.L128
 2187              	.L129:
 500:..\src/command_processing.c ****                                 packet_data[(4 + PARAM_BYTE_SLOT*idx + sod) + sod - i -1] = ((char*
 2188              		.loc 1 500 0 discriminator 3
 2189 0bc4 07F5BE53 		add	r3, r7, #6080
 2190 0bc8 03F11503 		add	r3, r3, #21
 2191 0bcc 1B78     		ldrb	r3, [r3]	@ zero_extendqisi2
 2192 0bce 3222     		movs	r2, #50
 2193 0bd0 02FB03F3 		mul	r3, r2, r3
 2194 0bd4 1A1D     		adds	r2, r3, #4
 2195 0bd6 07F5BE53 		add	r3, r7, #6080
 2196 0bda 03F11303 		add	r3, r3, #19
 2197 0bde 1B78     		ldrb	r3, [r3]	@ zero_extendqisi2
 2198 0be0 1A44     		add	r2, r2, r3
 2199 0be2 07F5BE53 		add	r3, r7, #6080
 2200 0be6 03F11303 		add	r3, r3, #19
 2201 0bea 1B78     		ldrb	r3, [r3]	@ zero_extendqisi2
 2202 0bec 1A44     		add	r2, r2, r3
 2203 0bee 07F5BE53 		add	r3, r7, #6080
 2204 0bf2 03F11703 		add	r3, r3, #23
 2205 0bf6 1B78     		ldrb	r3, [r3]	@ zero_extendqisi2
 2206 0bf8 D31A     		subs	r3, r2, r3
 2207 0bfa 5A1E     		subs	r2, r3, #1
 2208 0bfc 07F5BE53 		add	r3, r7, #6080
 2209 0c00 03F11703 		add	r3, r3, #23
 2210 0c04 1978     		ldrb	r1, [r3]	@ zero_extendqisi2
 2211 0c06 07F13803 		add	r3, r7, #56
 2212 0c0a 1C3B     		subs	r3, r3, #28
 2213 0c0c 0B44     		add	r3, r3, r1
 2214 0c0e 1978     		ldrb	r1, [r3]	@ zero_extendqisi2
ARM GAS  C:\Users\mgnocco\AppData\Local\Temp\ccga5MX6.s 			page 65


 2215 0c10 07F15803 		add	r3, r7, #88
 2216 0c14 043B     		subs	r3, r3, #4
 2217 0c16 9954     		strb	r1, [r3, r2]
 499:..\src/command_processing.c ****                             for(i = 0; i < sod; i++) {
 2218              		.loc 1 499 0 discriminator 3
 2219 0c18 07F5BE53 		add	r3, r7, #6080
 2220 0c1c 03F11703 		add	r3, r3, #23
 2221 0c20 1B78     		ldrb	r3, [r3]	@ zero_extendqisi2
 2222 0c22 0133     		adds	r3, r3, #1
 2223 0c24 07F5BE52 		add	r2, r7, #6080
 2224 0c28 02F11702 		add	r2, r2, #23
 2225 0c2c 1370     		strb	r3, [r2]
 2226              	.L128:
 499:..\src/command_processing.c ****                             for(i = 0; i < sod; i++) {
 2227              		.loc 1 499 0 is_stmt 0 discriminator 1
 2228 0c2e 07F5BE53 		add	r3, r7, #6080
 2229 0c32 03F11703 		add	r3, r3, #23
 2230 0c36 1A78     		ldrb	r2, [r3]	@ zero_extendqisi2
 2231 0c38 07F5BE53 		add	r3, r7, #6080
 2232 0c3c 03F11303 		add	r3, r3, #19
 2233 0c40 1B78     		ldrb	r3, [r3]	@ zero_extendqisi2
 2234 0c42 9A42     		cmp	r2, r3
 2235 0c44 BED3     		bcc	.L129
 501:..\src/command_processing.c ****                             }
 502:..\src/command_processing.c ****                             aux_float = (float) c_mem.motor[MOTOR_IDX].k_d / 65536;
 2236              		.loc 1 502 0 is_stmt 1
 2237 0c46 07F5BE53 		add	r3, r7, #6080
 2238 0c4a 03F10F03 		add	r3, r3, #15
 2239 0c4e 1A78     		ldrb	r2, [r3]	@ zero_extendqisi2
 2240 0c50 4249     		ldr	r1, .L289
 2241 0c52 1346     		mov	r3, r2
 2242 0c54 DB00     		lsls	r3, r3, #3
 2243 0c56 9B1A     		subs	r3, r3, r2
 2244 0c58 1B01     		lsls	r3, r3, #4
 2245 0c5a 0B44     		add	r3, r3, r1
 2246 0c5c B833     		adds	r3, r3, #184
 2247 0c5e 1B68     		ldr	r3, [r3]
 2248 0c60 1846     		mov	r0, r3
 2249 0c62 FFF7FEFF 		bl	__aeabi_i2f
 2250 0c66 0346     		mov	r3, r0
 2251 0c68 4FF08F41 		mov	r1, #1199570944
 2252 0c6c 1846     		mov	r0, r3
 2253 0c6e FFF7FEFF 		bl	__aeabi_fdiv
 2254 0c72 0346     		mov	r3, r0
 2255 0c74 1A46     		mov	r2, r3
 2256 0c76 07F13803 		add	r3, r7, #56
 2257 0c7a 1C3B     		subs	r3, r3, #28
 2258 0c7c 1A60     		str	r2, [r3]	@ float
 503:..\src/command_processing.c ****                             for(i = 0; i < sod; i++) {
 2259              		.loc 1 503 0
 2260 0c7e 0023     		movs	r3, #0
 2261 0c80 07F5BE52 		add	r2, r7, #6080
 2262 0c84 02F11702 		add	r2, r2, #23
 2263 0c88 1370     		strb	r3, [r2]
 2264 0c8a 35E0     		b	.L130
 2265              	.L131:
 504:..\src/command_processing.c ****                                 packet_data[(4 + PARAM_BYTE_SLOT*idx + 2*sod) + sod - i -1] = ((cha
ARM GAS  C:\Users\mgnocco\AppData\Local\Temp\ccga5MX6.s 			page 66


 2266              		.loc 1 504 0 discriminator 3
 2267 0c8c 07F5BE53 		add	r3, r7, #6080
 2268 0c90 03F11503 		add	r3, r3, #21
 2269 0c94 1B78     		ldrb	r3, [r3]	@ zero_extendqisi2
 2270 0c96 3222     		movs	r2, #50
 2271 0c98 02FB03F3 		mul	r3, r2, r3
 2272 0c9c 1A1D     		adds	r2, r3, #4
 2273 0c9e 07F5BE53 		add	r3, r7, #6080
 2274 0ca2 03F11303 		add	r3, r3, #19
 2275 0ca6 1B78     		ldrb	r3, [r3]	@ zero_extendqisi2
 2276 0ca8 5B00     		lsls	r3, r3, #1
 2277 0caa 1A44     		add	r2, r2, r3
 2278 0cac 07F5BE53 		add	r3, r7, #6080
 2279 0cb0 03F11303 		add	r3, r3, #19
 2280 0cb4 1B78     		ldrb	r3, [r3]	@ zero_extendqisi2
 2281 0cb6 1A44     		add	r2, r2, r3
 2282 0cb8 07F5BE53 		add	r3, r7, #6080
 2283 0cbc 03F11703 		add	r3, r3, #23
 2284 0cc0 1B78     		ldrb	r3, [r3]	@ zero_extendqisi2
 2285 0cc2 D31A     		subs	r3, r2, r3
 2286 0cc4 5A1E     		subs	r2, r3, #1
 2287 0cc6 07F5BE53 		add	r3, r7, #6080
 2288 0cca 03F11703 		add	r3, r3, #23
 2289 0cce 1978     		ldrb	r1, [r3]	@ zero_extendqisi2
 2290 0cd0 07F13803 		add	r3, r7, #56
 2291 0cd4 1C3B     		subs	r3, r3, #28
 2292 0cd6 0B44     		add	r3, r3, r1
 2293 0cd8 1978     		ldrb	r1, [r3]	@ zero_extendqisi2
 2294 0cda 07F15803 		add	r3, r7, #88
 2295 0cde 043B     		subs	r3, r3, #4
 2296 0ce0 9954     		strb	r1, [r3, r2]
 503:..\src/command_processing.c ****                             for(i = 0; i < sod; i++) {
 2297              		.loc 1 503 0 discriminator 3
 2298 0ce2 07F5BE53 		add	r3, r7, #6080
 2299 0ce6 03F11703 		add	r3, r3, #23
 2300 0cea 1B78     		ldrb	r3, [r3]	@ zero_extendqisi2
 2301 0cec 0133     		adds	r3, r3, #1
 2302 0cee 07F5BE52 		add	r2, r7, #6080
 2303 0cf2 02F11702 		add	r2, r2, #23
 2304 0cf6 1370     		strb	r3, [r2]
 2305              	.L130:
 503:..\src/command_processing.c ****                             for(i = 0; i < sod; i++) {
 2306              		.loc 1 503 0 is_stmt 0 discriminator 1
 2307 0cf8 07F5BE53 		add	r3, r7, #6080
 2308 0cfc 03F11703 		add	r3, r3, #23
 2309 0d00 1A78     		ldrb	r2, [r3]	@ zero_extendqisi2
 2310 0d02 07F5BE53 		add	r3, r7, #6080
 2311 0d06 03F11303 		add	r3, r3, #19
 2312 0d0a 1B78     		ldrb	r3, [r3]	@ zero_extendqisi2
 2313 0d0c 9A42     		cmp	r2, r3
 2314 0d0e BDD3     		bcc	.L131
 505:..\src/command_processing.c ****                             } 
 506:..\src/command_processing.c ****                         }
 507:..\src/command_processing.c ****                         else {
 508:..\src/command_processing.c ****                             aux_float = (float) c_mem.motor[MOTOR_IDX].k_p_dl / 65536;
 509:..\src/command_processing.c ****                             for(i = 0; i < sod; i++) {
 510:..\src/command_processing.c ****                                 packet_data[(4 + PARAM_BYTE_SLOT*idx) + sod - i -1] = ((char*)(&aux
ARM GAS  C:\Users\mgnocco\AppData\Local\Temp\ccga5MX6.s 			page 67


 511:..\src/command_processing.c ****                             }
 512:..\src/command_processing.c ****                             aux_float = (float) c_mem.motor[MOTOR_IDX].k_i_dl / 65536;
 513:..\src/command_processing.c ****                             for(i = 0; i < sod; i++) {
 514:..\src/command_processing.c ****                                 packet_data[(4 + PARAM_BYTE_SLOT*idx + sod) + sod - i -1] = ((char*
 515:..\src/command_processing.c ****                             }
 516:..\src/command_processing.c ****                             aux_float = (float) c_mem.motor[MOTOR_IDX].k_d_dl / 65536;
 517:..\src/command_processing.c ****                             for(i = 0; i < sod; i++) {
 518:..\src/command_processing.c ****                                 packet_data[(4 + PARAM_BYTE_SLOT*idx + 2*sod) + sod - i -1] = ((cha
 519:..\src/command_processing.c ****                             }
 520:..\src/command_processing.c ****                         }
 521:..\src/command_processing.c ****                         break;
 2315              		.loc 1 521 0 is_stmt 1
 2316 0d10 01F0DBBB 		b	.L113
 2317              	.L125:
 508:..\src/command_processing.c ****                             for(i = 0; i < sod; i++) {
 2318              		.loc 1 508 0
 2319 0d14 07F5BE53 		add	r3, r7, #6080
 2320 0d18 03F10F03 		add	r3, r3, #15
 2321 0d1c 1A78     		ldrb	r2, [r3]	@ zero_extendqisi2
 2322 0d1e 0F49     		ldr	r1, .L289
 2323 0d20 1346     		mov	r3, r2
 2324 0d22 DB00     		lsls	r3, r3, #3
 2325 0d24 9B1A     		subs	r3, r3, r2
 2326 0d26 1B01     		lsls	r3, r3, #4
 2327 0d28 0B44     		add	r3, r3, r1
 2328 0d2a C833     		adds	r3, r3, #200
 2329 0d2c 1B68     		ldr	r3, [r3]
 2330 0d2e 1846     		mov	r0, r3
 2331 0d30 FFF7FEFF 		bl	__aeabi_i2f
 2332 0d34 0346     		mov	r3, r0
 2333 0d36 4FF08F41 		mov	r1, #1199570944
 2334 0d3a 1846     		mov	r0, r3
 2335 0d3c FFF7FEFF 		bl	__aeabi_fdiv
 2336 0d40 0346     		mov	r3, r0
 2337 0d42 1A46     		mov	r2, r3
 2338 0d44 07F13803 		add	r3, r7, #56
 2339 0d48 1C3B     		subs	r3, r3, #28
 2340 0d4a 1A60     		str	r2, [r3]	@ float
 509:..\src/command_processing.c ****                                 packet_data[(4 + PARAM_BYTE_SLOT*idx) + sod - i -1] = ((char*)(&aux
 2341              		.loc 1 509 0
 2342 0d4c 0023     		movs	r3, #0
 2343 0d4e 07F5BE52 		add	r2, r7, #6080
 2344 0d52 02F11702 		add	r2, r2, #23
 2345 0d56 1370     		strb	r3, [r2]
 2346 0d58 31E0     		b	.L133
 2347              	.L290:
 2348 0d5a 00BF     		.align	2
 2349              	.L289:
 2350 0d5c 00000000 		.word	c_mem
 2351              	.L134:
 510:..\src/command_processing.c ****                             }
 2352              		.loc 1 510 0 discriminator 3
 2353 0d60 07F5BE53 		add	r3, r7, #6080
 2354 0d64 03F11503 		add	r3, r3, #21
 2355 0d68 1B78     		ldrb	r3, [r3]	@ zero_extendqisi2
 2356 0d6a 3222     		movs	r2, #50
 2357 0d6c 02FB03F3 		mul	r3, r2, r3
ARM GAS  C:\Users\mgnocco\AppData\Local\Temp\ccga5MX6.s 			page 68


 2358 0d70 1A1D     		adds	r2, r3, #4
 2359 0d72 07F5BE53 		add	r3, r7, #6080
 2360 0d76 03F11303 		add	r3, r3, #19
 2361 0d7a 1B78     		ldrb	r3, [r3]	@ zero_extendqisi2
 2362 0d7c 1A44     		add	r2, r2, r3
 2363 0d7e 07F5BE53 		add	r3, r7, #6080
 2364 0d82 03F11703 		add	r3, r3, #23
 2365 0d86 1B78     		ldrb	r3, [r3]	@ zero_extendqisi2
 2366 0d88 D31A     		subs	r3, r2, r3
 2367 0d8a 5A1E     		subs	r2, r3, #1
 2368 0d8c 07F5BE53 		add	r3, r7, #6080
 2369 0d90 03F11703 		add	r3, r3, #23
 2370 0d94 1978     		ldrb	r1, [r3]	@ zero_extendqisi2
 2371 0d96 07F13803 		add	r3, r7, #56
 2372 0d9a 1C3B     		subs	r3, r3, #28
 2373 0d9c 0B44     		add	r3, r3, r1
 2374 0d9e 1978     		ldrb	r1, [r3]	@ zero_extendqisi2
 2375 0da0 07F15803 		add	r3, r7, #88
 2376 0da4 043B     		subs	r3, r3, #4
 2377 0da6 9954     		strb	r1, [r3, r2]
 509:..\src/command_processing.c ****                                 packet_data[(4 + PARAM_BYTE_SLOT*idx) + sod - i -1] = ((char*)(&aux
 2378              		.loc 1 509 0 discriminator 3
 2379 0da8 07F5BE53 		add	r3, r7, #6080
 2380 0dac 03F11703 		add	r3, r3, #23
 2381 0db0 1B78     		ldrb	r3, [r3]	@ zero_extendqisi2
 2382 0db2 0133     		adds	r3, r3, #1
 2383 0db4 07F5BE52 		add	r2, r7, #6080
 2384 0db8 02F11702 		add	r2, r2, #23
 2385 0dbc 1370     		strb	r3, [r2]
 2386              	.L133:
 509:..\src/command_processing.c ****                                 packet_data[(4 + PARAM_BYTE_SLOT*idx) + sod - i -1] = ((char*)(&aux
 2387              		.loc 1 509 0 is_stmt 0 discriminator 1
 2388 0dbe 07F5BE53 		add	r3, r7, #6080
 2389 0dc2 03F11703 		add	r3, r3, #23
 2390 0dc6 1A78     		ldrb	r2, [r3]	@ zero_extendqisi2
 2391 0dc8 07F5BE53 		add	r3, r7, #6080
 2392 0dcc 03F11303 		add	r3, r3, #19
 2393 0dd0 1B78     		ldrb	r3, [r3]	@ zero_extendqisi2
 2394 0dd2 9A42     		cmp	r2, r3
 2395 0dd4 C4D3     		bcc	.L134
 512:..\src/command_processing.c ****                             for(i = 0; i < sod; i++) {
 2396              		.loc 1 512 0 is_stmt 1
 2397 0dd6 07F5BE53 		add	r3, r7, #6080
 2398 0dda 03F10F03 		add	r3, r3, #15
 2399 0dde 1A78     		ldrb	r2, [r3]	@ zero_extendqisi2
 2400 0de0 AB49     		ldr	r1, .L291
 2401 0de2 1346     		mov	r3, r2
 2402 0de4 DB00     		lsls	r3, r3, #3
 2403 0de6 9B1A     		subs	r3, r3, r2
 2404 0de8 1B01     		lsls	r3, r3, #4
 2405 0dea 0B44     		add	r3, r3, r1
 2406 0dec CC33     		adds	r3, r3, #204
 2407 0dee 1B68     		ldr	r3, [r3]
 2408 0df0 1846     		mov	r0, r3
 2409 0df2 FFF7FEFF 		bl	__aeabi_i2f
 2410 0df6 0346     		mov	r3, r0
 2411 0df8 4FF08F41 		mov	r1, #1199570944
ARM GAS  C:\Users\mgnocco\AppData\Local\Temp\ccga5MX6.s 			page 69


 2412 0dfc 1846     		mov	r0, r3
 2413 0dfe FFF7FEFF 		bl	__aeabi_fdiv
 2414 0e02 0346     		mov	r3, r0
 2415 0e04 1A46     		mov	r2, r3
 2416 0e06 07F13803 		add	r3, r7, #56
 2417 0e0a 1C3B     		subs	r3, r3, #28
 2418 0e0c 1A60     		str	r2, [r3]	@ float
 513:..\src/command_processing.c ****                                 packet_data[(4 + PARAM_BYTE_SLOT*idx + sod) + sod - i -1] = ((char*
 2419              		.loc 1 513 0
 2420 0e0e 0023     		movs	r3, #0
 2421 0e10 07F5BE52 		add	r2, r7, #6080
 2422 0e14 02F11702 		add	r2, r2, #23
 2423 0e18 1370     		strb	r3, [r2]
 2424 0e1a 34E0     		b	.L135
 2425              	.L136:
 514:..\src/command_processing.c ****                             }
 2426              		.loc 1 514 0 discriminator 3
 2427 0e1c 07F5BE53 		add	r3, r7, #6080
 2428 0e20 03F11503 		add	r3, r3, #21
 2429 0e24 1B78     		ldrb	r3, [r3]	@ zero_extendqisi2
 2430 0e26 3222     		movs	r2, #50
 2431 0e28 02FB03F3 		mul	r3, r2, r3
 2432 0e2c 1A1D     		adds	r2, r3, #4
 2433 0e2e 07F5BE53 		add	r3, r7, #6080
 2434 0e32 03F11303 		add	r3, r3, #19
 2435 0e36 1B78     		ldrb	r3, [r3]	@ zero_extendqisi2
 2436 0e38 1A44     		add	r2, r2, r3
 2437 0e3a 07F5BE53 		add	r3, r7, #6080
 2438 0e3e 03F11303 		add	r3, r3, #19
 2439 0e42 1B78     		ldrb	r3, [r3]	@ zero_extendqisi2
 2440 0e44 1A44     		add	r2, r2, r3
 2441 0e46 07F5BE53 		add	r3, r7, #6080
 2442 0e4a 03F11703 		add	r3, r3, #23
 2443 0e4e 1B78     		ldrb	r3, [r3]	@ zero_extendqisi2
 2444 0e50 D31A     		subs	r3, r2, r3
 2445 0e52 5A1E     		subs	r2, r3, #1
 2446 0e54 07F5BE53 		add	r3, r7, #6080
 2447 0e58 03F11703 		add	r3, r3, #23
 2448 0e5c 1978     		ldrb	r1, [r3]	@ zero_extendqisi2
 2449 0e5e 07F13803 		add	r3, r7, #56
 2450 0e62 1C3B     		subs	r3, r3, #28
 2451 0e64 0B44     		add	r3, r3, r1
 2452 0e66 1978     		ldrb	r1, [r3]	@ zero_extendqisi2
 2453 0e68 07F15803 		add	r3, r7, #88
 2454 0e6c 043B     		subs	r3, r3, #4
 2455 0e6e 9954     		strb	r1, [r3, r2]
 513:..\src/command_processing.c ****                                 packet_data[(4 + PARAM_BYTE_SLOT*idx + sod) + sod - i -1] = ((char*
 2456              		.loc 1 513 0 discriminator 3
 2457 0e70 07F5BE53 		add	r3, r7, #6080
 2458 0e74 03F11703 		add	r3, r3, #23
 2459 0e78 1B78     		ldrb	r3, [r3]	@ zero_extendqisi2
 2460 0e7a 0133     		adds	r3, r3, #1
 2461 0e7c 07F5BE52 		add	r2, r7, #6080
 2462 0e80 02F11702 		add	r2, r2, #23
 2463 0e84 1370     		strb	r3, [r2]
 2464              	.L135:
 513:..\src/command_processing.c ****                                 packet_data[(4 + PARAM_BYTE_SLOT*idx + sod) + sod - i -1] = ((char*
ARM GAS  C:\Users\mgnocco\AppData\Local\Temp\ccga5MX6.s 			page 70


 2465              		.loc 1 513 0 is_stmt 0 discriminator 1
 2466 0e86 07F5BE53 		add	r3, r7, #6080
 2467 0e8a 03F11703 		add	r3, r3, #23
 2468 0e8e 1A78     		ldrb	r2, [r3]	@ zero_extendqisi2
 2469 0e90 07F5BE53 		add	r3, r7, #6080
 2470 0e94 03F11303 		add	r3, r3, #19
 2471 0e98 1B78     		ldrb	r3, [r3]	@ zero_extendqisi2
 2472 0e9a 9A42     		cmp	r2, r3
 2473 0e9c BED3     		bcc	.L136
 516:..\src/command_processing.c ****                             for(i = 0; i < sod; i++) {
 2474              		.loc 1 516 0 is_stmt 1
 2475 0e9e 07F5BE53 		add	r3, r7, #6080
 2476 0ea2 03F10F03 		add	r3, r3, #15
 2477 0ea6 1A78     		ldrb	r2, [r3]	@ zero_extendqisi2
 2478 0ea8 7949     		ldr	r1, .L291
 2479 0eaa 1346     		mov	r3, r2
 2480 0eac DB00     		lsls	r3, r3, #3
 2481 0eae 9B1A     		subs	r3, r3, r2
 2482 0eb0 1B01     		lsls	r3, r3, #4
 2483 0eb2 0B44     		add	r3, r3, r1
 2484 0eb4 D033     		adds	r3, r3, #208
 2485 0eb6 1B68     		ldr	r3, [r3]
 2486 0eb8 1846     		mov	r0, r3
 2487 0eba FFF7FEFF 		bl	__aeabi_i2f
 2488 0ebe 0346     		mov	r3, r0
 2489 0ec0 4FF08F41 		mov	r1, #1199570944
 2490 0ec4 1846     		mov	r0, r3
 2491 0ec6 FFF7FEFF 		bl	__aeabi_fdiv
 2492 0eca 0346     		mov	r3, r0
 2493 0ecc 1A46     		mov	r2, r3
 2494 0ece 07F13803 		add	r3, r7, #56
 2495 0ed2 1C3B     		subs	r3, r3, #28
 2496 0ed4 1A60     		str	r2, [r3]	@ float
 517:..\src/command_processing.c ****                                 packet_data[(4 + PARAM_BYTE_SLOT*idx + 2*sod) + sod - i -1] = ((cha
 2497              		.loc 1 517 0
 2498 0ed6 0023     		movs	r3, #0
 2499 0ed8 07F5BE52 		add	r2, r7, #6080
 2500 0edc 02F11702 		add	r2, r2, #23
 2501 0ee0 1370     		strb	r3, [r2]
 2502 0ee2 35E0     		b	.L137
 2503              	.L138:
 518:..\src/command_processing.c ****                             }
 2504              		.loc 1 518 0 discriminator 3
 2505 0ee4 07F5BE53 		add	r3, r7, #6080
 2506 0ee8 03F11503 		add	r3, r3, #21
 2507 0eec 1B78     		ldrb	r3, [r3]	@ zero_extendqisi2
 2508 0eee 3222     		movs	r2, #50
 2509 0ef0 02FB03F3 		mul	r3, r2, r3
 2510 0ef4 1A1D     		adds	r2, r3, #4
 2511 0ef6 07F5BE53 		add	r3, r7, #6080
 2512 0efa 03F11303 		add	r3, r3, #19
 2513 0efe 1B78     		ldrb	r3, [r3]	@ zero_extendqisi2
 2514 0f00 5B00     		lsls	r3, r3, #1
 2515 0f02 1A44     		add	r2, r2, r3
 2516 0f04 07F5BE53 		add	r3, r7, #6080
 2517 0f08 03F11303 		add	r3, r3, #19
 2518 0f0c 1B78     		ldrb	r3, [r3]	@ zero_extendqisi2
ARM GAS  C:\Users\mgnocco\AppData\Local\Temp\ccga5MX6.s 			page 71


 2519 0f0e 1A44     		add	r2, r2, r3
 2520 0f10 07F5BE53 		add	r3, r7, #6080
 2521 0f14 03F11703 		add	r3, r3, #23
 2522 0f18 1B78     		ldrb	r3, [r3]	@ zero_extendqisi2
 2523 0f1a D31A     		subs	r3, r2, r3
 2524 0f1c 5A1E     		subs	r2, r3, #1
 2525 0f1e 07F5BE53 		add	r3, r7, #6080
 2526 0f22 03F11703 		add	r3, r3, #23
 2527 0f26 1978     		ldrb	r1, [r3]	@ zero_extendqisi2
 2528 0f28 07F13803 		add	r3, r7, #56
 2529 0f2c 1C3B     		subs	r3, r3, #28
 2530 0f2e 0B44     		add	r3, r3, r1
 2531 0f30 1978     		ldrb	r1, [r3]	@ zero_extendqisi2
 2532 0f32 07F15803 		add	r3, r7, #88
 2533 0f36 043B     		subs	r3, r3, #4
 2534 0f38 9954     		strb	r1, [r3, r2]
 517:..\src/command_processing.c ****                                 packet_data[(4 + PARAM_BYTE_SLOT*idx + 2*sod) + sod - i -1] = ((cha
 2535              		.loc 1 517 0 discriminator 3
 2536 0f3a 07F5BE53 		add	r3, r7, #6080
 2537 0f3e 03F11703 		add	r3, r3, #23
 2538 0f42 1B78     		ldrb	r3, [r3]	@ zero_extendqisi2
 2539 0f44 0133     		adds	r3, r3, #1
 2540 0f46 07F5BE52 		add	r2, r7, #6080
 2541 0f4a 02F11702 		add	r2, r2, #23
 2542 0f4e 1370     		strb	r3, [r2]
 2543              	.L137:
 517:..\src/command_processing.c ****                                 packet_data[(4 + PARAM_BYTE_SLOT*idx + 2*sod) + sod - i -1] = ((cha
 2544              		.loc 1 517 0 is_stmt 0 discriminator 1
 2545 0f50 07F5BE53 		add	r3, r7, #6080
 2546 0f54 03F11703 		add	r3, r3, #23
 2547 0f58 1A78     		ldrb	r2, [r3]	@ zero_extendqisi2
 2548 0f5a 07F5BE53 		add	r3, r7, #6080
 2549 0f5e 03F11303 		add	r3, r3, #19
 2550 0f62 1B78     		ldrb	r3, [r3]	@ zero_extendqisi2
 2551 0f64 9A42     		cmp	r2, r3
 2552 0f66 BDD3     		bcc	.L138
 2553              		.loc 1 521 0 is_stmt 1
 2554 0f68 01F0AFBA 		b	.L113
 2555              	.L117:
 522:..\src/command_processing.c ****                         
 523:..\src/command_processing.c ****                     case 3:         //Current PID
 524:..\src/command_processing.c ****                         if(c_mem.motor[MOTOR_IDX].control_mode != CURR_AND_POS_CONTROL) {
 2556              		.loc 1 524 0
 2557 0f6c 07F5BE53 		add	r3, r7, #6080
 2558 0f70 03F10F03 		add	r3, r3, #15
 2559 0f74 1A78     		ldrb	r2, [r3]	@ zero_extendqisi2
 2560 0f76 4649     		ldr	r1, .L291
 2561 0f78 1346     		mov	r3, r2
 2562 0f7a DB00     		lsls	r3, r3, #3
 2563 0f7c 9B1A     		subs	r3, r3, r2
 2564 0f7e 1B01     		lsls	r3, r3, #4
 2565 0f80 0B44     		add	r3, r3, r1
 2566 0f82 03F20F13 		addw	r3, r3, #271
 2567 0f86 1B78     		ldrb	r3, [r3]	@ zero_extendqisi2
 2568 0f88 032B     		cmp	r3, #3
 2569 0f8a 00F02B81 		beq	.L139
 525:..\src/command_processing.c ****                             aux_float = (float) c_mem.motor[MOTOR_IDX].k_p_c / 65536;
ARM GAS  C:\Users\mgnocco\AppData\Local\Temp\ccga5MX6.s 			page 72


 2570              		.loc 1 525 0
 2571 0f8e 07F5BE53 		add	r3, r7, #6080
 2572 0f92 03F10F03 		add	r3, r3, #15
 2573 0f96 1A78     		ldrb	r2, [r3]	@ zero_extendqisi2
 2574 0f98 3D49     		ldr	r1, .L291
 2575 0f9a 1346     		mov	r3, r2
 2576 0f9c DB00     		lsls	r3, r3, #3
 2577 0f9e 9B1A     		subs	r3, r3, r2
 2578 0fa0 1B01     		lsls	r3, r3, #4
 2579 0fa2 0B44     		add	r3, r3, r1
 2580 0fa4 BC33     		adds	r3, r3, #188
 2581 0fa6 1B68     		ldr	r3, [r3]
 2582 0fa8 1846     		mov	r0, r3
 2583 0faa FFF7FEFF 		bl	__aeabi_i2f
 2584 0fae 0346     		mov	r3, r0
 2585 0fb0 4FF08F41 		mov	r1, #1199570944
 2586 0fb4 1846     		mov	r0, r3
 2587 0fb6 FFF7FEFF 		bl	__aeabi_fdiv
 2588 0fba 0346     		mov	r3, r0
 2589 0fbc 1A46     		mov	r2, r3
 2590 0fbe 07F13803 		add	r3, r7, #56
 2591 0fc2 1C3B     		subs	r3, r3, #28
 2592 0fc4 1A60     		str	r2, [r3]	@ float
 526:..\src/command_processing.c ****                             for(i = 0; i < sod; i++) {
 2593              		.loc 1 526 0
 2594 0fc6 0023     		movs	r3, #0
 2595 0fc8 07F5BE52 		add	r2, r7, #6080
 2596 0fcc 02F11702 		add	r2, r2, #23
 2597 0fd0 1370     		strb	r3, [r2]
 2598 0fd2 2EE0     		b	.L140
 2599              	.L141:
 527:..\src/command_processing.c ****                                 packet_data[(4 + PARAM_BYTE_SLOT*idx) + sod - i -1] = ((char*)(&aux
 2600              		.loc 1 527 0 discriminator 3
 2601 0fd4 07F5BE53 		add	r3, r7, #6080
 2602 0fd8 03F11503 		add	r3, r3, #21
 2603 0fdc 1B78     		ldrb	r3, [r3]	@ zero_extendqisi2
 2604 0fde 3222     		movs	r2, #50
 2605 0fe0 02FB03F3 		mul	r3, r2, r3
 2606 0fe4 1A1D     		adds	r2, r3, #4
 2607 0fe6 07F5BE53 		add	r3, r7, #6080
 2608 0fea 03F11303 		add	r3, r3, #19
 2609 0fee 1B78     		ldrb	r3, [r3]	@ zero_extendqisi2
 2610 0ff0 1A44     		add	r2, r2, r3
 2611 0ff2 07F5BE53 		add	r3, r7, #6080
 2612 0ff6 03F11703 		add	r3, r3, #23
 2613 0ffa 1B78     		ldrb	r3, [r3]	@ zero_extendqisi2
 2614 0ffc D31A     		subs	r3, r2, r3
 2615 0ffe 5A1E     		subs	r2, r3, #1
 2616 1000 07F5BE53 		add	r3, r7, #6080
 2617 1004 03F11703 		add	r3, r3, #23
 2618 1008 1978     		ldrb	r1, [r3]	@ zero_extendqisi2
 2619 100a 07F13803 		add	r3, r7, #56
 2620 100e 1C3B     		subs	r3, r3, #28
 2621 1010 0B44     		add	r3, r3, r1
 2622 1012 1978     		ldrb	r1, [r3]	@ zero_extendqisi2
 2623 1014 07F15803 		add	r3, r7, #88
 2624 1018 043B     		subs	r3, r3, #4
ARM GAS  C:\Users\mgnocco\AppData\Local\Temp\ccga5MX6.s 			page 73


 2625 101a 9954     		strb	r1, [r3, r2]
 526:..\src/command_processing.c ****                             for(i = 0; i < sod; i++) {
 2626              		.loc 1 526 0 discriminator 3
 2627 101c 07F5BE53 		add	r3, r7, #6080
 2628 1020 03F11703 		add	r3, r3, #23
 2629 1024 1B78     		ldrb	r3, [r3]	@ zero_extendqisi2
 2630 1026 0133     		adds	r3, r3, #1
 2631 1028 07F5BE52 		add	r2, r7, #6080
 2632 102c 02F11702 		add	r2, r2, #23
 2633 1030 1370     		strb	r3, [r2]
 2634              	.L140:
 526:..\src/command_processing.c ****                             for(i = 0; i < sod; i++) {
 2635              		.loc 1 526 0 is_stmt 0 discriminator 1
 2636 1032 07F5BE53 		add	r3, r7, #6080
 2637 1036 03F11703 		add	r3, r3, #23
 2638 103a 1A78     		ldrb	r2, [r3]	@ zero_extendqisi2
 2639 103c 07F5BE53 		add	r3, r7, #6080
 2640 1040 03F11303 		add	r3, r3, #19
 2641 1044 1B78     		ldrb	r3, [r3]	@ zero_extendqisi2
 2642 1046 9A42     		cmp	r2, r3
 2643 1048 C4D3     		bcc	.L141
 528:..\src/command_processing.c ****                             }
 529:..\src/command_processing.c ****                             aux_float = (float) c_mem.motor[MOTOR_IDX].k_i_c / 65536;
 2644              		.loc 1 529 0 is_stmt 1
 2645 104a 07F5BE53 		add	r3, r7, #6080
 2646 104e 03F10F03 		add	r3, r3, #15
 2647 1052 1A78     		ldrb	r2, [r3]	@ zero_extendqisi2
 2648 1054 0E49     		ldr	r1, .L291
 2649 1056 1346     		mov	r3, r2
 2650 1058 DB00     		lsls	r3, r3, #3
 2651 105a 9B1A     		subs	r3, r3, r2
 2652 105c 1B01     		lsls	r3, r3, #4
 2653 105e 0B44     		add	r3, r3, r1
 2654 1060 C033     		adds	r3, r3, #192
 2655 1062 1B68     		ldr	r3, [r3]
 2656 1064 1846     		mov	r0, r3
 2657 1066 FFF7FEFF 		bl	__aeabi_i2f
 2658 106a 0346     		mov	r3, r0
 2659 106c 4FF08F41 		mov	r1, #1199570944
 2660 1070 1846     		mov	r0, r3
 2661 1072 FFF7FEFF 		bl	__aeabi_fdiv
 2662 1076 0346     		mov	r3, r0
 2663 1078 1A46     		mov	r2, r3
 2664 107a 07F13803 		add	r3, r7, #56
 2665 107e 1C3B     		subs	r3, r3, #28
 2666 1080 1A60     		str	r2, [r3]	@ float
 530:..\src/command_processing.c ****                             for(i = 0; i < sod; i++) {
 2667              		.loc 1 530 0
 2668 1082 0023     		movs	r3, #0
 2669 1084 07F5BE52 		add	r2, r7, #6080
 2670 1088 02F11702 		add	r2, r2, #23
 2671 108c 1370     		strb	r3, [r2]
 2672 108e 36E0     		b	.L142
 2673              	.L292:
 2674              		.align	2
 2675              	.L291:
 2676 1090 00000000 		.word	c_mem
ARM GAS  C:\Users\mgnocco\AppData\Local\Temp\ccga5MX6.s 			page 74


 2677              	.L143:
 531:..\src/command_processing.c ****                                 packet_data[(4 + PARAM_BYTE_SLOT*idx + sod) + sod - i -1] = ((char*
 2678              		.loc 1 531 0 discriminator 3
 2679 1094 07F5BE53 		add	r3, r7, #6080
 2680 1098 03F11503 		add	r3, r3, #21
 2681 109c 1B78     		ldrb	r3, [r3]	@ zero_extendqisi2
 2682 109e 3222     		movs	r2, #50
 2683 10a0 02FB03F3 		mul	r3, r2, r3
 2684 10a4 1A1D     		adds	r2, r3, #4
 2685 10a6 07F5BE53 		add	r3, r7, #6080
 2686 10aa 03F11303 		add	r3, r3, #19
 2687 10ae 1B78     		ldrb	r3, [r3]	@ zero_extendqisi2
 2688 10b0 1A44     		add	r2, r2, r3
 2689 10b2 07F5BE53 		add	r3, r7, #6080
 2690 10b6 03F11303 		add	r3, r3, #19
 2691 10ba 1B78     		ldrb	r3, [r3]	@ zero_extendqisi2
 2692 10bc 1A44     		add	r2, r2, r3
 2693 10be 07F5BE53 		add	r3, r7, #6080
 2694 10c2 03F11703 		add	r3, r3, #23
 2695 10c6 1B78     		ldrb	r3, [r3]	@ zero_extendqisi2
 2696 10c8 D31A     		subs	r3, r2, r3
 2697 10ca 5A1E     		subs	r2, r3, #1
 2698 10cc 07F5BE53 		add	r3, r7, #6080
 2699 10d0 03F11703 		add	r3, r3, #23
 2700 10d4 1978     		ldrb	r1, [r3]	@ zero_extendqisi2
 2701 10d6 07F13803 		add	r3, r7, #56
 2702 10da 1C3B     		subs	r3, r3, #28
 2703 10dc 0B44     		add	r3, r3, r1
 2704 10de 1978     		ldrb	r1, [r3]	@ zero_extendqisi2
 2705 10e0 07F15803 		add	r3, r7, #88
 2706 10e4 043B     		subs	r3, r3, #4
 2707 10e6 9954     		strb	r1, [r3, r2]
 530:..\src/command_processing.c ****                             for(i = 0; i < sod; i++) {
 2708              		.loc 1 530 0 discriminator 3
 2709 10e8 07F5BE53 		add	r3, r7, #6080
 2710 10ec 03F11703 		add	r3, r3, #23
 2711 10f0 1B78     		ldrb	r3, [r3]	@ zero_extendqisi2
 2712 10f2 0133     		adds	r3, r3, #1
 2713 10f4 07F5BE52 		add	r2, r7, #6080
 2714 10f8 02F11702 		add	r2, r2, #23
 2715 10fc 1370     		strb	r3, [r2]
 2716              	.L142:
 530:..\src/command_processing.c ****                             for(i = 0; i < sod; i++) {
 2717              		.loc 1 530 0 is_stmt 0 discriminator 1
 2718 10fe 07F5BE53 		add	r3, r7, #6080
 2719 1102 03F11703 		add	r3, r3, #23
 2720 1106 1A78     		ldrb	r2, [r3]	@ zero_extendqisi2
 2721 1108 07F5BE53 		add	r3, r7, #6080
 2722 110c 03F11303 		add	r3, r3, #19
 2723 1110 1B78     		ldrb	r3, [r3]	@ zero_extendqisi2
 2724 1112 9A42     		cmp	r2, r3
 2725 1114 BED3     		bcc	.L143
 532:..\src/command_processing.c ****                             }
 533:..\src/command_processing.c ****                             aux_float = (float) c_mem.motor[MOTOR_IDX].k_d_c / 65536;
 2726              		.loc 1 533 0 is_stmt 1
 2727 1116 07F5BE53 		add	r3, r7, #6080
 2728 111a 03F10F03 		add	r3, r3, #15
ARM GAS  C:\Users\mgnocco\AppData\Local\Temp\ccga5MX6.s 			page 75


 2729 111e 1A78     		ldrb	r2, [r3]	@ zero_extendqisi2
 2730 1120 C849     		ldr	r1, .L293
 2731 1122 1346     		mov	r3, r2
 2732 1124 DB00     		lsls	r3, r3, #3
 2733 1126 9B1A     		subs	r3, r3, r2
 2734 1128 1B01     		lsls	r3, r3, #4
 2735 112a 0B44     		add	r3, r3, r1
 2736 112c C433     		adds	r3, r3, #196
 2737 112e 1B68     		ldr	r3, [r3]
 2738 1130 1846     		mov	r0, r3
 2739 1132 FFF7FEFF 		bl	__aeabi_i2f
 2740 1136 0346     		mov	r3, r0
 2741 1138 4FF08F41 		mov	r1, #1199570944
 2742 113c 1846     		mov	r0, r3
 2743 113e FFF7FEFF 		bl	__aeabi_fdiv
 2744 1142 0346     		mov	r3, r0
 2745 1144 1A46     		mov	r2, r3
 2746 1146 07F13803 		add	r3, r7, #56
 2747 114a 1C3B     		subs	r3, r3, #28
 2748 114c 1A60     		str	r2, [r3]	@ float
 534:..\src/command_processing.c ****                             for(i = 0; i < sod; i++) {
 2749              		.loc 1 534 0
 2750 114e 0023     		movs	r3, #0
 2751 1150 07F5BE52 		add	r2, r7, #6080
 2752 1154 02F11702 		add	r2, r2, #23
 2753 1158 1370     		strb	r3, [r2]
 2754 115a 35E0     		b	.L144
 2755              	.L145:
 535:..\src/command_processing.c ****                                 packet_data[(4 + PARAM_BYTE_SLOT*idx + 2*sod) + sod - i -1] = ((cha
 2756              		.loc 1 535 0 discriminator 3
 2757 115c 07F5BE53 		add	r3, r7, #6080
 2758 1160 03F11503 		add	r3, r3, #21
 2759 1164 1B78     		ldrb	r3, [r3]	@ zero_extendqisi2
 2760 1166 3222     		movs	r2, #50
 2761 1168 02FB03F3 		mul	r3, r2, r3
 2762 116c 1A1D     		adds	r2, r3, #4
 2763 116e 07F5BE53 		add	r3, r7, #6080
 2764 1172 03F11303 		add	r3, r3, #19
 2765 1176 1B78     		ldrb	r3, [r3]	@ zero_extendqisi2
 2766 1178 5B00     		lsls	r3, r3, #1
 2767 117a 1A44     		add	r2, r2, r3
 2768 117c 07F5BE53 		add	r3, r7, #6080
 2769 1180 03F11303 		add	r3, r3, #19
 2770 1184 1B78     		ldrb	r3, [r3]	@ zero_extendqisi2
 2771 1186 1A44     		add	r2, r2, r3
 2772 1188 07F5BE53 		add	r3, r7, #6080
 2773 118c 03F11703 		add	r3, r3, #23
 2774 1190 1B78     		ldrb	r3, [r3]	@ zero_extendqisi2
 2775 1192 D31A     		subs	r3, r2, r3
 2776 1194 5A1E     		subs	r2, r3, #1
 2777 1196 07F5BE53 		add	r3, r7, #6080
 2778 119a 03F11703 		add	r3, r3, #23
 2779 119e 1978     		ldrb	r1, [r3]	@ zero_extendqisi2
 2780 11a0 07F13803 		add	r3, r7, #56
 2781 11a4 1C3B     		subs	r3, r3, #28
 2782 11a6 0B44     		add	r3, r3, r1
 2783 11a8 1978     		ldrb	r1, [r3]	@ zero_extendqisi2
ARM GAS  C:\Users\mgnocco\AppData\Local\Temp\ccga5MX6.s 			page 76


 2784 11aa 07F15803 		add	r3, r7, #88
 2785 11ae 043B     		subs	r3, r3, #4
 2786 11b0 9954     		strb	r1, [r3, r2]
 534:..\src/command_processing.c ****                             for(i = 0; i < sod; i++) {
 2787              		.loc 1 534 0 discriminator 3
 2788 11b2 07F5BE53 		add	r3, r7, #6080
 2789 11b6 03F11703 		add	r3, r3, #23
 2790 11ba 1B78     		ldrb	r3, [r3]	@ zero_extendqisi2
 2791 11bc 0133     		adds	r3, r3, #1
 2792 11be 07F5BE52 		add	r2, r7, #6080
 2793 11c2 02F11702 		add	r2, r2, #23
 2794 11c6 1370     		strb	r3, [r2]
 2795              	.L144:
 534:..\src/command_processing.c ****                             for(i = 0; i < sod; i++) {
 2796              		.loc 1 534 0 is_stmt 0 discriminator 1
 2797 11c8 07F5BE53 		add	r3, r7, #6080
 2798 11cc 03F11703 		add	r3, r3, #23
 2799 11d0 1A78     		ldrb	r2, [r3]	@ zero_extendqisi2
 2800 11d2 07F5BE53 		add	r3, r7, #6080
 2801 11d6 03F11303 		add	r3, r3, #19
 2802 11da 1B78     		ldrb	r3, [r3]	@ zero_extendqisi2
 2803 11dc 9A42     		cmp	r2, r3
 2804 11de BDD3     		bcc	.L145
 536:..\src/command_processing.c ****                             }
 537:..\src/command_processing.c ****                         }
 538:..\src/command_processing.c ****                         else {
 539:..\src/command_processing.c ****                             aux_float = (float) c_mem.motor[MOTOR_IDX].k_p_c_dl / 65536;
 540:..\src/command_processing.c ****                             for(i = 0; i < sod; i++) {
 541:..\src/command_processing.c ****                                 packet_data[(4 + PARAM_BYTE_SLOT*idx) + sod - i -1] = ((char*)(&aux
 542:..\src/command_processing.c ****                             }
 543:..\src/command_processing.c ****                             aux_float = (float) c_mem.motor[MOTOR_IDX].k_i_c_dl / 65536;
 544:..\src/command_processing.c ****                             for(i = 0; i < sod; i++) {
 545:..\src/command_processing.c ****                                 packet_data[(4 + PARAM_BYTE_SLOT*idx + sod) + sod - i -1] = ((char*
 546:..\src/command_processing.c ****                             }
 547:..\src/command_processing.c ****                             aux_float = (float) c_mem.motor[MOTOR_IDX].k_d_c_dl / 65536;
 548:..\src/command_processing.c ****                             for(i = 0; i < sod; i++) {
 549:..\src/command_processing.c ****                                 packet_data[(4 + PARAM_BYTE_SLOT*idx + 2*sod) + sod - i -1] = ((cha
 550:..\src/command_processing.c ****                             }
 551:..\src/command_processing.c ****                         }            
 552:..\src/command_processing.c ****                         break;  
 2805              		.loc 1 552 0 is_stmt 1
 2806 11e0 01F073B9 		b	.L113
 2807              	.L139:
 539:..\src/command_processing.c ****                             for(i = 0; i < sod; i++) {
 2808              		.loc 1 539 0
 2809 11e4 07F5BE53 		add	r3, r7, #6080
 2810 11e8 03F10F03 		add	r3, r3, #15
 2811 11ec 1A78     		ldrb	r2, [r3]	@ zero_extendqisi2
 2812 11ee 9549     		ldr	r1, .L293
 2813 11f0 1346     		mov	r3, r2
 2814 11f2 DB00     		lsls	r3, r3, #3
 2815 11f4 9B1A     		subs	r3, r3, r2
 2816 11f6 1B01     		lsls	r3, r3, #4
 2817 11f8 0B44     		add	r3, r3, r1
 2818 11fa D433     		adds	r3, r3, #212
 2819 11fc 1B68     		ldr	r3, [r3]
 2820 11fe 1846     		mov	r0, r3
ARM GAS  C:\Users\mgnocco\AppData\Local\Temp\ccga5MX6.s 			page 77


 2821 1200 FFF7FEFF 		bl	__aeabi_i2f
 2822 1204 0346     		mov	r3, r0
 2823 1206 4FF08F41 		mov	r1, #1199570944
 2824 120a 1846     		mov	r0, r3
 2825 120c FFF7FEFF 		bl	__aeabi_fdiv
 2826 1210 0346     		mov	r3, r0
 2827 1212 1A46     		mov	r2, r3
 2828 1214 07F13803 		add	r3, r7, #56
 2829 1218 1C3B     		subs	r3, r3, #28
 2830 121a 1A60     		str	r2, [r3]	@ float
 540:..\src/command_processing.c ****                                 packet_data[(4 + PARAM_BYTE_SLOT*idx) + sod - i -1] = ((char*)(&aux
 2831              		.loc 1 540 0
 2832 121c 0023     		movs	r3, #0
 2833 121e 07F5BE52 		add	r2, r7, #6080
 2834 1222 02F11702 		add	r2, r2, #23
 2835 1226 1370     		strb	r3, [r2]
 2836 1228 2EE0     		b	.L147
 2837              	.L148:
 541:..\src/command_processing.c ****                             }
 2838              		.loc 1 541 0 discriminator 3
 2839 122a 07F5BE53 		add	r3, r7, #6080
 2840 122e 03F11503 		add	r3, r3, #21
 2841 1232 1B78     		ldrb	r3, [r3]	@ zero_extendqisi2
 2842 1234 3222     		movs	r2, #50
 2843 1236 02FB03F3 		mul	r3, r2, r3
 2844 123a 1A1D     		adds	r2, r3, #4
 2845 123c 07F5BE53 		add	r3, r7, #6080
 2846 1240 03F11303 		add	r3, r3, #19
 2847 1244 1B78     		ldrb	r3, [r3]	@ zero_extendqisi2
 2848 1246 1A44     		add	r2, r2, r3
 2849 1248 07F5BE53 		add	r3, r7, #6080
 2850 124c 03F11703 		add	r3, r3, #23
 2851 1250 1B78     		ldrb	r3, [r3]	@ zero_extendqisi2
 2852 1252 D31A     		subs	r3, r2, r3
 2853 1254 5A1E     		subs	r2, r3, #1
 2854 1256 07F5BE53 		add	r3, r7, #6080
 2855 125a 03F11703 		add	r3, r3, #23
 2856 125e 1978     		ldrb	r1, [r3]	@ zero_extendqisi2
 2857 1260 07F13803 		add	r3, r7, #56
 2858 1264 1C3B     		subs	r3, r3, #28
 2859 1266 0B44     		add	r3, r3, r1
 2860 1268 1978     		ldrb	r1, [r3]	@ zero_extendqisi2
 2861 126a 07F15803 		add	r3, r7, #88
 2862 126e 043B     		subs	r3, r3, #4
 2863 1270 9954     		strb	r1, [r3, r2]
 540:..\src/command_processing.c ****                                 packet_data[(4 + PARAM_BYTE_SLOT*idx) + sod - i -1] = ((char*)(&aux
 2864              		.loc 1 540 0 discriminator 3
 2865 1272 07F5BE53 		add	r3, r7, #6080
 2866 1276 03F11703 		add	r3, r3, #23
 2867 127a 1B78     		ldrb	r3, [r3]	@ zero_extendqisi2
 2868 127c 0133     		adds	r3, r3, #1
 2869 127e 07F5BE52 		add	r2, r7, #6080
 2870 1282 02F11702 		add	r2, r2, #23
 2871 1286 1370     		strb	r3, [r2]
 2872              	.L147:
 540:..\src/command_processing.c ****                                 packet_data[(4 + PARAM_BYTE_SLOT*idx) + sod - i -1] = ((char*)(&aux
 2873              		.loc 1 540 0 is_stmt 0 discriminator 1
ARM GAS  C:\Users\mgnocco\AppData\Local\Temp\ccga5MX6.s 			page 78


 2874 1288 07F5BE53 		add	r3, r7, #6080
 2875 128c 03F11703 		add	r3, r3, #23
 2876 1290 1A78     		ldrb	r2, [r3]	@ zero_extendqisi2
 2877 1292 07F5BE53 		add	r3, r7, #6080
 2878 1296 03F11303 		add	r3, r3, #19
 2879 129a 1B78     		ldrb	r3, [r3]	@ zero_extendqisi2
 2880 129c 9A42     		cmp	r2, r3
 2881 129e C4D3     		bcc	.L148
 543:..\src/command_processing.c ****                             for(i = 0; i < sod; i++) {
 2882              		.loc 1 543 0 is_stmt 1
 2883 12a0 07F5BE53 		add	r3, r7, #6080
 2884 12a4 03F10F03 		add	r3, r3, #15
 2885 12a8 1A78     		ldrb	r2, [r3]	@ zero_extendqisi2
 2886 12aa 6649     		ldr	r1, .L293
 2887 12ac 1346     		mov	r3, r2
 2888 12ae DB00     		lsls	r3, r3, #3
 2889 12b0 9B1A     		subs	r3, r3, r2
 2890 12b2 1B01     		lsls	r3, r3, #4
 2891 12b4 0B44     		add	r3, r3, r1
 2892 12b6 D833     		adds	r3, r3, #216
 2893 12b8 1B68     		ldr	r3, [r3]
 2894 12ba 1846     		mov	r0, r3
 2895 12bc FFF7FEFF 		bl	__aeabi_i2f
 2896 12c0 0346     		mov	r3, r0
 2897 12c2 4FF08F41 		mov	r1, #1199570944
 2898 12c6 1846     		mov	r0, r3
 2899 12c8 FFF7FEFF 		bl	__aeabi_fdiv
 2900 12cc 0346     		mov	r3, r0
 2901 12ce 1A46     		mov	r2, r3
 2902 12d0 07F13803 		add	r3, r7, #56
 2903 12d4 1C3B     		subs	r3, r3, #28
 2904 12d6 1A60     		str	r2, [r3]	@ float
 544:..\src/command_processing.c ****                                 packet_data[(4 + PARAM_BYTE_SLOT*idx + sod) + sod - i -1] = ((char*
 2905              		.loc 1 544 0
 2906 12d8 0023     		movs	r3, #0
 2907 12da 07F5BE52 		add	r2, r7, #6080
 2908 12de 02F11702 		add	r2, r2, #23
 2909 12e2 1370     		strb	r3, [r2]
 2910 12e4 34E0     		b	.L149
 2911              	.L150:
 545:..\src/command_processing.c ****                             }
 2912              		.loc 1 545 0 discriminator 3
 2913 12e6 07F5BE53 		add	r3, r7, #6080
 2914 12ea 03F11503 		add	r3, r3, #21
 2915 12ee 1B78     		ldrb	r3, [r3]	@ zero_extendqisi2
 2916 12f0 3222     		movs	r2, #50
 2917 12f2 02FB03F3 		mul	r3, r2, r3
 2918 12f6 1A1D     		adds	r2, r3, #4
 2919 12f8 07F5BE53 		add	r3, r7, #6080
 2920 12fc 03F11303 		add	r3, r3, #19
 2921 1300 1B78     		ldrb	r3, [r3]	@ zero_extendqisi2
 2922 1302 1A44     		add	r2, r2, r3
 2923 1304 07F5BE53 		add	r3, r7, #6080
 2924 1308 03F11303 		add	r3, r3, #19
 2925 130c 1B78     		ldrb	r3, [r3]	@ zero_extendqisi2
 2926 130e 1A44     		add	r2, r2, r3
 2927 1310 07F5BE53 		add	r3, r7, #6080
ARM GAS  C:\Users\mgnocco\AppData\Local\Temp\ccga5MX6.s 			page 79


 2928 1314 03F11703 		add	r3, r3, #23
 2929 1318 1B78     		ldrb	r3, [r3]	@ zero_extendqisi2
 2930 131a D31A     		subs	r3, r2, r3
 2931 131c 5A1E     		subs	r2, r3, #1
 2932 131e 07F5BE53 		add	r3, r7, #6080
 2933 1322 03F11703 		add	r3, r3, #23
 2934 1326 1978     		ldrb	r1, [r3]	@ zero_extendqisi2
 2935 1328 07F13803 		add	r3, r7, #56
 2936 132c 1C3B     		subs	r3, r3, #28
 2937 132e 0B44     		add	r3, r3, r1
 2938 1330 1978     		ldrb	r1, [r3]	@ zero_extendqisi2
 2939 1332 07F15803 		add	r3, r7, #88
 2940 1336 043B     		subs	r3, r3, #4
 2941 1338 9954     		strb	r1, [r3, r2]
 544:..\src/command_processing.c ****                                 packet_data[(4 + PARAM_BYTE_SLOT*idx + sod) + sod - i -1] = ((char*
 2942              		.loc 1 544 0 discriminator 3
 2943 133a 07F5BE53 		add	r3, r7, #6080
 2944 133e 03F11703 		add	r3, r3, #23
 2945 1342 1B78     		ldrb	r3, [r3]	@ zero_extendqisi2
 2946 1344 0133     		adds	r3, r3, #1
 2947 1346 07F5BE52 		add	r2, r7, #6080
 2948 134a 02F11702 		add	r2, r2, #23
 2949 134e 1370     		strb	r3, [r2]
 2950              	.L149:
 544:..\src/command_processing.c ****                                 packet_data[(4 + PARAM_BYTE_SLOT*idx + sod) + sod - i -1] = ((char*
 2951              		.loc 1 544 0 is_stmt 0 discriminator 1
 2952 1350 07F5BE53 		add	r3, r7, #6080
 2953 1354 03F11703 		add	r3, r3, #23
 2954 1358 1A78     		ldrb	r2, [r3]	@ zero_extendqisi2
 2955 135a 07F5BE53 		add	r3, r7, #6080
 2956 135e 03F11303 		add	r3, r3, #19
 2957 1362 1B78     		ldrb	r3, [r3]	@ zero_extendqisi2
 2958 1364 9A42     		cmp	r2, r3
 2959 1366 BED3     		bcc	.L150
 547:..\src/command_processing.c ****                             for(i = 0; i < sod; i++) {
 2960              		.loc 1 547 0 is_stmt 1
 2961 1368 07F5BE53 		add	r3, r7, #6080
 2962 136c 03F10F03 		add	r3, r3, #15
 2963 1370 1A78     		ldrb	r2, [r3]	@ zero_extendqisi2
 2964 1372 3449     		ldr	r1, .L293
 2965 1374 1346     		mov	r3, r2
 2966 1376 DB00     		lsls	r3, r3, #3
 2967 1378 9B1A     		subs	r3, r3, r2
 2968 137a 1B01     		lsls	r3, r3, #4
 2969 137c 0B44     		add	r3, r3, r1
 2970 137e DC33     		adds	r3, r3, #220
 2971 1380 1B68     		ldr	r3, [r3]
 2972 1382 1846     		mov	r0, r3
 2973 1384 FFF7FEFF 		bl	__aeabi_i2f
 2974 1388 0346     		mov	r3, r0
 2975 138a 4FF08F41 		mov	r1, #1199570944
 2976 138e 1846     		mov	r0, r3
 2977 1390 FFF7FEFF 		bl	__aeabi_fdiv
 2978 1394 0346     		mov	r3, r0
 2979 1396 1A46     		mov	r2, r3
 2980 1398 07F13803 		add	r3, r7, #56
 2981 139c 1C3B     		subs	r3, r3, #28
ARM GAS  C:\Users\mgnocco\AppData\Local\Temp\ccga5MX6.s 			page 80


 2982 139e 1A60     		str	r2, [r3]	@ float
 548:..\src/command_processing.c ****                                 packet_data[(4 + PARAM_BYTE_SLOT*idx + 2*sod) + sod - i -1] = ((cha
 2983              		.loc 1 548 0
 2984 13a0 0023     		movs	r3, #0
 2985 13a2 07F5BE52 		add	r2, r7, #6080
 2986 13a6 02F11702 		add	r2, r2, #23
 2987 13aa 1370     		strb	r3, [r2]
 2988 13ac 35E0     		b	.L151
 2989              	.L152:
 549:..\src/command_processing.c ****                             }
 2990              		.loc 1 549 0 discriminator 3
 2991 13ae 07F5BE53 		add	r3, r7, #6080
 2992 13b2 03F11503 		add	r3, r3, #21
 2993 13b6 1B78     		ldrb	r3, [r3]	@ zero_extendqisi2
 2994 13b8 3222     		movs	r2, #50
 2995 13ba 02FB03F3 		mul	r3, r2, r3
 2996 13be 1A1D     		adds	r2, r3, #4
 2997 13c0 07F5BE53 		add	r3, r7, #6080
 2998 13c4 03F11303 		add	r3, r3, #19
 2999 13c8 1B78     		ldrb	r3, [r3]	@ zero_extendqisi2
 3000 13ca 5B00     		lsls	r3, r3, #1
 3001 13cc 1A44     		add	r2, r2, r3
 3002 13ce 07F5BE53 		add	r3, r7, #6080
 3003 13d2 03F11303 		add	r3, r3, #19
 3004 13d6 1B78     		ldrb	r3, [r3]	@ zero_extendqisi2
 3005 13d8 1A44     		add	r2, r2, r3
 3006 13da 07F5BE53 		add	r3, r7, #6080
 3007 13de 03F11703 		add	r3, r3, #23
 3008 13e2 1B78     		ldrb	r3, [r3]	@ zero_extendqisi2
 3009 13e4 D31A     		subs	r3, r2, r3
 3010 13e6 5A1E     		subs	r2, r3, #1
 3011 13e8 07F5BE53 		add	r3, r7, #6080
 3012 13ec 03F11703 		add	r3, r3, #23
 3013 13f0 1978     		ldrb	r1, [r3]	@ zero_extendqisi2
 3014 13f2 07F13803 		add	r3, r7, #56
 3015 13f6 1C3B     		subs	r3, r3, #28
 3016 13f8 0B44     		add	r3, r3, r1
 3017 13fa 1978     		ldrb	r1, [r3]	@ zero_extendqisi2
 3018 13fc 07F15803 		add	r3, r7, #88
 3019 1400 043B     		subs	r3, r3, #4
 3020 1402 9954     		strb	r1, [r3, r2]
 548:..\src/command_processing.c ****                                 packet_data[(4 + PARAM_BYTE_SLOT*idx + 2*sod) + sod - i -1] = ((cha
 3021              		.loc 1 548 0 discriminator 3
 3022 1404 07F5BE53 		add	r3, r7, #6080
 3023 1408 03F11703 		add	r3, r3, #23
 3024 140c 1B78     		ldrb	r3, [r3]	@ zero_extendqisi2
 3025 140e 0133     		adds	r3, r3, #1
 3026 1410 07F5BE52 		add	r2, r7, #6080
 3027 1414 02F11702 		add	r2, r2, #23
 3028 1418 1370     		strb	r3, [r2]
 3029              	.L151:
 548:..\src/command_processing.c ****                                 packet_data[(4 + PARAM_BYTE_SLOT*idx + 2*sod) + sod - i -1] = ((cha
 3030              		.loc 1 548 0 is_stmt 0 discriminator 1
 3031 141a 07F5BE53 		add	r3, r7, #6080
 3032 141e 03F11703 		add	r3, r3, #23
 3033 1422 1A78     		ldrb	r2, [r3]	@ zero_extendqisi2
 3034 1424 07F5BE53 		add	r3, r7, #6080
ARM GAS  C:\Users\mgnocco\AppData\Local\Temp\ccga5MX6.s 			page 81


 3035 1428 03F11303 		add	r3, r3, #19
 3036 142c 1B78     		ldrb	r3, [r3]	@ zero_extendqisi2
 3037 142e 9A42     		cmp	r2, r3
 3038 1430 BDD3     		bcc	.L152
 3039              		.loc 1 552 0 is_stmt 1
 3040 1432 01F04AB8 		b	.L113
 3041              	.L118:
 553:..\src/command_processing.c **** 
 554:..\src/command_processing.c ****                     case 8:         //Measurement Offset
 555:..\src/command_processing.c ****                         for (i=0; i<NUM_ITEMS[idx]; i++){
 3042              		.loc 1 555 0
 3043 1436 0023     		movs	r3, #0
 3044 1438 07F5BE52 		add	r2, r7, #6080
 3045 143c 02F11702 		add	r2, r2, #23
 3046 1440 1370     		strb	r3, [r2]
 3047 1442 9DE0     		b	.L153
 3048              	.L294:
 3049              		.align	2
 3050              	.L293:
 3051 1444 00000000 		.word	c_mem
 3052              	.L156:
 556:..\src/command_processing.c ****                             aux_int16 = (c_mem.enc[g_mem.motor[MOTOR_IDX].encoder_line].m_off[i] >>
 3053              		.loc 1 556 0
 3054 1448 07F5BE53 		add	r3, r7, #6080
 3055 144c 03F10F03 		add	r3, r3, #15
 3056 1450 1A78     		ldrb	r2, [r3]	@ zero_extendqisi2
 3057 1452 C749     		ldr	r1, .L295
 3058 1454 1346     		mov	r3, r2
 3059 1456 DB00     		lsls	r3, r3, #3
 3060 1458 9B1A     		subs	r3, r3, r2
 3061 145a 1B01     		lsls	r3, r3, #4
 3062 145c 0B44     		add	r3, r3, r1
 3063 145e 03F58873 		add	r3, r3, #272
 3064 1462 1B78     		ldrb	r3, [r3]	@ zero_extendqisi2
 3065 1464 1846     		mov	r0, r3
 3066 1466 07F5BE53 		add	r3, r7, #6080
 3067 146a 03F11703 		add	r3, r3, #23
 3068 146e 1A78     		ldrb	r2, [r3]	@ zero_extendqisi2
 3069 1470 C049     		ldr	r1, .L295+4
 3070 1472 0346     		mov	r3, r0
 3071 1474 5B00     		lsls	r3, r3, #1
 3072 1476 0344     		add	r3, r3, r0
 3073 1478 9B00     		lsls	r3, r3, #2
 3074 147a 1344     		add	r3, r3, r2
 3075 147c 6633     		adds	r3, r3, #102
 3076 147e 51F82310 		ldr	r1, [r1, r3, lsl #2]
 3077 1482 07F5BE53 		add	r3, r7, #6080
 3078 1486 03F10F03 		add	r3, r3, #15
 3079 148a 1A78     		ldrb	r2, [r3]	@ zero_extendqisi2
 3080 148c B848     		ldr	r0, .L295
 3081 148e 1346     		mov	r3, r2
 3082 1490 DB00     		lsls	r3, r3, #3
 3083 1492 9B1A     		subs	r3, r3, r2
 3084 1494 1B01     		lsls	r3, r3, #4
 3085 1496 0344     		add	r3, r3, r0
 3086 1498 03F58873 		add	r3, r3, #272
 3087 149c 1B78     		ldrb	r3, [r3]	@ zero_extendqisi2
ARM GAS  C:\Users\mgnocco\AppData\Local\Temp\ccga5MX6.s 			page 82


 3088 149e 1C46     		mov	r4, r3
 3089 14a0 07F5BE53 		add	r3, r7, #6080
 3090 14a4 03F11703 		add	r3, r3, #23
 3091 14a8 1A78     		ldrb	r2, [r3]	@ zero_extendqisi2
 3092 14aa B248     		ldr	r0, .L295+4
 3093 14ac 2346     		mov	r3, r4
 3094 14ae 5B00     		lsls	r3, r3, #1
 3095 14b0 2344     		add	r3, r3, r4
 3096 14b2 1B01     		lsls	r3, r3, #4
 3097 14b4 0344     		add	r3, r3, r0
 3098 14b6 1344     		add	r3, r3, r2
 3099 14b8 03F29513 		addw	r3, r3, #405
 3100 14bc 1B78     		ldrb	r3, [r3]	@ zero_extendqisi2
 3101 14be 41FA03F3 		asr	r3, r1, r3
 3102 14c2 1AB2     		sxth	r2, r3
 3103 14c4 07F13803 		add	r3, r7, #56
 3104 14c8 1E3B     		subs	r3, r3, #30
 3105 14ca 1A80     		strh	r2, [r3]	@ movhi
 557:..\src/command_processing.c ****                             for(j = 0; j < sod; j++) {
 3106              		.loc 1 557 0
 3107 14cc 0023     		movs	r3, #0
 3108 14ce 07F5BE52 		add	r2, r7, #6080
 3109 14d2 02F11602 		add	r2, r2, #22
 3110 14d6 1370     		strb	r3, [r2]
 3111 14d8 3BE0     		b	.L154
 3112              	.L155:
 558:..\src/command_processing.c ****                                 packet_data[(4 + PARAM_BYTE_SLOT*idx + i*sod) + sod - j -1] = ((cha
 3113              		.loc 1 558 0 discriminator 3
 3114 14da 07F5BE53 		add	r3, r7, #6080
 3115 14de 03F11503 		add	r3, r3, #21
 3116 14e2 1B78     		ldrb	r3, [r3]	@ zero_extendqisi2
 3117 14e4 3222     		movs	r2, #50
 3118 14e6 02FB03F3 		mul	r3, r2, r3
 3119 14ea 1A1D     		adds	r2, r3, #4
 3120 14ec 07F5BE53 		add	r3, r7, #6080
 3121 14f0 03F11703 		add	r3, r3, #23
 3122 14f4 1B78     		ldrb	r3, [r3]	@ zero_extendqisi2
 3123 14f6 07F5BE51 		add	r1, r7, #6080
 3124 14fa 01F11301 		add	r1, r1, #19
 3125 14fe 0978     		ldrb	r1, [r1]	@ zero_extendqisi2
 3126 1500 01FB03F3 		mul	r3, r1, r3
 3127 1504 1A44     		add	r2, r2, r3
 3128 1506 07F5BE53 		add	r3, r7, #6080
 3129 150a 03F11303 		add	r3, r3, #19
 3130 150e 1B78     		ldrb	r3, [r3]	@ zero_extendqisi2
 3131 1510 1A44     		add	r2, r2, r3
 3132 1512 07F5BE53 		add	r3, r7, #6080
 3133 1516 03F11603 		add	r3, r3, #22
 3134 151a 1B78     		ldrb	r3, [r3]	@ zero_extendqisi2
 3135 151c D31A     		subs	r3, r2, r3
 3136 151e 5A1E     		subs	r2, r3, #1
 3137 1520 07F5BE53 		add	r3, r7, #6080
 3138 1524 03F11603 		add	r3, r3, #22
 3139 1528 1978     		ldrb	r1, [r3]	@ zero_extendqisi2
 3140 152a 07F13803 		add	r3, r7, #56
 3141 152e 1E3B     		subs	r3, r3, #30
 3142 1530 0B44     		add	r3, r3, r1
ARM GAS  C:\Users\mgnocco\AppData\Local\Temp\ccga5MX6.s 			page 83


 3143 1532 1978     		ldrb	r1, [r3]	@ zero_extendqisi2
 3144 1534 07F15803 		add	r3, r7, #88
 3145 1538 043B     		subs	r3, r3, #4
 3146 153a 9954     		strb	r1, [r3, r2]
 557:..\src/command_processing.c ****                             for(j = 0; j < sod; j++) {
 3147              		.loc 1 557 0 discriminator 3
 3148 153c 07F5BE53 		add	r3, r7, #6080
 3149 1540 03F11603 		add	r3, r3, #22
 3150 1544 1B78     		ldrb	r3, [r3]	@ zero_extendqisi2
 3151 1546 0133     		adds	r3, r3, #1
 3152 1548 07F5BE52 		add	r2, r7, #6080
 3153 154c 02F11602 		add	r2, r2, #22
 3154 1550 1370     		strb	r3, [r2]
 3155              	.L154:
 557:..\src/command_processing.c ****                             for(j = 0; j < sod; j++) {
 3156              		.loc 1 557 0 is_stmt 0 discriminator 1
 3157 1552 07F5BE53 		add	r3, r7, #6080
 3158 1556 03F11603 		add	r3, r3, #22
 3159 155a 1A78     		ldrb	r2, [r3]	@ zero_extendqisi2
 3160 155c 07F5BE53 		add	r3, r7, #6080
 3161 1560 03F11303 		add	r3, r3, #19
 3162 1564 1B78     		ldrb	r3, [r3]	@ zero_extendqisi2
 3163 1566 9A42     		cmp	r2, r3
 3164 1568 B7D3     		bcc	.L155
 555:..\src/command_processing.c ****                             aux_int16 = (c_mem.enc[g_mem.motor[MOTOR_IDX].encoder_line].m_off[i] >>
 3165              		.loc 1 555 0 is_stmt 1 discriminator 2
 3166 156a 07F5BE53 		add	r3, r7, #6080
 3167 156e 03F11703 		add	r3, r3, #23
 3168 1572 1B78     		ldrb	r3, [r3]	@ zero_extendqisi2
 3169 1574 0133     		adds	r3, r3, #1
 3170 1576 07F5BE52 		add	r2, r7, #6080
 3171 157a 02F11702 		add	r2, r2, #23
 3172 157e 1370     		strb	r3, [r2]
 3173              	.L153:
 555:..\src/command_processing.c ****                             aux_int16 = (c_mem.enc[g_mem.motor[MOTOR_IDX].encoder_line].m_off[i] >>
 3174              		.loc 1 555 0 is_stmt 0 discriminator 1
 3175 1580 07F5BE53 		add	r3, r7, #6080
 3176 1584 03F11503 		add	r3, r3, #21
 3177 1588 1A78     		ldrb	r2, [r3]	@ zero_extendqisi2
 3178 158a 07F11803 		add	r3, r7, #24
 3179 158e 143B     		subs	r3, r3, #20
 3180 1590 1B68     		ldr	r3, [r3]
 3181 1592 1344     		add	r3, r3, r2
 3182 1594 1B78     		ldrb	r3, [r3]	@ zero_extendqisi2
 3183 1596 07F5BE52 		add	r2, r7, #6080
 3184 159a 02F11702 		add	r2, r2, #23
 3185 159e 1278     		ldrb	r2, [r2]	@ zero_extendqisi2
 3186 15a0 9A42     		cmp	r2, r3
 3187 15a2 FFF451AF 		bcc	.L156
 559:..\src/command_processing.c ****                             }
 560:..\src/command_processing.c ****                         }
 561:..\src/command_processing.c ****                         break;
 3188              		.loc 1 561 0 is_stmt 1
 3189 15a6 00F090BF 		b	.L113
 3190              	.L119:
 562:..\src/command_processing.c ****                 
 563:..\src/command_processing.c ****                     case 11:        //Position limits
ARM GAS  C:\Users\mgnocco\AppData\Local\Temp\ccga5MX6.s 			page 84


 564:..\src/command_processing.c ****                         aux_int32 = (c_mem.motor[MOTOR_IDX].pos_lim_inf >> c_mem.enc[g_mem.motor[MO
 3191              		.loc 1 564 0
 3192 15aa 07F5BE53 		add	r3, r7, #6080
 3193 15ae 03F10F03 		add	r3, r3, #15
 3194 15b2 1A78     		ldrb	r2, [r3]	@ zero_extendqisi2
 3195 15b4 6F49     		ldr	r1, .L295+4
 3196 15b6 1346     		mov	r3, r2
 3197 15b8 DB00     		lsls	r3, r3, #3
 3198 15ba 9B1A     		subs	r3, r3, r2
 3199 15bc 1B01     		lsls	r3, r3, #4
 3200 15be 0B44     		add	r3, r3, r1
 3201 15c0 E433     		adds	r3, r3, #228
 3202 15c2 1968     		ldr	r1, [r3]
 3203 15c4 07F5BE53 		add	r3, r7, #6080
 3204 15c8 03F10F03 		add	r3, r3, #15
 3205 15cc 1A78     		ldrb	r2, [r3]	@ zero_extendqisi2
 3206 15ce 6848     		ldr	r0, .L295
 3207 15d0 1346     		mov	r3, r2
 3208 15d2 DB00     		lsls	r3, r3, #3
 3209 15d4 9B1A     		subs	r3, r3, r2
 3210 15d6 1B01     		lsls	r3, r3, #4
 3211 15d8 0344     		add	r3, r3, r0
 3212 15da 03F58873 		add	r3, r3, #272
 3213 15de 1B78     		ldrb	r3, [r3]	@ zero_extendqisi2
 3214 15e0 1846     		mov	r0, r3
 3215 15e2 644A     		ldr	r2, .L295+4
 3216 15e4 0346     		mov	r3, r0
 3217 15e6 5B00     		lsls	r3, r3, #1
 3218 15e8 0344     		add	r3, r3, r0
 3219 15ea 1B01     		lsls	r3, r3, #4
 3220 15ec 1344     		add	r3, r3, r2
 3221 15ee 03F29513 		addw	r3, r3, #405
 3222 15f2 1B78     		ldrb	r3, [r3]	@ zero_extendqisi2
 3223 15f4 41FA03F2 		asr	r2, r1, r3
 3224 15f8 07F11803 		add	r3, r7, #24
 3225 15fc 043B     		subs	r3, r3, #4
 3226 15fe 1A60     		str	r2, [r3]
 565:..\src/command_processing.c ****                         for(j = 0; j < sod; j++) {
 3227              		.loc 1 565 0
 3228 1600 0023     		movs	r3, #0
 3229 1602 07F5BE52 		add	r2, r7, #6080
 3230 1606 02F11602 		add	r2, r2, #22
 3231 160a 1370     		strb	r3, [r2]
 3232 160c 2EE0     		b	.L157
 3233              	.L158:
 566:..\src/command_processing.c ****                             packet_data[(4 + PARAM_BYTE_SLOT*idx) + sod - j -1] = ((char*)(&aux_int
 3234              		.loc 1 566 0 discriminator 3
 3235 160e 07F5BE53 		add	r3, r7, #6080
 3236 1612 03F11503 		add	r3, r3, #21
 3237 1616 1B78     		ldrb	r3, [r3]	@ zero_extendqisi2
 3238 1618 3222     		movs	r2, #50
 3239 161a 02FB03F3 		mul	r3, r2, r3
 3240 161e 1A1D     		adds	r2, r3, #4
 3241 1620 07F5BE53 		add	r3, r7, #6080
 3242 1624 03F11303 		add	r3, r3, #19
 3243 1628 1B78     		ldrb	r3, [r3]	@ zero_extendqisi2
 3244 162a 1A44     		add	r2, r2, r3
ARM GAS  C:\Users\mgnocco\AppData\Local\Temp\ccga5MX6.s 			page 85


 3245 162c 07F5BE53 		add	r3, r7, #6080
 3246 1630 03F11603 		add	r3, r3, #22
 3247 1634 1B78     		ldrb	r3, [r3]	@ zero_extendqisi2
 3248 1636 D31A     		subs	r3, r2, r3
 3249 1638 5A1E     		subs	r2, r3, #1
 3250 163a 07F5BE53 		add	r3, r7, #6080
 3251 163e 03F11603 		add	r3, r3, #22
 3252 1642 1978     		ldrb	r1, [r3]	@ zero_extendqisi2
 3253 1644 07F11803 		add	r3, r7, #24
 3254 1648 043B     		subs	r3, r3, #4
 3255 164a 0B44     		add	r3, r3, r1
 3256 164c 1978     		ldrb	r1, [r3]	@ zero_extendqisi2
 3257 164e 07F15803 		add	r3, r7, #88
 3258 1652 043B     		subs	r3, r3, #4
 3259 1654 9954     		strb	r1, [r3, r2]
 565:..\src/command_processing.c ****                         for(j = 0; j < sod; j++) {
 3260              		.loc 1 565 0 discriminator 3
 3261 1656 07F5BE53 		add	r3, r7, #6080
 3262 165a 03F11603 		add	r3, r3, #22
 3263 165e 1B78     		ldrb	r3, [r3]	@ zero_extendqisi2
 3264 1660 0133     		adds	r3, r3, #1
 3265 1662 07F5BE52 		add	r2, r7, #6080
 3266 1666 02F11602 		add	r2, r2, #22
 3267 166a 1370     		strb	r3, [r2]
 3268              	.L157:
 565:..\src/command_processing.c ****                         for(j = 0; j < sod; j++) {
 3269              		.loc 1 565 0 is_stmt 0 discriminator 1
 3270 166c 07F5BE53 		add	r3, r7, #6080
 3271 1670 03F11603 		add	r3, r3, #22
 3272 1674 1A78     		ldrb	r2, [r3]	@ zero_extendqisi2
 3273 1676 07F5BE53 		add	r3, r7, #6080
 3274 167a 03F11303 		add	r3, r3, #19
 3275 167e 1B78     		ldrb	r3, [r3]	@ zero_extendqisi2
 3276 1680 9A42     		cmp	r2, r3
 3277 1682 C4D3     		bcc	.L158
 567:..\src/command_processing.c ****                         }
 568:..\src/command_processing.c ****                         aux_int32 = (c_mem.motor[MOTOR_IDX].pos_lim_sup >> c_mem.enc[g_mem.motor[MO
 3278              		.loc 1 568 0 is_stmt 1
 3279 1684 07F5BE53 		add	r3, r7, #6080
 3280 1688 03F10F03 		add	r3, r3, #15
 3281 168c 1A78     		ldrb	r2, [r3]	@ zero_extendqisi2
 3282 168e 3949     		ldr	r1, .L295+4
 3283 1690 1346     		mov	r3, r2
 3284 1692 DB00     		lsls	r3, r3, #3
 3285 1694 9B1A     		subs	r3, r3, r2
 3286 1696 1B01     		lsls	r3, r3, #4
 3287 1698 0B44     		add	r3, r3, r1
 3288 169a E833     		adds	r3, r3, #232
 3289 169c 1968     		ldr	r1, [r3]
 3290 169e 07F5BE53 		add	r3, r7, #6080
 3291 16a2 03F10F03 		add	r3, r3, #15
 3292 16a6 1A78     		ldrb	r2, [r3]	@ zero_extendqisi2
 3293 16a8 3148     		ldr	r0, .L295
 3294 16aa 1346     		mov	r3, r2
 3295 16ac DB00     		lsls	r3, r3, #3
 3296 16ae 9B1A     		subs	r3, r3, r2
 3297 16b0 1B01     		lsls	r3, r3, #4
ARM GAS  C:\Users\mgnocco\AppData\Local\Temp\ccga5MX6.s 			page 86


 3298 16b2 0344     		add	r3, r3, r0
 3299 16b4 03F58873 		add	r3, r3, #272
 3300 16b8 1B78     		ldrb	r3, [r3]	@ zero_extendqisi2
 3301 16ba 1846     		mov	r0, r3
 3302 16bc 2D4A     		ldr	r2, .L295+4
 3303 16be 0346     		mov	r3, r0
 3304 16c0 5B00     		lsls	r3, r3, #1
 3305 16c2 0344     		add	r3, r3, r0
 3306 16c4 1B01     		lsls	r3, r3, #4
 3307 16c6 1344     		add	r3, r3, r2
 3308 16c8 03F29513 		addw	r3, r3, #405
 3309 16cc 1B78     		ldrb	r3, [r3]	@ zero_extendqisi2
 3310 16ce 41FA03F2 		asr	r2, r1, r3
 3311 16d2 07F11803 		add	r3, r7, #24
 3312 16d6 043B     		subs	r3, r3, #4
 3313 16d8 1A60     		str	r2, [r3]
 569:..\src/command_processing.c ****                         for(j = 0; j < sod; j++) {
 3314              		.loc 1 569 0
 3315 16da 0023     		movs	r3, #0
 3316 16dc 07F5BE52 		add	r2, r7, #6080
 3317 16e0 02F11602 		add	r2, r2, #22
 3318 16e4 1370     		strb	r3, [r2]
 3319 16e6 34E0     		b	.L159
 3320              	.L160:
 570:..\src/command_processing.c ****                             packet_data[(4 + PARAM_BYTE_SLOT*idx + sod) + sod - j -1] = ((char*)(&a
 3321              		.loc 1 570 0 discriminator 3
 3322 16e8 07F5BE53 		add	r3, r7, #6080
 3323 16ec 03F11503 		add	r3, r3, #21
 3324 16f0 1B78     		ldrb	r3, [r3]	@ zero_extendqisi2
 3325 16f2 3222     		movs	r2, #50
 3326 16f4 02FB03F3 		mul	r3, r2, r3
 3327 16f8 1A1D     		adds	r2, r3, #4
 3328 16fa 07F5BE53 		add	r3, r7, #6080
 3329 16fe 03F11303 		add	r3, r3, #19
 3330 1702 1B78     		ldrb	r3, [r3]	@ zero_extendqisi2
 3331 1704 1A44     		add	r2, r2, r3
 3332 1706 07F5BE53 		add	r3, r7, #6080
 3333 170a 03F11303 		add	r3, r3, #19
 3334 170e 1B78     		ldrb	r3, [r3]	@ zero_extendqisi2
 3335 1710 1A44     		add	r2, r2, r3
 3336 1712 07F5BE53 		add	r3, r7, #6080
 3337 1716 03F11603 		add	r3, r3, #22
 3338 171a 1B78     		ldrb	r3, [r3]	@ zero_extendqisi2
 3339 171c D31A     		subs	r3, r2, r3
 3340 171e 5A1E     		subs	r2, r3, #1
 3341 1720 07F5BE53 		add	r3, r7, #6080
 3342 1724 03F11603 		add	r3, r3, #22
 3343 1728 1978     		ldrb	r1, [r3]	@ zero_extendqisi2
 3344 172a 07F11803 		add	r3, r7, #24
 3345 172e 043B     		subs	r3, r3, #4
 3346 1730 0B44     		add	r3, r3, r1
 3347 1732 1978     		ldrb	r1, [r3]	@ zero_extendqisi2
 3348 1734 07F15803 		add	r3, r7, #88
 3349 1738 043B     		subs	r3, r3, #4
 3350 173a 9954     		strb	r1, [r3, r2]
 569:..\src/command_processing.c ****                         for(j = 0; j < sod; j++) {
 3351              		.loc 1 569 0 discriminator 3
ARM GAS  C:\Users\mgnocco\AppData\Local\Temp\ccga5MX6.s 			page 87


 3352 173c 07F5BE53 		add	r3, r7, #6080
 3353 1740 03F11603 		add	r3, r3, #22
 3354 1744 1B78     		ldrb	r3, [r3]	@ zero_extendqisi2
 3355 1746 0133     		adds	r3, r3, #1
 3356 1748 07F5BE52 		add	r2, r7, #6080
 3357 174c 02F11602 		add	r2, r2, #22
 3358 1750 1370     		strb	r3, [r2]
 3359              	.L159:
 569:..\src/command_processing.c ****                         for(j = 0; j < sod; j++) {
 3360              		.loc 1 569 0 is_stmt 0 discriminator 1
 3361 1752 07F5BE53 		add	r3, r7, #6080
 3362 1756 03F11603 		add	r3, r3, #22
 3363 175a 1A78     		ldrb	r2, [r3]	@ zero_extendqisi2
 3364 175c 07F5BE53 		add	r3, r7, #6080
 3365 1760 03F11303 		add	r3, r3, #19
 3366 1764 1B78     		ldrb	r3, [r3]	@ zero_extendqisi2
 3367 1766 9A42     		cmp	r2, r3
 3368 1768 BED3     		bcc	.L160
 571:..\src/command_processing.c ****                         }
 572:..\src/command_processing.c ****                         break;            
 3369              		.loc 1 572 0 is_stmt 1
 3370 176a 00F0AEBE 		b	.L113
 3371              	.L296:
 3372 176e 00BF     		.align	2
 3373              	.L295:
 3374 1770 00000000 		.word	g_mem
 3375 1774 00000000 		.word	c_mem
 3376              	.L120:
 573:..\src/command_processing.c **** 
 574:..\src/command_processing.c ****                     case 23:        //Rest Position
 575:..\src/command_processing.c ****                         aux_int32 = (c_mem.SH.rest_pos >> c_mem.enc[g_mem.motor[MOTOR_IDX].encoder_
 3377              		.loc 1 575 0
 3378 1778 CF4B     		ldr	r3, .L297
 3379 177a D3F8A012 		ldr	r1, [r3, #672]
 3380 177e 07F5BE53 		add	r3, r7, #6080
 3381 1782 03F10F03 		add	r3, r3, #15
 3382 1786 1A78     		ldrb	r2, [r3]	@ zero_extendqisi2
 3383 1788 CC48     		ldr	r0, .L297+4
 3384 178a 1346     		mov	r3, r2
 3385 178c DB00     		lsls	r3, r3, #3
 3386 178e 9B1A     		subs	r3, r3, r2
 3387 1790 1B01     		lsls	r3, r3, #4
 3388 1792 0344     		add	r3, r3, r0
 3389 1794 03F58873 		add	r3, r3, #272
 3390 1798 1B78     		ldrb	r3, [r3]	@ zero_extendqisi2
 3391 179a 1846     		mov	r0, r3
 3392 179c C64A     		ldr	r2, .L297
 3393 179e 0346     		mov	r3, r0
 3394 17a0 5B00     		lsls	r3, r3, #1
 3395 17a2 0344     		add	r3, r3, r0
 3396 17a4 1B01     		lsls	r3, r3, #4
