ARM GAS  C:\Users\mgnocco\AppData\Local\Temp\cc6peeyS.s 			page 1


   1              		.syntax unified
   2              		.cpu cortex-m3
   3              		.fpu softvfp
   4              		.eabi_attribute 20, 1
   5              		.eabi_attribute 21, 1
   6              		.eabi_attribute 23, 3
   7              		.eabi_attribute 24, 1
   8              		.eabi_attribute 25, 1
   9              		.eabi_attribute 26, 1
  10              		.eabi_attribute 30, 6
  11              		.eabi_attribute 34, 1
  12              		.eabi_attribute 18, 4
  13              		.thumb
  14              		.syntax unified
  15              		.file	"interruptions.c"
  16              		.text
  17              	.Ltext0:
  18              		.cfi_sections	.debug_frame
  19              		.section	.rodata
  20              		.align	2
  21              		.type	pwm_preload_values, %object
  22              		.size	pwm_preload_values, 29
  23              	pwm_preload_values:
  24 0000 64       		.byte	100
  25 0001 53       		.byte	83
  26 0002 4E       		.byte	78
  27 0003 4C       		.byte	76
  28 0004 4A       		.byte	74
  29 0005 48       		.byte	72
  30 0006 46       		.byte	70
  31 0007 44       		.byte	68
  32 0008 43       		.byte	67
  33 0009 41       		.byte	65
  34 000a 40       		.byte	64
  35 000b 3F       		.byte	63
  36 000c 3E       		.byte	62
  37 000d 3D       		.byte	61
  38 000e 3C       		.byte	60
  39 000f 3B       		.byte	59
  40 0010 3A       		.byte	58
  41 0011 39       		.byte	57
  42 0012 38       		.byte	56
  43 0013 38       		.byte	56
  44 0014 37       		.byte	55
  45 0015 36       		.byte	54
  46 0016 36       		.byte	54
  47 0017 35       		.byte	53
  48 0018 34       		.byte	52
  49 0019 34       		.byte	52
  50 001a 34       		.byte	52
  51 001b 33       		.byte	51
  52 001c 33       		.byte	51
  53              		.section	.text.ISR_RS485_RX_ExInterrupt,"ax",%progbits
  54              		.align	2
  55              		.global	ISR_RS485_RX_ExInterrupt
  56              		.thumb
  57              		.thumb_func
ARM GAS  C:\Users\mgnocco\AppData\Local\Temp\cc6peeyS.s 			page 2


  58              		.type	ISR_RS485_RX_ExInterrupt, %function
  59              	ISR_RS485_RX_ExInterrupt:
  60              	.LFB64:
  61              		.file 1 "..\\src\\interruptions.c"
   1:..\src/interruptions.c **** // ----------------------------------------------------------------------------
   2:..\src/interruptions.c **** // BSD 3-Clause License
   3:..\src/interruptions.c **** 
   4:..\src/interruptions.c **** // Copyright (c) 2016, qbrobotics
   5:..\src/interruptions.c **** // Copyright (c) 2017-2020, Centro "E.Piaggio"
   6:..\src/interruptions.c **** // All rights reserved.
   7:..\src/interruptions.c **** 
   8:..\src/interruptions.c **** // Redistribution and use in source and binary forms, with or without
   9:..\src/interruptions.c **** // modification, are permitted provided that the following conditions are met:
  10:..\src/interruptions.c **** 
  11:..\src/interruptions.c **** // * Redistributions of source code must retain the above copyright notice, this
  12:..\src/interruptions.c **** //   list of conditions and the following disclaimer.
  13:..\src/interruptions.c **** 
  14:..\src/interruptions.c **** // * Redistributions in binary form must reproduce the above copyright notice,
  15:..\src/interruptions.c **** //   this list of conditions and the following disclaimer in the documentation
  16:..\src/interruptions.c **** //   and/or other materials provided with the distribution.
  17:..\src/interruptions.c **** 
  18:..\src/interruptions.c **** // * Neither the name of the copyright holder nor the names of its
  19:..\src/interruptions.c **** //   contributors may be used to endorse or promote products derived from
  20:..\src/interruptions.c **** //   this software without specific prior written permission.
  21:..\src/interruptions.c **** 
  22:..\src/interruptions.c **** // THIS SOFTWARE IS PROVIDED BY THE COPYRIGHT HOLDERS AND CONTRIBUTORS "AS IS"
  23:..\src/interruptions.c **** // AND ANY EXPRESS OR IMPLIED WARRANTIES, INCLUDING, BUT NOT LIMITED TO, THE
  24:..\src/interruptions.c **** // IMPLIED WARRANTIES OF MERCHANTABILITY AND FITNESS FOR A PARTICULAR PURPOSE ARE
  25:..\src/interruptions.c **** // DISCLAIMED. IN NO EVENT SHALL THE COPYRIGHT HOLDER OR CONTRIBUTORS BE LIABLE
  26:..\src/interruptions.c **** // FOR ANY DIRECT, INDIRECT, INCIDENTAL, SPECIAL, EXEMPLARY, OR CONSEQUENTIAL
  27:..\src/interruptions.c **** // DAMAGES (INCLUDING, BUT NOT LIMITED TO, PROCUREMENT OF SUBSTITUTE GOODS OR
  28:..\src/interruptions.c **** // SERVICES; LOSS OF USE, DATA, OR PROFITS; OR BUSINESS INTERRUPTION) HOWEVER
  29:..\src/interruptions.c **** // CAUSED AND ON ANY THEORY OF LIABILITY, WHETHER IN CONTRACT, STRICT LIABILITY,
  30:..\src/interruptions.c **** // OR TORT (INCLUDING NEGLIGENCE OR OTHERWISE) ARISING IN ANY WAY OUT OF THE USE
  31:..\src/interruptions.c **** // OF THIS SOFTWARE, EVEN IF ADVISED OF THE POSSIBILITY OF SUCH DAMAGE.
  32:..\src/interruptions.c **** // POSSIBILITY OF SUCH DAMAGE.
  33:..\src/interruptions.c **** // ----------------------------------------------------------------------------
  34:..\src/interruptions.c **** 
  35:..\src/interruptions.c **** /**
  36:..\src/interruptions.c **** * \file         interruptions.c
  37:..\src/interruptions.c **** *
  38:..\src/interruptions.c **** * \brief        Interruption handling and firmware core functions
  39:..\src/interruptions.c **** * \date         March 20th, 2020
  40:..\src/interruptions.c **** * \author       _Centro "E.Piaggio"_
  41:..\src/interruptions.c **** * \copyright    (C) 2012-2016 qbrobotics. All rights reserved.
  42:..\src/interruptions.c **** * \copyright    (C) 2017-2020 Centro "E.Piaggio". All rights reserved.
  43:..\src/interruptions.c **** */
  44:..\src/interruptions.c **** 
  45:..\src/interruptions.c **** 
  46:..\src/interruptions.c **** //=================================================================     includes
  47:..\src/interruptions.c **** #include "interruptions.h"
  48:..\src/interruptions.c **** #include "vibrotactile_control.h"
  49:..\src/interruptions.c **** //==============================================================================
  50:..\src/interruptions.c **** //                                                            RS485 RX INTERRUPT
  51:..\src/interruptions.c **** //==============================================================================
  52:..\src/interruptions.c **** // Processing RS-485 data frame:
  53:..\src/interruptions.c **** //
ARM GAS  C:\Users\mgnocco\AppData\Local\Temp\cc6peeyS.s 			page 3


  54:..\src/interruptions.c **** // - 0:     Waits for beginning characters
  55:..\src/interruptions.c **** // - 1:     Waits for ID;
  56:..\src/interruptions.c **** // - 2:     Data length;
  57:..\src/interruptions.c **** // - 3:     Receive all bytes;
  58:..\src/interruptions.c **** // - 4:     Wait for another device end of transmission;
  59:..\src/interruptions.c **** //
  60:..\src/interruptions.c **** //==============================================================================
  61:..\src/interruptions.c **** 
  62:..\src/interruptions.c **** // PWM values needed to obtain 11.5 V given a certain input tension
  63:..\src/interruptions.c **** // Numbers are sperimentally calculated //[index] (millivolts)
  64:..\src/interruptions.c **** static const uint8 pwm_preload_values[29] = {100,    //0 (11500)
  65:..\src/interruptions.c ****                                               83,
  66:..\src/interruptions.c ****                                               78,
  67:..\src/interruptions.c ****                                               76,
  68:..\src/interruptions.c ****                                               74,
  69:..\src/interruptions.c ****                                               72,    //5 (14000)
  70:..\src/interruptions.c ****                                               70,
  71:..\src/interruptions.c ****                                               68,
  72:..\src/interruptions.c ****                                               67,
  73:..\src/interruptions.c ****                                               65,
  74:..\src/interruptions.c ****                                               64,    //10 (16500)
  75:..\src/interruptions.c ****                                               63,
  76:..\src/interruptions.c ****                                               62,
  77:..\src/interruptions.c ****                                               61,
  78:..\src/interruptions.c ****                                               60,
  79:..\src/interruptions.c ****                                               59,    //15 (19000)
  80:..\src/interruptions.c ****                                               58,
  81:..\src/interruptions.c ****                                               57,
  82:..\src/interruptions.c ****                                               56,
  83:..\src/interruptions.c ****                                               56,
  84:..\src/interruptions.c ****                                               55,    //20 (21500)
  85:..\src/interruptions.c ****                                               54,
  86:..\src/interruptions.c ****                                               54,
  87:..\src/interruptions.c ****                                               53,
  88:..\src/interruptions.c ****                                               52,
  89:..\src/interruptions.c ****                                               52,    //25 (24000)
  90:..\src/interruptions.c ****                                               52,
  91:..\src/interruptions.c ****                                               51,
  92:..\src/interruptions.c ****                                               51};   //28 (25500)
  93:..\src/interruptions.c **** 
  94:..\src/interruptions.c **** //==============================================================================
  95:..\src/interruptions.c **** //                                                            RS485 RX INTERRUPT
  96:..\src/interruptions.c **** //==============================================================================
  97:..\src/interruptions.c **** 
  98:..\src/interruptions.c **** CY_ISR(ISR_RS485_RX_ExInterrupt) {
  62              		.loc 1 98 0
  63              		.cfi_startproc
  64              		@ args = 0, pretend = 0, frame = 0
  65              		@ frame_needed = 1, uses_anonymous_args = 0
  66              		@ link register save eliminated.
  67 0000 80B4     		push	{r7}
  68              		.cfi_def_cfa_offset 4
  69              		.cfi_offset 7, -4
  70 0002 00AF     		add	r7, sp, #0
  71              		.cfi_def_cfa_register 7
  99:..\src/interruptions.c **** 
 100:..\src/interruptions.c ****     // Set RS485 flag
ARM GAS  C:\Users\mgnocco\AppData\Local\Temp\cc6peeyS.s 			page 4


 101:..\src/interruptions.c ****     
 102:..\src/interruptions.c ****     interrupt_flag = TRUE;
  72              		.loc 1 102 0
  73 0004 034B     		ldr	r3, .L2
  74 0006 0122     		movs	r2, #1
  75 0008 1A70     		strb	r2, [r3]
 103:..\src/interruptions.c ****      
 104:..\src/interruptions.c **** }
  76              		.loc 1 104 0
  77 000a 00BF     		nop
  78 000c BD46     		mov	sp, r7
  79              		.cfi_def_cfa_register 13
  80              		@ sp needed
  81 000e 80BC     		pop	{r7}
  82              		.cfi_restore 7
  83              		.cfi_def_cfa_offset 0
  84 0010 7047     		bx	lr
  85              	.L3:
  86 0012 00BF     		.align	2
  87              	.L2:
  88 0014 00000000 		.word	interrupt_flag
  89              		.cfi_endproc
  90              	.LFE64:
  91              		.size	ISR_RS485_RX_ExInterrupt, .-ISR_RS485_RX_ExInterrupt
  92              		.section	.text.ISR_CYCLES_Handler,"ax",%progbits
  93              		.align	2
  94              		.global	ISR_CYCLES_Handler
  95              		.thumb
  96              		.thumb_func
  97              		.type	ISR_CYCLES_Handler, %function
  98              	ISR_CYCLES_Handler:
  99              	.LFB65:
 105:..\src/interruptions.c **** 
 106:..\src/interruptions.c **** //==============================================================================
 107:..\src/interruptions.c **** //                                                        CYCLES TIMER INTERRUPT
 108:..\src/interruptions.c **** //==============================================================================
 109:..\src/interruptions.c **** CY_ISR(ISR_CYCLES_Handler){
 100              		.loc 1 109 0
 101              		.cfi_startproc
 102              		@ args = 0, pretend = 0, frame = 0
 103              		@ frame_needed = 1, uses_anonymous_args = 0
 104              		@ link register save eliminated.
 105 0000 80B4     		push	{r7}
 106              		.cfi_def_cfa_offset 4
 107              		.cfi_offset 7, -4
 108 0002 00AF     		add	r7, sp, #0
 109              		.cfi_def_cfa_register 7
 110:..\src/interruptions.c **** 
 111:..\src/interruptions.c ****     // Set cycles interrupt flag
 112:..\src/interruptions.c ****     
 113:..\src/interruptions.c ****     cycles_interrupt_flag = TRUE;
 110              		.loc 1 113 0
 111 0004 044B     		ldr	r3, .L5
 112 0006 0122     		movs	r2, #1
 113 0008 1A70     		strb	r2, [r3]
 114:..\src/interruptions.c ****     
 115:..\src/interruptions.c ****     CYCLES_TIMER_STATUS;
ARM GAS  C:\Users\mgnocco\AppData\Local\Temp\cc6peeyS.s 			page 5


 114              		.loc 1 115 0
 115 000a 044B     		ldr	r3, .L5+4
 116 000c 1B78     		ldrb	r3, [r3]
 116:..\src/interruptions.c **** 
 117:..\src/interruptions.c **** }
 117              		.loc 1 117 0
 118 000e 00BF     		nop
 119 0010 BD46     		mov	sp, r7
 120              		.cfi_def_cfa_register 13
 121              		@ sp needed
 122 0012 80BC     		pop	{r7}
 123              		.cfi_restore 7
 124              		.cfi_def_cfa_offset 0
 125 0014 7047     		bx	lr
 126              	.L6:
 127 0016 00BF     		.align	2
 128              	.L5:
 129 0018 00000000 		.word	cycles_interrupt_flag
 130 001c 034F0040 		.word	1073762051
 131              		.cfi_endproc
 132              	.LFE65:
 133              		.size	ISR_CYCLES_Handler, .-ISR_CYCLES_Handler
 134              		.section	.text.interrupt_manager,"ax",%progbits
 135              		.align	2
 136              		.global	interrupt_manager
 137              		.thumb
 138              		.thumb_func
 139              		.type	interrupt_manager, %function
 140              	interrupt_manager:
 141              	.LFB66:
 118:..\src/interruptions.c **** 
 119:..\src/interruptions.c **** //==============================================================================
 120:..\src/interruptions.c **** //                                                             INTERRUPT MANAGER
 121:..\src/interruptions.c **** //==============================================================================
 122:..\src/interruptions.c **** // Manage interrupt from RS485 
 123:..\src/interruptions.c **** //==============================================================================
 124:..\src/interruptions.c **** // Processing RS-485 data frame:
 125:..\src/interruptions.c **** //
 126:..\src/interruptions.c **** // - WAIT_START:    Waits for beginning characters;
 127:..\src/interruptions.c **** // - WAIT_ID:       Waits for ID;
 128:..\src/interruptions.c **** // - WAIT_LENGTH:   Data length;
 129:..\src/interruptions.c **** // - RECEIVE:       Receive all bytes;
 130:..\src/interruptions.c **** // - UNLOAD:        Wait for another device end of transmission;
 131:..\src/interruptions.c **** //
 132:..\src/interruptions.c **** //==============================================================================
 133:..\src/interruptions.c **** 
 134:..\src/interruptions.c **** void interrupt_manager(){
 142              		.loc 1 134 0
 143              		.cfi_startproc
 144              		@ args = 0, pretend = 0, frame = 8
 145              		@ frame_needed = 1, uses_anonymous_args = 0
 146 0000 80B5     		push	{r7, lr}
 147              		.cfi_def_cfa_offset 8
 148              		.cfi_offset 7, -8
 149              		.cfi_offset 14, -4
 150 0002 82B0     		sub	sp, sp, #8
 151              		.cfi_def_cfa_offset 16
ARM GAS  C:\Users\mgnocco\AppData\Local\Temp\cc6peeyS.s 			page 6


 152 0004 00AF     		add	r7, sp, #0
 153              		.cfi_def_cfa_register 7
 135:..\src/interruptions.c **** 
 136:..\src/interruptions.c ****     
 137:..\src/interruptions.c ****     //===========================================     local variables definition
 138:..\src/interruptions.c **** 
 139:..\src/interruptions.c ****     static uint8 CYDATA state = WAIT_START;                      // state
 140:..\src/interruptions.c ****     
 141:..\src/interruptions.c ****     //------------------------------------------------- local data packet
 142:..\src/interruptions.c ****     static uint8 CYDATA data_packet_index;
 143:..\src/interruptions.c ****     static uint8 CYDATA data_packet_length;
 144:..\src/interruptions.c ****     static uint8 data_packet_buffer[128];                     
 145:..\src/interruptions.c ****     static uint8 CYDATA rx_queue[3];                    // last 2 bytes received
 146:..\src/interruptions.c ****     //-------------------------------------------------
 147:..\src/interruptions.c **** 
 148:..\src/interruptions.c ****     uint8 CYDATA    rx_data;                            // RS485 UART rx data
 149:..\src/interruptions.c ****     CYBIT           rx_data_type = TRUE;                       // my id?
 154              		.loc 1 149 0
 155 0006 0123     		movs	r3, #1
 156 0008 FB71     		strb	r3, [r7, #7]
 150:..\src/interruptions.c ****     uint8 CYDATA    package_count = 0;                     
 157              		.loc 1 150 0
 158 000a 0023     		movs	r3, #0
 159 000c BB71     		strb	r3, [r7, #6]
 151:..\src/interruptions.c **** 
 152:..\src/interruptions.c ****     //======================================================     receive routine
 153:..\src/interruptions.c ****     
 154:..\src/interruptions.c ****     while(UART_RS485_GetRxBufferSize() && (package_count < 100)){
 160              		.loc 1 154 0
 161 000e D6E0     		b	.L8
 162              	.L28:
 155:..\src/interruptions.c ****         // 100 - estimated maximum number of packets we can read without blocking firmware executio
 156:..\src/interruptions.c **** 
 157:..\src/interruptions.c ****         // Get next char
 158:..\src/interruptions.c ****         rx_data = UART_RS485_GetChar();
 163              		.loc 1 158 0
 164 0010 FFF7FEFF 		bl	UART_RS485_GetChar
 165 0014 0346     		mov	r3, r0
 166 0016 7B71     		strb	r3, [r7, #5]
 159:..\src/interruptions.c ****         
 160:..\src/interruptions.c ****         switch (state) {
 167              		.loc 1 160 0
 168 0018 6F4B     		ldr	r3, .L31
 169 001a 1B78     		ldrb	r3, [r3]	@ zero_extendqisi2
 170 001c 042B     		cmp	r3, #4
 171 001e 00F2CE80 		bhi	.L8
 172 0022 01A2     		adr	r2, .L10
 173 0024 52F823F0 		ldr	pc, [r2, r3, lsl #2]
 174              		.p2align 2
 175              	.L10:
 176 0028 3D000000 		.word	.L9+1
 177 002c A3000000 		.word	.L11+1
 178 0030 CD000000 		.word	.L12+1
 179 0034 1B010000 		.word	.L13+1
 180 0038 85010000 		.word	.L14+1
 181              		.p2align 1
 182              	.L9:
ARM GAS  C:\Users\mgnocco\AppData\Local\Temp\cc6peeyS.s 			page 7


 161:..\src/interruptions.c ****             //-----     wait for frame start     -------------------------------
 162:..\src/interruptions.c ****             case WAIT_START:
 163:..\src/interruptions.c ****             
 164:..\src/interruptions.c ****                 rx_queue[0] = rx_queue[1];
 183              		.loc 1 164 0
 184 003c 674B     		ldr	r3, .L31+4
 185 003e 5A78     		ldrb	r2, [r3, #1]	@ zero_extendqisi2
 186 0040 664B     		ldr	r3, .L31+4
 187 0042 1A70     		strb	r2, [r3]
 165:..\src/interruptions.c ****                 rx_queue[1] = rx_queue[2];
 188              		.loc 1 165 0
 189 0044 654B     		ldr	r3, .L31+4
 190 0046 9A78     		ldrb	r2, [r3, #2]	@ zero_extendqisi2
 191 0048 644B     		ldr	r3, .L31+4
 192 004a 5A70     		strb	r2, [r3, #1]
 166:..\src/interruptions.c ****                 rx_queue[2] = rx_data;
 193              		.loc 1 166 0
 194 004c 634A     		ldr	r2, .L31+4
 195 004e 7B79     		ldrb	r3, [r7, #5]
 196 0050 9370     		strb	r3, [r2, #2]
 167:..\src/interruptions.c ****                 
 168:..\src/interruptions.c ****                 // Check for header configuration package
 169:..\src/interruptions.c ****                 if ((rx_queue[1] == 58) && (rx_queue[2] == 58)) {
 197              		.loc 1 169 0
 198 0052 624B     		ldr	r3, .L31+4
 199 0054 5B78     		ldrb	r3, [r3, #1]	@ zero_extendqisi2
 200 0056 3A2B     		cmp	r3, #58
 201 0058 10D1     		bne	.L15
 202              		.loc 1 169 0 is_stmt 0 discriminator 1
 203 005a 604B     		ldr	r3, .L31+4
 204 005c 9B78     		ldrb	r3, [r3, #2]	@ zero_extendqisi2
 205 005e 3A2B     		cmp	r3, #58
 206 0060 0CD1     		bne	.L15
 170:..\src/interruptions.c ****                     rx_queue[0] = 0;
 207              		.loc 1 170 0 is_stmt 1
 208 0062 5E4B     		ldr	r3, .L31+4
 209 0064 0022     		movs	r2, #0
 210 0066 1A70     		strb	r2, [r3]
 171:..\src/interruptions.c ****                     rx_queue[1] = 0;
 211              		.loc 1 171 0
 212 0068 5C4B     		ldr	r3, .L31+4
 213 006a 0022     		movs	r2, #0
 214 006c 5A70     		strb	r2, [r3, #1]
 172:..\src/interruptions.c ****                     rx_queue[2] = 0;
 215              		.loc 1 172 0
 216 006e 5B4B     		ldr	r3, .L31+4
 217 0070 0022     		movs	r2, #0
 218 0072 9A70     		strb	r2, [r3, #2]
 173:..\src/interruptions.c ****                     state       = WAIT_ID;                    
 219              		.loc 1 173 0
 220 0074 584B     		ldr	r3, .L31
 221 0076 0122     		movs	r2, #1
 222 0078 1A70     		strb	r2, [r3]
 223 007a 11E0     		b	.L16
 224              	.L15:
 174:..\src/interruptions.c ****                 }else
 175:..\src/interruptions.c ****                     if ((rx_queue[0] == 63) &&      //ASCII - ?
ARM GAS  C:\Users\mgnocco\AppData\Local\Temp\cc6peeyS.s 			page 8


 225              		.loc 1 175 0
 226 007c 574B     		ldr	r3, .L31+4
 227 007e 1B78     		ldrb	r3, [r3]	@ zero_extendqisi2
 228 0080 3F2B     		cmp	r3, #63
 229 0082 40F09C80 		bne	.L8
 176:..\src/interruptions.c ****                         (rx_queue[1] == 13) &&      //ASCII - CR
 230              		.loc 1 176 0 discriminator 1
 231 0086 554B     		ldr	r3, .L31+4
 232 0088 5B78     		ldrb	r3, [r3, #1]	@ zero_extendqisi2
 175:..\src/interruptions.c ****                         (rx_queue[1] == 13) &&      //ASCII - CR
 233              		.loc 1 175 0 discriminator 1
 234 008a 0D2B     		cmp	r3, #13
 235 008c 40F09780 		bne	.L8
 177:..\src/interruptions.c ****                         (rx_queue[2] == 10))        //ASCII - LF)
 236              		.loc 1 177 0
 237 0090 524B     		ldr	r3, .L31+4
 238 0092 9B78     		ldrb	r3, [r3, #2]	@ zero_extendqisi2
 176:..\src/interruptions.c ****                         (rx_queue[1] == 13) &&      //ASCII - CR
 239              		.loc 1 176 0
 240 0094 0A2B     		cmp	r3, #10
 241 0096 40F09280 		bne	.L8
 178:..\src/interruptions.c ****                         infoGet(INFO_ALL);
 242              		.loc 1 178 0
 243 009a 0020     		movs	r0, #0
 244 009c FFF7FEFF 		bl	infoGet
 245              	.L16:
 179:..\src/interruptions.c ****                 break;
 246              		.loc 1 179 0
 247 00a0 8DE0     		b	.L8
 248              	.L11:
 180:..\src/interruptions.c **** 
 181:..\src/interruptions.c ****             //-----     wait for id     ----------------------------------------
 182:..\src/interruptions.c ****             case  WAIT_ID:
 183:..\src/interruptions.c **** 
 184:..\src/interruptions.c ****                 // packet is for my ID or is broadcast
 185:..\src/interruptions.c **** #ifdef MASTER_FW
 186:..\src/interruptions.c ****                 if (rx_data == c_mem.dev.id || rx_data == 0 || (c_mem.MS.slave_comm_active && rx_da
 187:..\src/interruptions.c ****                    rx_data_type = FALSE;
 188:..\src/interruptions.c ****                 else                //packet is for others
 189:..\src/interruptions.c ****                     rx_data_type = TRUE;
 190:..\src/interruptions.c **** #else
 191:..\src/interruptions.c ****                 if (rx_data == c_mem.dev.id || rx_data == 0)
 249              		.loc 1 191 0
 250 00a2 4F4B     		ldr	r3, .L31+8
 251 00a4 93F8A030 		ldrb	r3, [r3, #160]	@ zero_extendqisi2
 252 00a8 7A79     		ldrb	r2, [r7, #5]	@ zero_extendqisi2
 253 00aa 9A42     		cmp	r2, r3
 254 00ac 02D0     		beq	.L17
 255              		.loc 1 191 0 is_stmt 0 discriminator 1
 256 00ae 7B79     		ldrb	r3, [r7, #5]	@ zero_extendqisi2
 257 00b0 002B     		cmp	r3, #0
 258 00b2 02D1     		bne	.L18
 259              	.L17:
 192:..\src/interruptions.c ****                     rx_data_type = FALSE;
 260              		.loc 1 192 0 is_stmt 1
 261 00b4 0023     		movs	r3, #0
 262 00b6 FB71     		strb	r3, [r7, #7]
ARM GAS  C:\Users\mgnocco\AppData\Local\Temp\cc6peeyS.s 			page 9


 263 00b8 01E0     		b	.L19
 264              	.L18:
 193:..\src/interruptions.c ****                 else                //packet is for others
 194:..\src/interruptions.c ****                     rx_data_type = TRUE;
 265              		.loc 1 194 0
 266 00ba 0123     		movs	r3, #1
 267 00bc FB71     		strb	r3, [r7, #7]
 268              	.L19:
 195:..\src/interruptions.c **** #endif                
 196:..\src/interruptions.c ****                 data_packet_length = 0;
 269              		.loc 1 196 0
 270 00be 494B     		ldr	r3, .L31+12
 271 00c0 0022     		movs	r2, #0
 272 00c2 1A70     		strb	r2, [r3]
 197:..\src/interruptions.c ****                 state = WAIT_LENGTH;
 273              		.loc 1 197 0
 274 00c4 444B     		ldr	r3, .L31
 275 00c6 0222     		movs	r2, #2
 276 00c8 1A70     		strb	r2, [r3]
 198:..\src/interruptions.c ****                 break;
 277              		.loc 1 198 0
 278 00ca 78E0     		b	.L8
 279              	.L12:
 199:..\src/interruptions.c **** 
 200:..\src/interruptions.c ****             //-----     wait for length     ------------------------------------
 201:..\src/interruptions.c ****             case  WAIT_LENGTH:
 202:..\src/interruptions.c **** 
 203:..\src/interruptions.c ****                 data_packet_length = rx_data;
 280              		.loc 1 203 0
 281 00cc 454A     		ldr	r2, .L31+12
 282 00ce 7B79     		ldrb	r3, [r7, #5]
 283 00d0 1370     		strb	r3, [r2]
 204:..\src/interruptions.c ****                 // check validity of pack length
 205:..\src/interruptions.c ****                 if (data_packet_length <= 1) {
 284              		.loc 1 205 0
 285 00d2 444B     		ldr	r3, .L31+12
 286 00d4 1B78     		ldrb	r3, [r3]	@ zero_extendqisi2
 287 00d6 012B     		cmp	r3, #1
 288 00d8 06D8     		bhi	.L20
 206:..\src/interruptions.c ****                     data_packet_length = 0;
 289              		.loc 1 206 0
 290 00da 424B     		ldr	r3, .L31+12
 291 00dc 0022     		movs	r2, #0
 292 00de 1A70     		strb	r2, [r3]
 207:..\src/interruptions.c ****                     state = WAIT_START;
 293              		.loc 1 207 0
 294 00e0 3D4B     		ldr	r3, .L31
 295 00e2 0022     		movs	r2, #0
 296 00e4 1A70     		strb	r2, [r3]
 297 00e6 6AE0     		b	.L8
 298              	.L20:
 208:..\src/interruptions.c ****                 } else if (data_packet_length > 128) {
 299              		.loc 1 208 0
 300 00e8 3E4B     		ldr	r3, .L31+12
 301 00ea 1B78     		ldrb	r3, [r3]	@ zero_extendqisi2
 302 00ec 802B     		cmp	r3, #128
 303 00ee 06D9     		bls	.L22
ARM GAS  C:\Users\mgnocco\AppData\Local\Temp\cc6peeyS.s 			page 10


 209:..\src/interruptions.c ****                     data_packet_length = 0;
 304              		.loc 1 209 0
 305 00f0 3C4B     		ldr	r3, .L31+12
 306 00f2 0022     		movs	r2, #0
 307 00f4 1A70     		strb	r2, [r3]
 210:..\src/interruptions.c ****                     state = WAIT_START;
 308              		.loc 1 210 0
 309 00f6 384B     		ldr	r3, .L31
 310 00f8 0022     		movs	r2, #0
 311 00fa 1A70     		strb	r2, [r3]
 312 00fc 5FE0     		b	.L8
 313              	.L22:
 211:..\src/interruptions.c ****                 } else {
 212:..\src/interruptions.c ****                     data_packet_index = 0;
 314              		.loc 1 212 0
 315 00fe 3A4B     		ldr	r3, .L31+16
 316 0100 0022     		movs	r2, #0
 317 0102 1A70     		strb	r2, [r3]
 213:..\src/interruptions.c ****                     
 214:..\src/interruptions.c ****                     if(rx_data_type == FALSE)
 318              		.loc 1 214 0
 319 0104 FB79     		ldrb	r3, [r7, #7]	@ zero_extendqisi2
 320 0106 002B     		cmp	r3, #0
 321 0108 03D1     		bne	.L23
 215:..\src/interruptions.c ****                         state = RECEIVE;          // packet for me or broadcast
 322              		.loc 1 215 0
 323 010a 334B     		ldr	r3, .L31
 324 010c 0322     		movs	r2, #3
 325 010e 1A70     		strb	r2, [r3]
 326 0110 55E0     		b	.L8
 327              	.L23:
 216:..\src/interruptions.c ****                     else
 217:..\src/interruptions.c ****                         state = UNLOAD;           // packet for others
 328              		.loc 1 217 0
 329 0112 314B     		ldr	r3, .L31
 330 0114 0422     		movs	r2, #4
 331 0116 1A70     		strb	r2, [r3]
 218:..\src/interruptions.c ****                 }
 219:..\src/interruptions.c ****                 break;
 332              		.loc 1 219 0
 333 0118 51E0     		b	.L8
 334              	.L13:
 220:..\src/interruptions.c **** 
 221:..\src/interruptions.c ****             //-----     receiving     -------------------------------------------
 222:..\src/interruptions.c ****             case RECEIVE:
 223:..\src/interruptions.c **** 
 224:..\src/interruptions.c ****                 data_packet_buffer[data_packet_index] = rx_data;
 335              		.loc 1 224 0
 336 011a 334B     		ldr	r3, .L31+16
 337 011c 1B78     		ldrb	r3, [r3]	@ zero_extendqisi2
 338 011e 1946     		mov	r1, r3
 339 0120 324A     		ldr	r2, .L31+20
 340 0122 7B79     		ldrb	r3, [r7, #5]
 341 0124 5354     		strb	r3, [r2, r1]
 225:..\src/interruptions.c ****                 data_packet_index++;
 342              		.loc 1 225 0
 343 0126 304B     		ldr	r3, .L31+16
ARM GAS  C:\Users\mgnocco\AppData\Local\Temp\cc6peeyS.s 			page 11


 344 0128 1B78     		ldrb	r3, [r3]	@ zero_extendqisi2
 345 012a 0133     		adds	r3, r3, #1
 346 012c DAB2     		uxtb	r2, r3
 347 012e 2E4B     		ldr	r3, .L31+16
 348 0130 1A70     		strb	r2, [r3]
 226:..\src/interruptions.c ****                 
 227:..\src/interruptions.c ****                 // check end of transmission
 228:..\src/interruptions.c ****                 if (data_packet_index >= data_packet_length) {
 349              		.loc 1 228 0
 350 0132 2D4B     		ldr	r3, .L31+16
 351 0134 1A78     		ldrb	r2, [r3]	@ zero_extendqisi2
 352 0136 2B4B     		ldr	r3, .L31+12
 353 0138 1B78     		ldrb	r3, [r3]	@ zero_extendqisi2
 354 013a 9A42     		cmp	r2, r3
 355 013c 3FD3     		bcc	.L8
 229:..\src/interruptions.c ****                     // verify if frame ID corresponded to the device ID
 230:..\src/interruptions.c ****                     if (rx_data_type == FALSE) {
 356              		.loc 1 230 0
 357 013e FB79     		ldrb	r3, [r7, #7]	@ zero_extendqisi2
 358 0140 002B     		cmp	r3, #0
 359 0142 12D1     		bne	.L25
 231:..\src/interruptions.c ****                         // copying data from buffer to global packet
 232:..\src/interruptions.c ****                         memcpy(g_rx.buffer, data_packet_buffer, data_packet_length);
 360              		.loc 1 232 0
 361 0144 274B     		ldr	r3, .L31+12
 362 0146 1B78     		ldrb	r3, [r3]	@ zero_extendqisi2
 363 0148 1A46     		mov	r2, r3
 364 014a 2849     		ldr	r1, .L31+20
 365 014c 2848     		ldr	r0, .L31+24
 366 014e FFF7FEFF 		bl	memcpy
 233:..\src/interruptions.c ****                         g_rx.length = data_packet_length;
 367              		.loc 1 233 0
 368 0152 244B     		ldr	r3, .L31+12
 369 0154 1B78     		ldrb	r3, [r3]	@ zero_extendqisi2
 370 0156 1AB2     		sxth	r2, r3
 371 0158 254B     		ldr	r3, .L31+24
 372 015a A3F88020 		strh	r2, [r3, #128]	@ movhi
 234:..\src/interruptions.c ****                         g_rx.ready  = 1;
 373              		.loc 1 234 0
 374 015e 244B     		ldr	r3, .L31+24
 375 0160 0122     		movs	r2, #1
 376 0162 83F88420 		strb	r2, [r3, #132]
 235:..\src/interruptions.c ****                         commProcess();
 377              		.loc 1 235 0
 378 0166 FFF7FEFF 		bl	commProcess
 379              	.L25:
 236:..\src/interruptions.c ****                     }
 237:..\src/interruptions.c ****                     
 238:..\src/interruptions.c ****                     data_packet_index  = 0;
 380              		.loc 1 238 0
 381 016a 1F4B     		ldr	r3, .L31+16
 382 016c 0022     		movs	r2, #0
 383 016e 1A70     		strb	r2, [r3]
 239:..\src/interruptions.c ****                     data_packet_length = 0;
 384              		.loc 1 239 0
 385 0170 1C4B     		ldr	r3, .L31+12
 386 0172 0022     		movs	r2, #0
ARM GAS  C:\Users\mgnocco\AppData\Local\Temp\cc6peeyS.s 			page 12


 387 0174 1A70     		strb	r2, [r3]
 240:..\src/interruptions.c ****                     state              = WAIT_START;
 388              		.loc 1 240 0
 389 0176 184B     		ldr	r3, .L31
 390 0178 0022     		movs	r2, #0
 391 017a 1A70     		strb	r2, [r3]
 241:..\src/interruptions.c ****                     package_count++;
 392              		.loc 1 241 0
 393 017c BB79     		ldrb	r3, [r7, #6]	@ zero_extendqisi2
 394 017e 0133     		adds	r3, r3, #1
 395 0180 BB71     		strb	r3, [r7, #6]
 242:..\src/interruptions.c ****                 
 243:..\src/interruptions.c ****                 }
 244:..\src/interruptions.c ****                 break;
 396              		.loc 1 244 0
 397 0182 1CE0     		b	.L8
 398              	.L14:
 245:..\src/interruptions.c **** 
 246:..\src/interruptions.c ****             //-----     other device is receving     ---------------------------
 247:..\src/interruptions.c ****             case UNLOAD:
 248:..\src/interruptions.c ****                 if (!(--data_packet_length)) {
 399              		.loc 1 248 0
 400 0184 174B     		ldr	r3, .L31+12
 401 0186 1B78     		ldrb	r3, [r3]	@ zero_extendqisi2
 402 0188 013B     		subs	r3, r3, #1
 403 018a DAB2     		uxtb	r2, r3
 404 018c 154B     		ldr	r3, .L31+12
 405 018e 1A70     		strb	r2, [r3]
 406 0190 144B     		ldr	r3, .L31+12
 407 0192 1B78     		ldrb	r3, [r3]	@ zero_extendqisi2
 408 0194 002B     		cmp	r3, #0
 409 0196 11D1     		bne	.L30
 249:..\src/interruptions.c ****                     data_packet_index  = 0;
 410              		.loc 1 249 0
 411 0198 134B     		ldr	r3, .L31+16
 412 019a 0022     		movs	r2, #0
 413 019c 1A70     		strb	r2, [r3]
 250:..\src/interruptions.c ****                     data_packet_length = 0;
 414              		.loc 1 250 0
 415 019e 114B     		ldr	r3, .L31+12
 416 01a0 0022     		movs	r2, #0
 417 01a2 1A70     		strb	r2, [r3]
 251:..\src/interruptions.c ****                     RS485_CTS_Write(1);
 418              		.loc 1 251 0
 419 01a4 0120     		movs	r0, #1
 420 01a6 FFF7FEFF 		bl	RS485_CTS_Write
 252:..\src/interruptions.c ****                     RS485_CTS_Write(0);
 421              		.loc 1 252 0
 422 01aa 0020     		movs	r0, #0
 423 01ac FFF7FEFF 		bl	RS485_CTS_Write
 253:..\src/interruptions.c ****                     state              = WAIT_START;
 424              		.loc 1 253 0
 425 01b0 094B     		ldr	r3, .L31
 426 01b2 0022     		movs	r2, #0
 427 01b4 1A70     		strb	r2, [r3]
 254:..\src/interruptions.c ****                     package_count++;
 428              		.loc 1 254 0
ARM GAS  C:\Users\mgnocco\AppData\Local\Temp\cc6peeyS.s 			page 13


 429 01b6 BB79     		ldrb	r3, [r7, #6]	@ zero_extendqisi2
 430 01b8 0133     		adds	r3, r3, #1
 431 01ba BB71     		strb	r3, [r7, #6]
 432              	.L30:
 255:..\src/interruptions.c ****                 }
 256:..\src/interruptions.c ****                 break;
 433              		.loc 1 256 0
 434 01bc 00BF     		nop
 435              	.L8:
 154:..\src/interruptions.c ****         // 100 - estimated maximum number of packets we can read without blocking firmware executio
 436              		.loc 1 154 0
 437 01be FFF7FEFF 		bl	UART_RS485_GetRxBufferSize
 438 01c2 0346     		mov	r3, r0
 439 01c4 002B     		cmp	r3, #0
 440 01c6 03D0     		beq	.L29
 154:..\src/interruptions.c ****         // 100 - estimated maximum number of packets we can read without blocking firmware executio
 441              		.loc 1 154 0 is_stmt 0 discriminator 1
 442 01c8 BB79     		ldrb	r3, [r7, #6]	@ zero_extendqisi2
 443 01ca 632B     		cmp	r3, #99
 444 01cc 7FF620AF 		bls	.L28
 445              	.L29:
 257:..\src/interruptions.c ****         }
 258:..\src/interruptions.c ****     }
 259:..\src/interruptions.c **** }
 446              		.loc 1 259 0 is_stmt 1
 447 01d0 00BF     		nop
 448 01d2 0837     		adds	r7, r7, #8
 449              		.cfi_def_cfa_offset 8
 450 01d4 BD46     		mov	sp, r7
 451              		.cfi_def_cfa_register 13
 452              		@ sp needed
 453 01d6 80BD     		pop	{r7, pc}
 454              	.L32:
 455              		.align	2
 456              	.L31:
 457 01d8 00000000 		.word	state.10534
 458 01dc 04000000 		.word	rx_queue.10538
 459 01e0 00000000 		.word	c_mem
 460 01e4 07000000 		.word	data_packet_length.10536
 461 01e8 08000000 		.word	data_packet_index.10535
 462 01ec 0C000000 		.word	data_packet_buffer.10537
 463 01f0 00000000 		.word	g_rx
 464              		.cfi_endproc
 465              	.LFE66:
 466              		.size	interrupt_manager, .-interrupt_manager
 467              		.global	__aeabi_i2f
 468              		.global	__aeabi_fdiv
 469              		.section	.rodata
 470 001d 000000   		.align	2
 471              	.LC0:
 472 0020 00       		.ascii	"\000"
 473              		.section	.text.function_scheduler,"ax",%progbits
 474              		.align	2
 475              		.global	function_scheduler
 476              		.thumb
 477              		.thumb_func
 478              		.type	function_scheduler, %function
ARM GAS  C:\Users\mgnocco\AppData\Local\Temp\cc6peeyS.s 			page 14


 479              	function_scheduler:
 480              	.LFB67:
 260:..\src/interruptions.c **** //==============================================================================
 261:..\src/interruptions.c **** //                                                            FUNCTION SCHEDULER
 262:..\src/interruptions.c **** //==============================================================================
 263:..\src/interruptions.c **** // Call all the function with the right frequency
 264:..\src/interruptions.c **** //==============================================================================
 265:..\src/interruptions.c **** // Base frequency 5000 Hz (110 us - max. 200 us cycle time)
 266:..\src/interruptions.c **** //==============================================================================
 267:..\src/interruptions.c **** 
 268:..\src/interruptions.c **** void function_scheduler(void) {
 481              		.loc 1 268 0
 482              		.cfi_startproc
 483              		@ args = 0, pretend = 0, frame = 17512
 484              		@ frame_needed = 1, uses_anonymous_args = 0
 485 0000 B0B5     		push	{r4, r5, r7, lr}
 486              		.cfi_def_cfa_offset 16
 487              		.cfi_offset 4, -16
 488              		.cfi_offset 5, -12
 489              		.cfi_offset 7, -8
 490              		.cfi_offset 14, -4
 491 0002 ADF5884D 		sub	sp, sp, #17408
 492              		.cfi_def_cfa_offset 17424
 493 0006 9AB0     		sub	sp, sp, #104
 494              		.cfi_def_cfa_offset 17528
 495 0008 00AF     		add	r7, sp, #0
 496              		.cfi_def_cfa_register 7
 269:..\src/interruptions.c ****  
 270:..\src/interruptions.c ****     static uint16 counter_calibration = DIV_INIT_VALUE;
 271:..\src/interruptions.c ****     static uint16 counter_tension_func = DIV_INIT_VALUE;
 272:..\src/interruptions.c ****     char info_[2500] = "";
 497              		.loc 1 272 0
 498 000a 07F56A53 		add	r3, r7, #14976
 499 000e 03F11C03 		add	r3, r3, #28
 500 0012 0022     		movs	r2, #0
 501 0014 1A60     		str	r2, [r3]
 502 0016 0433     		adds	r3, r3, #4
 503 0018 4FF41C62 		mov	r2, #2496
 504 001c 0021     		movs	r1, #0
 505 001e 1846     		mov	r0, r3
 506 0020 FFF7FEFF 		bl	memset
 273:..\src/interruptions.c ****     
 274:..\src/interruptions.c ****     uint8 i;
 275:..\src/interruptions.c ****     int32 tmp;
 276:..\src/interruptions.c ****     uint8 MOTOR_IDX = 0;
 507              		.loc 1 276 0
 508 0024 0023     		movs	r3, #0
 509 0026 07F58842 		add	r2, r7, #17408
 510 002a 02F16502 		add	r2, r2, #101
 511 002e 1370     		strb	r3, [r2]
 277:..\src/interruptions.c ****     uint8 SECOND_MOTOR_IDX = 1;
 512              		.loc 1 277 0
 513 0030 0123     		movs	r3, #1
 514 0032 07F58842 		add	r2, r7, #17408
 515 0036 02F16402 		add	r2, r2, #100
 516 003a 1370     		strb	r3, [r2]
 278:..\src/interruptions.c ****     
ARM GAS  C:\Users\mgnocco\AppData\Local\Temp\cc6peeyS.s 			page 15


 279:..\src/interruptions.c ****     MY_TIMER_REG_Write(0x00);
 517              		.loc 1 279 0
 518 003c 0020     		movs	r0, #0
 519 003e FFF7FEFF 		bl	MY_TIMER_REG_Write
 280:..\src/interruptions.c ****     timer_value0 = (uint32)MY_TIMER_ReadCounter();
 520              		.loc 1 280 0
 521 0042 FFF7FEFF 		bl	MY_TIMER_ReadCounter
 522 0046 0346     		mov	r3, r0
 523 0048 1A46     		mov	r2, r3
 524 004a 894B     		ldr	r3, .L87
 525 004c 1A80     		strh	r2, [r3]	@ movhi
 281:..\src/interruptions.c ****     // Start ADC Conversion, SOC = 1
 282:..\src/interruptions.c **** 
 283:..\src/interruptions.c ****     ADC_SOC_Write(0x01); 
 526              		.loc 1 283 0
 527 004e 0120     		movs	r0, #1
 528 0050 FFF7FEFF 		bl	ADC_SOC_Write
 284:..\src/interruptions.c ****     
 285:..\src/interruptions.c ****     // Check Interrupt 
 286:..\src/interruptions.c **** 
 287:..\src/interruptions.c ****     if (interrupt_flag){
 529              		.loc 1 287 0
 530 0054 874B     		ldr	r3, .L87+4
 531 0056 1B78     		ldrb	r3, [r3]	@ zero_extendqisi2
 532 0058 002B     		cmp	r3, #0
 533 005a 04D0     		beq	.L34
 288:..\src/interruptions.c ****         interrupt_flag = FALSE;
 534              		.loc 1 288 0
 535 005c 854B     		ldr	r3, .L87+4
 536 005e 0022     		movs	r2, #0
 537 0060 1A70     		strb	r2, [r3]
 289:..\src/interruptions.c ****         interrupt_manager();
 538              		.loc 1 289 0
 539 0062 FFF7FEFF 		bl	interrupt_manager
 540              	.L34:
 290:..\src/interruptions.c ****     }
 291:..\src/interruptions.c ****     
 292:..\src/interruptions.c ****         //---------------------------------- Read IMUs
 293:..\src/interruptions.c ****     if (c_mem.imu.read_imu_flag) {
 541              		.loc 1 293 0
 542 0066 844B     		ldr	r3, .L87+8
 543 0068 93F80032 		ldrb	r3, [r3, #512]	@ zero_extendqisi2
 544 006c 002B     		cmp	r3, #0
 545 006e 0AD0     		beq	.L35
 294:..\src/interruptions.c ****         ReadAllIMUs();      // IMU reading is atomic, no RS485 request is handled
 546              		.loc 1 294 0
 547 0070 FFF7FEFF 		bl	ReadAllIMUs
 295:..\src/interruptions.c ****         
 296:..\src/interruptions.c ****         if (interrupt_flag){
 548              		.loc 1 296 0
 549 0074 7F4B     		ldr	r3, .L87+4
 550 0076 1B78     		ldrb	r3, [r3]	@ zero_extendqisi2
 551 0078 002B     		cmp	r3, #0
 552 007a 04D0     		beq	.L35
 297:..\src/interruptions.c ****             interrupt_flag = FALSE;
 553              		.loc 1 297 0
 554 007c 7D4B     		ldr	r3, .L87+4
ARM GAS  C:\Users\mgnocco\AppData\Local\Temp\cc6peeyS.s 			page 16


 555 007e 0022     		movs	r2, #0
 556 0080 1A70     		strb	r2, [r3]
 298:..\src/interruptions.c ****             interrupt_manager();
 557              		.loc 1 298 0
 558 0082 FFF7FEFF 		bl	interrupt_manager
 559              	.L35:
 299:..\src/interruptions.c ****         }
 300:..\src/interruptions.c ****     }
 301:..\src/interruptions.c ****     
 302:..\src/interruptions.c ****     switch(c_mem.dev.dev_type){
 560              		.loc 1 302 0
 561 0086 7C4B     		ldr	r3, .L87+8
 562 0088 93F8AC30 		ldrb	r3, [r3, #172]	@ zero_extendqisi2
 563 008c 042B     		cmp	r3, #4
 564 008e 00F23D82 		bhi	.L36
 565 0092 01A2     		adr	r2, .L38
 566 0094 52F823F0 		ldr	pc, [r2, r3, lsl #2]
 567              		.p2align 2
 568              	.L38:
 569 0098 AD000000 		.word	.L37+1
 570 009c B1010000 		.word	.L39+1
 571 00a0 0F040000 		.word	.L40+1
 572 00a4 0F040000 		.word	.L40+1
 573 00a8 B1010000 		.word	.L39+1
 574              		.p2align 1
 575              	.L37:
 303:..\src/interruptions.c ****         case SOFTHAND_PRO:
 304:..\src/interruptions.c ****         
 305:..\src/interruptions.c ****             //---------------------------------- Get Encoders
 306:..\src/interruptions.c ****             
 307:..\src/interruptions.c ****             // Get CS0 encoder line for RIGHT HAND and CS1 line for LEFT HAND
 308:..\src/interruptions.c ****             if (N_Encoder_Line_Connected[c_mem.motor[MOTOR_IDX].encoder_line] > 0) {
 576              		.loc 1 308 0
 577 00ac 07F58843 		add	r3, r7, #17408
 578 00b0 03F16503 		add	r3, r3, #101
 579 00b4 1A78     		ldrb	r2, [r3]	@ zero_extendqisi2
 580 00b6 7049     		ldr	r1, .L87+8
 581 00b8 1346     		mov	r3, r2
 582 00ba DB00     		lsls	r3, r3, #3
 583 00bc 9B1A     		subs	r3, r3, r2
 584 00be 1B01     		lsls	r3, r3, #4
 585 00c0 0B44     		add	r3, r3, r1
 586 00c2 03F58873 		add	r3, r3, #272
 587 00c6 1B78     		ldrb	r3, [r3]	@ zero_extendqisi2
 588 00c8 1A46     		mov	r2, r3
 589 00ca 6C4B     		ldr	r3, .L87+12
 590 00cc 9B5C     		ldrb	r3, [r3, r2]	@ zero_extendqisi2
 591 00ce 002B     		cmp	r3, #0
 592 00d0 2BD0     		beq	.L41
 309:..\src/interruptions.c ****                 // Change CS only if there are attached encoders on the line
 310:..\src/interruptions.c ****                 Change_CS_EncoderLine(c_mem.motor[MOTOR_IDX].encoder_line);
 593              		.loc 1 310 0
 594 00d2 07F58843 		add	r3, r7, #17408
 595 00d6 03F16503 		add	r3, r3, #101
 596 00da 1A78     		ldrb	r2, [r3]	@ zero_extendqisi2
 597 00dc 6649     		ldr	r1, .L87+8
 598 00de 1346     		mov	r3, r2
ARM GAS  C:\Users\mgnocco\AppData\Local\Temp\cc6peeyS.s 			page 17


 599 00e0 DB00     		lsls	r3, r3, #3
 600 00e2 9B1A     		subs	r3, r3, r2
 601 00e4 1B01     		lsls	r3, r3, #4
 602 00e6 0B44     		add	r3, r3, r1
 603 00e8 03F58873 		add	r3, r3, #272
 604 00ec 1B78     		ldrb	r3, [r3]	@ zero_extendqisi2
 605 00ee 1846     		mov	r0, r3
 606 00f0 FFF7FEFF 		bl	Change_CS_EncoderLine
 311:..\src/interruptions.c ****                 
 312:..\src/interruptions.c ****                 encoder_reading_SPI(c_mem.motor[MOTOR_IDX].encoder_line, 0);    // assoc_motor = 0 
 607              		.loc 1 312 0
 608 00f4 07F58843 		add	r3, r7, #17408
 609 00f8 03F16503 		add	r3, r3, #101
 610 00fc 1A78     		ldrb	r2, [r3]	@ zero_extendqisi2
 611 00fe 5E49     		ldr	r1, .L87+8
 612 0100 1346     		mov	r3, r2
 613 0102 DB00     		lsls	r3, r3, #3
 614 0104 9B1A     		subs	r3, r3, r2
 615 0106 1B01     		lsls	r3, r3, #4
 616 0108 0B44     		add	r3, r3, r1
 617 010a 03F58873 		add	r3, r3, #272
 618 010e 1B78     		ldrb	r3, [r3]	@ zero_extendqisi2
 619 0110 0021     		movs	r1, #0
 620 0112 1846     		mov	r0, r3
 621 0114 FFF7FEFF 		bl	encoder_reading_SPI
 313:..\src/interruptions.c **** 
 314:..\src/interruptions.c ****                 // Check Interrupt     
 315:..\src/interruptions.c ****                 
 316:..\src/interruptions.c ****                 if (interrupt_flag){
 622              		.loc 1 316 0
 623 0118 564B     		ldr	r3, .L87+4
 624 011a 1B78     		ldrb	r3, [r3]	@ zero_extendqisi2
 625 011c 002B     		cmp	r3, #0
 626 011e 04D0     		beq	.L41
 317:..\src/interruptions.c ****                     interrupt_flag = FALSE;
 627              		.loc 1 317 0
 628 0120 544B     		ldr	r3, .L87+4
 629 0122 0022     		movs	r2, #0
 630 0124 1A70     		strb	r2, [r3]
 318:..\src/interruptions.c ****                     interrupt_manager();
 631              		.loc 1 318 0
 632 0126 FFF7FEFF 		bl	interrupt_manager
 633              	.L41:
 319:..\src/interruptions.c ****                 }
 320:..\src/interruptions.c ****             }
 321:..\src/interruptions.c ****             
 322:..\src/interruptions.c ****             //---------------------------------- Control SH Motor
 323:..\src/interruptions.c ****             if (pos_reconstruct[c_mem.motor[MOTOR_IDX].encoder_line]){      // Once encoder line re
 634              		.loc 1 323 0
 635 012a 07F58843 		add	r3, r7, #17408
 636 012e 03F16503 		add	r3, r3, #101
 637 0132 1A78     		ldrb	r2, [r3]	@ zero_extendqisi2
 638 0134 5049     		ldr	r1, .L87+8
 639 0136 1346     		mov	r3, r2
 640 0138 DB00     		lsls	r3, r3, #3
 641 013a 9B1A     		subs	r3, r3, r2
 642 013c 1B01     		lsls	r3, r3, #4
ARM GAS  C:\Users\mgnocco\AppData\Local\Temp\cc6peeyS.s 			page 18


 643 013e 0B44     		add	r3, r3, r1
 644 0140 03F58873 		add	r3, r3, #272
 645 0144 1B78     		ldrb	r3, [r3]	@ zero_extendqisi2
 646 0146 1A46     		mov	r2, r3
 647 0148 4D4B     		ldr	r3, .L87+16
 648 014a 9B5C     		ldrb	r3, [r3, r2]	@ zero_extendqisi2
 649 014c 002B     		cmp	r3, #0
 650 014e 24D0     		beq	.L42
 324:..\src/interruptions.c ****                 motor_control_SH();
 651              		.loc 1 324 0
 652 0150 FFF7FEFF 		bl	motor_control_SH
 325:..\src/interruptions.c ****                 
 326:..\src/interruptions.c ****                 // Check external reference before processing other serial data and right after mot
 327:..\src/interruptions.c ****                 if (c_mem.motor[MOTOR_IDX].not_revers_motor_flag == TRUE) {
 653              		.loc 1 327 0
 654 0154 07F58843 		add	r3, r7, #17408
 655 0158 03F16503 		add	r3, r3, #101
 656 015c 1A78     		ldrb	r2, [r3]	@ zero_extendqisi2
 657 015e 4649     		ldr	r1, .L87+8
 658 0160 1346     		mov	r3, r2
 659 0162 DB00     		lsls	r3, r3, #3
 660 0164 9B1A     		subs	r3, r3, r2
 661 0166 1B01     		lsls	r3, r3, #4
 662 0168 0B44     		add	r3, r3, r1
 663 016a 03F58973 		add	r3, r3, #274
 664 016e 1B78     		ldrb	r3, [r3]	@ zero_extendqisi2
 665 0170 012B     		cmp	r3, #1
 666 0172 12D1     		bne	.L42
 328:..\src/interruptions.c ****                     if (c_mem.motor[MOTOR_IDX].input_mode == INPUT_MODE_EXTERNAL) {
 667              		.loc 1 328 0
 668 0174 07F58843 		add	r3, r7, #17408
 669 0178 03F16503 		add	r3, r3, #101
 670 017c 1A78     		ldrb	r2, [r3]	@ zero_extendqisi2
 671 017e 3E49     		ldr	r1, .L87+8
 672 0180 1346     		mov	r3, r2
 673 0182 DB00     		lsls	r3, r3, #3
 674 0184 9B1A     		subs	r3, r3, r2
 675 0186 1B01     		lsls	r3, r3, #4
 676 0188 0B44     		add	r3, r3, r1
 677 018a 03F58773 		add	r3, r3, #270
 678 018e 1B78     		ldrb	r3, [r3]	@ zero_extendqisi2
 679 0190 002B     		cmp	r3, #0
 680 0192 02D1     		bne	.L42
 329:..\src/interruptions.c ****                         change_ext_ref_flag = FALSE;
 681              		.loc 1 329 0
 682 0194 3B4B     		ldr	r3, .L87+20
 683 0196 0022     		movs	r2, #0
 684 0198 1A70     		strb	r2, [r3]
 685              	.L42:
 330:..\src/interruptions.c ****                     }   
 331:..\src/interruptions.c ****                 }
 332:..\src/interruptions.c ****             }
 333:..\src/interruptions.c **** 
 334:..\src/interruptions.c ****             // Check Interrupt 
 335:..\src/interruptions.c **** 
 336:..\src/interruptions.c ****             if (interrupt_flag){
 686              		.loc 1 336 0
ARM GAS  C:\Users\mgnocco\AppData\Local\Temp\cc6peeyS.s 			page 19


 687 019a 364B     		ldr	r3, .L87+4
 688 019c 1B78     		ldrb	r3, [r3]	@ zero_extendqisi2
 689 019e 002B     		cmp	r3, #0
 690 01a0 00F0AF81 		beq	.L84
 337:..\src/interruptions.c ****                 interrupt_flag = FALSE;
 691              		.loc 1 337 0
 692 01a4 334B     		ldr	r3, .L87+4
 693 01a6 0022     		movs	r2, #0
 694 01a8 1A70     		strb	r2, [r3]
 338:..\src/interruptions.c ****                 interrupt_manager();
 695              		.loc 1 338 0
 696 01aa FFF7FEFF 		bl	interrupt_manager
 339:..\src/interruptions.c ****             }
 340:..\src/interruptions.c ****             break;
 697              		.loc 1 340 0
 698 01ae A8E1     		b	.L84
 699              	.L39:
 700              	.LBB2:
 341:..\src/interruptions.c ****             
 342:..\src/interruptions.c ****         case GENERIC_2_MOTORS: case SOFTHAND_2_MOTORS:
 343:..\src/interruptions.c ****             
 344:..\src/interruptions.c ****             //---------------------------------- Get Encoders
 345:..\src/interruptions.c ****             for (uint8 i = 0; i < N_ENCODER_LINE_MAX; i++) {
 701              		.loc 1 345 0
 702 01b0 0023     		movs	r3, #0
 703 01b2 07F58842 		add	r2, r7, #17408
 704 01b6 02F16602 		add	r2, r2, #102
 705 01ba 1370     		strb	r3, [r2]
 706 01bc 89E0     		b	.L44
 707              	.L49:
 346:..\src/interruptions.c ****                 if (N_Encoder_Line_Connected[i] > 0) {
 708              		.loc 1 346 0
 709 01be 07F58843 		add	r3, r7, #17408
 710 01c2 03F16603 		add	r3, r3, #102
 711 01c6 1B78     		ldrb	r3, [r3]	@ zero_extendqisi2
 712 01c8 2C4A     		ldr	r2, .L87+12
 713 01ca D35C     		ldrb	r3, [r2, r3]	@ zero_extendqisi2
 714 01cc 002B     		cmp	r3, #0
 715 01ce 75D0     		beq	.L45
 347:..\src/interruptions.c ****                     // Change CS only if there are attached encoders on the line
 348:..\src/interruptions.c ****                     Change_CS_EncoderLine(i);
 716              		.loc 1 348 0
 717 01d0 07F58843 		add	r3, r7, #17408
 718 01d4 03F16603 		add	r3, r3, #102
 719 01d8 1B78     		ldrb	r3, [r3]	@ zero_extendqisi2
 720 01da 1846     		mov	r0, r3
 721 01dc FFF7FEFF 		bl	Change_CS_EncoderLine
 349:..\src/interruptions.c ****                               
 350:..\src/interruptions.c ****                     if (c_mem.motor[MOTOR_IDX].encoder_line == i) {
 722              		.loc 1 350 0
 723 01e0 07F58843 		add	r3, r7, #17408
 724 01e4 03F16503 		add	r3, r3, #101
 725 01e8 1A78     		ldrb	r2, [r3]	@ zero_extendqisi2
 726 01ea 2349     		ldr	r1, .L87+8
 727 01ec 1346     		mov	r3, r2
 728 01ee DB00     		lsls	r3, r3, #3
 729 01f0 9B1A     		subs	r3, r3, r2
ARM GAS  C:\Users\mgnocco\AppData\Local\Temp\cc6peeyS.s 			page 20


 730 01f2 1B01     		lsls	r3, r3, #4
 731 01f4 0B44     		add	r3, r3, r1
 732 01f6 03F58873 		add	r3, r3, #272
 733 01fa 1B78     		ldrb	r3, [r3]	@ zero_extendqisi2
 734 01fc 07F58842 		add	r2, r7, #17408
 735 0200 02F16602 		add	r2, r2, #102
 736 0204 1278     		ldrb	r2, [r2]	@ zero_extendqisi2
 737 0206 9A42     		cmp	r2, r3
 738 0208 0ED1     		bne	.L46
 351:..\src/interruptions.c ****                         // Check if the line is used to control motor or not
 352:..\src/interruptions.c ****                         encoder_reading_SPI(i, MOTOR_IDX); 
 739              		.loc 1 352 0
 740 020a 07F58843 		add	r3, r7, #17408
 741 020e 03F16503 		add	r3, r3, #101
 742 0212 1A78     		ldrb	r2, [r3]	@ zero_extendqisi2
 743 0214 07F58843 		add	r3, r7, #17408
 744 0218 03F16603 		add	r3, r3, #102
 745 021c 1B78     		ldrb	r3, [r3]	@ zero_extendqisi2
 746 021e 1146     		mov	r1, r2
 747 0220 1846     		mov	r0, r3
 748 0222 FFF7FEFF 		bl	encoder_reading_SPI
 749 0226 40E0     		b	.L47
 750              	.L46:
 353:..\src/interruptions.c ****                     }
 354:..\src/interruptions.c ****                     else {
 355:..\src/interruptions.c ****                         if (c_mem.motor[SECOND_MOTOR_IDX].encoder_line == i) {
 751              		.loc 1 355 0
 752 0228 07F58843 		add	r3, r7, #17408
 753 022c 03F16403 		add	r3, r3, #100
 754 0230 1A78     		ldrb	r2, [r3]	@ zero_extendqisi2
 755 0232 1149     		ldr	r1, .L87+8
 756 0234 1346     		mov	r3, r2
 757 0236 DB00     		lsls	r3, r3, #3
 758 0238 9B1A     		subs	r3, r3, r2
 759 023a 1B01     		lsls	r3, r3, #4
 760 023c 0B44     		add	r3, r3, r1
 761 023e 03F58873 		add	r3, r3, #272
 762 0242 1B78     		ldrb	r3, [r3]	@ zero_extendqisi2
 763 0244 07F58842 		add	r2, r7, #17408
 764 0248 02F16602 		add	r2, r2, #102
 765 024c 1278     		ldrb	r2, [r2]	@ zero_extendqisi2
 766 024e 9A42     		cmp	r2, r3
 767 0250 1AD1     		bne	.L48
 356:..\src/interruptions.c ****                             // Check if the line is used to control motor or not
 357:..\src/interruptions.c ****                             encoder_reading_SPI(i, SECOND_MOTOR_IDX); 
 768              		.loc 1 357 0
 769 0252 07F58843 		add	r3, r7, #17408
 770 0256 03F16403 		add	r3, r3, #100
 771 025a 1A78     		ldrb	r2, [r3]	@ zero_extendqisi2
 772 025c 07F58843 		add	r3, r7, #17408
 773 0260 03F16603 		add	r3, r3, #102
 774 0264 1B78     		ldrb	r3, [r3]	@ zero_extendqisi2
 775 0266 1146     		mov	r1, r2
 776 0268 1846     		mov	r0, r3
 777 026a FFF7FEFF 		bl	encoder_reading_SPI
 778 026e 1CE0     		b	.L47
 779              	.L88:
ARM GAS  C:\Users\mgnocco\AppData\Local\Temp\cc6peeyS.s 			page 21


 780              		.align	2
 781              	.L87:
 782 0270 00000000 		.word	timer_value0
 783 0274 00000000 		.word	interrupt_flag
 784 0278 00000000 		.word	c_mem
 785 027c 00000000 		.word	N_Encoder_Line_Connected
 786 0280 00000000 		.word	pos_reconstruct
 787 0284 00000000 		.word	change_ext_ref_flag
 788              	.L48:
 358:..\src/interruptions.c ****                         }
 359:..\src/interruptions.c ****                         else {
 360:..\src/interruptions.c ****                             // Get only raw encoder value
 361:..\src/interruptions.c ****                             ReadEncoderLine(N_Encoder_Line_Connected[i], i);
 789              		.loc 1 361 0
 790 0288 07F58843 		add	r3, r7, #17408
 791 028c 03F16603 		add	r3, r3, #102
 792 0290 1B78     		ldrb	r3, [r3]	@ zero_extendqisi2
 793 0292 A44A     		ldr	r2, .L89
 794 0294 D35C     		ldrb	r3, [r2, r3]	@ zero_extendqisi2
 795 0296 1A46     		mov	r2, r3
 796 0298 07F58843 		add	r3, r7, #17408
 797 029c 03F16603 		add	r3, r3, #102
 798 02a0 1B78     		ldrb	r3, [r3]	@ zero_extendqisi2
 799 02a2 1946     		mov	r1, r3
 800 02a4 1046     		mov	r0, r2
 801 02a6 FFF7FEFF 		bl	ReadEncoderLine
 802              	.L47:
 362:..\src/interruptions.c ****                             // Values are stored in Encoder_Value[i] vector
 363:..\src/interruptions.c ****                         }
 364:..\src/interruptions.c ****                     }
 365:..\src/interruptions.c **** 
 366:..\src/interruptions.c ****                     // Check Interrupt     
 367:..\src/interruptions.c ****                     
 368:..\src/interruptions.c ****                     if (interrupt_flag){
 803              		.loc 1 368 0
 804 02aa 9F4B     		ldr	r3, .L89+4
 805 02ac 1B78     		ldrb	r3, [r3]	@ zero_extendqisi2
 806 02ae 002B     		cmp	r3, #0
 807 02b0 04D0     		beq	.L45
 369:..\src/interruptions.c ****                         interrupt_flag = FALSE;
 808              		.loc 1 369 0
 809 02b2 9D4B     		ldr	r3, .L89+4
 810 02b4 0022     		movs	r2, #0
 811 02b6 1A70     		strb	r2, [r3]
 370:..\src/interruptions.c ****                         interrupt_manager();
 812              		.loc 1 370 0
 813 02b8 FFF7FEFF 		bl	interrupt_manager
 814              	.L45:
 345:..\src/interruptions.c ****                 if (N_Encoder_Line_Connected[i] > 0) {
 815              		.loc 1 345 0 discriminator 2
 816 02bc 07F58843 		add	r3, r7, #17408
 817 02c0 03F16603 		add	r3, r3, #102
 818 02c4 1B78     		ldrb	r3, [r3]	@ zero_extendqisi2
 819 02c6 0133     		adds	r3, r3, #1
 820 02c8 07F58842 		add	r2, r7, #17408
 821 02cc 02F16602 		add	r2, r2, #102
 822 02d0 1370     		strb	r3, [r2]
ARM GAS  C:\Users\mgnocco\AppData\Local\Temp\cc6peeyS.s 			page 22


 823              	.L44:
 345:..\src/interruptions.c ****                 if (N_Encoder_Line_Connected[i] > 0) {
 824              		.loc 1 345 0 is_stmt 0 discriminator 1
 825 02d2 07F58843 		add	r3, r7, #17408
 826 02d6 03F16603 		add	r3, r3, #102
 827 02da 1B78     		ldrb	r3, [r3]	@ zero_extendqisi2
 828 02dc 012B     		cmp	r3, #1
 829 02de 7FF66EAF 		bls	.L49
 830              	.LBE2:
 371:..\src/interruptions.c ****                     }
 372:..\src/interruptions.c ****                 }
 373:..\src/interruptions.c ****             } 
 374:..\src/interruptions.c ****             
 375:..\src/interruptions.c ****             //---------------------------------- Control Motor
 376:..\src/interruptions.c ****             if (pos_reconstruct[c_mem.motor[MOTOR_IDX].encoder_line]){      // Once encoder line re
 831              		.loc 1 376 0 is_stmt 1
 832 02e2 07F58843 		add	r3, r7, #17408
 833 02e6 03F16503 		add	r3, r3, #101
 834 02ea 1A78     		ldrb	r2, [r3]	@ zero_extendqisi2
 835 02ec 8F49     		ldr	r1, .L89+8
 836 02ee 1346     		mov	r3, r2
 837 02f0 DB00     		lsls	r3, r3, #3
 838 02f2 9B1A     		subs	r3, r3, r2
 839 02f4 1B01     		lsls	r3, r3, #4
 840 02f6 0B44     		add	r3, r3, r1
 841 02f8 03F58873 		add	r3, r3, #272
 842 02fc 1B78     		ldrb	r3, [r3]	@ zero_extendqisi2
 843 02fe 1A46     		mov	r2, r3
 844 0300 8B4B     		ldr	r3, .L89+12
 845 0302 9B5C     		ldrb	r3, [r3, r2]	@ zero_extendqisi2
 846 0304 002B     		cmp	r3, #0
 847 0306 2AD0     		beq	.L50
 377:..\src/interruptions.c ****                 // Control MOTOR_IDX motor (always active) according to motor driver type
 378:..\src/interruptions.c ****                 motor_control_generic(MOTOR_IDX);
 848              		.loc 1 378 0
 849 0308 07F58843 		add	r3, r7, #17408
 850 030c 03F16503 		add	r3, r3, #101
 851 0310 1B78     		ldrb	r3, [r3]	@ zero_extendqisi2
 852 0312 1846     		mov	r0, r3
 853 0314 FFF7FEFF 		bl	motor_control_generic
 379:..\src/interruptions.c ****                 
 380:..\src/interruptions.c ****                 // Check external reference before processing other serial data and right after mot
 381:..\src/interruptions.c ****                 if (c_mem.motor[MOTOR_IDX].not_revers_motor_flag == TRUE) {
 854              		.loc 1 381 0
 855 0318 07F58843 		add	r3, r7, #17408
 856 031c 03F16503 		add	r3, r3, #101
 857 0320 1A78     		ldrb	r2, [r3]	@ zero_extendqisi2
 858 0322 8249     		ldr	r1, .L89+8
 859 0324 1346     		mov	r3, r2
 860 0326 DB00     		lsls	r3, r3, #3
 861 0328 9B1A     		subs	r3, r3, r2
 862 032a 1B01     		lsls	r3, r3, #4
 863 032c 0B44     		add	r3, r3, r1
 864 032e 03F58973 		add	r3, r3, #274
 865 0332 1B78     		ldrb	r3, [r3]	@ zero_extendqisi2
 866 0334 012B     		cmp	r3, #1
 867 0336 12D1     		bne	.L50
ARM GAS  C:\Users\mgnocco\AppData\Local\Temp\cc6peeyS.s 			page 23


 382:..\src/interruptions.c ****                     if (c_mem.motor[MOTOR_IDX].input_mode == INPUT_MODE_EXTERNAL) {
 868              		.loc 1 382 0
 869 0338 07F58843 		add	r3, r7, #17408
 870 033c 03F16503 		add	r3, r3, #101
 871 0340 1A78     		ldrb	r2, [r3]	@ zero_extendqisi2
 872 0342 7A49     		ldr	r1, .L89+8
 873 0344 1346     		mov	r3, r2
 874 0346 DB00     		lsls	r3, r3, #3
 875 0348 9B1A     		subs	r3, r3, r2
 876 034a 1B01     		lsls	r3, r3, #4
 877 034c 0B44     		add	r3, r3, r1
 878 034e 03F58773 		add	r3, r3, #270
 879 0352 1B78     		ldrb	r3, [r3]	@ zero_extendqisi2
 880 0354 002B     		cmp	r3, #0
 881 0356 02D1     		bne	.L50
 383:..\src/interruptions.c ****                         change_ext_ref_flag = FALSE;
 882              		.loc 1 383 0
 883 0358 764B     		ldr	r3, .L89+16
 884 035a 0022     		movs	r2, #0
 885 035c 1A70     		strb	r2, [r3]
 886              	.L50:
 384:..\src/interruptions.c ****                     }   
 385:..\src/interruptions.c ****                 }
 386:..\src/interruptions.c ****                      
 387:..\src/interruptions.c ****                 
 388:..\src/interruptions.c ****             }
 389:..\src/interruptions.c ****             
 390:..\src/interruptions.c ****             // Check Interrupt 
 391:..\src/interruptions.c **** 
 392:..\src/interruptions.c ****             if (interrupt_flag){
 887              		.loc 1 392 0
 888 035e 724B     		ldr	r3, .L89+4
 889 0360 1B78     		ldrb	r3, [r3]	@ zero_extendqisi2
 890 0362 002B     		cmp	r3, #0
 891 0364 04D0     		beq	.L51
 393:..\src/interruptions.c ****                 interrupt_flag = FALSE;
 892              		.loc 1 393 0
 893 0366 704B     		ldr	r3, .L89+4
 894 0368 0022     		movs	r2, #0
 895 036a 1A70     		strb	r2, [r3]
 394:..\src/interruptions.c ****                 interrupt_manager();
 896              		.loc 1 394 0
 897 036c FFF7FEFF 		bl	interrupt_manager
 898              	.L51:
 395:..\src/interruptions.c ****             }
 396:..\src/interruptions.c ****             
 397:..\src/interruptions.c ****             // Control 2nd motor (if necessary) according to motor driver type
 398:..\src/interruptions.c ****             if (c_mem.dev.use_2nd_motor_flag == TRUE){
 899              		.loc 1 398 0
 900 0370 6E4B     		ldr	r3, .L89+8
 901 0372 93F8A930 		ldrb	r3, [r3, #169]	@ zero_extendqisi2
 902 0376 012B     		cmp	r3, #1
 903 0378 40F0C580 		bne	.L85
 399:..\src/interruptions.c ****                 if (pos_reconstruct[c_mem.motor[SECOND_MOTOR_IDX].encoder_line]){      // Once enco
 904              		.loc 1 399 0
 905 037c 07F58843 		add	r3, r7, #17408
 906 0380 03F16403 		add	r3, r3, #100
ARM GAS  C:\Users\mgnocco\AppData\Local\Temp\cc6peeyS.s 			page 24


 907 0384 1A78     		ldrb	r2, [r3]	@ zero_extendqisi2
 908 0386 6949     		ldr	r1, .L89+8
 909 0388 1346     		mov	r3, r2
 910 038a DB00     		lsls	r3, r3, #3
 911 038c 9B1A     		subs	r3, r3, r2
 912 038e 1B01     		lsls	r3, r3, #4
 913 0390 0B44     		add	r3, r3, r1
 914 0392 03F58873 		add	r3, r3, #272
 915 0396 1B78     		ldrb	r3, [r3]	@ zero_extendqisi2
 916 0398 1A46     		mov	r2, r3
 917 039a 654B     		ldr	r3, .L89+12
 918 039c 9B5C     		ldrb	r3, [r3, r2]	@ zero_extendqisi2
 919 039e 002B     		cmp	r3, #0
 920 03a0 2AD0     		beq	.L53
 400:..\src/interruptions.c ****                     motor_control_generic(SECOND_MOTOR_IDX);
 921              		.loc 1 400 0
 922 03a2 07F58843 		add	r3, r7, #17408
 923 03a6 03F16403 		add	r3, r3, #100
 924 03aa 1B78     		ldrb	r3, [r3]	@ zero_extendqisi2
 925 03ac 1846     		mov	r0, r3
 926 03ae FFF7FEFF 		bl	motor_control_generic
 401:..\src/interruptions.c ****                     
 402:..\src/interruptions.c ****                     // Check external reference before processing other serial data and right after
 403:..\src/interruptions.c ****                     if (c_mem.motor[SECOND_MOTOR_IDX].not_revers_motor_flag == TRUE) {
 927              		.loc 1 403 0
 928 03b2 07F58843 		add	r3, r7, #17408
 929 03b6 03F16403 		add	r3, r3, #100
 930 03ba 1A78     		ldrb	r2, [r3]	@ zero_extendqisi2
 931 03bc 5B49     		ldr	r1, .L89+8
 932 03be 1346     		mov	r3, r2
 933 03c0 DB00     		lsls	r3, r3, #3
 934 03c2 9B1A     		subs	r3, r3, r2
 935 03c4 1B01     		lsls	r3, r3, #4
 936 03c6 0B44     		add	r3, r3, r1
 937 03c8 03F58973 		add	r3, r3, #274
 938 03cc 1B78     		ldrb	r3, [r3]	@ zero_extendqisi2
 939 03ce 012B     		cmp	r3, #1
 940 03d0 12D1     		bne	.L53
 404:..\src/interruptions.c ****                         if (c_mem.motor[SECOND_MOTOR_IDX].input_mode == INPUT_MODE_EXTERNAL) {
 941              		.loc 1 404 0
 942 03d2 07F58843 		add	r3, r7, #17408
 943 03d6 03F16403 		add	r3, r3, #100
 944 03da 1A78     		ldrb	r2, [r3]	@ zero_extendqisi2
 945 03dc 5349     		ldr	r1, .L89+8
 946 03de 1346     		mov	r3, r2
 947 03e0 DB00     		lsls	r3, r3, #3
 948 03e2 9B1A     		subs	r3, r3, r2
 949 03e4 1B01     		lsls	r3, r3, #4
 950 03e6 0B44     		add	r3, r3, r1
 951 03e8 03F58773 		add	r3, r3, #270
 952 03ec 1B78     		ldrb	r3, [r3]	@ zero_extendqisi2
 953 03ee 002B     		cmp	r3, #0
 954 03f0 02D1     		bne	.L53
 405:..\src/interruptions.c ****                             change_ext_ref_flag = FALSE;
 955              		.loc 1 405 0
 956 03f2 504B     		ldr	r3, .L89+16
 957 03f4 0022     		movs	r2, #0
ARM GAS  C:\Users\mgnocco\AppData\Local\Temp\cc6peeyS.s 			page 25


 958 03f6 1A70     		strb	r2, [r3]
 959              	.L53:
 406:..\src/interruptions.c ****                         }   
 407:..\src/interruptions.c ****                     }
 408:..\src/interruptions.c ****                     
 409:..\src/interruptions.c ****                   
 410:..\src/interruptions.c ****                 }
 411:..\src/interruptions.c ****                 // Check Interrupt 
 412:..\src/interruptions.c **** 
 413:..\src/interruptions.c ****                 if (interrupt_flag){
 960              		.loc 1 413 0
 961 03f8 4B4B     		ldr	r3, .L89+4
 962 03fa 1B78     		ldrb	r3, [r3]	@ zero_extendqisi2
 963 03fc 002B     		cmp	r3, #0
 964 03fe 00F08280 		beq	.L85
 414:..\src/interruptions.c ****                     interrupt_flag = FALSE;
 965              		.loc 1 414 0
 966 0402 494B     		ldr	r3, .L89+4
 967 0404 0022     		movs	r2, #0
 968 0406 1A70     		strb	r2, [r3]
 415:..\src/interruptions.c ****                     interrupt_manager();
 969              		.loc 1 415 0
 970 0408 FFF7FEFF 		bl	interrupt_manager
 416:..\src/interruptions.c ****                 }
 417:..\src/interruptions.c ****             }
 418:..\src/interruptions.c ****             
 419:..\src/interruptions.c ****             
 420:..\src/interruptions.c ****             
 421:..\src/interruptions.c ****                 
 422:..\src/interruptions.c ****             break;
 971              		.loc 1 422 0
 972 040c 7BE0     		b	.L85
 973              	.L40:
 423:..\src/interruptions.c ****             
 424:..\src/interruptions.c ****         case AIR_CHAMBERS_FB: case OTBK_ACT_WRIST_MS:
 425:..\src/interruptions.c ****             
 426:..\src/interruptions.c ****             //---------------------------------- Force Feedback control
 427:..\src/interruptions.c ****             if (master_mode && c_mem.MS.slave_comm_active) {
 974              		.loc 1 427 0
 975 040e 4A4B     		ldr	r3, .L89+20
 976 0410 1B78     		ldrb	r3, [r3]	@ zero_extendqisi2
 977 0412 002B     		cmp	r3, #0
 978 0414 38D0     		beq	.L54
 979              		.loc 1 427 0 is_stmt 0 discriminator 1
 980 0416 454B     		ldr	r3, .L89+8
 981 0418 93F8C032 		ldrb	r3, [r3, #704]	@ zero_extendqisi2
 982 041c 002B     		cmp	r3, #0
 983 041e 33D0     		beq	.L54
 428:..\src/interruptions.c ****                 
 429:..\src/interruptions.c ****                 if (c_mem.dev.dev_type == AIR_CHAMBERS_FB){
 984              		.loc 1 429 0 is_stmt 1
 985 0420 424B     		ldr	r3, .L89+8
 986 0422 93F8AC30 		ldrb	r3, [r3, #172]	@ zero_extendqisi2
 987 0426 022B     		cmp	r3, #2
 988 0428 08D1     		bne	.L55
 430:..\src/interruptions.c ****                     air_chambers_control(SECOND_MOTOR_IDX);
 989              		.loc 1 430 0
ARM GAS  C:\Users\mgnocco\AppData\Local\Temp\cc6peeyS.s 			page 26


 990 042a 07F58843 		add	r3, r7, #17408
 991 042e 03F16403 		add	r3, r3, #100
 992 0432 1B78     		ldrb	r3, [r3]	@ zero_extendqisi2
 993 0434 1846     		mov	r0, r3
 994 0436 FFF7FEFF 		bl	air_chambers_control
 995 043a 07E0     		b	.L56
 996              	.L55:
 431:..\src/interruptions.c ****                 }
 432:..\src/interruptions.c ****                 else{ //OTBK_ACT_WRIST_MS
 433:..\src/interruptions.c ****                     otbk_act_wrist_control(SECOND_MOTOR_IDX);
 997              		.loc 1 433 0
 998 043c 07F58843 		add	r3, r7, #17408
 999 0440 03F16403 		add	r3, r3, #100
 1000 0444 1B78     		ldrb	r3, [r3]	@ zero_extendqisi2
 1001 0446 1846     		mov	r0, r3
 1002 0448 FFF7FEFF 		bl	otbk_act_wrist_control
 1003              	.L56:
 434:..\src/interruptions.c ****                 }
 435:..\src/interruptions.c **** 
 436:..\src/interruptions.c ****                 // Check Interrupt 
 437:..\src/interruptions.c **** 
 438:..\src/interruptions.c ****                 if (interrupt_flag){
 1004              		.loc 1 438 0
 1005 044c 364B     		ldr	r3, .L89+4
 1006 044e 1B78     		ldrb	r3, [r3]	@ zero_extendqisi2
 1007 0450 002B     		cmp	r3, #0
 1008 0452 04D0     		beq	.L57
 439:..\src/interruptions.c ****                     interrupt_flag = FALSE;
 1009              		.loc 1 439 0
 1010 0454 344B     		ldr	r3, .L89+4
 1011 0456 0022     		movs	r2, #0
 1012 0458 1A70     		strb	r2, [r3]
 440:..\src/interruptions.c ****                     interrupt_manager();
 1013              		.loc 1 440 0
 1014 045a FFF7FEFF 		bl	interrupt_manager
 1015              	.L57:
 441:..\src/interruptions.c ****                 }
 442:..\src/interruptions.c ****             
 443:..\src/interruptions.c ****                 drive_slave(SECOND_MOTOR_IDX, c_mem.MS.slave_ID);
 1016              		.loc 1 443 0
 1017 045e 334B     		ldr	r3, .L89+8
 1018 0460 93F8C122 		ldrb	r2, [r3, #705]	@ zero_extendqisi2
 1019 0464 07F58843 		add	r3, r7, #17408
 1020 0468 03F16403 		add	r3, r3, #100
 1021 046c 1B78     		ldrb	r3, [r3]	@ zero_extendqisi2
 1022 046e 1146     		mov	r1, r2
 1023 0470 1846     		mov	r0, r3
 1024 0472 FFF7FEFF 		bl	drive_slave
 444:..\src/interruptions.c ****             
 445:..\src/interruptions.c ****                 // Check Interrupt 
 446:..\src/interruptions.c **** 
 447:..\src/interruptions.c ****                 if (interrupt_flag){
 1025              		.loc 1 447 0
 1026 0476 2C4B     		ldr	r3, .L89+4
 1027 0478 1B78     		ldrb	r3, [r3]	@ zero_extendqisi2
 1028 047a 002B     		cmp	r3, #0
 1029 047c 04D0     		beq	.L54
ARM GAS  C:\Users\mgnocco\AppData\Local\Temp\cc6peeyS.s 			page 27


 448:..\src/interruptions.c ****                     interrupt_flag = FALSE;
 1030              		.loc 1 448 0
 1031 047e 2A4B     		ldr	r3, .L89+4
 1032 0480 0022     		movs	r2, #0
 1033 0482 1A70     		strb	r2, [r3]
 449:..\src/interruptions.c ****                     interrupt_manager();
 1034              		.loc 1 449 0
 1035 0484 FFF7FEFF 		bl	interrupt_manager
 1036              	.L54:
 450:..\src/interruptions.c ****                 }
 451:..\src/interruptions.c ****             }
 452:..\src/interruptions.c ****             if (!master_mode){
 1037              		.loc 1 452 0
 1038 0488 2B4B     		ldr	r3, .L89+20
 1039 048a 1B78     		ldrb	r3, [r3]	@ zero_extendqisi2
 1040 048c 002B     		cmp	r3, #0
 1041 048e 11D1     		bne	.L58
 453:..\src/interruptions.c ****                 
 454:..\src/interruptions.c ****                 if (c_mem.MS.slave_comm_active) {
 1042              		.loc 1 454 0
 1043 0490 264B     		ldr	r3, .L89+8
 1044 0492 93F8C032 		ldrb	r3, [r3, #704]	@ zero_extendqisi2
 1045 0496 002B     		cmp	r3, #0
 1046 0498 01D0     		beq	.L59
 455:..\src/interruptions.c ****                     // Stop feedback motors
 456:..\src/interruptions.c ****                     stop_master_device();
 1047              		.loc 1 456 0
 1048 049a FFF7FEFF 		bl	stop_master_device
 1049              	.L59:
 457:..\src/interruptions.c ****                 }
 458:..\src/interruptions.c ****                 // Disable slave or motors
 459:..\src/interruptions.c ****                 deactivate_slaves();
 1050              		.loc 1 459 0
 1051 049e FFF7FEFF 		bl	deactivate_slaves
 460:..\src/interruptions.c ****                         
 461:..\src/interruptions.c ****                 // Check Interrupt 
 462:..\src/interruptions.c ****                 if (interrupt_flag){
 1052              		.loc 1 462 0
 1053 04a2 214B     		ldr	r3, .L89+4
 1054 04a4 1B78     		ldrb	r3, [r3]	@ zero_extendqisi2
 1055 04a6 002B     		cmp	r3, #0
 1056 04a8 04D0     		beq	.L58
 463:..\src/interruptions.c ****                     interrupt_flag = FALSE;
 1057              		.loc 1 463 0
 1058 04aa 1F4B     		ldr	r3, .L89+4
 1059 04ac 0022     		movs	r2, #0
 1060 04ae 1A70     		strb	r2, [r3]
 464:..\src/interruptions.c ****                     interrupt_manager();
 1061              		.loc 1 464 0
 1062 04b0 FFF7FEFF 		bl	interrupt_manager
 1063              	.L58:
 465:..\src/interruptions.c ****                 } 
 466:..\src/interruptions.c ****             }
 467:..\src/interruptions.c ****     
 468:..\src/interruptions.c ****             // Control Master device main motor 
 469:..\src/interruptions.c ****             // (e.g. in AIR_CHAMBERS_FB device controls MOTOR_IDX motor [PUMP] with PWM control)
 470:..\src/interruptions.c ****             motor_control_generic(MOTOR_IDX);
ARM GAS  C:\Users\mgnocco\AppData\Local\Temp\cc6peeyS.s 			page 28


 1064              		.loc 1 470 0
 1065 04b4 07F58843 		add	r3, r7, #17408
 1066 04b8 03F16503 		add	r3, r3, #101
 1067 04bc 1B78     		ldrb	r3, [r3]	@ zero_extendqisi2
 1068 04be 1846     		mov	r0, r3
 1069 04c0 FFF7FEFF 		bl	motor_control_generic
 471:..\src/interruptions.c ****                         
 472:..\src/interruptions.c ****             // Always limit output voltage on the wrist
 473:..\src/interruptions.c ****              if (c_mem.dev.dev_type == OTBK_ACT_WRIST_MS){
 1070              		.loc 1 473 0
 1071 04c4 194B     		ldr	r3, .L89+8
 1072 04c6 93F8AC30 		ldrb	r3, [r3, #172]	@ zero_extendqisi2
 1073 04ca 032B     		cmp	r3, #3
 1074 04cc 0FD1     		bne	.L60
 474:..\src/interruptions.c ****                 if (g_refNew[0].pwm > 67) // 67 (8.4V max of 2S ottobock battery) 66.6% of 12.6V
 1075              		.loc 1 474 0
 1076 04ce 1B4B     		ldr	r3, .L89+24
 1077 04d0 9B68     		ldr	r3, [r3, #8]
 1078 04d2 432B     		cmp	r3, #67
 1079 04d4 02DD     		ble	.L61
 475:..\src/interruptions.c ****                     g_refNew[0].pwm = 67; // 67
 1080              		.loc 1 475 0
 1081 04d6 194B     		ldr	r3, .L89+24
 1082 04d8 4322     		movs	r2, #67
 1083 04da 9A60     		str	r2, [r3, #8]
 1084              	.L61:
 476:..\src/interruptions.c ****                 if (g_refNew[0].pwm < -67)
 1085              		.loc 1 476 0
 1086 04dc 174B     		ldr	r3, .L89+24
 1087 04de 9B68     		ldr	r3, [r3, #8]
 1088 04e0 13F1430F 		cmn	r3, #67
 1089 04e4 03DA     		bge	.L60
 477:..\src/interruptions.c ****                     g_refNew[0].pwm = -67;
 1090              		.loc 1 477 0
 1091 04e6 154B     		ldr	r3, .L89+24
 1092 04e8 6FF04202 		mvn	r2, #66
 1093 04ec 9A60     		str	r2, [r3, #8]
 1094              	.L60:
 478:..\src/interruptions.c ****             }
 479:..\src/interruptions.c ****             
 480:..\src/interruptions.c ****             // Check Interrupt 
 481:..\src/interruptions.c **** 
 482:..\src/interruptions.c ****             if (interrupt_flag){
 1095              		.loc 1 482 0
 1096 04ee 0E4B     		ldr	r3, .L89+4
 1097 04f0 1B78     		ldrb	r3, [r3]	@ zero_extendqisi2
 1098 04f2 002B     		cmp	r3, #0
 1099 04f4 09D0     		beq	.L86
 483:..\src/interruptions.c ****                 interrupt_flag = FALSE;
 1100              		.loc 1 483 0
 1101 04f6 0C4B     		ldr	r3, .L89+4
 1102 04f8 0022     		movs	r2, #0
 1103 04fa 1A70     		strb	r2, [r3]
 484:..\src/interruptions.c ****                 interrupt_manager();
 1104              		.loc 1 484 0
 1105 04fc FFF7FEFF 		bl	interrupt_manager
 485:..\src/interruptions.c ****             }
ARM GAS  C:\Users\mgnocco\AppData\Local\Temp\cc6peeyS.s 			page 29


 486:..\src/interruptions.c ****             
 487:..\src/interruptions.c ****             break;
 1106              		.loc 1 487 0
 1107 0500 03E0     		b	.L86
 1108              	.L84:
 340:..\src/interruptions.c ****             
 1109              		.loc 1 340 0
 1110 0502 00BF     		nop
 1111 0504 02E0     		b	.L36
 1112              	.L85:
 422:..\src/interruptions.c ****             
 1113              		.loc 1 422 0
 1114 0506 00BF     		nop
 1115 0508 00E0     		b	.L36
 1116              	.L86:
 1117              		.loc 1 487 0
 1118 050a 00BF     		nop
 1119              	.L36:
 488:..\src/interruptions.c ****     }
 489:..\src/interruptions.c **** 
 490:..\src/interruptions.c ****     // Compute vibrotactile feedback reference
 491:..\src/interruptions.c ****            
 492:..\src/interruptions.c ****                if(flag_vibrotactile){
 1120              		.loc 1 492 0
 1121 050c 0C4B     		ldr	r3, .L89+28
 1122 050e 1B78     		ldrb	r3, [r3]	@ zero_extendqisi2
 1123 0510 002B     		cmp	r3, #0
 1124 0512 00F0C780 		beq	.L63
 493:..\src/interruptions.c ****              
 494:..\src/interruptions.c ****                 for (i = 1; i <= NUM_OF_EXTERNAL_IMU; i++) 
 1125              		.loc 1 494 0
 1126 0516 0123     		movs	r3, #1
 1127 0518 07F58842 		add	r2, r7, #17408
 1128 051c 02F16702 		add	r2, r2, #103
 1129 0520 1370     		strb	r3, [r2]
 1130 0522 B5E0     		b	.L64
 1131              	.L90:
 1132              		.align	2
 1133              	.L89:
 1134 0524 00000000 		.word	N_Encoder_Line_Connected
 1135 0528 00000000 		.word	interrupt_flag
 1136 052c 00000000 		.word	c_mem
 1137 0530 00000000 		.word	pos_reconstruct
 1138 0534 00000000 		.word	change_ext_ref_flag
 1139 0538 00000000 		.word	master_mode
 1140 053c 00000000 		.word	g_refNew
 1141 0540 00000000 		.word	flag_vibrotactile
 1142              	.L65:
 495:..\src/interruptions.c ****                 {         
 496:..\src/interruptions.c ****                                         
 497:..\src/interruptions.c ****                     tmp = g_imu[i].accel_value[0];
 1143              		.loc 1 497 0 discriminator 3
 1144 0544 07F58843 		add	r3, r7, #17408
 1145 0548 03F16703 		add	r3, r3, #103
 1146 054c 1A78     		ldrb	r2, [r3]	@ zero_extendqisi2
 1147 054e C149     		ldr	r1, .L91
 1148 0550 1346     		mov	r3, r2
ARM GAS  C:\Users\mgnocco\AppData\Local\Temp\cc6peeyS.s 			page 30


 1149 0552 9B00     		lsls	r3, r3, #2
 1150 0554 1344     		add	r3, r3, r2
 1151 0556 DB00     		lsls	r3, r3, #3
 1152 0558 0B44     		add	r3, r3, r1
 1153 055a 0233     		adds	r3, r3, #2
 1154 055c B3F90030 		ldrsh	r3, [r3]
 1155 0560 07F58842 		add	r2, r7, #17408
 1156 0564 02F16002 		add	r2, r2, #96
 1157 0568 1360     		str	r3, [r2]
 498:..\src/interruptions.c ****                     accelerometer_matrix[i-1][0] = (float)(tmp * 61037) / 1e9 ;
 1158              		.loc 1 498 0 discriminator 3
 1159 056a 07F58843 		add	r3, r7, #17408
 1160 056e 03F16703 		add	r3, r3, #103
 1161 0572 1B78     		ldrb	r3, [r3]	@ zero_extendqisi2
 1162 0574 5C1E     		subs	r4, r3, #1
 1163 0576 07F58843 		add	r3, r7, #17408
 1164 057a 03F16003 		add	r3, r3, #96
 1165 057e 1B68     		ldr	r3, [r3]
 1166 0580 4EF66D62 		movw	r2, #61037
 1167 0584 02FB03F3 		mul	r3, r2, r3
 1168 0588 1846     		mov	r0, r3
 1169 058a FFF7FEFF 		bl	__aeabi_i2f
 1170 058e 0346     		mov	r3, r0
 1171 0590 B149     		ldr	r1, .L91+4
 1172 0592 1846     		mov	r0, r3
 1173 0594 FFF7FEFF 		bl	__aeabi_fdiv
 1174 0598 0346     		mov	r3, r0
 1175 059a 1946     		mov	r1, r3
 1176 059c AF4A     		ldr	r2, .L91+8
 1177 059e 2346     		mov	r3, r4
 1178 05a0 5B00     		lsls	r3, r3, #1
 1179 05a2 2344     		add	r3, r3, r4
 1180 05a4 9B00     		lsls	r3, r3, #2
 1181 05a6 1344     		add	r3, r3, r2
 1182 05a8 1960     		str	r1, [r3]	@ float
 499:..\src/interruptions.c ****                              
 500:..\src/interruptions.c ****                     tmp = g_imu[i].accel_value[1];
 1183              		.loc 1 500 0 discriminator 3
 1184 05aa 07F58843 		add	r3, r7, #17408
 1185 05ae 03F16703 		add	r3, r3, #103
 1186 05b2 1A78     		ldrb	r2, [r3]	@ zero_extendqisi2
 1187 05b4 A749     		ldr	r1, .L91
 1188 05b6 1346     		mov	r3, r2
 1189 05b8 9B00     		lsls	r3, r3, #2
 1190 05ba 1344     		add	r3, r3, r2
 1191 05bc DB00     		lsls	r3, r3, #3
 1192 05be 0B44     		add	r3, r3, r1
 1193 05c0 0433     		adds	r3, r3, #4
 1194 05c2 B3F90030 		ldrsh	r3, [r3]
 1195 05c6 07F58842 		add	r2, r7, #17408
 1196 05ca 02F16002 		add	r2, r2, #96
 1197 05ce 1360     		str	r3, [r2]
 501:..\src/interruptions.c ****                     accelerometer_matrix[i-1][1] = (float)(tmp * 61037) / 1e9 ;  
 1198              		.loc 1 501 0 discriminator 3
 1199 05d0 07F58843 		add	r3, r7, #17408
 1200 05d4 03F16703 		add	r3, r3, #103
 1201 05d8 1B78     		ldrb	r3, [r3]	@ zero_extendqisi2
ARM GAS  C:\Users\mgnocco\AppData\Local\Temp\cc6peeyS.s 			page 31


 1202 05da 5C1E     		subs	r4, r3, #1
 1203 05dc 07F58843 		add	r3, r7, #17408
 1204 05e0 03F16003 		add	r3, r3, #96
 1205 05e4 1B68     		ldr	r3, [r3]
 1206 05e6 4EF66D62 		movw	r2, #61037
 1207 05ea 02FB03F3 		mul	r3, r2, r3
 1208 05ee 1846     		mov	r0, r3
 1209 05f0 FFF7FEFF 		bl	__aeabi_i2f
 1210 05f4 0346     		mov	r3, r0
 1211 05f6 9849     		ldr	r1, .L91+4
 1212 05f8 1846     		mov	r0, r3
 1213 05fa FFF7FEFF 		bl	__aeabi_fdiv
 1214 05fe 0346     		mov	r3, r0
 1215 0600 1946     		mov	r1, r3
 1216 0602 964A     		ldr	r2, .L91+8
 1217 0604 2346     		mov	r3, r4
 1218 0606 5B00     		lsls	r3, r3, #1
 1219 0608 2344     		add	r3, r3, r4
 1220 060a 9B00     		lsls	r3, r3, #2
 1221 060c 1344     		add	r3, r3, r2
 1222 060e 0433     		adds	r3, r3, #4
 1223 0610 1960     		str	r1, [r3]	@ float
 502:..\src/interruptions.c ****                     
 503:..\src/interruptions.c ****                     tmp = g_imu[i].accel_value[2];
 1224              		.loc 1 503 0 discriminator 3
 1225 0612 07F58843 		add	r3, r7, #17408
 1226 0616 03F16703 		add	r3, r3, #103
 1227 061a 1A78     		ldrb	r2, [r3]	@ zero_extendqisi2
 1228 061c 8D49     		ldr	r1, .L91
 1229 061e 1346     		mov	r3, r2
 1230 0620 9B00     		lsls	r3, r3, #2
 1231 0622 1344     		add	r3, r3, r2
 1232 0624 DB00     		lsls	r3, r3, #3
 1233 0626 0B44     		add	r3, r3, r1
 1234 0628 0633     		adds	r3, r3, #6
 1235 062a B3F90030 		ldrsh	r3, [r3]
 1236 062e 07F58842 		add	r2, r7, #17408
 1237 0632 02F16002 		add	r2, r2, #96
 1238 0636 1360     		str	r3, [r2]
 504:..\src/interruptions.c ****                     accelerometer_matrix[i-1][2] = (float)(tmp * 61037) / 1e9 ;
 1239              		.loc 1 504 0 discriminator 3
 1240 0638 07F58843 		add	r3, r7, #17408
 1241 063c 03F16703 		add	r3, r3, #103
 1242 0640 1B78     		ldrb	r3, [r3]	@ zero_extendqisi2
 1243 0642 5C1E     		subs	r4, r3, #1
 1244 0644 07F58843 		add	r3, r7, #17408
 1245 0648 03F16003 		add	r3, r3, #96
 1246 064c 1B68     		ldr	r3, [r3]
 1247 064e 4EF66D62 		movw	r2, #61037
 1248 0652 02FB03F3 		mul	r3, r2, r3
 1249 0656 1846     		mov	r0, r3
 1250 0658 FFF7FEFF 		bl	__aeabi_i2f
 1251 065c 0346     		mov	r3, r0
 1252 065e 7E49     		ldr	r1, .L91+4
 1253 0660 1846     		mov	r0, r3
 1254 0662 FFF7FEFF 		bl	__aeabi_fdiv
 1255 0666 0346     		mov	r3, r0
ARM GAS  C:\Users\mgnocco\AppData\Local\Temp\cc6peeyS.s 			page 32


 1256 0668 1946     		mov	r1, r3
 1257 066a 7C4A     		ldr	r2, .L91+8
 1258 066c 2346     		mov	r3, r4
 1259 066e 5B00     		lsls	r3, r3, #1
 1260 0670 2344     		add	r3, r3, r4
 1261 0672 9B00     		lsls	r3, r3, #2
 1262 0674 1344     		add	r3, r3, r2
 1263 0676 0833     		adds	r3, r3, #8
 1264 0678 1960     		str	r1, [r3]	@ float
 494:..\src/interruptions.c ****                 {         
 1265              		.loc 1 494 0 discriminator 3
 1266 067a 07F58843 		add	r3, r7, #17408
 1267 067e 03F16703 		add	r3, r3, #103
 1268 0682 1B78     		ldrb	r3, [r3]	@ zero_extendqisi2
 1269 0684 0133     		adds	r3, r3, #1
 1270 0686 07F58842 		add	r2, r7, #17408
 1271 068a 02F16702 		add	r2, r2, #103
 1272 068e 1370     		strb	r3, [r2]
 1273              	.L64:
 494:..\src/interruptions.c ****                 {         
 1274              		.loc 1 494 0 is_stmt 0 discriminator 1
 1275 0690 07F58843 		add	r3, r7, #17408
 1276 0694 03F16703 		add	r3, r3, #103
 1277 0698 1B78     		ldrb	r3, [r3]	@ zero_extendqisi2
 1278 069a 022B     		cmp	r3, #2
 1279 069c 7FF652AF 		bls	.L65
 505:..\src/interruptions.c ****                 }
 506:..\src/interruptions.c ****                 driveVibrotactileFeedback();
 1280              		.loc 1 506 0 is_stmt 1
 1281 06a0 FFF7FEFF 		bl	driveVibrotactileFeedback
 1282              	.L63:
 507:..\src/interruptions.c ****             }
 508:..\src/interruptions.c ****     //---------------------------------- Read conversion buffer - LOCK function
 509:..\src/interruptions.c **** 
 510:..\src/interruptions.c ****     analog_read_end();
 1283              		.loc 1 510 0
 1284 06a4 FFF7FEFF 		bl	analog_read_end
 511:..\src/interruptions.c **** 
 512:..\src/interruptions.c ****     if (interrupt_flag){
 1285              		.loc 1 512 0
 1286 06a8 6D4B     		ldr	r3, .L91+12
 1287 06aa 1B78     		ldrb	r3, [r3]	@ zero_extendqisi2
 1288 06ac 002B     		cmp	r3, #0
 1289 06ae 04D0     		beq	.L66
 513:..\src/interruptions.c ****         interrupt_flag = FALSE;
 1290              		.loc 1 513 0
 1291 06b0 6B4B     		ldr	r3, .L91+12
 1292 06b2 0022     		movs	r2, #0
 1293 06b4 1A70     		strb	r2, [r3]
 514:..\src/interruptions.c ****         interrupt_manager();
 1294              		.loc 1 514 0
 1295 06b6 FFF7FEFF 		bl	interrupt_manager
 1296              	.L66:
 515:..\src/interruptions.c ****     }
 516:..\src/interruptions.c **** 
 517:..\src/interruptions.c ****     //---------------------------------- Control Overcurrent
 518:..\src/interruptions.c **** 
ARM GAS  C:\Users\mgnocco\AppData\Local\Temp\cc6peeyS.s 			page 33


 519:..\src/interruptions.c ****     overcurrent_control();
 1297              		.loc 1 519 0
 1298 06ba FFF7FEFF 		bl	overcurrent_control
 520:..\src/interruptions.c ****     
 521:..\src/interruptions.c ****     // Check Interrupt 
 522:..\src/interruptions.c ****     
 523:..\src/interruptions.c ****     if (interrupt_flag){
 1299              		.loc 1 523 0
 1300 06be 684B     		ldr	r3, .L91+12
 1301 06c0 1B78     		ldrb	r3, [r3]	@ zero_extendqisi2
 1302 06c2 002B     		cmp	r3, #0
 1303 06c4 04D0     		beq	.L67
 524:..\src/interruptions.c ****         interrupt_flag = FALSE;
 1304              		.loc 1 524 0
 1305 06c6 664B     		ldr	r3, .L91+12
 1306 06c8 0022     		movs	r2, #0
 1307 06ca 1A70     		strb	r2, [r3]
 525:..\src/interruptions.c ****         interrupt_manager();
 1308              		.loc 1 525 0
 1309 06cc FFF7FEFF 		bl	interrupt_manager
 1310              	.L67:
 526:..\src/interruptions.c ****     }
 527:..\src/interruptions.c **** 
 528:..\src/interruptions.c ****     //---------------------------------- Calibration 
 529:..\src/interruptions.c **** 
 530:..\src/interruptions.c ****     // Divider 10, freq = 500 Hz
 531:..\src/interruptions.c ****     if (calib.enabled == TRUE) {
 1311              		.loc 1 531 0
 1312 06d0 644B     		ldr	r3, .L91+16
 1313 06d2 1B78     		ldrb	r3, [r3]	@ zero_extendqisi2
 1314 06d4 012B     		cmp	r3, #1
 1315 06d6 0ED1     		bne	.L68
 532:..\src/interruptions.c ****         if (counter_calibration == CALIBRATION_DIV) {
 1316              		.loc 1 532 0
 1317 06d8 634B     		ldr	r3, .L91+20
 1318 06da 1B88     		ldrh	r3, [r3]
 1319 06dc 0A2B     		cmp	r3, #10
 1320 06de 04D1     		bne	.L69
 533:..\src/interruptions.c ****             calibration();
 1321              		.loc 1 533 0
 1322 06e0 FFF7FEFF 		bl	calibration
 534:..\src/interruptions.c ****             counter_calibration = 0;
 1323              		.loc 1 534 0
 1324 06e4 604B     		ldr	r3, .L91+20
 1325 06e6 0022     		movs	r2, #0
 1326 06e8 1A80     		strh	r2, [r3]	@ movhi
 1327              	.L69:
 535:..\src/interruptions.c ****         }
 536:..\src/interruptions.c ****         counter_calibration++;
 1328              		.loc 1 536 0
 1329 06ea 5F4B     		ldr	r3, .L91+20
 1330 06ec 1B88     		ldrh	r3, [r3]
 1331 06ee 0133     		adds	r3, r3, #1
 1332 06f0 9AB2     		uxth	r2, r3
 1333 06f2 5D4B     		ldr	r3, .L91+20
 1334 06f4 1A80     		strh	r2, [r3]	@ movhi
 1335              	.L68:
ARM GAS  C:\Users\mgnocco\AppData\Local\Temp\cc6peeyS.s 			page 34


 537:..\src/interruptions.c ****     }
 538:..\src/interruptions.c **** 
 539:..\src/interruptions.c ****     // Check Interrupt 
 540:..\src/interruptions.c ****     
 541:..\src/interruptions.c ****     if (interrupt_flag){
 1336              		.loc 1 541 0
 1337 06f6 5A4B     		ldr	r3, .L91+12
 1338 06f8 1B78     		ldrb	r3, [r3]	@ zero_extendqisi2
 1339 06fa 002B     		cmp	r3, #0
 1340 06fc 04D0     		beq	.L70
 542:..\src/interruptions.c ****         interrupt_flag = FALSE;
 1341              		.loc 1 542 0
 1342 06fe 584B     		ldr	r3, .L91+12
 1343 0700 0022     		movs	r2, #0
 1344 0702 1A70     		strb	r2, [r3]
 543:..\src/interruptions.c ****         interrupt_manager();
 1345              		.loc 1 543 0
 1346 0704 FFF7FEFF 		bl	interrupt_manager
 1347              	.L70:
 544:..\src/interruptions.c ****     }
 545:..\src/interruptions.c ****     
 546:..\src/interruptions.c ****     if (c_mem.dev.dev_type == SOFTHAND_PRO){   
 1348              		.loc 1 546 0
 1349 0708 584B     		ldr	r3, .L91+24
 1350 070a 93F8AC30 		ldrb	r3, [r3, #172]	@ zero_extendqisi2
 1351 070e 002B     		cmp	r3, #0
 1352 0710 1CD1     		bne	.L71
 547:..\src/interruptions.c ****     
 548:..\src/interruptions.c ****         //---------------------------------- Rest position check
 549:..\src/interruptions.c **** 
 550:..\src/interruptions.c ****         // Divider 10, freq = 500 Hz
 551:..\src/interruptions.c ****         if (c_mem.SH.rest_position_flag == TRUE){
 1353              		.loc 1 551 0
 1354 0712 564B     		ldr	r3, .L91+24
 1355 0714 93F8AC32 		ldrb	r3, [r3, #684]	@ zero_extendqisi2
 1356 0718 012B     		cmp	r3, #1
 1357 071a 17D1     		bne	.L71
 552:..\src/interruptions.c ****             if (counter_calibration == CALIBRATION_DIV) {
 1358              		.loc 1 552 0
 1359 071c 524B     		ldr	r3, .L91+20
 1360 071e 1B88     		ldrh	r3, [r3]
 1361 0720 0A2B     		cmp	r3, #10
 1362 0722 04D1     		bne	.L72
 553:..\src/interruptions.c ****                     check_rest_position();
 1363              		.loc 1 553 0
 1364 0724 FFF7FEFF 		bl	check_rest_position
 554:..\src/interruptions.c ****                     counter_calibration = 0;
 1365              		.loc 1 554 0
 1366 0728 4F4B     		ldr	r3, .L91+20
 1367 072a 0022     		movs	r2, #0
 1368 072c 1A80     		strh	r2, [r3]	@ movhi
 1369              	.L72:
 555:..\src/interruptions.c ****             }
 556:..\src/interruptions.c ****             counter_calibration++;
 1370              		.loc 1 556 0
 1371 072e 4E4B     		ldr	r3, .L91+20
 1372 0730 1B88     		ldrh	r3, [r3]
ARM GAS  C:\Users\mgnocco\AppData\Local\Temp\cc6peeyS.s 			page 35


 1373 0732 0133     		adds	r3, r3, #1
 1374 0734 9AB2     		uxth	r2, r3
 1375 0736 4C4B     		ldr	r3, .L91+20
 1376 0738 1A80     		strh	r2, [r3]	@ movhi
 557:..\src/interruptions.c **** 
 558:..\src/interruptions.c ****             // Check Interrupt     
 559:..\src/interruptions.c ****             if (interrupt_flag){
 1377              		.loc 1 559 0
 1378 073a 494B     		ldr	r3, .L91+12
 1379 073c 1B78     		ldrb	r3, [r3]	@ zero_extendqisi2
 1380 073e 002B     		cmp	r3, #0
 1381 0740 04D0     		beq	.L71
 560:..\src/interruptions.c ****                 interrupt_flag = FALSE;
 1382              		.loc 1 560 0
 1383 0742 474B     		ldr	r3, .L91+12
 1384 0744 0022     		movs	r2, #0
 1385 0746 1A70     		strb	r2, [r3]
 561:..\src/interruptions.c ****                 interrupt_manager();
 1386              		.loc 1 561 0
 1387 0748 FFF7FEFF 		bl	interrupt_manager
 1388              	.L71:
 562:..\src/interruptions.c ****             }
 563:..\src/interruptions.c ****         }
 564:..\src/interruptions.c ****         
 565:..\src/interruptions.c ****     }
 566:..\src/interruptions.c ****     
 567:..\src/interruptions.c ****      
 568:..\src/interruptions.c ****     //---------------------------------- EMG history Update
 569:..\src/interruptions.c ****     if (c_mem.exp.record_EMG_history_on_SD){
 1389              		.loc 1 569 0
 1390 074c 474B     		ldr	r3, .L91+24
 1391 074e 93F83432 		ldrb	r3, [r3, #564]	@ zero_extendqisi2
 1392 0752 002B     		cmp	r3, #0
 1393 0754 0AD0     		beq	.L73
 570:..\src/interruptions.c ****         
 571:..\src/interruptions.c ****         update_EMG_history();
 1394              		.loc 1 571 0
 1395 0756 FFF7FEFF 		bl	update_EMG_history
 572:..\src/interruptions.c **** 
 573:..\src/interruptions.c ****         // Check Interrupt 
 574:..\src/interruptions.c **** 
 575:..\src/interruptions.c ****         if (interrupt_flag){
 1396              		.loc 1 575 0
 1397 075a 414B     		ldr	r3, .L91+12
 1398 075c 1B78     		ldrb	r3, [r3]	@ zero_extendqisi2
 1399 075e 002B     		cmp	r3, #0
 1400 0760 04D0     		beq	.L73
 576:..\src/interruptions.c ****             interrupt_flag = FALSE;
 1401              		.loc 1 576 0
 1402 0762 3F4B     		ldr	r3, .L91+12
 1403 0764 0022     		movs	r2, #0
 1404 0766 1A70     		strb	r2, [r3]
 577:..\src/interruptions.c ****             interrupt_manager();
 1405              		.loc 1 577 0
 1406 0768 FFF7FEFF 		bl	interrupt_manager
 1407              	.L73:
 578:..\src/interruptions.c ****         }
ARM GAS  C:\Users\mgnocco\AppData\Local\Temp\cc6peeyS.s 			page 36


 579:..\src/interruptions.c ****     }
 580:..\src/interruptions.c **** 
 581:..\src/interruptions.c ****     
 582:..\src/interruptions.c ****     //---------------------------------- Control Cycles Counter
 583:..\src/interruptions.c **** 
 584:..\src/interruptions.c ****     if (pos_reconstruct[c_mem.motor[0].encoder_line]){      // Once Motor 0 encoder line reading is
 1408              		.loc 1 584 0
 1409 076c 3F4B     		ldr	r3, .L91+24
 1410 076e 93F81031 		ldrb	r3, [r3, #272]	@ zero_extendqisi2
 1411 0772 1A46     		mov	r2, r3
 1412 0774 3E4B     		ldr	r3, .L91+28
 1413 0776 9B5C     		ldrb	r3, [r3, r2]	@ zero_extendqisi2
 1414 0778 002B     		cmp	r3, #0
 1415 077a 01D0     		beq	.L74
 585:..\src/interruptions.c ****         cycles_counter_update();                            // Need at least one encoder to work
 1416              		.loc 1 585 0
 1417 077c FFF7FEFF 		bl	cycles_counter_update
 1418              	.L74:
 586:..\src/interruptions.c ****     }
 587:..\src/interruptions.c **** 
 588:..\src/interruptions.c ****     // Check Cycles Interrupt 
 589:..\src/interruptions.c ****     
 590:..\src/interruptions.c ****     if (cycles_interrupt_flag){
 1419              		.loc 1 590 0
 1420 0780 3C4B     		ldr	r3, .L91+32
 1421 0782 1B78     		ldrb	r3, [r3]	@ zero_extendqisi2
 1422 0784 002B     		cmp	r3, #0
 1423 0786 00F0A280 		beq	.L75
 591:..\src/interruptions.c ****         cycles_interrupt_flag = FALSE;
 1424              		.loc 1 591 0
 1425 078a 3A4B     		ldr	r3, .L91+32
 1426 078c 0022     		movs	r2, #0
 1427 078e 1A70     		strb	r2, [r3]
 592:..\src/interruptions.c **** 
 593:..\src/interruptions.c ****         // Cycles are written only every 120 seconds (CYCLES_TIMER interrupt)
 594:..\src/interruptions.c ****         // to save EEPROM writings (1M maximum)
 595:..\src/interruptions.c ****         if(can_write) {
 1428              		.loc 1 595 0
 1429 0790 394B     		ldr	r3, .L91+36
 1430 0792 1B78     		ldrb	r3, [r3]	@ zero_extendqisi2
 1431 0794 002B     		cmp	r3, #0
 1432 0796 54D0     		beq	.L76
 596:..\src/interruptions.c ****             cycles_status = PREPARE_DATA;
 1433              		.loc 1 596 0
 1434 0798 384B     		ldr	r3, .L91+40
 1435 079a 0022     		movs	r2, #0
 1436 079c 1A70     		strb	r2, [r3]
 597:..\src/interruptions.c ****             
 598:..\src/interruptions.c ****             //Update time variable
 599:..\src/interruptions.c ****             g_mem.cnt.total_runtime = g_mem.cnt.total_runtime + 120;  // Add 120 seconds.
 1437              		.loc 1 599 0
 1438 079e 384B     		ldr	r3, .L91+44
 1439 07a0 9B6D     		ldr	r3, [r3, #88]
 1440 07a2 7833     		adds	r3, r3, #120
 1441 07a4 364A     		ldr	r2, .L91+44
 1442 07a6 9365     		str	r3, [r2, #88]
 600:..\src/interruptions.c ****             
ARM GAS  C:\Users\mgnocco\AppData\Local\Temp\cc6peeyS.s 			page 37


 601:..\src/interruptions.c ****             if (c_mem.exp.read_exp_port_flag == EXP_SD_RTC) {
 1443              		.loc 1 601 0
 1444 07a8 304B     		ldr	r3, .L91+24
 1445 07aa 93F82632 		ldrb	r3, [r3, #550]	@ zero_extendqisi2
 1446 07ae 012B     		cmp	r3, #1
 1447 07b0 47D1     		bne	.L76
 602:..\src/interruptions.c ****                 
 603:..\src/interruptions.c ****                 store_RTC_current_time();
 1448              		.loc 1 603 0
 1449 07b2 FFF7FEFF 		bl	store_RTC_current_time
 604:..\src/interruptions.c ****                 
 605:..\src/interruptions.c ****                 //Write in SD card
 606:..\src/interruptions.c ****                 prepare_SD_info(info_);
 1450              		.loc 1 606 0
 1451 07b6 07F56A53 		add	r3, r7, #14976
 1452 07ba 03F11C03 		add	r3, r3, #28
 1453 07be 1846     		mov	r0, r3
 1454 07c0 FFF7FEFF 		bl	prepare_SD_info
 607:..\src/interruptions.c ****                 FS_Write(pFile, info_, strlen(info_));
 1455              		.loc 1 607 0
 1456 07c4 2F4B     		ldr	r3, .L91+48
 1457 07c6 1C68     		ldr	r4, [r3]
 1458 07c8 07F56A53 		add	r3, r7, #14976
 1459 07cc 03F11C03 		add	r3, r3, #28
 1460 07d0 1846     		mov	r0, r3
 1461 07d2 FFF7FEFF 		bl	strlen
 1462 07d6 0246     		mov	r2, r0
 1463 07d8 07F56A53 		add	r3, r7, #14976
 1464 07dc 03F11C03 		add	r3, r3, #28
 1465 07e0 1946     		mov	r1, r3
 1466 07e2 2046     		mov	r0, r4
 1467 07e4 FFF7FEFF 		bl	FS_Write
 608:..\src/interruptions.c ****                 
 609:..\src/interruptions.c ****                 if (c_mem.exp.record_EMG_history_on_SD){
 1468              		.loc 1 609 0
 1469 07e8 204B     		ldr	r3, .L91+24
 1470 07ea 93F83432 		ldrb	r3, [r3, #564]	@ zero_extendqisi2
 1471 07ee 002B     		cmp	r3, #0
 1472 07f0 27D0     		beq	.L76
 1473              	.LBB3:
 610:..\src/interruptions.c ****                     char EMG_history_info_[15000] = "";
 1474              		.loc 1 610 0
 1475 07f2 07F16803 		add	r3, r7, #104
 1476 07f6 643B     		subs	r3, r3, #100
 1477 07f8 0022     		movs	r2, #0
 1478 07fa 1A60     		str	r2, [r3]
 1479 07fc 0433     		adds	r3, r3, #4
 1480 07fe 43F69422 		movw	r2, #14996
 1481 0802 0021     		movs	r1, #0
 1482 0804 1846     		mov	r0, r3
 1483 0806 FFF7FEFF 		bl	memset
 611:..\src/interruptions.c ****                     strcpy(EMG_history_info_, "");
 1484              		.loc 1 611 0
 1485 080a 1F4B     		ldr	r3, .L91+52
 1486 080c 1A78     		ldrb	r2, [r3]	@ zero_extendqisi2
 1487 080e 07F16803 		add	r3, r7, #104
 1488 0812 643B     		subs	r3, r3, #100
ARM GAS  C:\Users\mgnocco\AppData\Local\Temp\cc6peeyS.s 			page 38


 1489 0814 1A70     		strb	r2, [r3]
 612:..\src/interruptions.c ****                     prepare_SD_EMG_history(EMG_history_info_);
 1490              		.loc 1 612 0
 1491 0816 07F16803 		add	r3, r7, #104
 1492 081a 643B     		subs	r3, r3, #100
 1493 081c 1846     		mov	r0, r3
 1494 081e FFF7FEFF 		bl	prepare_SD_EMG_history
 613:..\src/interruptions.c ****                     FS_Write(pEMGHFile, EMG_history_info_, strlen(EMG_history_info_));
 1495              		.loc 1 613 0
 1496 0822 1A4B     		ldr	r3, .L91+56
 1497 0824 1C68     		ldr	r4, [r3]
 1498 0826 07F16803 		add	r3, r7, #104
 1499 082a 643B     		subs	r3, r3, #100
 1500 082c 1846     		mov	r0, r3
 1501 082e FFF7FEFF 		bl	strlen
 1502 0832 0246     		mov	r2, r0
 1503 0834 07F16803 		add	r3, r7, #104
 1504 0838 643B     		subs	r3, r3, #100
 1505 083a 1946     		mov	r1, r3
 1506 083c 2046     		mov	r0, r4
 1507 083e FFF7FEFF 		bl	FS_Write
 1508              	.L76:
 1509              	.LBE3:
 614:..\src/interruptions.c ****                 }
 615:..\src/interruptions.c ****             }
 616:..\src/interruptions.c ****         }
 617:..\src/interruptions.c ****         
 618:..\src/interruptions.c ****         // Deactivate the motor just for the time data are written in the EEPROM
 619:..\src/interruptions.c ****         if (cycles_status == WRITE_CYCLES || cycles_status == WAIT_QUERY){
 1510              		.loc 1 619 0
 1511 0842 0E4B     		ldr	r3, .L91+40
 1512 0844 1B78     		ldrb	r3, [r3]	@ zero_extendqisi2
 1513 0846 012B     		cmp	r3, #1
 1514 0848 22D0     		beq	.L77
 1515              		.loc 1 619 0 is_stmt 0 discriminator 1
 1516 084a 0C4B     		ldr	r3, .L91+40
 1517 084c 1B78     		ldrb	r3, [r3]	@ zero_extendqisi2
 1518 084e 022B     		cmp	r3, #2
 1519 0850 2CD1     		bne	.L78
 1520 0852 1DE0     		b	.L92
 1521              	.L93:
 1522              		.align	2
 1523              	.L91:
 1524 0854 00000000 		.word	g_imu
 1525 0858 286B6E4E 		.word	1315859240
 1526 085c 00000000 		.word	accelerometer_matrix
 1527 0860 00000000 		.word	interrupt_flag
 1528 0864 00000000 		.word	calib
 1529 0868 00000000 		.word	counter_calibration.10554
 1530 086c 00000000 		.word	c_mem
 1531 0870 00000000 		.word	pos_reconstruct
 1532 0874 00000000 		.word	cycles_interrupt_flag
 1533 0878 00000000 		.word	can_write
 1534 087c 00000000 		.word	cycles_status
 1535 0880 00000000 		.word	g_mem
 1536 0884 00000000 		.word	pFile
 1537 0888 20000000 		.word	.LC0
ARM GAS  C:\Users\mgnocco\AppData\Local\Temp\cc6peeyS.s 			page 39


 1538 088c 00000000 		.word	pEMGHFile
 1539              	.L92:
 1540              	.L77:
 620:..\src/interruptions.c ****             // Deactivate motors
 621:..\src/interruptions.c ****             enable_motor(0, 0x00); 
 1541              		.loc 1 621 0 is_stmt 1
 1542 0890 0021     		movs	r1, #0
 1543 0892 0020     		movs	r0, #0
 1544 0894 FFF7FEFF 		bl	enable_motor
 622:..\src/interruptions.c ****             if (g_mem.dev.use_2nd_motor_flag == TRUE) {
 1545              		.loc 1 622 0
 1546 0898 4D4B     		ldr	r3, .L94
 1547 089a 93F8A930 		ldrb	r3, [r3, #169]	@ zero_extendqisi2
 1548 089e 012B     		cmp	r3, #1
 1549 08a0 15D1     		bne	.L75
 623:..\src/interruptions.c ****                 enable_motor(1, 0x00); 
 1550              		.loc 1 623 0
 1551 08a2 0021     		movs	r1, #0
 1552 08a4 0120     		movs	r0, #1
 1553 08a6 FFF7FEFF 		bl	enable_motor
 622:..\src/interruptions.c ****             if (g_mem.dev.use_2nd_motor_flag == TRUE) {
 1554              		.loc 1 622 0
 1555 08aa 10E0     		b	.L75
 1556              	.L78:
 624:..\src/interruptions.c ****             }
 625:..\src/interruptions.c ****         }
 626:..\src/interruptions.c ****         else {
 627:..\src/interruptions.c ****             // Activate/Deactivate motors
 628:..\src/interruptions.c ****             enable_motor(0, g_ref[0].onoff); 
 1557              		.loc 1 628 0
 1558 08ac 494B     		ldr	r3, .L94+4
 1559 08ae 1B7B     		ldrb	r3, [r3, #12]	@ zero_extendqisi2
 1560 08b0 1946     		mov	r1, r3
 1561 08b2 0020     		movs	r0, #0
 1562 08b4 FFF7FEFF 		bl	enable_motor
 629:..\src/interruptions.c ****             if (g_mem.dev.use_2nd_motor_flag == TRUE) {
 1563              		.loc 1 629 0
 1564 08b8 454B     		ldr	r3, .L94
 1565 08ba 93F8A930 		ldrb	r3, [r3, #169]	@ zero_extendqisi2
 1566 08be 012B     		cmp	r3, #1
 1567 08c0 05D1     		bne	.L75
 630:..\src/interruptions.c ****                 enable_motor(1, g_ref[1].onoff); 
 1568              		.loc 1 630 0
 1569 08c2 444B     		ldr	r3, .L94+4
 1570 08c4 1B7F     		ldrb	r3, [r3, #28]	@ zero_extendqisi2
 1571 08c6 1946     		mov	r1, r3
 1572 08c8 0120     		movs	r0, #1
 1573 08ca FFF7FEFF 		bl	enable_motor
 1574              	.L75:
 631:..\src/interruptions.c ****             }
 632:..\src/interruptions.c ****         }
 633:..\src/interruptions.c ****     }
 634:..\src/interruptions.c ****     
 635:..\src/interruptions.c ****     // Check Interrupt 
 636:..\src/interruptions.c ****     
 637:..\src/interruptions.c ****     if (interrupt_flag){
 1575              		.loc 1 637 0
ARM GAS  C:\Users\mgnocco\AppData\Local\Temp\cc6peeyS.s 			page 40


 1576 08ce 424B     		ldr	r3, .L94+8
 1577 08d0 1B78     		ldrb	r3, [r3]	@ zero_extendqisi2
 1578 08d2 002B     		cmp	r3, #0
 1579 08d4 04D0     		beq	.L80
 638:..\src/interruptions.c ****         interrupt_flag = FALSE;
 1580              		.loc 1 638 0
 1581 08d6 404B     		ldr	r3, .L94+8
 1582 08d8 0022     		movs	r2, #0
 1583 08da 1A70     		strb	r2, [r3]
 639:..\src/interruptions.c ****         interrupt_manager();
 1584              		.loc 1 639 0
 1585 08dc FFF7FEFF 		bl	interrupt_manager
 1586              	.L80:
 640:..\src/interruptions.c ****     }
 641:..\src/interruptions.c ****     
 642:..\src/interruptions.c ****     
 643:..\src/interruptions.c ****     //---------------------------------- Check battery
 644:..\src/interruptions.c **** 
 645:..\src/interruptions.c ****     // Divider 10, freq = 500 Hz
 646:..\src/interruptions.c ****     if (counter_tension_func == CALIBRATION_DIV) {
 1587              		.loc 1 646 0
 1588 08e0 3E4B     		ldr	r3, .L94+12
 1589 08e2 1B88     		ldrh	r3, [r3]
 1590 08e4 0A2B     		cmp	r3, #10
 1591 08e6 04D1     		bne	.L81
 647:..\src/interruptions.c ****         battery_management();   
 1592              		.loc 1 647 0
 1593 08e8 FFF7FEFF 		bl	battery_management
 648:..\src/interruptions.c ****         counter_tension_func = 0;
 1594              		.loc 1 648 0
 1595 08ec 3B4B     		ldr	r3, .L94+12
 1596 08ee 0022     		movs	r2, #0
 1597 08f0 1A80     		strh	r2, [r3]	@ movhi
 1598              	.L81:
 649:..\src/interruptions.c ****     }
 650:..\src/interruptions.c ****     counter_tension_func++;
 1599              		.loc 1 650 0
 1600 08f2 3A4B     		ldr	r3, .L94+12
 1601 08f4 1B88     		ldrh	r3, [r3]
 1602 08f6 0133     		adds	r3, r3, #1
 1603 08f8 9AB2     		uxth	r2, r3
 1604 08fa 384B     		ldr	r3, .L94+12
 1605 08fc 1A80     		strh	r2, [r3]	@ movhi
 651:..\src/interruptions.c **** 
 652:..\src/interruptions.c ****     // Check Interrupt 
 653:..\src/interruptions.c ****     
 654:..\src/interruptions.c ****     if (interrupt_flag){
 1606              		.loc 1 654 0
 1607 08fe 364B     		ldr	r3, .L94+8
 1608 0900 1B78     		ldrb	r3, [r3]	@ zero_extendqisi2
 1609 0902 002B     		cmp	r3, #0
 1610 0904 04D0     		beq	.L82
 655:..\src/interruptions.c ****         interrupt_flag = FALSE;
 1611              		.loc 1 655 0
 1612 0906 344B     		ldr	r3, .L94+8
 1613 0908 0022     		movs	r2, #0
 1614 090a 1A70     		strb	r2, [r3]
ARM GAS  C:\Users\mgnocco\AppData\Local\Temp\cc6peeyS.s 			page 41


 656:..\src/interruptions.c ****         interrupt_manager();
 1615              		.loc 1 656 0
 1616 090c FFF7FEFF 		bl	interrupt_manager
 1617              	.L82:
 657:..\src/interruptions.c ****     }
 658:..\src/interruptions.c ****    
 659:..\src/interruptions.c **** 
 660:..\src/interruptions.c ****    
 661:..\src/interruptions.c ****     //---------------------------------- Update States
 662:..\src/interruptions.c ****     
 663:..\src/interruptions.c ****     // Load k-1 state
 664:..\src/interruptions.c ****     memcpy( &g_adc_measOld, &g_adc_meas, sizeof(g_adc_meas) );
 1618              		.loc 1 664 0
 1619 0910 334A     		ldr	r2, .L94+16
 1620 0912 344B     		ldr	r3, .L94+20
 1621 0914 1446     		mov	r4, r2
 1622 0916 1D46     		mov	r5, r3
 1623 0918 0FCD     		ldmia	r5!, {r0, r1, r2, r3}
 1624 091a 0FC4     		stmia	r4!, {r0, r1, r2, r3}
 1625 091c 0FCD     		ldmia	r5!, {r0, r1, r2, r3}
 1626 091e 0FC4     		stmia	r4!, {r0, r1, r2, r3}
 1627 0920 95E80300 		ldmia	r5, {r0, r1}
 1628 0924 84E80300 		stmia	r4, {r0, r1}
 665:..\src/interruptions.c ****     memcpy( &g_measOld, &g_meas, sizeof(g_meas) );
 1629              		.loc 1 665 0
 1630 0928 2F4A     		ldr	r2, .L94+24
 1631 092a 304B     		ldr	r3, .L94+28
 1632 092c 1046     		mov	r0, r2
 1633 092e 1946     		mov	r1, r3
 1634 0930 6823     		movs	r3, #104
 1635 0932 1A46     		mov	r2, r3
 1636 0934 FFF7FEFF 		bl	memcpy
 666:..\src/interruptions.c ****     memcpy( &g_refOld, &g_ref, sizeof(g_ref) );
 1637              		.loc 1 666 0
 1638 0938 2D4A     		ldr	r2, .L94+32
 1639 093a 264B     		ldr	r3, .L94+4
 1640 093c 1446     		mov	r4, r2
 1641 093e 1D46     		mov	r5, r3
 1642 0940 0FCD     		ldmia	r5!, {r0, r1, r2, r3}
 1643 0942 0FC4     		stmia	r4!, {r0, r1, r2, r3}
 1644 0944 95E80F00 		ldmia	r5, {r0, r1, r2, r3}
 1645 0948 84E80F00 		stmia	r4, {r0, r1, r2, r3}
 667:..\src/interruptions.c **** 
 668:..\src/interruptions.c ****     // Load k+1 state        
 669:..\src/interruptions.c ****     memcpy( &g_ref, &g_refNew, sizeof(g_ref) );
 1646              		.loc 1 669 0
 1647 094c 214A     		ldr	r2, .L94+4
 1648 094e 294B     		ldr	r3, .L94+36
 1649 0950 1446     		mov	r4, r2
 1650 0952 1D46     		mov	r5, r3
 1651 0954 0FCD     		ldmia	r5!, {r0, r1, r2, r3}
 1652 0956 0FC4     		stmia	r4!, {r0, r1, r2, r3}
 1653 0958 95E80F00 		ldmia	r5, {r0, r1, r2, r3}
 1654 095c 84E80F00 		stmia	r4, {r0, r1, r2, r3}
 670:..\src/interruptions.c ****     memcpy( &g_imu, &g_imuNew, sizeof(g_imu) );
 1655              		.loc 1 670 0
 1656 0960 254A     		ldr	r2, .L94+40
ARM GAS  C:\Users\mgnocco\AppData\Local\Temp\cc6peeyS.s 			page 42


 1657 0962 264B     		ldr	r3, .L94+44
 1658 0964 1046     		mov	r0, r2
 1659 0966 1946     		mov	r1, r3
 1660 0968 C823     		movs	r3, #200
 1661 096a 1A46     		mov	r2, r3
 1662 096c FFF7FEFF 		bl	memcpy
 671:..\src/interruptions.c ****     memcpy( &g_ref_vibrotactile, &g_refNew_vibrotactile, sizeof(g_ref_vibrotactile) );    
 1663              		.loc 1 671 0
 1664 0970 234B     		ldr	r3, .L94+48
 1665 0972 244A     		ldr	r2, .L94+52
 1666 0974 92E80300 		ldmia	r2, {r0, r1}
 1667 0978 83E80300 		stmia	r3, {r0, r1}
 672:..\src/interruptions.c ****     
 673:..\src/interruptions.c ****     if (interrupt_flag){
 1668              		.loc 1 673 0
 1669 097c 164B     		ldr	r3, .L94+8
 1670 097e 1B78     		ldrb	r3, [r3]	@ zero_extendqisi2
 1671 0980 002B     		cmp	r3, #0
 1672 0982 04D0     		beq	.L83
 674:..\src/interruptions.c ****         interrupt_flag = FALSE;
 1673              		.loc 1 674 0
 1674 0984 144B     		ldr	r3, .L94+8
 1675 0986 0022     		movs	r2, #0
 1676 0988 1A70     		strb	r2, [r3]
 675:..\src/interruptions.c ****         interrupt_manager();
 1677              		.loc 1 675 0
 1678 098a FFF7FEFF 		bl	interrupt_manager
 1679              	.L83:
 676:..\src/interruptions.c ****     }
 677:..\src/interruptions.c **** 
 678:..\src/interruptions.c ****     timer_value = (uint16)MY_TIMER_ReadCounter();
 1680              		.loc 1 678 0
 1681 098e FFF7FEFF 		bl	MY_TIMER_ReadCounter
 1682 0992 0346     		mov	r3, r0
 1683 0994 1A46     		mov	r2, r3
 1684 0996 1C4B     		ldr	r3, .L94+56
 1685 0998 1A80     		strh	r2, [r3]	@ movhi
 679:..\src/interruptions.c ****     cycle_time = ((float)(timer_value0 - timer_value)/1000000.0);
 1686              		.loc 1 679 0
 1687 099a 1C4B     		ldr	r3, .L94+60
 1688 099c 1B88     		ldrh	r3, [r3]
 1689 099e 1A46     		mov	r2, r3
 1690 09a0 194B     		ldr	r3, .L94+56
 1691 09a2 1B88     		ldrh	r3, [r3]
 1692 09a4 D31A     		subs	r3, r2, r3
 1693 09a6 1846     		mov	r0, r3
 1694 09a8 FFF7FEFF 		bl	__aeabi_i2f
 1695 09ac 0346     		mov	r3, r0
 1696 09ae 1849     		ldr	r1, .L94+64
 1697 09b0 1846     		mov	r0, r3
 1698 09b2 FFF7FEFF 		bl	__aeabi_fdiv
 1699 09b6 0346     		mov	r3, r0
 1700 09b8 1A46     		mov	r2, r3
 1701 09ba 164B     		ldr	r3, .L94+68
 1702 09bc 1A60     		str	r2, [r3]	@ float
 680:..\src/interruptions.c ****     MY_TIMER_REG_Write(0x01);   // reset timer
 1703              		.loc 1 680 0
ARM GAS  C:\Users\mgnocco\AppData\Local\Temp\cc6peeyS.s 			page 43


 1704 09be 0120     		movs	r0, #1
 1705 09c0 FFF7FEFF 		bl	MY_TIMER_REG_Write
 681:..\src/interruptions.c **** 
 682:..\src/interruptions.c **** }
 1706              		.loc 1 682 0
 1707 09c4 00BF     		nop
 1708 09c6 07F58847 		add	r7, r7, #17408
 1709 09ca 6837     		adds	r7, r7, #104
 1710              		.cfi_def_cfa_offset 16
 1711 09cc BD46     		mov	sp, r7
 1712              		.cfi_def_cfa_register 13
 1713              		@ sp needed
 1714 09ce B0BD     		pop	{r4, r5, r7, pc}
 1715              	.L95:
 1716              		.align	2
 1717              	.L94:
 1718 09d0 00000000 		.word	g_mem
 1719 09d4 00000000 		.word	g_ref
 1720 09d8 00000000 		.word	interrupt_flag
 1721 09dc 02000000 		.word	counter_tension_func.10555
 1722 09e0 00000000 		.word	g_adc_measOld
 1723 09e4 00000000 		.word	g_adc_meas
 1724 09e8 00000000 		.word	g_measOld
 1725 09ec 00000000 		.word	g_meas
 1726 09f0 00000000 		.word	g_refOld
 1727 09f4 00000000 		.word	g_refNew
 1728 09f8 00000000 		.word	g_imu
 1729 09fc 00000000 		.word	g_imuNew
 1730 0a00 00000000 		.word	g_ref_vibrotactile
 1731 0a04 00000000 		.word	g_refNew_vibrotactile
 1732 0a08 00000000 		.word	timer_value
 1733 0a0c 00000000 		.word	timer_value0
 1734 0a10 00247449 		.word	1232348160
 1735 0a14 00000000 		.word	cycle_time
 1736              		.cfi_endproc
 1737              	.LFE67:
 1738              		.size	function_scheduler, .-function_scheduler
 1739              		.section	.text.compute_reference,"ax",%progbits
 1740              		.align	2
 1741              		.global	compute_reference
 1742              		.thumb
 1743              		.thumb_func
 1744              		.type	compute_reference, %function
 1745              	compute_reference:
 1746              	.LFB68:
 683:..\src/interruptions.c **** 
 684:..\src/interruptions.c **** //==============================================================================
 685:..\src/interruptions.c **** //                                                       COMPUTE MOTOR REFERENCE
 686:..\src/interruptions.c **** //==============================================================================
 687:..\src/interruptions.c **** void compute_reference(uint8 motor_idx, struct st_ref* st_ref_p, struct st_ref* st_refOld_p) {
 1747              		.loc 1 687 0
 1748              		.cfi_startproc
 1749              		@ args = 0, pretend = 0, frame = 40
 1750              		@ frame_needed = 1, uses_anonymous_args = 0
 1751 0000 80B5     		push	{r7, lr}
 1752              		.cfi_def_cfa_offset 8
 1753              		.cfi_offset 7, -8
ARM GAS  C:\Users\mgnocco\AppData\Local\Temp\cc6peeyS.s 			page 44


 1754              		.cfi_offset 14, -4
 1755 0002 8CB0     		sub	sp, sp, #48
 1756              		.cfi_def_cfa_offset 56
 1757 0004 02AF     		add	r7, sp, #8
 1758              		.cfi_def_cfa 7, 48
 1759 0006 0346     		mov	r3, r0
 1760 0008 B960     		str	r1, [r7, #8]
 1761 000a 7A60     		str	r2, [r7, #4]
 1762 000c FB73     		strb	r3, [r7, #15]
 688:..\src/interruptions.c ****     
 689:..\src/interruptions.c ****     int32 CYDATA handle_value;
 690:..\src/interruptions.c ****     int32 CYDATA err_emg_1, err_emg_2;
 691:..\src/interruptions.c ****     struct st_motor* MOT = &c_mem.motor[motor_idx];      // SoftHand default motor
 1763              		.loc 1 691 0
 1764 000e FA7B     		ldrb	r2, [r7, #15]	@ zero_extendqisi2
 1765 0010 1346     		mov	r3, r2
 1766 0012 DB00     		lsls	r3, r3, #3
 1767 0014 9B1A     		subs	r3, r3, r2
 1768 0016 1B01     		lsls	r3, r3, #4
 1769 0018 B033     		adds	r3, r3, #176
 1770 001a A74A     		ldr	r2, .L160
 1771 001c 1344     		add	r3, r3, r2
 1772 001e 3B62     		str	r3, [r7, #32]
 692:..\src/interruptions.c ****     uint8 ENC_L = MOT->encoder_line;          // Associated encoder line
 1773              		.loc 1 692 0
 1774 0020 3B6A     		ldr	r3, [r7, #32]
 1775 0022 93F86030 		ldrb	r3, [r3, #96]
 1776 0026 FB77     		strb	r3, [r7, #31]
 693:..\src/interruptions.c ****     
 694:..\src/interruptions.c ****     static uint8 current_emg[NUM_OF_MOTORS] = {0, 0};   // 0 NONE
 695:..\src/interruptions.c ****                                                         // 1 EMG 1
 696:..\src/interruptions.c ****                                                         // 2 EMG 2
 697:..\src/interruptions.c ****                                                         // wait for both to get down
 698:..\src/interruptions.c ****     
 699:..\src/interruptions.c ****     err_emg_1 = g_adc_meas.emg[0] - c_mem.emg.emg_threshold[0];
 1777              		.loc 1 699 0
 1778 0028 A44B     		ldr	r3, .L160+4
 1779 002a 1B68     		ldr	r3, [r3]
 1780 002c A24A     		ldr	r2, .L160
 1781 002e B2F8F021 		ldrh	r2, [r2, #496]
 1782 0032 9B1A     		subs	r3, r3, r2
 1783 0034 BB61     		str	r3, [r7, #24]
 700:..\src/interruptions.c ****     err_emg_2 = g_adc_meas.emg[1] - c_mem.emg.emg_threshold[1];
 1784              		.loc 1 700 0
 1785 0036 A14B     		ldr	r3, .L160+4
 1786 0038 5B68     		ldr	r3, [r3, #4]
 1787 003a 9F4A     		ldr	r2, .L160
 1788 003c B2F8F221 		ldrh	r2, [r2, #498]
 1789 0040 9B1A     		subs	r3, r3, r2
 1790 0042 7B61     		str	r3, [r7, #20]
 701:..\src/interruptions.c ****     
 702:..\src/interruptions.c ****      // =========================== POSITION INPUT ==============================            
 703:..\src/interruptions.c ****     switch(MOT->input_mode) {
 1791              		.loc 1 703 0
 1792 0044 3B6A     		ldr	r3, [r7, #32]
 1793 0046 93F85E30 		ldrb	r3, [r3, #94]	@ zero_extendqisi2
 1794 004a 013B     		subs	r3, r3, #1
ARM GAS  C:\Users\mgnocco\AppData\Local\Temp\cc6peeyS.s 			page 45


 1795 004c 062B     		cmp	r3, #6
 1796 004e 00F25182 		bhi	.L152
 1797 0052 01A2     		adr	r2, .L99
 1798 0054 52F823F0 		ldr	pc, [r2, r3, lsl #2]
 1799              		.p2align 2
 1800              	.L99:
 1801 0058 75000000 		.word	.L98+1
 1802 005c 21020000 		.word	.L100+1
 1803 0060 C9020000 		.word	.L101+1
 1804 0064 31030000 		.word	.L102+1
 1805 0068 11040000 		.word	.L103+1
 1806 006c 4D010000 		.word	.L104+1
 1807 0070 5B020000 		.word	.L105+1
 1808              		.p2align 1
 1809              	.L98:
 704:..\src/interruptions.c ****         case INPUT_MODE_ENCODER3:
 705:..\src/interruptions.c **** 
 706:..\src/interruptions.c ****             // Calculate handle value based on position of handle in the
 707:..\src/interruptions.c ****             // sensor chain and multiplication factor between handle and motor position
 708:..\src/interruptions.c ****             if (c_mem.enc[ENC_L].double_encoder_on_off) 
 1810              		.loc 1 708 0
 1811 0074 FA7F     		ldrb	r2, [r7, #31]	@ zero_extendqisi2
 1812 0076 9049     		ldr	r1, .L160
 1813 0078 1346     		mov	r3, r2
 1814 007a 5B00     		lsls	r3, r3, #1
 1815 007c 1344     		add	r3, r3, r2
 1816 007e 1B01     		lsls	r3, r3, #4
 1817 0080 0B44     		add	r3, r3, r1
 1818 0082 03F5D873 		add	r3, r3, #432
 1819 0086 1B78     		ldrb	r3, [r3]	@ zero_extendqisi2
 1820 0088 002B     		cmp	r3, #0
 1821 008a 19D0     		beq	.L106
 709:..\src/interruptions.c ****                 handle_value = (g_meas[ENC_L].pos[2] * c_mem.enc[ENC_L].motor_handle_ratio) + MOT->
 1822              		.loc 1 709 0
 1823 008c FB7F     		ldrb	r3, [r7, #31]	@ zero_extendqisi2
 1824 008e 8C4A     		ldr	r2, .L160+8
 1825 0090 3421     		movs	r1, #52
 1826 0092 01FB03F3 		mul	r3, r1, r3
 1827 0096 1344     		add	r3, r3, r2
 1828 0098 0833     		adds	r3, r3, #8
 1829 009a 1968     		ldr	r1, [r3]
 1830 009c FA7F     		ldrb	r2, [r7, #31]	@ zero_extendqisi2
 1831 009e 8648     		ldr	r0, .L160
 1832 00a0 1346     		mov	r3, r2
 1833 00a2 5B00     		lsls	r3, r3, #1
 1834 00a4 1344     		add	r3, r3, r2
 1835 00a6 1B01     		lsls	r3, r3, #4
 1836 00a8 0344     		add	r3, r3, r0
 1837 00aa 03F5DA73 		add	r3, r3, #436
 1838 00ae 93F90030 		ldrsb	r3, [r3]
 1839 00b2 03FB01F2 		mul	r2, r3, r1
 1840 00b6 3B6A     		ldr	r3, [r7, #32]
 1841 00b8 5B6B     		ldr	r3, [r3, #52]
 1842 00ba 1344     		add	r3, r3, r2
 1843 00bc 7B62     		str	r3, [r7, #36]
 1844 00be 18E0     		b	.L107
 1845              	.L106:
ARM GAS  C:\Users\mgnocco\AppData\Local\Temp\cc6peeyS.s 			page 46


 710:..\src/interruptions.c ****             else
 711:..\src/interruptions.c ****                 handle_value = (g_meas[ENC_L].pos[1] * c_mem.enc[ENC_L].motor_handle_ratio) + MOT->
 1846              		.loc 1 711 0
 1847 00c0 FB7F     		ldrb	r3, [r7, #31]	@ zero_extendqisi2
 1848 00c2 7F4A     		ldr	r2, .L160+8
 1849 00c4 3421     		movs	r1, #52
 1850 00c6 01FB03F3 		mul	r3, r1, r3
 1851 00ca 1344     		add	r3, r3, r2
 1852 00cc 0433     		adds	r3, r3, #4
 1853 00ce 1968     		ldr	r1, [r3]
 1854 00d0 FA7F     		ldrb	r2, [r7, #31]	@ zero_extendqisi2
 1855 00d2 7948     		ldr	r0, .L160
 1856 00d4 1346     		mov	r3, r2
 1857 00d6 5B00     		lsls	r3, r3, #1
 1858 00d8 1344     		add	r3, r3, r2
 1859 00da 1B01     		lsls	r3, r3, #4
 1860 00dc 0344     		add	r3, r3, r0
 1861 00de 03F5DA73 		add	r3, r3, #436
 1862 00e2 93F90030 		ldrsb	r3, [r3]
 1863 00e6 03FB01F2 		mul	r2, r3, r1
 1864 00ea 3B6A     		ldr	r3, [r7, #32]
 1865 00ec 5B6B     		ldr	r3, [r3, #52]
 1866 00ee 1344     		add	r3, r3, r2
 1867 00f0 7B62     		str	r3, [r7, #36]
 1868              	.L107:
 712:..\src/interruptions.c ****             
 713:..\src/interruptions.c **** 
 714:..\src/interruptions.c ****             // Read handle and use it as reference for the motor
 715:..\src/interruptions.c ****             if (((handle_value - st_refOld_p->pos) > MOT->max_step_pos) && (MOT->max_step_pos != 0)
 1869              		.loc 1 715 0
 1870 00f2 7B68     		ldr	r3, [r7, #4]
 1871 00f4 1B68     		ldr	r3, [r3]
 1872 00f6 7A6A     		ldr	r2, [r7, #36]
 1873 00f8 D21A     		subs	r2, r2, r3
 1874 00fa 3B6A     		ldr	r3, [r7, #32]
 1875 00fc 1B6C     		ldr	r3, [r3, #64]
 1876 00fe 9A42     		cmp	r2, r3
 1877 0100 0BDD     		ble	.L108
 1878              		.loc 1 715 0 is_stmt 0 discriminator 1
 1879 0102 3B6A     		ldr	r3, [r7, #32]
 1880 0104 1B6C     		ldr	r3, [r3, #64]
 1881 0106 002B     		cmp	r3, #0
 1882 0108 07D0     		beq	.L108
 716:..\src/interruptions.c ****                 st_ref_p->pos += MOT->max_step_pos;
 1883              		.loc 1 716 0 is_stmt 1
 1884 010a BB68     		ldr	r3, [r7, #8]
 1885 010c 1A68     		ldr	r2, [r3]
 1886 010e 3B6A     		ldr	r3, [r7, #32]
 1887 0110 1B6C     		ldr	r3, [r3, #64]
 1888 0112 1A44     		add	r2, r2, r3
 1889 0114 BB68     		ldr	r3, [r7, #8]
 1890 0116 1A60     		str	r2, [r3]
 1891 0118 17E0     		b	.L109
 1892              	.L108:
 717:..\src/interruptions.c ****             else {
 718:..\src/interruptions.c ****                 if (((handle_value - st_refOld_p->pos) < MOT->max_step_neg) && (MOT->max_step_neg !
 1893              		.loc 1 718 0
ARM GAS  C:\Users\mgnocco\AppData\Local\Temp\cc6peeyS.s 			page 47


 1894 011a 7B68     		ldr	r3, [r7, #4]
 1895 011c 1B68     		ldr	r3, [r3]
 1896 011e 7A6A     		ldr	r2, [r7, #36]
 1897 0120 D21A     		subs	r2, r2, r3
 1898 0122 3B6A     		ldr	r3, [r7, #32]
 1899 0124 DB6B     		ldr	r3, [r3, #60]
 1900 0126 9A42     		cmp	r2, r3
 1901 0128 0BDA     		bge	.L110
 1902              		.loc 1 718 0 is_stmt 0 discriminator 1
 1903 012a 3B6A     		ldr	r3, [r7, #32]
 1904 012c DB6B     		ldr	r3, [r3, #60]
 1905 012e 002B     		cmp	r3, #0
 1906 0130 07D0     		beq	.L110
 719:..\src/interruptions.c ****                     st_ref_p->pos += MOT->max_step_neg;
 1907              		.loc 1 719 0 is_stmt 1
 1908 0132 BB68     		ldr	r3, [r7, #8]
 1909 0134 1A68     		ldr	r2, [r3]
 1910 0136 3B6A     		ldr	r3, [r7, #32]
 1911 0138 DB6B     		ldr	r3, [r3, #60]
 1912 013a 1A44     		add	r2, r2, r3
 1913 013c BB68     		ldr	r3, [r7, #8]
 1914 013e 1A60     		str	r2, [r3]
 1915 0140 03E0     		b	.L109
 1916              	.L110:
 720:..\src/interruptions.c ****                 else
 721:..\src/interruptions.c ****                     st_ref_p->pos = handle_value;
 1917              		.loc 1 721 0
 1918 0142 BB68     		ldr	r3, [r7, #8]
 1919 0144 7A6A     		ldr	r2, [r7, #36]
 1920 0146 1A60     		str	r2, [r3]
 722:..\src/interruptions.c ****             }
 723:..\src/interruptions.c ****             break;
 1921              		.loc 1 723 0
 1922 0148 DFE1     		b	.L111
 1923              	.L109:
 1924 014a DEE1     		b	.L111
 1925              	.L104:
 724:..\src/interruptions.c ****         
 725:..\src/interruptions.c ****         case INPUT_MODE_JOYSTICK:
 726:..\src/interruptions.c ****             
 727:..\src/interruptions.c ****             if (c_mem.dev.use_2nd_motor_flag == FALSE){
 1926              		.loc 1 727 0
 1927 014c 5A4B     		ldr	r3, .L160
 1928 014e 93F8A930 		ldrb	r3, [r3, #169]	@ zero_extendqisi2
 1929 0152 002B     		cmp	r3, #0
 1930 0154 57D1     		bne	.L112
 728:..\src/interruptions.c ****                 // Code for single motor devices. Use only up/down direction to give speed referenc
 729:..\src/interruptions.c ****                 st_ref_p->pos = st_refOld_p->pos;
 1931              		.loc 1 729 0
 1932 0156 7B68     		ldr	r3, [r7, #4]
 1933 0158 1A68     		ldr	r2, [r3]
 1934 015a BB68     		ldr	r3, [r7, #8]
 1935 015c 1A60     		str	r2, [r3]
 730:..\src/interruptions.c ****                 if(!(g_adc_meas.joystick[0] > 700)) {
 1936              		.loc 1 730 0
 1937 015e 574B     		ldr	r3, .L160+4
 1938 0160 1B6A     		ldr	r3, [r3, #32]
ARM GAS  C:\Users\mgnocco\AppData\Local\Temp\cc6peeyS.s 			page 48


 1939 0162 B3F52F7F 		cmp	r3, #700
 1940 0166 45DC     		bgt	.L113
 1941              	.LBB4:
 731:..\src/interruptions.c ****                     int32 CYDATA err_joy_1 = g_adc_meas.joystick[0] - c_mem.JOY_spec.joystick_thres
 1942              		.loc 1 731 0
 1943 0168 544B     		ldr	r3, .L160+4
 1944 016a 1B6A     		ldr	r3, [r3, #32]
 1945 016c 524A     		ldr	r2, .L160
 1946 016e B2F9B222 		ldrsh	r2, [r2, #690]
 1947 0172 9B1A     		subs	r3, r3, r2
 1948 0174 3B61     		str	r3, [r7, #16]
 732:..\src/interruptions.c **** 
 733:..\src/interruptions.c ****                     if(g_adc_meas.joystick[0] > c_mem.JOY_spec.joystick_threshold) {     //both mot
 1949              		.loc 1 733 0
 1950 0176 514B     		ldr	r3, .L160+4
 1951 0178 1B6A     		ldr	r3, [r3, #32]
 1952 017a 4F4A     		ldr	r2, .L160
 1953 017c B2F9B222 		ldrsh	r2, [r2, #690]
 1954 0180 9342     		cmp	r3, r2
 1955 0182 13DD     		ble	.L114
 734:..\src/interruptions.c ****                         st_ref_p->pos += ((int32) err_joy_1 * c_mem.JOY_spec.joystick_closure_speed
 1956              		.loc 1 734 0
 1957 0184 BB68     		ldr	r3, [r7, #8]
 1958 0186 1A68     		ldr	r2, [r3]
 1959 0188 4B4B     		ldr	r3, .L160
 1960 018a B3F8B032 		ldrh	r3, [r3, #688]
 1961 018e 1946     		mov	r1, r3
 1962 0190 3B69     		ldr	r3, [r7, #16]
 1963 0192 03FB01F1 		mul	r1, r3, r1
 1964 0196 484B     		ldr	r3, .L160
 1965 0198 B3F9B232 		ldrsh	r3, [r3, #690]
 1966 019c C3F58063 		rsb	r3, r3, #1024
 1967 01a0 91FBF3F3 		sdiv	r3, r1, r3
 1968 01a4 1A44     		add	r2, r2, r3
 1969 01a6 BB68     		ldr	r3, [r7, #8]
 1970 01a8 1A60     		str	r2, [r3]
 1971              	.LBE4:
 735:..\src/interruptions.c ****                     }
 736:..\src/interruptions.c ****                     else {
 737:..\src/interruptions.c ****                         err_joy_1 = g_adc_meas.joystick[0] + c_mem.JOY_spec.joystick_threshold;
 738:..\src/interruptions.c ****                         if(g_adc_meas.joystick[0] < -c_mem.JOY_spec.joystick_threshold) {  //both m
 739:..\src/interruptions.c ****                             st_ref_p->pos += ((int32) err_joy_1 * c_mem.JOY_spec.joystick_closure_s
 740:..\src/interruptions.c ****                         }
 741:..\src/interruptions.c ****                     }
 742:..\src/interruptions.c ****                 }
 743:..\src/interruptions.c ****                 else {  //The button is pressed and the motor reference is gradually set to zero 
 744:..\src/interruptions.c ****                     st_ref_p->pos -= (int32) g_mem.JOY_spec.joystick_closure_speed;
 745:..\src/interruptions.c ****                 }
 746:..\src/interruptions.c ****             }
 747:..\src/interruptions.c ****             else {
 748:..\src/interruptions.c ****                 // Code for two motors devices. Use both direction to give speed references
 749:..\src/interruptions.c ****                 if (c_mem.dev.dev_type == SOFTHAND_2_MOTORS){
 750:..\src/interruptions.c ****                     compute_SoftHand_2_motors_joystick_reference(motor_idx, st_ref_p, st_refOld_p);
 751:..\src/interruptions.c ****                 }
 752:..\src/interruptions.c ****             }
 753:..\src/interruptions.c ****             break;
 1972              		.loc 1 753 0
ARM GAS  C:\Users\mgnocco\AppData\Local\Temp\cc6peeyS.s 			page 49


 1973 01aa A5E1     		b	.L153
 1974              	.L114:
 1975              	.LBB5:
 737:..\src/interruptions.c ****                         if(g_adc_meas.joystick[0] < -c_mem.JOY_spec.joystick_threshold) {  //both m
 1976              		.loc 1 737 0
 1977 01ac 434B     		ldr	r3, .L160+4
 1978 01ae 1B6A     		ldr	r3, [r3, #32]
 1979 01b0 414A     		ldr	r2, .L160
 1980 01b2 B2F9B222 		ldrsh	r2, [r2, #690]
 1981 01b6 1344     		add	r3, r3, r2
 1982 01b8 3B61     		str	r3, [r7, #16]
 738:..\src/interruptions.c ****                             st_ref_p->pos += ((int32) err_joy_1 * c_mem.JOY_spec.joystick_closure_s
 1983              		.loc 1 738 0
 1984 01ba 404B     		ldr	r3, .L160+4
 1985 01bc 1A6A     		ldr	r2, [r3, #32]
 1986 01be 3E4B     		ldr	r3, .L160
 1987 01c0 B3F9B232 		ldrsh	r3, [r3, #690]
 1988 01c4 5B42     		negs	r3, r3
 1989 01c6 9A42     		cmp	r2, r3
 1990 01c8 80F29681 		bge	.L153
 739:..\src/interruptions.c ****                         }
 1991              		.loc 1 739 0
 1992 01cc BB68     		ldr	r3, [r7, #8]
 1993 01ce 1A68     		ldr	r2, [r3]
 1994 01d0 394B     		ldr	r3, .L160
 1995 01d2 B3F8B032 		ldrh	r3, [r3, #688]
 1996 01d6 1946     		mov	r1, r3
 1997 01d8 3B69     		ldr	r3, [r7, #16]
 1998 01da 03FB01F1 		mul	r1, r3, r1
 1999 01de 364B     		ldr	r3, .L160
 2000 01e0 B3F9B232 		ldrsh	r3, [r3, #690]
 2001 01e4 C3F58063 		rsb	r3, r3, #1024
 2002 01e8 91FBF3F3 		sdiv	r3, r1, r3
 2003 01ec 1A44     		add	r2, r2, r3
 2004 01ee BB68     		ldr	r3, [r7, #8]
 2005 01f0 1A60     		str	r2, [r3]
 2006              	.LBE5:
 2007              		.loc 1 753 0
 2008 01f2 81E1     		b	.L153
 2009              	.L113:
 744:..\src/interruptions.c ****                 }
 2010              		.loc 1 744 0
 2011 01f4 BB68     		ldr	r3, [r7, #8]
 2012 01f6 1B68     		ldr	r3, [r3]
 2013 01f8 324A     		ldr	r2, .L160+12
 2014 01fa B2F8B022 		ldrh	r2, [r2, #688]
 2015 01fe 9A1A     		subs	r2, r3, r2
 2016 0200 BB68     		ldr	r3, [r7, #8]
 2017 0202 1A60     		str	r2, [r3]
 2018              		.loc 1 753 0
 2019 0204 78E1     		b	.L153
 2020              	.L112:
 749:..\src/interruptions.c ****                     compute_SoftHand_2_motors_joystick_reference(motor_idx, st_ref_p, st_refOld_p);
 2021              		.loc 1 749 0
 2022 0206 2C4B     		ldr	r3, .L160
 2023 0208 93F8AC30 		ldrb	r3, [r3, #172]	@ zero_extendqisi2
 2024 020c 042B     		cmp	r3, #4
ARM GAS  C:\Users\mgnocco\AppData\Local\Temp\cc6peeyS.s 			page 50


 2025 020e 40F07381 		bne	.L153
 750:..\src/interruptions.c ****                 }
 2026              		.loc 1 750 0
 2027 0212 FB7B     		ldrb	r3, [r7, #15]	@ zero_extendqisi2
 2028 0214 7A68     		ldr	r2, [r7, #4]
 2029 0216 B968     		ldr	r1, [r7, #8]
 2030 0218 1846     		mov	r0, r3
 2031 021a FFF7FEFF 		bl	compute_SoftHand_2_motors_joystick_reference
 2032              		.loc 1 753 0
 2033 021e 6BE1     		b	.L153
 2034              	.L100:
 754:..\src/interruptions.c ****             
 755:..\src/interruptions.c ****         case INPUT_MODE_EMG_PROPORTIONAL:
 756:..\src/interruptions.c ****             if (err_emg_1 > 0)
 2035              		.loc 1 756 0
 2036 0220 BB69     		ldr	r3, [r7, #24]
 2037 0222 002B     		cmp	r3, #0
 2038 0224 15DD     		ble	.L118
 757:..\src/interruptions.c ****                 st_ref_p->pos = (err_emg_1 * g_mem.motor[motor_idx].pos_lim_sup) / (1024 - c_mem.em
 2039              		.loc 1 757 0
 2040 0226 FA7B     		ldrb	r2, [r7, #15]	@ zero_extendqisi2
 2041 0228 2649     		ldr	r1, .L160+12
 2042 022a 1346     		mov	r3, r2
 2043 022c DB00     		lsls	r3, r3, #3
 2044 022e 9B1A     		subs	r3, r3, r2
 2045 0230 1B01     		lsls	r3, r3, #4
 2046 0232 0B44     		add	r3, r3, r1
 2047 0234 E833     		adds	r3, r3, #232
 2048 0236 1B68     		ldr	r3, [r3]
 2049 0238 BA69     		ldr	r2, [r7, #24]
 2050 023a 02FB03F2 		mul	r2, r2, r3
 2051 023e 1E4B     		ldr	r3, .L160
 2052 0240 B3F8F031 		ldrh	r3, [r3, #496]
 2053 0244 C3F58063 		rsb	r3, r3, #1024
 2054 0248 92FBF3F2 		sdiv	r2, r2, r3
 2055 024c BB68     		ldr	r3, [r7, #8]
 2056 024e 1A60     		str	r2, [r3]
 758:..\src/interruptions.c ****             else
 759:..\src/interruptions.c ****                 st_ref_p->pos = 0;
 760:..\src/interruptions.c ****             break;
 2057              		.loc 1 760 0
 2058 0250 5BE1     		b	.L111
 2059              	.L118:
 759:..\src/interruptions.c ****             break;
 2060              		.loc 1 759 0
 2061 0252 BB68     		ldr	r3, [r7, #8]
 2062 0254 0022     		movs	r2, #0
 2063 0256 1A60     		str	r2, [r3]
 2064              		.loc 1 760 0
 2065 0258 57E1     		b	.L111
 2066              	.L105:
 761:..\src/interruptions.c ****         
 762:..\src/interruptions.c ****         case INPUT_MODE_EMG_PROPORTIONAL_NC:
 763:..\src/interruptions.c ****             if (err_emg_1 > 0)
 2067              		.loc 1 763 0
 2068 025a BB69     		ldr	r3, [r7, #24]
 2069 025c 002B     		cmp	r3, #0
ARM GAS  C:\Users\mgnocco\AppData\Local\Temp\cc6peeyS.s 			page 51


 2070 025e 1FDD     		ble	.L120
 764:..\src/interruptions.c ****                 st_ref_p->pos = g_mem.motor[motor_idx].pos_lim_sup - (err_emg_1 * g_mem.motor[motor
 2071              		.loc 1 764 0
 2072 0260 FA7B     		ldrb	r2, [r7, #15]	@ zero_extendqisi2
 2073 0262 1849     		ldr	r1, .L160+12
 2074 0264 1346     		mov	r3, r2
 2075 0266 DB00     		lsls	r3, r3, #3
 2076 0268 9B1A     		subs	r3, r3, r2
 2077 026a 1B01     		lsls	r3, r3, #4
 2078 026c 0B44     		add	r3, r3, r1
 2079 026e E833     		adds	r3, r3, #232
 2080 0270 1968     		ldr	r1, [r3]
 2081 0272 FA7B     		ldrb	r2, [r7, #15]	@ zero_extendqisi2
 2082 0274 1348     		ldr	r0, .L160+12
 2083 0276 1346     		mov	r3, r2
 2084 0278 DB00     		lsls	r3, r3, #3
 2085 027a 9B1A     		subs	r3, r3, r2
 2086 027c 1B01     		lsls	r3, r3, #4
 2087 027e 0344     		add	r3, r3, r0
 2088 0280 E833     		adds	r3, r3, #232
 2089 0282 1B68     		ldr	r3, [r3]
 2090 0284 BA69     		ldr	r2, [r7, #24]
 2091 0286 02FB03F2 		mul	r2, r2, r3
 2092 028a 0B4B     		ldr	r3, .L160
 2093 028c B3F8F031 		ldrh	r3, [r3, #496]
 2094 0290 C3F58063 		rsb	r3, r3, #1024
 2095 0294 92FBF3F3 		sdiv	r3, r2, r3
 2096 0298 CA1A     		subs	r2, r1, r3
 2097 029a BB68     		ldr	r3, [r7, #8]
 2098 029c 1A60     		str	r2, [r3]
 765:..\src/interruptions.c ****             else
 766:..\src/interruptions.c ****                 st_ref_p->pos = g_mem.motor[motor_idx].pos_lim_sup;
 767:..\src/interruptions.c ****             break;
 2099              		.loc 1 767 0
 2100 029e 34E1     		b	.L111
 2101              	.L120:
 766:..\src/interruptions.c ****             break;
 2102              		.loc 1 766 0
 2103 02a0 FA7B     		ldrb	r2, [r7, #15]	@ zero_extendqisi2
 2104 02a2 0849     		ldr	r1, .L160+12
 2105 02a4 1346     		mov	r3, r2
 2106 02a6 DB00     		lsls	r3, r3, #3
 2107 02a8 9B1A     		subs	r3, r3, r2
 2108 02aa 1B01     		lsls	r3, r3, #4
 2109 02ac 0B44     		add	r3, r3, r1
 2110 02ae E833     		adds	r3, r3, #232
 2111 02b0 1A68     		ldr	r2, [r3]
 2112 02b2 BB68     		ldr	r3, [r7, #8]
 2113 02b4 1A60     		str	r2, [r3]
 2114              		.loc 1 767 0
 2115 02b6 28E1     		b	.L111
 2116              	.L161:
 2117              		.align	2
 2118              	.L160:
 2119 02b8 00000000 		.word	c_mem
 2120 02bc 00000000 		.word	g_adc_meas
 2121 02c0 00000000 		.word	g_meas
ARM GAS  C:\Users\mgnocco\AppData\Local\Temp\cc6peeyS.s 			page 52


 2122 02c4 00000000 		.word	g_mem
 2123              	.L101:
 768:..\src/interruptions.c **** 
 769:..\src/interruptions.c ****         case INPUT_MODE_EMG_INTEGRAL:
 770:..\src/interruptions.c ****             st_ref_p->pos = st_refOld_p->pos;
 2124              		.loc 1 770 0
 2125 02c8 7B68     		ldr	r3, [r7, #4]
 2126 02ca 1A68     		ldr	r2, [r3]
 2127 02cc BB68     		ldr	r3, [r7, #8]
 2128 02ce 1A60     		str	r2, [r3]
 771:..\src/interruptions.c ****             if (err_emg_1 > 0) {
 2129              		.loc 1 771 0
 2130 02d0 BB69     		ldr	r3, [r7, #24]
 2131 02d2 002B     		cmp	r3, #0
 2132 02d4 13DD     		ble	.L122
 772:..\src/interruptions.c ****                 st_ref_p->pos = st_refOld_p->pos + (err_emg_1 * (int)g_mem.emg.emg_speed[0] * 2) / 
 2133              		.loc 1 772 0
 2134 02d6 7B68     		ldr	r3, [r7, #4]
 2135 02d8 1A68     		ldr	r2, [r3]
 2136 02da 884B     		ldr	r3, .L162
 2137 02dc 93F8FC31 		ldrb	r3, [r3, #508]	@ zero_extendqisi2
 2138 02e0 1946     		mov	r1, r3
 2139 02e2 BB69     		ldr	r3, [r7, #24]
 2140 02e4 03FB01F3 		mul	r3, r3, r1
 2141 02e8 5900     		lsls	r1, r3, #1
 2142 02ea 854B     		ldr	r3, .L162+4
 2143 02ec B3F8F031 		ldrh	r3, [r3, #496]
 2144 02f0 C3F58063 		rsb	r3, r3, #1024
 2145 02f4 91FBF3F3 		sdiv	r3, r1, r3
 2146 02f8 1A44     		add	r2, r2, r3
 2147 02fa BB68     		ldr	r3, [r7, #8]
 2148 02fc 1A60     		str	r2, [r3]
 2149              	.L122:
 773:..\src/interruptions.c ****             }
 774:..\src/interruptions.c ****             if (err_emg_2 > 0) {
 2150              		.loc 1 774 0
 2151 02fe 7B69     		ldr	r3, [r7, #20]
 2152 0300 002B     		cmp	r3, #0
 2153 0302 40F30181 		ble	.L154
 775:..\src/interruptions.c ****                 st_ref_p->pos = st_refOld_p->pos - (err_emg_2 * (int)g_mem.emg.emg_speed[1] * 2) / 
 2154              		.loc 1 775 0
 2155 0306 7B68     		ldr	r3, [r7, #4]
 2156 0308 1A68     		ldr	r2, [r3]
 2157 030a 7C4B     		ldr	r3, .L162
 2158 030c 93F8FD31 		ldrb	r3, [r3, #509]	@ zero_extendqisi2
 2159 0310 1946     		mov	r1, r3
 2160 0312 7B69     		ldr	r3, [r7, #20]
 2161 0314 03FB01F3 		mul	r3, r3, r1
 2162 0318 5900     		lsls	r1, r3, #1
 2163 031a 794B     		ldr	r3, .L162+4
 2164 031c B3F8F231 		ldrh	r3, [r3, #498]
 2165 0320 C3F58063 		rsb	r3, r3, #1024
 2166 0324 91FBF3F3 		sdiv	r3, r1, r3
 2167 0328 D21A     		subs	r2, r2, r3
 2168 032a BB68     		ldr	r3, [r7, #8]
 2169 032c 1A60     		str	r2, [r3]
 776:..\src/interruptions.c ****             }
ARM GAS  C:\Users\mgnocco\AppData\Local\Temp\cc6peeyS.s 			page 53


 777:..\src/interruptions.c ****             break;
 2170              		.loc 1 777 0
 2171 032e EBE0     		b	.L154
 2172              	.L102:
 778:..\src/interruptions.c **** 
 779:..\src/interruptions.c ****         case INPUT_MODE_EMG_FCFS:
 780:..\src/interruptions.c ****             st_ref_p->pos = st_refOld_p->pos;
 2173              		.loc 1 780 0
 2174 0330 7B68     		ldr	r3, [r7, #4]
 2175 0332 1A68     		ldr	r2, [r3]
 2176 0334 BB68     		ldr	r3, [r7, #8]
 2177 0336 1A60     		str	r2, [r3]
 781:..\src/interruptions.c ****             if (c_mem.dev.dev_type != SOFTHAND_2_MOTORS){
 2178              		.loc 1 781 0
 2179 0338 714B     		ldr	r3, .L162+4
 2180 033a 93F8AC30 		ldrb	r3, [r3, #172]	@ zero_extendqisi2
 2181 033e 042B     		cmp	r3, #4
 2182 0340 5BD0     		beq	.L124
 782:..\src/interruptions.c ****                 switch (current_emg[motor_idx]) {
 2183              		.loc 1 782 0
 2184 0342 FB7B     		ldrb	r3, [r7, #15]	@ zero_extendqisi2
 2185 0344 6F4A     		ldr	r2, .L162+8
 2186 0346 D35C     		ldrb	r3, [r2, r3]	@ zero_extendqisi2
 2187 0348 012B     		cmp	r3, #1
 2188 034a 1CD0     		beq	.L126
 2189 034c 022B     		cmp	r3, #2
 2190 034e 37D0     		beq	.L127
 2191 0350 002B     		cmp	r3, #0
 2192 0352 00D0     		beq	.L128
 783:..\src/interruptions.c ****                     case 0:
 784:..\src/interruptions.c ****                         // Look for the first EMG passing the threshold
 785:..\src/interruptions.c ****                         if (err_emg_1 > 0 && err_emg_1 > err_emg_2) {
 786:..\src/interruptions.c ****                             current_emg[motor_idx] = 1;
 787:..\src/interruptions.c ****                             break;
 788:..\src/interruptions.c ****                         }
 789:..\src/interruptions.c ****                         if (err_emg_2 > 0 && err_emg_2 > err_emg_1) {
 790:..\src/interruptions.c ****                             current_emg[motor_idx] = 2;
 791:..\src/interruptions.c ****                             break;
 792:..\src/interruptions.c ****                         }
 793:..\src/interruptions.c ****                         break;
 794:..\src/interruptions.c **** 
 795:..\src/interruptions.c ****                     case 1:
 796:..\src/interruptions.c ****                         // EMG 1 is first
 797:..\src/interruptions.c ****                         if (err_emg_1 < 0) {
 798:..\src/interruptions.c ****                             current_emg[motor_idx] = 0;
 799:..\src/interruptions.c ****                             break;
 800:..\src/interruptions.c ****                         }
 801:..\src/interruptions.c ****                         st_ref_p->pos = st_refOld_p->pos + (err_emg_1 * g_mem.emg.emg_speed[0] << 2
 802:..\src/interruptions.c ****                         break;
 803:..\src/interruptions.c **** 
 804:..\src/interruptions.c ****                     case 2:
 805:..\src/interruptions.c ****                         // EMG 2 is first
 806:..\src/interruptions.c ****                         if (err_emg_2 < 0) {
 807:..\src/interruptions.c ****                             current_emg[motor_idx] = 0;
 808:..\src/interruptions.c ****                             break;
 809:..\src/interruptions.c ****                         }
 810:..\src/interruptions.c ****                         st_ref_p->pos = st_refOld_p->pos - (err_emg_2 * g_mem.emg.emg_speed[1] << 2
ARM GAS  C:\Users\mgnocco\AppData\Local\Temp\cc6peeyS.s 			page 54


 811:..\src/interruptions.c ****                         break;
 812:..\src/interruptions.c **** 
 813:..\src/interruptions.c ****                     default:
 814:..\src/interruptions.c ****                         break;
 2193              		.loc 1 814 0
 2194 0354 5BE0     		b	.L134
 2195              	.L128:
 785:..\src/interruptions.c ****                             current_emg[motor_idx] = 1;
 2196              		.loc 1 785 0
 2197 0356 BB69     		ldr	r3, [r7, #24]
 2198 0358 002B     		cmp	r3, #0
 2199 035a 08DD     		ble	.L129
 785:..\src/interruptions.c ****                             current_emg[motor_idx] = 1;
 2200              		.loc 1 785 0 is_stmt 0 discriminator 1
 2201 035c BA69     		ldr	r2, [r7, #24]
 2202 035e 7B69     		ldr	r3, [r7, #20]
 2203 0360 9A42     		cmp	r2, r3
 2204 0362 04DD     		ble	.L129
 786:..\src/interruptions.c ****                             break;
 2205              		.loc 1 786 0 is_stmt 1
 2206 0364 FB7B     		ldrb	r3, [r7, #15]	@ zero_extendqisi2
 2207 0366 674A     		ldr	r2, .L162+8
 2208 0368 0121     		movs	r1, #1
 2209 036a D154     		strb	r1, [r2, r3]
 787:..\src/interruptions.c ****                         }
 2210              		.loc 1 787 0
 2211 036c 4FE0     		b	.L134
 2212              	.L129:
 789:..\src/interruptions.c ****                             current_emg[motor_idx] = 2;
 2213              		.loc 1 789 0
 2214 036e 7B69     		ldr	r3, [r7, #20]
 2215 0370 002B     		cmp	r3, #0
 2216 0372 4BDD     		ble	.L155
 789:..\src/interruptions.c ****                             current_emg[motor_idx] = 2;
 2217              		.loc 1 789 0 is_stmt 0 discriminator 1
 2218 0374 7A69     		ldr	r2, [r7, #20]
 2219 0376 BB69     		ldr	r3, [r7, #24]
 2220 0378 9A42     		cmp	r2, r3
 2221 037a 47DD     		ble	.L155
 790:..\src/interruptions.c ****                             break;
 2222              		.loc 1 790 0 is_stmt 1
 2223 037c FB7B     		ldrb	r3, [r7, #15]	@ zero_extendqisi2
 2224 037e 614A     		ldr	r2, .L162+8
 2225 0380 0221     		movs	r1, #2
 2226 0382 D154     		strb	r1, [r2, r3]
 791:..\src/interruptions.c ****                         }
 2227              		.loc 1 791 0
 2228 0384 43E0     		b	.L134
 2229              	.L126:
 797:..\src/interruptions.c ****                             current_emg[motor_idx] = 0;
 2230              		.loc 1 797 0
 2231 0386 BB69     		ldr	r3, [r7, #24]
 2232 0388 002B     		cmp	r3, #0
 2233 038a 04DA     		bge	.L132
 798:..\src/interruptions.c ****                             break;
 2234              		.loc 1 798 0
 2235 038c FB7B     		ldrb	r3, [r7, #15]	@ zero_extendqisi2
ARM GAS  C:\Users\mgnocco\AppData\Local\Temp\cc6peeyS.s 			page 55


 2236 038e 5D4A     		ldr	r2, .L162+8
 2237 0390 0021     		movs	r1, #0
 2238 0392 D154     		strb	r1, [r2, r3]
 799:..\src/interruptions.c ****                         }
 2239              		.loc 1 799 0
 2240 0394 3BE0     		b	.L134
 2241              	.L132:
 801:..\src/interruptions.c ****                         break;
 2242              		.loc 1 801 0
 2243 0396 7B68     		ldr	r3, [r7, #4]
 2244 0398 1A68     		ldr	r2, [r3]
 2245 039a 584B     		ldr	r3, .L162
 2246 039c 93F8FC31 		ldrb	r3, [r3, #508]	@ zero_extendqisi2
 2247 03a0 1946     		mov	r1, r3
 2248 03a2 BB69     		ldr	r3, [r7, #24]
 2249 03a4 03FB01F3 		mul	r3, r3, r1
 2250 03a8 9900     		lsls	r1, r3, #2
 2251 03aa 554B     		ldr	r3, .L162+4
 2252 03ac B3F8F031 		ldrh	r3, [r3, #496]
 2253 03b0 C3F58063 		rsb	r3, r3, #1024
 2254 03b4 91FBF3F3 		sdiv	r3, r1, r3
 2255 03b8 1A44     		add	r2, r2, r3
 2256 03ba BB68     		ldr	r3, [r7, #8]
 2257 03bc 1A60     		str	r2, [r3]
 802:..\src/interruptions.c **** 
 2258              		.loc 1 802 0
 2259 03be 26E0     		b	.L134
 2260              	.L127:
 806:..\src/interruptions.c ****                             current_emg[motor_idx] = 0;
 2261              		.loc 1 806 0
 2262 03c0 7B69     		ldr	r3, [r7, #20]
 2263 03c2 002B     		cmp	r3, #0
 2264 03c4 04DA     		bge	.L133
 807:..\src/interruptions.c ****                             break;
 2265              		.loc 1 807 0
 2266 03c6 FB7B     		ldrb	r3, [r7, #15]	@ zero_extendqisi2
 2267 03c8 4E4A     		ldr	r2, .L162+8
 2268 03ca 0021     		movs	r1, #0
 2269 03cc D154     		strb	r1, [r2, r3]
 808:..\src/interruptions.c ****                         }
 2270              		.loc 1 808 0
 2271 03ce 1EE0     		b	.L134
 2272              	.L133:
 810:..\src/interruptions.c ****                         break;
 2273              		.loc 1 810 0
 2274 03d0 7B68     		ldr	r3, [r7, #4]
 2275 03d2 1A68     		ldr	r2, [r3]
 2276 03d4 494B     		ldr	r3, .L162
 2277 03d6 93F8FD31 		ldrb	r3, [r3, #509]	@ zero_extendqisi2
 2278 03da 1946     		mov	r1, r3
 2279 03dc 7B69     		ldr	r3, [r7, #20]
 2280 03de 03FB01F3 		mul	r3, r3, r1
 2281 03e2 9900     		lsls	r1, r3, #2
 2282 03e4 464B     		ldr	r3, .L162+4
 2283 03e6 B3F8F231 		ldrh	r3, [r3, #498]
 2284 03ea C3F58063 		rsb	r3, r3, #1024
 2285 03ee 91FBF3F3 		sdiv	r3, r1, r3
ARM GAS  C:\Users\mgnocco\AppData\Local\Temp\cc6peeyS.s 			page 56


 2286 03f2 D21A     		subs	r2, r2, r3
 2287 03f4 BB68     		ldr	r3, [r7, #8]
 2288 03f6 1A60     		str	r2, [r3]
 811:..\src/interruptions.c **** 
 2289              		.loc 1 811 0
 2290 03f8 09E0     		b	.L134
 2291              	.L124:
 815:..\src/interruptions.c ****                 }
 816:..\src/interruptions.c ****             }
 817:..\src/interruptions.c ****             else{ // case SOFTHAND_2_MOTORS
 818:..\src/interruptions.c ****                 //compute reference using a FSM for choosing the right sinergy to activate
 819:..\src/interruptions.c ****                 compute_SoftHand_2_motors_emg_reference(motor_idx, st_ref_p, st_refOld_p, err_emg_1
 2292              		.loc 1 819 0
 2293 03fa F87B     		ldrb	r0, [r7, #15]	@ zero_extendqisi2
 2294 03fc 7B69     		ldr	r3, [r7, #20]
 2295 03fe 0093     		str	r3, [sp]
 2296 0400 BB69     		ldr	r3, [r7, #24]
 2297 0402 7A68     		ldr	r2, [r7, #4]
 2298 0404 B968     		ldr	r1, [r7, #8]
 2299 0406 FFF7FEFF 		bl	compute_SoftHand_2_motors_emg_reference
 820:..\src/interruptions.c ****             }
 821:..\src/interruptions.c ****             break;
 2300              		.loc 1 821 0
 2301 040a 7EE0     		b	.L111
 2302              	.L155:
 793:..\src/interruptions.c **** 
 2303              		.loc 1 793 0
 2304 040c 00BF     		nop
 2305              	.L134:
 2306              		.loc 1 821 0 discriminator 5
 2307 040e 7CE0     		b	.L111
 2308              	.L103:
 822:..\src/interruptions.c **** 
 823:..\src/interruptions.c ****         case INPUT_MODE_EMG_FCFS_ADV:
 824:..\src/interruptions.c ****             st_ref_p->pos = st_refOld_p->pos;
 2309              		.loc 1 824 0
 2310 0410 7B68     		ldr	r3, [r7, #4]
 2311 0412 1A68     		ldr	r2, [r3]
 2312 0414 BB68     		ldr	r3, [r7, #8]
 2313 0416 1A60     		str	r2, [r3]
 825:..\src/interruptions.c ****             switch (current_emg[motor_idx]) {
 2314              		.loc 1 825 0
 2315 0418 FB7B     		ldrb	r3, [r7, #15]	@ zero_extendqisi2
 2316 041a 3A4A     		ldr	r2, .L162+8
 2317 041c D35C     		ldrb	r3, [r2, r3]	@ zero_extendqisi2
 2318 041e 012B     		cmp	r3, #1
 2319 0420 1CD0     		beq	.L136
 2320 0422 022B     		cmp	r3, #2
 2321 0424 3DD0     		beq	.L137
 2322 0426 002B     		cmp	r3, #0
 2323 0428 00D0     		beq	.L138
 826:..\src/interruptions.c ****                 // Look for the first EMG passing the threshold
 827:..\src/interruptions.c ****                 case 0:
 828:..\src/interruptions.c ****                     if (err_emg_1 > 0 && err_emg_1 > err_emg_2) {
 829:..\src/interruptions.c ****                         current_emg[motor_idx] = 1;
 830:..\src/interruptions.c ****                         break;
 831:..\src/interruptions.c ****                     }
ARM GAS  C:\Users\mgnocco\AppData\Local\Temp\cc6peeyS.s 			page 57


 832:..\src/interruptions.c ****                     if (err_emg_2 > 0 && err_emg_2 > err_emg_1) {
 833:..\src/interruptions.c ****                         current_emg[motor_idx] = 2;
 834:..\src/interruptions.c ****                         break;
 835:..\src/interruptions.c ****                     }
 836:..\src/interruptions.c ****                     break;
 837:..\src/interruptions.c **** 
 838:..\src/interruptions.c ****                 // EMG 1 is first
 839:..\src/interruptions.c ****                 case 1:
 840:..\src/interruptions.c ****                     // If both signals are under threshold go back to status 0
 841:..\src/interruptions.c ****                     if ((err_emg_1 < 0) && (err_emg_2 < 0)) {
 842:..\src/interruptions.c ****                         current_emg[motor_idx] = 0;
 843:..\src/interruptions.c ****                         break;
 844:..\src/interruptions.c ****                     }
 845:..\src/interruptions.c ****                     // but if the current signal come back over threshold, continue using it
 846:..\src/interruptions.c ****                     if (err_emg_1 > 0) 
 847:..\src/interruptions.c ****                         st_ref_p->pos = st_refOld_p->pos + (err_emg_1 * g_mem.emg.emg_speed[0] << 2
 848:..\src/interruptions.c ****                     
 849:..\src/interruptions.c ****                     break;
 850:..\src/interruptions.c **** 
 851:..\src/interruptions.c ****                 // EMG 2 is first
 852:..\src/interruptions.c ****                 case 2:
 853:..\src/interruptions.c ****                     // If both signals are under threshold go back to status 0
 854:..\src/interruptions.c ****                     if ((err_emg_1 < 0) && (err_emg_2 < 0)) {
 855:..\src/interruptions.c ****                         current_emg[motor_idx] = 0;
 856:..\src/interruptions.c ****                         break;
 857:..\src/interruptions.c ****                     }
 858:..\src/interruptions.c ****                     // but if the current signal come back over threshold, continue using it
 859:..\src/interruptions.c ****                     if (err_emg_2 > 0) {
 860:..\src/interruptions.c ****                         st_ref_p->pos = st_refOld_p->pos - (err_emg_2 * c_mem.emg.emg_speed[1] << 2
 861:..\src/interruptions.c ****                     }
 862:..\src/interruptions.c ****                     break;
 863:..\src/interruptions.c **** 
 864:..\src/interruptions.c ****                 default:
 865:..\src/interruptions.c ****                     break;
 2324              		.loc 1 865 0
 2325 042a 62E0     		b	.L140
 2326              	.L138:
 828:..\src/interruptions.c ****                         current_emg[motor_idx] = 1;
 2327              		.loc 1 828 0
 2328 042c BB69     		ldr	r3, [r7, #24]
 2329 042e 002B     		cmp	r3, #0
 2330 0430 08DD     		ble	.L139
 828:..\src/interruptions.c ****                         current_emg[motor_idx] = 1;
 2331              		.loc 1 828 0 is_stmt 0 discriminator 1
 2332 0432 BA69     		ldr	r2, [r7, #24]
 2333 0434 7B69     		ldr	r3, [r7, #20]
 2334 0436 9A42     		cmp	r2, r3
 2335 0438 04DD     		ble	.L139
 829:..\src/interruptions.c ****                         break;
 2336              		.loc 1 829 0 is_stmt 1
 2337 043a FB7B     		ldrb	r3, [r7, #15]	@ zero_extendqisi2
 2338 043c 314A     		ldr	r2, .L162+8
 2339 043e 0121     		movs	r1, #1
 2340 0440 D154     		strb	r1, [r2, r3]
 830:..\src/interruptions.c ****                     }
 2341              		.loc 1 830 0
 2342 0442 56E0     		b	.L140
ARM GAS  C:\Users\mgnocco\AppData\Local\Temp\cc6peeyS.s 			page 58


 2343              	.L139:
 832:..\src/interruptions.c ****                         current_emg[motor_idx] = 2;
 2344              		.loc 1 832 0
 2345 0444 7B69     		ldr	r3, [r7, #20]
 2346 0446 002B     		cmp	r3, #0
 2347 0448 4EDD     		ble	.L156
 832:..\src/interruptions.c ****                         current_emg[motor_idx] = 2;
 2348              		.loc 1 832 0 is_stmt 0 discriminator 1
 2349 044a 7A69     		ldr	r2, [r7, #20]
 2350 044c BB69     		ldr	r3, [r7, #24]
 2351 044e 9A42     		cmp	r2, r3
 2352 0450 4ADD     		ble	.L156
 833:..\src/interruptions.c ****                         break;
 2353              		.loc 1 833 0 is_stmt 1
 2354 0452 FB7B     		ldrb	r3, [r7, #15]	@ zero_extendqisi2
 2355 0454 2B4A     		ldr	r2, .L162+8
 2356 0456 0221     		movs	r1, #2
 2357 0458 D154     		strb	r1, [r2, r3]
 834:..\src/interruptions.c ****                     }
 2358              		.loc 1 834 0
 2359 045a 4AE0     		b	.L140
 2360              	.L136:
 841:..\src/interruptions.c ****                         current_emg[motor_idx] = 0;
 2361              		.loc 1 841 0
 2362 045c BB69     		ldr	r3, [r7, #24]
 2363 045e 002B     		cmp	r3, #0
 2364 0460 07DA     		bge	.L142
 841:..\src/interruptions.c ****                         current_emg[motor_idx] = 0;
 2365              		.loc 1 841 0 is_stmt 0 discriminator 1
 2366 0462 7B69     		ldr	r3, [r7, #20]
 2367 0464 002B     		cmp	r3, #0
 2368 0466 04DA     		bge	.L142
 842:..\src/interruptions.c ****                         break;
 2369              		.loc 1 842 0 is_stmt 1
 2370 0468 FB7B     		ldrb	r3, [r7, #15]	@ zero_extendqisi2
 2371 046a 264A     		ldr	r2, .L162+8
 2372 046c 0021     		movs	r1, #0
 2373 046e D154     		strb	r1, [r2, r3]
 843:..\src/interruptions.c ****                     }
 2374              		.loc 1 843 0
 2375 0470 3FE0     		b	.L140
 2376              	.L142:
 846:..\src/interruptions.c ****                         st_ref_p->pos = st_refOld_p->pos + (err_emg_1 * g_mem.emg.emg_speed[0] << 2
 2377              		.loc 1 846 0
 2378 0472 BB69     		ldr	r3, [r7, #24]
 2379 0474 002B     		cmp	r3, #0
 2380 0476 39DD     		ble	.L157
 847:..\src/interruptions.c ****                     
 2381              		.loc 1 847 0
 2382 0478 7B68     		ldr	r3, [r7, #4]
 2383 047a 1A68     		ldr	r2, [r3]
 2384 047c 1F4B     		ldr	r3, .L162
 2385 047e 93F8FC31 		ldrb	r3, [r3, #508]	@ zero_extendqisi2
 2386 0482 1946     		mov	r1, r3
 2387 0484 BB69     		ldr	r3, [r7, #24]
 2388 0486 03FB01F3 		mul	r3, r3, r1
 2389 048a 9900     		lsls	r1, r3, #2
ARM GAS  C:\Users\mgnocco\AppData\Local\Temp\cc6peeyS.s 			page 59


 2390 048c 1C4B     		ldr	r3, .L162+4
 2391 048e B3F8F031 		ldrh	r3, [r3, #496]
 2392 0492 C3F58063 		rsb	r3, r3, #1024
 2393 0496 91FBF3F3 		sdiv	r3, r1, r3
 2394 049a 1A44     		add	r2, r2, r3
 2395 049c BB68     		ldr	r3, [r7, #8]
 2396 049e 1A60     		str	r2, [r3]
 849:..\src/interruptions.c **** 
 2397              		.loc 1 849 0
 2398 04a0 24E0     		b	.L157
 2399              	.L137:
 854:..\src/interruptions.c ****                         current_emg[motor_idx] = 0;
 2400              		.loc 1 854 0
 2401 04a2 BB69     		ldr	r3, [r7, #24]
 2402 04a4 002B     		cmp	r3, #0
 2403 04a6 07DA     		bge	.L144
 854:..\src/interruptions.c ****                         current_emg[motor_idx] = 0;
 2404              		.loc 1 854 0 is_stmt 0 discriminator 1
 2405 04a8 7B69     		ldr	r3, [r7, #20]
 2406 04aa 002B     		cmp	r3, #0
 2407 04ac 04DA     		bge	.L144
 855:..\src/interruptions.c ****                         break;
 2408              		.loc 1 855 0 is_stmt 1
 2409 04ae FB7B     		ldrb	r3, [r7, #15]	@ zero_extendqisi2
 2410 04b0 144A     		ldr	r2, .L162+8
 2411 04b2 0021     		movs	r1, #0
 2412 04b4 D154     		strb	r1, [r2, r3]
 856:..\src/interruptions.c ****                     }
 2413              		.loc 1 856 0
 2414 04b6 1CE0     		b	.L140
 2415              	.L144:
 859:..\src/interruptions.c ****                         st_ref_p->pos = st_refOld_p->pos - (err_emg_2 * c_mem.emg.emg_speed[1] << 2
 2416              		.loc 1 859 0
 2417 04b8 7B69     		ldr	r3, [r7, #20]
 2418 04ba 002B     		cmp	r3, #0
 2419 04bc 18DD     		ble	.L158
 860:..\src/interruptions.c ****                     }
 2420              		.loc 1 860 0
 2421 04be 7B68     		ldr	r3, [r7, #4]
 2422 04c0 1A68     		ldr	r2, [r3]
 2423 04c2 0F4B     		ldr	r3, .L162+4
 2424 04c4 93F8FD31 		ldrb	r3, [r3, #509]	@ zero_extendqisi2
 2425 04c8 1946     		mov	r1, r3
 2426 04ca 7B69     		ldr	r3, [r7, #20]
 2427 04cc 03FB01F3 		mul	r3, r3, r1
 2428 04d0 9900     		lsls	r1, r3, #2
 2429 04d2 0B4B     		ldr	r3, .L162+4
 2430 04d4 B3F8F231 		ldrh	r3, [r3, #498]
 2431 04d8 C3F58063 		rsb	r3, r3, #1024
 2432 04dc 91FBF3F3 		sdiv	r3, r1, r3
 2433 04e0 D21A     		subs	r2, r2, r3
 2434 04e2 BB68     		ldr	r3, [r7, #8]
 2435 04e4 1A60     		str	r2, [r3]
 862:..\src/interruptions.c **** 
 2436              		.loc 1 862 0
 2437 04e6 03E0     		b	.L158
 2438              	.L156:
ARM GAS  C:\Users\mgnocco\AppData\Local\Temp\cc6peeyS.s 			page 60


 836:..\src/interruptions.c **** 
 2439              		.loc 1 836 0
 2440 04e8 00BF     		nop
 2441 04ea 0EE0     		b	.L111
 2442              	.L157:
 849:..\src/interruptions.c **** 
 2443              		.loc 1 849 0
 2444 04ec 00BF     		nop
 2445 04ee 0CE0     		b	.L111
 2446              	.L158:
 862:..\src/interruptions.c **** 
 2447              		.loc 1 862 0
 2448 04f0 00BF     		nop
 2449              	.L140:
 866:..\src/interruptions.c ****             }
 867:..\src/interruptions.c ****             break;
 2450              		.loc 1 867 0 discriminator 6
 2451 04f2 0AE0     		b	.L111
 2452              	.L152:
 868:..\src/interruptions.c **** 
 869:..\src/interruptions.c ****         default:
 870:..\src/interruptions.c ****             break;
 2453              		.loc 1 870 0
 2454 04f4 00BF     		nop
 2455 04f6 08E0     		b	.L111
 2456              	.L153:
 753:..\src/interruptions.c ****             
 2457              		.loc 1 753 0
 2458 04f8 00BF     		nop
 2459 04fa 06E0     		b	.L111
 2460              	.L163:
 2461              		.align	2
 2462              	.L162:
 2463 04fc 00000000 		.word	g_mem
 2464 0500 00000000 		.word	c_mem
 2465 0504 8C000000 		.word	current_emg.10585
 2466              	.L154:
 777:..\src/interruptions.c **** 
 2467              		.loc 1 777 0
 2468 0508 00BF     		nop
 2469              	.L111:
 871:..\src/interruptions.c ****     }
 872:..\src/interruptions.c **** 
 873:..\src/interruptions.c ****     // Position limit saturation
 874:..\src/interruptions.c ****     if (MOT->pos_lim_flag) {
 2470              		.loc 1 874 0
 2471 050a 3B6A     		ldr	r3, [r7, #32]
 2472 050c 93F83330 		ldrb	r3, [r3, #51]	@ zero_extendqisi2
 2473 0510 002B     		cmp	r3, #0
 2474 0512 13D0     		beq	.L146
 875:..\src/interruptions.c ****         if (st_ref_p->pos < MOT->pos_lim_inf) 
 2475              		.loc 1 875 0
 2476 0514 BB68     		ldr	r3, [r7, #8]
 2477 0516 1A68     		ldr	r2, [r3]
 2478 0518 3B6A     		ldr	r3, [r7, #32]
 2479 051a 5B6B     		ldr	r3, [r3, #52]
 2480 051c 9A42     		cmp	r2, r3
ARM GAS  C:\Users\mgnocco\AppData\Local\Temp\cc6peeyS.s 			page 61


 2481 051e 03DA     		bge	.L147
 876:..\src/interruptions.c ****             st_ref_p->pos = MOT->pos_lim_inf;
 2482              		.loc 1 876 0
 2483 0520 3B6A     		ldr	r3, [r7, #32]
 2484 0522 5A6B     		ldr	r2, [r3, #52]
 2485 0524 BB68     		ldr	r3, [r7, #8]
 2486 0526 1A60     		str	r2, [r3]
 2487              	.L147:
 877:..\src/interruptions.c ****         if (st_ref_p->pos > MOT->pos_lim_sup) 
 2488              		.loc 1 877 0
 2489 0528 BB68     		ldr	r3, [r7, #8]
 2490 052a 1A68     		ldr	r2, [r3]
 2491 052c 3B6A     		ldr	r3, [r7, #32]
 2492 052e 9B6B     		ldr	r3, [r3, #56]
 2493 0530 9A42     		cmp	r2, r3
 2494 0532 03DD     		ble	.L146
 878:..\src/interruptions.c ****             st_ref_p->pos = MOT->pos_lim_sup;
 2495              		.loc 1 878 0
 2496 0534 3B6A     		ldr	r3, [r7, #32]
 2497 0536 9A6B     		ldr	r2, [r3, #56]
 2498 0538 BB68     		ldr	r3, [r7, #8]
 2499 053a 1A60     		str	r2, [r3]
 2500              	.L146:
 879:..\src/interruptions.c ****     }
 880:..\src/interruptions.c ****     
 881:..\src/interruptions.c ****     // SAFETY
 882:..\src/interruptions.c ****     if (battery_low_SoC == TRUE) {
 2501              		.loc 1 882 0
 2502 053c 1D4B     		ldr	r3, .L164
 2503 053e 1B78     		ldrb	r3, [r3]	@ zero_extendqisi2
 2504 0540 012B     		cmp	r3, #1
 2505 0542 02D1     		bne	.L148
 883:..\src/interruptions.c ****         //Reopen the terminal device before disabling motor
 884:..\src/interruptions.c ****         st_ref_p->pos = 0;
 2506              		.loc 1 884 0
 2507 0544 BB68     		ldr	r3, [r7, #8]
 2508 0546 0022     		movs	r2, #0
 2509 0548 1A60     		str	r2, [r3]
 2510              	.L148:
 885:..\src/interruptions.c ****     }      
 886:..\src/interruptions.c ****     
 887:..\src/interruptions.c ****        
 888:..\src/interruptions.c ****     if (c_mem.SH.rest_position_flag == TRUE) {
 2511              		.loc 1 888 0
 2512 054a 1B4B     		ldr	r3, .L164+4
 2513 054c 93F8AC32 		ldrb	r3, [r3, #684]	@ zero_extendqisi2
 2514 0550 012B     		cmp	r3, #1
 2515 0552 2AD1     		bne	.L159
 889:..\src/interruptions.c ****         if (rest_enabled == 1){
 2516              		.loc 1 889 0
 2517 0554 194B     		ldr	r3, .L164+8
 2518 0556 1B78     		ldrb	r3, [r3]	@ zero_extendqisi2
 2519 0558 012B     		cmp	r3, #1
 2520 055a 03D1     		bne	.L150
 890:..\src/interruptions.c ****             // Change position reference to drive motor to rest position smoothly
 891:..\src/interruptions.c ****             st_ref_p->pos = rest_pos_curr_ref;
 2521              		.loc 1 891 0
ARM GAS  C:\Users\mgnocco\AppData\Local\Temp\cc6peeyS.s 			page 62


 2522 055c 184B     		ldr	r3, .L164+12
 2523 055e 1A68     		ldr	r2, [r3]
 2524 0560 BB68     		ldr	r3, [r7, #8]
 2525 0562 1A60     		str	r2, [r3]
 2526              	.L150:
 892:..\src/interruptions.c ****         }
 893:..\src/interruptions.c ****         
 894:..\src/interruptions.c ****         if (forced_open == 1) {
 2527              		.loc 1 894 0
 2528 0564 174B     		ldr	r3, .L164+16
 2529 0566 1B78     		ldrb	r3, [r3]	@ zero_extendqisi2
 2530 0568 012B     		cmp	r3, #1
 2531 056a 1ED1     		bne	.L159
 895:..\src/interruptions.c ****             // Open the SoftHand as EMG PROPORTIONAL input mode 
 896:..\src/interruptions.c ****             if (err_emg_2 > 0)
 2532              		.loc 1 896 0
 2533 056c 7B69     		ldr	r3, [r7, #20]
 2534 056e 002B     		cmp	r3, #0
 2535 0570 13DD     		ble	.L151
 897:..\src/interruptions.c ****                 st_ref_p->pos = g_mem.SH.rest_pos - (err_emg_2 * g_mem.SH.rest_pos) / (1024 - c_mem
 2536              		.loc 1 897 0
 2537 0572 154B     		ldr	r3, .L164+20
 2538 0574 D3F8A022 		ldr	r2, [r3, #672]
 2539 0578 134B     		ldr	r3, .L164+20
 2540 057a D3F8A032 		ldr	r3, [r3, #672]
 2541 057e 7969     		ldr	r1, [r7, #20]
 2542 0580 01FB03F1 		mul	r1, r1, r3
 2543 0584 0C4B     		ldr	r3, .L164+4
 2544 0586 B3F8F231 		ldrh	r3, [r3, #498]
 2545 058a C3F58063 		rsb	r3, r3, #1024
 2546 058e 91FBF3F3 		sdiv	r3, r1, r3
 2547 0592 D21A     		subs	r2, r2, r3
 2548 0594 BB68     		ldr	r3, [r7, #8]
 2549 0596 1A60     		str	r2, [r3]
 898:..\src/interruptions.c ****             else {
 899:..\src/interruptions.c ****                 st_ref_p->pos = g_mem.SH.rest_pos;
 900:..\src/interruptions.c ****                 forced_open = 0;
 901:..\src/interruptions.c ****             }
 902:..\src/interruptions.c ****         }
 903:..\src/interruptions.c ****     }
 904:..\src/interruptions.c **** }
 2550              		.loc 1 904 0
 2551 0598 07E0     		b	.L159
 2552              	.L151:
 899:..\src/interruptions.c ****                 forced_open = 0;
 2553              		.loc 1 899 0
 2554 059a 0B4B     		ldr	r3, .L164+20
 2555 059c D3F8A022 		ldr	r2, [r3, #672]
 2556 05a0 BB68     		ldr	r3, [r7, #8]
 2557 05a2 1A60     		str	r2, [r3]
 900:..\src/interruptions.c ****             }
 2558              		.loc 1 900 0
 2559 05a4 074B     		ldr	r3, .L164+16
 2560 05a6 0022     		movs	r2, #0
 2561 05a8 1A70     		strb	r2, [r3]
 2562              	.L159:
 2563              		.loc 1 904 0
ARM GAS  C:\Users\mgnocco\AppData\Local\Temp\cc6peeyS.s 			page 63


 2564 05aa 00BF     		nop
 2565 05ac 2837     		adds	r7, r7, #40
 2566              		.cfi_def_cfa_offset 8
 2567 05ae BD46     		mov	sp, r7
 2568              		.cfi_def_cfa_register 13
 2569              		@ sp needed
 2570 05b0 80BD     		pop	{r7, pc}
 2571              	.L165:
 2572 05b2 00BF     		.align	2
 2573              	.L164:
 2574 05b4 00000000 		.word	battery_low_SoC
 2575 05b8 00000000 		.word	c_mem
 2576 05bc 00000000 		.word	rest_enabled
 2577 05c0 00000000 		.word	rest_pos_curr_ref
 2578 05c4 00000000 		.word	forced_open
 2579 05c8 00000000 		.word	g_mem
 2580              		.cfi_endproc
 2581              	.LFE68:
 2582              		.size	compute_reference, .-compute_reference
 2583              		.section	.text.compute_SoftHand_2_motors_joystick_reference,"ax",%progbits
 2584              		.align	2
 2585              		.global	compute_SoftHand_2_motors_joystick_reference
 2586              		.thumb
 2587              		.thumb_func
 2588              		.type	compute_SoftHand_2_motors_joystick_reference, %function
 2589              	compute_SoftHand_2_motors_joystick_reference:
 2590              	.LFB69:
 905:..\src/interruptions.c **** 
 906:..\src/interruptions.c **** 
 907:..\src/interruptions.c **** //==============================================================================
 908:..\src/interruptions.c **** //                                  COMPUTE SOFTHAND 2 MOTORS JOYSTICK REFERENCE
 909:..\src/interruptions.c **** //==============================================================================
 910:..\src/interruptions.c **** void compute_SoftHand_2_motors_joystick_reference(uint8 motor_idx, struct st_ref* st_ref_p, struct 
 2591              		.loc 1 910 0
 2592              		.cfi_startproc
 2593              		@ args = 0, pretend = 0, frame = 32
 2594              		@ frame_needed = 1, uses_anonymous_args = 0
 2595              		@ link register save eliminated.
 2596 0000 80B4     		push	{r7}
 2597              		.cfi_def_cfa_offset 4
 2598              		.cfi_offset 7, -4
 2599 0002 89B0     		sub	sp, sp, #36
 2600              		.cfi_def_cfa_offset 40
 2601 0004 00AF     		add	r7, sp, #0
 2602              		.cfi_def_cfa_register 7
 2603 0006 0346     		mov	r3, r0
 2604 0008 B960     		str	r1, [r7, #8]
 2605 000a 7A60     		str	r2, [r7, #4]
 2606 000c FB73     		strb	r3, [r7, #15]
 911:..\src/interruptions.c ****     
 912:..\src/interruptions.c ****     if (c_mem.motor[0].input_mode == INPUT_MODE_JOYSTICK && c_mem.motor[1].input_mode == INPUT_MODE
 2607              		.loc 1 912 0
 2608 000e B04B     		ldr	r3, .L187
 2609 0010 93F80E31 		ldrb	r3, [r3, #270]	@ zero_extendqisi2
 2610 0014 062B     		cmp	r3, #6
 2611 0016 40F08581 		bne	.L185
 2612              		.loc 1 912 0 is_stmt 0 discriminator 1
ARM GAS  C:\Users\mgnocco\AppData\Local\Temp\cc6peeyS.s 			page 64


 2613 001a AD4B     		ldr	r3, .L187
 2614 001c 93F87E31 		ldrb	r3, [r3, #382]	@ zero_extendqisi2
 2615 0020 062B     		cmp	r3, #6
 2616 0022 40F07F81 		bne	.L185
 913:..\src/interruptions.c ****         st_ref_p->pos = st_refOld_p->pos;
 2617              		.loc 1 913 0 is_stmt 1
 2618 0026 7B68     		ldr	r3, [r7, #4]
 2619 0028 1A68     		ldr	r2, [r3]
 2620 002a BB68     		ldr	r3, [r7, #8]
 2621 002c 1A60     		str	r2, [r3]
 914:..\src/interruptions.c ****     
 915:..\src/interruptions.c ****         if(!(g_adc_meas.joystick[0] > 700)) {
 2622              		.loc 1 915 0
 2623 002e A94B     		ldr	r3, .L187+4
 2624 0030 1B6A     		ldr	r3, [r3, #32]
 2625 0032 B3F52F7F 		cmp	r3, #700
 2626 0036 00F3C280 		bgt	.L168
 2627              	.LBB6:
 916:..\src/interruptions.c ****              
 917:..\src/interruptions.c ****             int32 CYDATA err_joy_1 = 0;
 2628              		.loc 1 917 0
 2629 003a 0023     		movs	r3, #0
 2630 003c FB61     		str	r3, [r7, #28]
 918:..\src/interruptions.c ****             int32 CYDATA err_joy_2 = 0;
 2631              		.loc 1 918 0
 2632 003e 0023     		movs	r3, #0
 2633 0040 BB61     		str	r3, [r7, #24]
 919:..\src/interruptions.c ****         
 920:..\src/interruptions.c ****             if(g_adc_meas.joystick[0] > c_mem.JOY_spec.joystick_threshold) {     //both motors wind
 2634              		.loc 1 920 0
 2635 0042 A44B     		ldr	r3, .L187+4
 2636 0044 1B6A     		ldr	r3, [r3, #32]
 2637 0046 A24A     		ldr	r2, .L187
 2638 0048 B2F9B222 		ldrsh	r2, [r2, #690]
 2639 004c 9342     		cmp	r3, r2
 2640 004e 1ADD     		ble	.L169
 921:..\src/interruptions.c ****                 err_joy_1 = g_adc_meas.joystick[0] - c_mem.JOY_spec.joystick_threshold;
 2641              		.loc 1 921 0
 2642 0050 A04B     		ldr	r3, .L187+4
 2643 0052 1B6A     		ldr	r3, [r3, #32]
 2644 0054 9E4A     		ldr	r2, .L187
 2645 0056 B2F9B222 		ldrsh	r2, [r2, #690]
 2646 005a 9B1A     		subs	r3, r3, r2
 2647 005c FB61     		str	r3, [r7, #28]
 922:..\src/interruptions.c ****                 st_ref_p->pos += ((int32) err_joy_1 * c_mem.JOY_spec.joystick_closure_speed) / (102
 2648              		.loc 1 922 0
 2649 005e BB68     		ldr	r3, [r7, #8]
 2650 0060 1A68     		ldr	r2, [r3]
 2651 0062 9B4B     		ldr	r3, .L187
 2652 0064 B3F8B032 		ldrh	r3, [r3, #688]
 2653 0068 1946     		mov	r1, r3
 2654 006a FB69     		ldr	r3, [r7, #28]
 2655 006c 03FB01F1 		mul	r1, r3, r1
 2656 0070 974B     		ldr	r3, .L187
 2657 0072 B3F9B232 		ldrsh	r3, [r3, #690]
 2658 0076 C3F58063 		rsb	r3, r3, #1024
 2659 007a 91FBF3F3 		sdiv	r3, r1, r3
ARM GAS  C:\Users\mgnocco\AppData\Local\Temp\cc6peeyS.s 			page 65


 2660 007e 1A44     		add	r2, r2, r3
 2661 0080 BB68     		ldr	r3, [r7, #8]
 2662 0082 1A60     		str	r2, [r3]
 2663 0084 21E0     		b	.L170
 2664              	.L169:
 923:..\src/interruptions.c ****             }
 924:..\src/interruptions.c ****             else {
 925:..\src/interruptions.c ****                 if(g_adc_meas.joystick[0] < -c_mem.JOY_spec.joystick_threshold) {  //both motors un
 2665              		.loc 1 925 0
 2666 0086 934B     		ldr	r3, .L187+4
 2667 0088 1A6A     		ldr	r2, [r3, #32]
 2668 008a 914B     		ldr	r3, .L187
 2669 008c B3F9B232 		ldrsh	r3, [r3, #690]
 2670 0090 5B42     		negs	r3, r3
 2671 0092 9A42     		cmp	r2, r3
 2672 0094 19DA     		bge	.L170
 926:..\src/interruptions.c ****                     err_joy_1 = g_adc_meas.joystick[0] + c_mem.JOY_spec.joystick_threshold;
 2673              		.loc 1 926 0
 2674 0096 8F4B     		ldr	r3, .L187+4
 2675 0098 1B6A     		ldr	r3, [r3, #32]
 2676 009a 8D4A     		ldr	r2, .L187
 2677 009c B2F9B222 		ldrsh	r2, [r2, #690]
 2678 00a0 1344     		add	r3, r3, r2
 2679 00a2 FB61     		str	r3, [r7, #28]
 927:..\src/interruptions.c ****                     st_ref_p->pos += ((int32) err_joy_1 * c_mem.JOY_spec.joystick_closure_speed) / 
 2680              		.loc 1 927 0
 2681 00a4 BB68     		ldr	r3, [r7, #8]
 2682 00a6 1A68     		ldr	r2, [r3]
 2683 00a8 894B     		ldr	r3, .L187
 2684 00aa B3F8B032 		ldrh	r3, [r3, #688]
 2685 00ae 1946     		mov	r1, r3
 2686 00b0 FB69     		ldr	r3, [r7, #28]
 2687 00b2 03FB01F1 		mul	r1, r3, r1
 2688 00b6 864B     		ldr	r3, .L187
 2689 00b8 B3F9B232 		ldrsh	r3, [r3, #690]
 2690 00bc C3F58063 		rsb	r3, r3, #1024
 2691 00c0 91FBF3F3 		sdiv	r3, r1, r3
 2692 00c4 1A44     		add	r2, r2, r3
 2693 00c6 BB68     		ldr	r3, [r7, #8]
 2694 00c8 1A60     		str	r2, [r3]
 2695              	.L170:
 928:..\src/interruptions.c ****                 }
 929:..\src/interruptions.c ****             }
 930:..\src/interruptions.c **** 
 931:..\src/interruptions.c ****             if(g_adc_meas.joystick[1] > c_mem.JOY_spec.joystick_threshold) {    //The wire is winde
 2696              		.loc 1 931 0
 2697 00ca 824B     		ldr	r3, .L187+4
 2698 00cc 5B6A     		ldr	r3, [r3, #36]
 2699 00ce 804A     		ldr	r2, .L187
 2700 00d0 B2F9B222 		ldrsh	r2, [r2, #690]
 2701 00d4 9342     		cmp	r3, r2
 2702 00d6 34DD     		ble	.L171
 932:..\src/interruptions.c ****                 err_joy_2 = g_adc_meas.joystick[1] - c_mem.JOY_spec.joystick_threshold;
 2703              		.loc 1 932 0
 2704 00d8 7E4B     		ldr	r3, .L187+4
 2705 00da 5B6A     		ldr	r3, [r3, #36]
 2706 00dc 7C4A     		ldr	r2, .L187
ARM GAS  C:\Users\mgnocco\AppData\Local\Temp\cc6peeyS.s 			page 66


 2707 00de B2F9B222 		ldrsh	r2, [r2, #690]
 2708 00e2 9B1A     		subs	r3, r3, r2
 2709 00e4 BB61     		str	r3, [r7, #24]
 933:..\src/interruptions.c ****                 if (motor_idx == 0){
 2710              		.loc 1 933 0
 2711 00e6 FB7B     		ldrb	r3, [r7, #15]	@ zero_extendqisi2
 2712 00e8 002B     		cmp	r3, #0
 2713 00ea 12D1     		bne	.L172
 934:..\src/interruptions.c ****                     st_ref_p->pos += ((int32) err_joy_2 * c_mem.JOY_spec.joystick_closure_speed) / 
 2714              		.loc 1 934 0
 2715 00ec BB68     		ldr	r3, [r7, #8]
 2716 00ee 1A68     		ldr	r2, [r3]
 2717 00f0 774B     		ldr	r3, .L187
 2718 00f2 B3F8B032 		ldrh	r3, [r3, #688]
 2719 00f6 1946     		mov	r1, r3
 2720 00f8 BB69     		ldr	r3, [r7, #24]
 2721 00fa 03FB01F1 		mul	r1, r3, r1
 2722 00fe 744B     		ldr	r3, .L187
 2723 0100 B3F9B232 		ldrsh	r3, [r3, #690]
 2724 0104 C3F58063 		rsb	r3, r3, #1024
 2725 0108 91FBF3F3 		sdiv	r3, r1, r3
 2726 010c 1A44     		add	r2, r2, r3
 2727 010e BB68     		ldr	r3, [r7, #8]
 2728 0110 1A60     		str	r2, [r3]
 2729              	.L172:
 935:..\src/interruptions.c ****                 }
 936:..\src/interruptions.c ****                 if (motor_idx == 1){
 2730              		.loc 1 936 0
 2731 0112 FB7B     		ldrb	r3, [r7, #15]	@ zero_extendqisi2
 2732 0114 012B     		cmp	r3, #1
 2733 0116 40F00581 		bne	.L185
 937:..\src/interruptions.c ****                     st_ref_p->pos -= ((int32) err_joy_2 * c_mem.JOY_spec.joystick_closure_speed) / 
 2734              		.loc 1 937 0
 2735 011a BB68     		ldr	r3, [r7, #8]
 2736 011c 1A68     		ldr	r2, [r3]
 2737 011e 6C4B     		ldr	r3, .L187
 2738 0120 B3F8B032 		ldrh	r3, [r3, #688]
 2739 0124 1946     		mov	r1, r3
 2740 0126 BB69     		ldr	r3, [r7, #24]
 2741 0128 03FB01F1 		mul	r1, r3, r1
 2742 012c 684B     		ldr	r3, .L187
 2743 012e B3F9B232 		ldrsh	r3, [r3, #690]
 2744 0132 C3F58063 		rsb	r3, r3, #1024
 2745 0136 91FBF3F3 		sdiv	r3, r1, r3
 2746 013a D21A     		subs	r2, r2, r3
 2747 013c BB68     		ldr	r3, [r7, #8]
 2748 013e 1A60     		str	r2, [r3]
 2749              	.LBE6:
 938:..\src/interruptions.c ****                 }          
 939:..\src/interruptions.c ****             }
 940:..\src/interruptions.c ****             else {
 941:..\src/interruptions.c ****                 if(g_adc_meas.joystick[1] < -c_mem.JOY_spec.joystick_threshold) {  //The wire is un
 942:..\src/interruptions.c ****                     
 943:..\src/interruptions.c ****                     err_joy_2 = g_adc_meas.joystick[1] + c_mem.JOY_spec.joystick_threshold;
 944:..\src/interruptions.c ****                     if (motor_idx == 0){
 945:..\src/interruptions.c ****                         st_ref_p->pos += ((int32) err_joy_2 * c_mem.JOY_spec.joystick_closure_speed
 946:..\src/interruptions.c ****                     }
ARM GAS  C:\Users\mgnocco\AppData\Local\Temp\cc6peeyS.s 			page 67


 947:..\src/interruptions.c ****                     if (motor_idx == 1){
 948:..\src/interruptions.c ****                         st_ref_p->pos -= ((int32) err_joy_2 * c_mem.JOY_spec.joystick_closure_speed
 949:..\src/interruptions.c ****                     }
 950:..\src/interruptions.c ****                 }
 951:..\src/interruptions.c ****             }
 952:..\src/interruptions.c ****         }
 953:..\src/interruptions.c ****         else {  //The button is pressed and the hand is opened firstly making the position differen
 954:..\src/interruptions.c ****                 //equal to zero, then the position sum is gradually set to zero 
 955:..\src/interruptions.c ****             int32 pos_diff = (g_meas[c_mem.motor[0].encoder_line].pos[0] - g_meas[c_mem.motor[0].en
 956:..\src/interruptions.c ****             int32 pos_sum = (g_meas[c_mem.motor[0].encoder_line].pos[0] + g_meas[c_mem.motor[0].enc
 957:..\src/interruptions.c **** 
 958:..\src/interruptions.c ****             if(pos_diff > 500 || pos_diff < -500) {
 959:..\src/interruptions.c ****                 if(SIGN(pos_diff) == 1) {
 960:..\src/interruptions.c ****                     if (motor_idx == 1){
 961:..\src/interruptions.c ****                         st_ref_p->pos += c_mem.JOY_spec.joystick_closure_speed;
 962:..\src/interruptions.c ****                     }
 963:..\src/interruptions.c ****                     if (motor_idx == 0){
 964:..\src/interruptions.c ****                         st_ref_p->pos -= c_mem.JOY_spec.joystick_closure_speed / 2;
 965:..\src/interruptions.c ****                     }                    
 966:..\src/interruptions.c ****                 }
 967:..\src/interruptions.c ****                 else {
 968:..\src/interruptions.c ****                     if (motor_idx == 0){
 969:..\src/interruptions.c ****                         st_ref_p->pos += c_mem.JOY_spec.joystick_closure_speed;
 970:..\src/interruptions.c ****                     }
 971:..\src/interruptions.c ****                     if (motor_idx == 1){
 972:..\src/interruptions.c ****                         st_ref_p->pos -= c_mem.JOY_spec.joystick_closure_speed / 2;
 973:..\src/interruptions.c ****                     }
 974:..\src/interruptions.c ****                 }
 975:..\src/interruptions.c ****                 
 976:..\src/interruptions.c ****             }
 977:..\src/interruptions.c ****             else {
 978:..\src/interruptions.c ****                 if(pos_sum > 0) {
 979:..\src/interruptions.c ****                     if (motor_idx == 0){
 980:..\src/interruptions.c ****                         st_ref_p->pos -= c_mem.JOY_spec.joystick_closure_speed * 2;
 981:..\src/interruptions.c ****                     }
 982:..\src/interruptions.c ****                     if (motor_idx == 1){
 983:..\src/interruptions.c ****                         st_ref_p->pos -= c_mem.JOY_spec.joystick_closure_speed * 2;
 984:..\src/interruptions.c ****                     }
 985:..\src/interruptions.c ****                     
 986:..\src/interruptions.c ****                     if (st_ref_p->pos < 0){
 987:..\src/interruptions.c ****                         st_ref_p->pos = 0;
 988:..\src/interruptions.c ****                     }
 989:..\src/interruptions.c ****                 }
 990:..\src/interruptions.c ****             }
 991:..\src/interruptions.c ****         }
 992:..\src/interruptions.c ****     }           
 993:..\src/interruptions.c **** }
 2750              		.loc 1 993 0
 2751 0140 F0E0     		b	.L185
 2752              	.L171:
 2753              	.LBB7:
 941:..\src/interruptions.c ****                     
 2754              		.loc 1 941 0
 2755 0142 644B     		ldr	r3, .L187+4
 2756 0144 5A6A     		ldr	r2, [r3, #36]
 2757 0146 624B     		ldr	r3, .L187
 2758 0148 B3F9B232 		ldrsh	r3, [r3, #690]
ARM GAS  C:\Users\mgnocco\AppData\Local\Temp\cc6peeyS.s 			page 68


 2759 014c 5B42     		negs	r3, r3
 2760 014e 9A42     		cmp	r2, r3
 2761 0150 80F2E880 		bge	.L185
 943:..\src/interruptions.c ****                     if (motor_idx == 0){
 2762              		.loc 1 943 0
 2763 0154 5F4B     		ldr	r3, .L187+4
 2764 0156 5B6A     		ldr	r3, [r3, #36]
 2765 0158 5D4A     		ldr	r2, .L187
 2766 015a B2F9B222 		ldrsh	r2, [r2, #690]
 2767 015e 1344     		add	r3, r3, r2
 2768 0160 BB61     		str	r3, [r7, #24]
 944:..\src/interruptions.c ****                         st_ref_p->pos += ((int32) err_joy_2 * c_mem.JOY_spec.joystick_closure_speed
 2769              		.loc 1 944 0
 2770 0162 FB7B     		ldrb	r3, [r7, #15]	@ zero_extendqisi2
 2771 0164 002B     		cmp	r3, #0
 2772 0166 12D1     		bne	.L175
 945:..\src/interruptions.c ****                     }
 2773              		.loc 1 945 0
 2774 0168 BB68     		ldr	r3, [r7, #8]
 2775 016a 1A68     		ldr	r2, [r3]
 2776 016c 584B     		ldr	r3, .L187
 2777 016e B3F8B032 		ldrh	r3, [r3, #688]
 2778 0172 1946     		mov	r1, r3
 2779 0174 BB69     		ldr	r3, [r7, #24]
 2780 0176 03FB01F1 		mul	r1, r3, r1
 2781 017a 554B     		ldr	r3, .L187
 2782 017c B3F9B232 		ldrsh	r3, [r3, #690]
 2783 0180 C3F58063 		rsb	r3, r3, #1024
 2784 0184 91FBF3F3 		sdiv	r3, r1, r3
 2785 0188 1A44     		add	r2, r2, r3
 2786 018a BB68     		ldr	r3, [r7, #8]
 2787 018c 1A60     		str	r2, [r3]
 2788              	.L175:
 947:..\src/interruptions.c ****                         st_ref_p->pos -= ((int32) err_joy_2 * c_mem.JOY_spec.joystick_closure_speed
 2789              		.loc 1 947 0
 2790 018e FB7B     		ldrb	r3, [r7, #15]	@ zero_extendqisi2
 2791 0190 012B     		cmp	r3, #1
 2792 0192 40F0C780 		bne	.L185
 948:..\src/interruptions.c ****                     }
 2793              		.loc 1 948 0
 2794 0196 BB68     		ldr	r3, [r7, #8]
 2795 0198 1A68     		ldr	r2, [r3]
 2796 019a 4D4B     		ldr	r3, .L187
 2797 019c B3F8B032 		ldrh	r3, [r3, #688]
 2798 01a0 1946     		mov	r1, r3
 2799 01a2 BB69     		ldr	r3, [r7, #24]
 2800 01a4 03FB01F1 		mul	r1, r3, r1
 2801 01a8 494B     		ldr	r3, .L187
 2802 01aa B3F9B232 		ldrsh	r3, [r3, #690]
 2803 01ae C3F58063 		rsb	r3, r3, #1024
 2804 01b2 91FBF3F3 		sdiv	r3, r1, r3
 2805 01b6 D21A     		subs	r2, r2, r3
 2806 01b8 BB68     		ldr	r3, [r7, #8]
 2807 01ba 1A60     		str	r2, [r3]
 2808              	.LBE7:
 2809              		.loc 1 993 0
 2810 01bc B2E0     		b	.L185
ARM GAS  C:\Users\mgnocco\AppData\Local\Temp\cc6peeyS.s 			page 69


 2811              	.L168:
 2812              	.LBB8:
 955:..\src/interruptions.c ****             int32 pos_sum = (g_meas[c_mem.motor[0].encoder_line].pos[0] + g_meas[c_mem.motor[0].enc
 2813              		.loc 1 955 0
 2814 01be 444B     		ldr	r3, .L187
 2815 01c0 93F81031 		ldrb	r3, [r3, #272]	@ zero_extendqisi2
 2816 01c4 1946     		mov	r1, r3
 2817 01c6 444A     		ldr	r2, .L187+8
 2818 01c8 3423     		movs	r3, #52
 2819 01ca 03FB01F3 		mul	r3, r3, r1
 2820 01ce 1344     		add	r3, r3, r2
 2821 01d0 1A68     		ldr	r2, [r3]
 2822 01d2 3F4B     		ldr	r3, .L187
 2823 01d4 93F81031 		ldrb	r3, [r3, #272]	@ zero_extendqisi2
 2824 01d8 1846     		mov	r0, r3
 2825 01da 3F49     		ldr	r1, .L187+8
 2826 01dc 3423     		movs	r3, #52
 2827 01de 03FB00F3 		mul	r3, r3, r0
 2828 01e2 0B44     		add	r3, r3, r1
 2829 01e4 0433     		adds	r3, r3, #4
 2830 01e6 1B68     		ldr	r3, [r3]
 2831 01e8 D21A     		subs	r2, r2, r3
 2832 01ea 394B     		ldr	r3, .L187
 2833 01ec 93F81031 		ldrb	r3, [r3, #272]	@ zero_extendqisi2
 2834 01f0 1846     		mov	r0, r3
 2835 01f2 3749     		ldr	r1, .L187
 2836 01f4 0346     		mov	r3, r0
 2837 01f6 5B00     		lsls	r3, r3, #1
 2838 01f8 0344     		add	r3, r3, r0
 2839 01fa 1B01     		lsls	r3, r3, #4
 2840 01fc 0B44     		add	r3, r3, r1
 2841 01fe 03F29513 		addw	r3, r3, #405
 2842 0202 1B78     		ldrb	r3, [r3]	@ zero_extendqisi2
 2843 0204 42FA03F3 		asr	r3, r2, r3
 2844 0208 7B61     		str	r3, [r7, #20]
 956:..\src/interruptions.c **** 
 2845              		.loc 1 956 0
 2846 020a 314B     		ldr	r3, .L187
 2847 020c 93F81031 		ldrb	r3, [r3, #272]	@ zero_extendqisi2
 2848 0210 1946     		mov	r1, r3
 2849 0212 314A     		ldr	r2, .L187+8
 2850 0214 3423     		movs	r3, #52
 2851 0216 03FB01F3 		mul	r3, r3, r1
 2852 021a 1344     		add	r3, r3, r2
 2853 021c 1A68     		ldr	r2, [r3]
 2854 021e 2C4B     		ldr	r3, .L187
 2855 0220 93F81031 		ldrb	r3, [r3, #272]	@ zero_extendqisi2
 2856 0224 1846     		mov	r0, r3
 2857 0226 2C49     		ldr	r1, .L187+8
 2858 0228 3423     		movs	r3, #52
 2859 022a 03FB00F3 		mul	r3, r3, r0
 2860 022e 0B44     		add	r3, r3, r1
 2861 0230 0433     		adds	r3, r3, #4
 2862 0232 1B68     		ldr	r3, [r3]
 2863 0234 1A44     		add	r2, r2, r3
 2864 0236 264B     		ldr	r3, .L187
 2865 0238 93F81031 		ldrb	r3, [r3, #272]	@ zero_extendqisi2
ARM GAS  C:\Users\mgnocco\AppData\Local\Temp\cc6peeyS.s 			page 70


 2866 023c 1846     		mov	r0, r3
 2867 023e 2449     		ldr	r1, .L187
 2868 0240 0346     		mov	r3, r0
 2869 0242 5B00     		lsls	r3, r3, #1
 2870 0244 0344     		add	r3, r3, r0
 2871 0246 1B01     		lsls	r3, r3, #4
 2872 0248 0B44     		add	r3, r3, r1
 2873 024a 03F29513 		addw	r3, r3, #405
 2874 024e 1B78     		ldrb	r3, [r3]	@ zero_extendqisi2
 2875 0250 42FA03F3 		asr	r3, r2, r3
 2876 0254 3B61     		str	r3, [r7, #16]
 958:..\src/interruptions.c ****                 if(SIGN(pos_diff) == 1) {
 2877              		.loc 1 958 0
 2878 0256 7B69     		ldr	r3, [r7, #20]
 2879 0258 B3F5FA7F 		cmp	r3, #500
 2880 025c 03DC     		bgt	.L176
 958:..\src/interruptions.c ****                 if(SIGN(pos_diff) == 1) {
 2881              		.loc 1 958 0 is_stmt 0 discriminator 1
 2882 025e 7B69     		ldr	r3, [r7, #20]
 2883 0260 13F5FA7F 		cmn	r3, #500
 2884 0264 3ADA     		bge	.L177
 2885              	.L176:
 959:..\src/interruptions.c ****                     if (motor_idx == 1){
 2886              		.loc 1 959 0 is_stmt 1
 2887 0266 7B69     		ldr	r3, [r7, #20]
 2888 0268 002B     		cmp	r3, #0
 2889 026a 18DB     		blt	.L178
 960:..\src/interruptions.c ****                         st_ref_p->pos += c_mem.JOY_spec.joystick_closure_speed;
 2890              		.loc 1 960 0
 2891 026c FB7B     		ldrb	r3, [r7, #15]	@ zero_extendqisi2
 2892 026e 012B     		cmp	r3, #1
 2893 0270 07D1     		bne	.L179
 961:..\src/interruptions.c ****                     }
 2894              		.loc 1 961 0
 2895 0272 BB68     		ldr	r3, [r7, #8]
 2896 0274 1B68     		ldr	r3, [r3]
 2897 0276 164A     		ldr	r2, .L187
 2898 0278 B2F8B022 		ldrh	r2, [r2, #688]
 2899 027c 1A44     		add	r2, r2, r3
 2900 027e BB68     		ldr	r3, [r7, #8]
 2901 0280 1A60     		str	r2, [r3]
 2902              	.L179:
 963:..\src/interruptions.c ****                         st_ref_p->pos -= c_mem.JOY_spec.joystick_closure_speed / 2;
 2903              		.loc 1 963 0
 2904 0282 FB7B     		ldrb	r3, [r7, #15]	@ zero_extendqisi2
 2905 0284 002B     		cmp	r3, #0
 2906 0286 4CD1     		bne	.L186
 964:..\src/interruptions.c ****                     }                    
 2907              		.loc 1 964 0
 2908 0288 BB68     		ldr	r3, [r7, #8]
 2909 028a 1B68     		ldr	r3, [r3]
 2910 028c 104A     		ldr	r2, .L187
 2911 028e B2F8B022 		ldrh	r2, [r2, #688]
 2912 0292 5208     		lsrs	r2, r2, #1
 2913 0294 92B2     		uxth	r2, r2
 2914 0296 9A1A     		subs	r2, r3, r2
 2915 0298 BB68     		ldr	r3, [r7, #8]
ARM GAS  C:\Users\mgnocco\AppData\Local\Temp\cc6peeyS.s 			page 71


 2916 029a 1A60     		str	r2, [r3]
 959:..\src/interruptions.c ****                     if (motor_idx == 1){
 2917              		.loc 1 959 0
 2918 029c 41E0     		b	.L186
 2919              	.L178:
 968:..\src/interruptions.c ****                         st_ref_p->pos += c_mem.JOY_spec.joystick_closure_speed;
 2920              		.loc 1 968 0
 2921 029e FB7B     		ldrb	r3, [r7, #15]	@ zero_extendqisi2
 2922 02a0 002B     		cmp	r3, #0
 2923 02a2 07D1     		bne	.L182
 969:..\src/interruptions.c ****                     }
 2924              		.loc 1 969 0
 2925 02a4 BB68     		ldr	r3, [r7, #8]
 2926 02a6 1B68     		ldr	r3, [r3]
 2927 02a8 094A     		ldr	r2, .L187
 2928 02aa B2F8B022 		ldrh	r2, [r2, #688]
 2929 02ae 1A44     		add	r2, r2, r3
 2930 02b0 BB68     		ldr	r3, [r7, #8]
 2931 02b2 1A60     		str	r2, [r3]
 2932              	.L182:
 971:..\src/interruptions.c ****                         st_ref_p->pos -= c_mem.JOY_spec.joystick_closure_speed / 2;
 2933              		.loc 1 971 0
 2934 02b4 FB7B     		ldrb	r3, [r7, #15]	@ zero_extendqisi2
 2935 02b6 012B     		cmp	r3, #1
 2936 02b8 33D1     		bne	.L186
 972:..\src/interruptions.c ****                     }
 2937              		.loc 1 972 0
 2938 02ba BB68     		ldr	r3, [r7, #8]
 2939 02bc 1B68     		ldr	r3, [r3]
 2940 02be 044A     		ldr	r2, .L187
 2941 02c0 B2F8B022 		ldrh	r2, [r2, #688]
 2942 02c4 5208     		lsrs	r2, r2, #1
 2943 02c6 92B2     		uxth	r2, r2
 2944 02c8 9A1A     		subs	r2, r3, r2
 2945 02ca BB68     		ldr	r3, [r7, #8]
 2946 02cc 1A60     		str	r2, [r3]
 959:..\src/interruptions.c ****                     if (motor_idx == 1){
 2947              		.loc 1 959 0
 2948 02ce 28E0     		b	.L186
 2949              	.L188:
 2950              		.align	2
 2951              	.L187:
 2952 02d0 00000000 		.word	c_mem
 2953 02d4 00000000 		.word	g_adc_meas
 2954 02d8 00000000 		.word	g_meas
 2955              	.L177:
 978:..\src/interruptions.c ****                     if (motor_idx == 0){
 2956              		.loc 1 978 0
 2957 02dc 3B69     		ldr	r3, [r7, #16]
 2958 02de 002B     		cmp	r3, #0
 2959 02e0 20DD     		ble	.L185
 979:..\src/interruptions.c ****                         st_ref_p->pos -= c_mem.JOY_spec.joystick_closure_speed * 2;
 2960              		.loc 1 979 0
 2961 02e2 FB7B     		ldrb	r3, [r7, #15]	@ zero_extendqisi2
 2962 02e4 002B     		cmp	r3, #0
 2963 02e6 08D1     		bne	.L183
 980:..\src/interruptions.c ****                     }
ARM GAS  C:\Users\mgnocco\AppData\Local\Temp\cc6peeyS.s 			page 72


 2964              		.loc 1 980 0
 2965 02e8 BB68     		ldr	r3, [r7, #8]
 2966 02ea 1A68     		ldr	r2, [r3]
 2967 02ec 104B     		ldr	r3, .L189
 2968 02ee B3F8B032 		ldrh	r3, [r3, #688]
 2969 02f2 5B00     		lsls	r3, r3, #1
 2970 02f4 D21A     		subs	r2, r2, r3
 2971 02f6 BB68     		ldr	r3, [r7, #8]
 2972 02f8 1A60     		str	r2, [r3]
 2973              	.L183:
 982:..\src/interruptions.c ****                         st_ref_p->pos -= c_mem.JOY_spec.joystick_closure_speed * 2;
 2974              		.loc 1 982 0
 2975 02fa FB7B     		ldrb	r3, [r7, #15]	@ zero_extendqisi2
 2976 02fc 012B     		cmp	r3, #1
 2977 02fe 08D1     		bne	.L184
 983:..\src/interruptions.c ****                     }
 2978              		.loc 1 983 0
 2979 0300 BB68     		ldr	r3, [r7, #8]
 2980 0302 1A68     		ldr	r2, [r3]
 2981 0304 0A4B     		ldr	r3, .L189
 2982 0306 B3F8B032 		ldrh	r3, [r3, #688]
 2983 030a 5B00     		lsls	r3, r3, #1
 2984 030c D21A     		subs	r2, r2, r3
 2985 030e BB68     		ldr	r3, [r7, #8]
 2986 0310 1A60     		str	r2, [r3]
 2987              	.L184:
 986:..\src/interruptions.c ****                         st_ref_p->pos = 0;
 2988              		.loc 1 986 0
 2989 0312 BB68     		ldr	r3, [r7, #8]
 2990 0314 1B68     		ldr	r3, [r3]
 2991 0316 002B     		cmp	r3, #0
 2992 0318 04DA     		bge	.L185
 987:..\src/interruptions.c ****                     }
 2993              		.loc 1 987 0
 2994 031a BB68     		ldr	r3, [r7, #8]
 2995 031c 0022     		movs	r2, #0
 2996 031e 1A60     		str	r2, [r3]
 2997              	.LBE8:
 2998              		.loc 1 993 0
 2999 0320 00E0     		b	.L185
 3000              	.L186:
 3001              	.LBB9:
 959:..\src/interruptions.c ****                     if (motor_idx == 1){
 3002              		.loc 1 959 0
 3003 0322 00BF     		nop
 3004              	.L185:
 3005              	.LBE9:
 3006              		.loc 1 993 0
 3007 0324 00BF     		nop
 3008 0326 2437     		adds	r7, r7, #36
 3009              		.cfi_def_cfa_offset 4
 3010 0328 BD46     		mov	sp, r7
 3011              		.cfi_def_cfa_register 13
 3012              		@ sp needed
 3013 032a 80BC     		pop	{r7}
 3014              		.cfi_restore 7
 3015              		.cfi_def_cfa_offset 0
ARM GAS  C:\Users\mgnocco\AppData\Local\Temp\cc6peeyS.s 			page 73


 3016 032c 7047     		bx	lr
 3017              	.L190:
 3018 032e 00BF     		.align	2
 3019              	.L189:
 3020 0330 00000000 		.word	c_mem
 3021              		.cfi_endproc
 3022              	.LFE69:
 3023              		.size	compute_SoftHand_2_motors_joystick_reference, .-compute_SoftHand_2_motors_joystick_reference
 3024              		.section	.text.compute_SoftHand_2_motors_emg_reference,"ax",%progbits
 3025              		.align	2
 3026              		.global	compute_SoftHand_2_motors_emg_reference
 3027              		.thumb
 3028              		.thumb_func
 3029              		.type	compute_SoftHand_2_motors_emg_reference, %function
 3030              	compute_SoftHand_2_motors_emg_reference:
 3031              	.LFB70:
 994:..\src/interruptions.c **** 
 995:..\src/interruptions.c **** 
 996:..\src/interruptions.c **** //==============================================================================
 997:..\src/interruptions.c **** //                                       COMPUTE SOFTHAND 2 MOTORS EMG REFERENCE
 998:..\src/interruptions.c **** //==============================================================================
 999:..\src/interruptions.c **** void compute_SoftHand_2_motors_emg_reference(uint8 motor_idx, struct st_ref* st_ref_p, struct st_re
1000:..\src/interruptions.c ****     int32 err_emg_1, int32 err_emg_2) {
 3032              		.loc 1 1000 0
 3033              		.cfi_startproc
 3034              		@ args = 4, pretend = 0, frame = 16
 3035              		@ frame_needed = 1, uses_anonymous_args = 0
 3036 0000 80B5     		push	{r7, lr}
 3037              		.cfi_def_cfa_offset 8
 3038              		.cfi_offset 7, -8
 3039              		.cfi_offset 14, -4
 3040 0002 84B0     		sub	sp, sp, #16
 3041              		.cfi_def_cfa_offset 24
 3042 0004 00AF     		add	r7, sp, #0
 3043              		.cfi_def_cfa_register 7
 3044 0006 B960     		str	r1, [r7, #8]
 3045 0008 7A60     		str	r2, [r7, #4]
 3046 000a 3B60     		str	r3, [r7]
 3047 000c 0346     		mov	r3, r0
 3048 000e FB73     		strb	r3, [r7, #15]
1001:..\src/interruptions.c ****     
1002:..\src/interruptions.c ****     //Compute reference using a FSM for choosing the right sinergy to activate (call this routine o
1003:..\src/interruptions.c ****     static uint8 fsm_state;     
1004:..\src/interruptions.c ****     if (motor_idx == 0){        //update the fsm only at motor 0 compute reference call and hold th
 3049              		.loc 1 1004 0
 3050 0010 FB7B     		ldrb	r3, [r7, #15]	@ zero_extendqisi2
 3051 0012 002B     		cmp	r3, #0
 3052 0014 05D1     		bne	.L192
1005:..\src/interruptions.c ****         fsm_state = emg_activation_velocity_fsm();
 3053              		.loc 1 1005 0
 3054 0016 FFF7FEFF 		bl	emg_activation_velocity_fsm
 3055 001a 0346     		mov	r3, r0
 3056 001c 1A46     		mov	r2, r3
 3057 001e 614B     		ldr	r3, .L207
 3058 0020 1A70     		strb	r2, [r3]
 3059              	.L192:
1006:..\src/interruptions.c ****     }
ARM GAS  C:\Users\mgnocco\AppData\Local\Temp\cc6peeyS.s 			page 74


1007:..\src/interruptions.c ****        
1008:..\src/interruptions.c ****     switch (fsm_state){
 3060              		.loc 1 1008 0
 3061 0022 604B     		ldr	r3, .L207
 3062 0024 1B78     		ldrb	r3, [r3]	@ zero_extendqisi2
 3063 0026 032B     		cmp	r3, #3
 3064 0028 00F2B780 		bhi	.L204
 3065 002c 01A2     		adr	r2, .L195
 3066 002e 52F823F0 		ldr	pc, [r2, r3, lsl #2]
 3067 0032 00BF     		.p2align 2
 3068              	.L195:
 3069 0034 45000000 		.word	.L194+1
 3070 0038 45000000 		.word	.L194+1
 3071 003c BF000000 		.word	.L196+1
 3072 0040 4F000000 		.word	.L197+1
 3073              		.p2align 1
 3074              	.L194:
1009:..\src/interruptions.c ****         case RELAX_STATE: case TIMER_STATE:
1010:..\src/interruptions.c ****              
1011:..\src/interruptions.c ****             st_ref_p->pos = st_refOld_p->pos;
 3075              		.loc 1 1011 0
 3076 0044 7B68     		ldr	r3, [r7, #4]
 3077 0046 1A68     		ldr	r2, [r3]
 3078 0048 BB68     		ldr	r3, [r7, #8]
 3079 004a 1A60     		str	r2, [r3]
1012:..\src/interruptions.c ****     
1013:..\src/interruptions.c ****             break;
 3080              		.loc 1 1013 0
 3081 004c A5E0     		b	.L193
 3082              	.L197:
1014:..\src/interruptions.c ****         
1015:..\src/interruptions.c ****         case MOVE_SLOW_ACT: // First sinergy movement (related to default slow activation)
1016:..\src/interruptions.c **** 
1017:..\src/interruptions.c ****             if (err_emg_1 > 0 && err_emg_1 > err_emg_2) {   //both motors wind the wire around the 
 3083              		.loc 1 1017 0
 3084 004e 3B68     		ldr	r3, [r7]
 3085 0050 002B     		cmp	r3, #0
 3086 0052 17DD     		ble	.L198
 3087              		.loc 1 1017 0 is_stmt 0 discriminator 1
 3088 0054 3A68     		ldr	r2, [r7]
 3089 0056 BB69     		ldr	r3, [r7, #24]
 3090 0058 9A42     		cmp	r2, r3
 3091 005a 13DD     		ble	.L198
1018:..\src/interruptions.c ****                st_ref_p->pos = st_refOld_p->pos + (err_emg_1 * g_mem.emg.emg_speed[0] << 2) / (1024
 3092              		.loc 1 1018 0 is_stmt 1
 3093 005c 7B68     		ldr	r3, [r7, #4]
 3094 005e 1A68     		ldr	r2, [r3]
 3095 0060 514B     		ldr	r3, .L207+4
 3096 0062 93F8FC31 		ldrb	r3, [r3, #508]	@ zero_extendqisi2
 3097 0066 1946     		mov	r1, r3
 3098 0068 3B68     		ldr	r3, [r7]
 3099 006a 03FB01F3 		mul	r3, r3, r1
 3100 006e 9900     		lsls	r1, r3, #2
 3101 0070 4E4B     		ldr	r3, .L207+8
 3102 0072 B3F8F031 		ldrh	r3, [r3, #496]
 3103 0076 C3F58063 		rsb	r3, r3, #1024
 3104 007a 91FBF3F3 		sdiv	r3, r1, r3
ARM GAS  C:\Users\mgnocco\AppData\Local\Temp\cc6peeyS.s 			page 75


 3105 007e 1A44     		add	r2, r2, r3
 3106 0080 BB68     		ldr	r3, [r7, #8]
 3107 0082 1A60     		str	r2, [r3]
 3108              	.L198:
1019:..\src/interruptions.c ****             }
1020:..\src/interruptions.c ****             if (err_emg_2 > 0 && err_emg_2 > err_emg_1) {   //both motors unroll the wire around th
 3109              		.loc 1 1020 0
 3110 0084 BB69     		ldr	r3, [r7, #24]
 3111 0086 002B     		cmp	r3, #0
 3112 0088 40F38480 		ble	.L205
 3113              		.loc 1 1020 0 is_stmt 0 discriminator 1
 3114 008c BA69     		ldr	r2, [r7, #24]
 3115 008e 3B68     		ldr	r3, [r7]
 3116 0090 9A42     		cmp	r2, r3
 3117 0092 7FDD     		ble	.L205
1021:..\src/interruptions.c ****                st_ref_p->pos = st_refOld_p->pos - (err_emg_2 * g_mem.emg.emg_speed[1] << 2) / (1024
 3118              		.loc 1 1021 0 is_stmt 1
 3119 0094 7B68     		ldr	r3, [r7, #4]
 3120 0096 1A68     		ldr	r2, [r3]
 3121 0098 434B     		ldr	r3, .L207+4
 3122 009a 93F8FD31 		ldrb	r3, [r3, #509]	@ zero_extendqisi2
 3123 009e 1946     		mov	r1, r3
 3124 00a0 BB69     		ldr	r3, [r7, #24]
 3125 00a2 03FB01F3 		mul	r3, r3, r1
 3126 00a6 9900     		lsls	r1, r3, #2
 3127 00a8 404B     		ldr	r3, .L207+8
 3128 00aa B3F8F231 		ldrh	r3, [r3, #498]
 3129 00ae C3F58063 		rsb	r3, r3, #1024
 3130 00b2 91FBF3F3 		sdiv	r3, r1, r3
 3131 00b6 D21A     		subs	r2, r2, r3
 3132 00b8 BB68     		ldr	r3, [r7, #8]
 3133 00ba 1A60     		str	r2, [r3]
1022:..\src/interruptions.c ****             }
1023:..\src/interruptions.c ****             
1024:..\src/interruptions.c ****             break;
 3134              		.loc 1 1024 0
 3135 00bc 6AE0     		b	.L205
 3136              	.L196:
1025:..\src/interruptions.c ****             
1026:..\src/interruptions.c ****         case MOVE_FAST_ACT: // Second sinergy movement (related to default fast activation)
1027:..\src/interruptions.c ****             
1028:..\src/interruptions.c ****             if (err_emg_1 > 0 && err_emg_1 > err_emg_2) {   //(Pinch) The wire is winded around the
 3137              		.loc 1 1028 0
 3138 00be 3B68     		ldr	r3, [r7]
 3139 00c0 002B     		cmp	r3, #0
 3140 00c2 31DD     		ble	.L200
 3141              		.loc 1 1028 0 is_stmt 0 discriminator 1
 3142 00c4 3A68     		ldr	r2, [r7]
 3143 00c6 BB69     		ldr	r3, [r7, #24]
 3144 00c8 9A42     		cmp	r2, r3
 3145 00ca 2DDD     		ble	.L200
1029:..\src/interruptions.c ****                 if (motor_idx == 0){
 3146              		.loc 1 1029 0 is_stmt 1
 3147 00cc FB7B     		ldrb	r3, [r7, #15]	@ zero_extendqisi2
 3148 00ce 002B     		cmp	r3, #0
 3149 00d0 13D1     		bne	.L201
1030:..\src/interruptions.c ****                     st_ref_p->pos = st_refOld_p->pos + (err_emg_1 * g_mem.emg.emg_speed[0] << 2) / 
ARM GAS  C:\Users\mgnocco\AppData\Local\Temp\cc6peeyS.s 			page 76


 3150              		.loc 1 1030 0
 3151 00d2 7B68     		ldr	r3, [r7, #4]
 3152 00d4 1A68     		ldr	r2, [r3]
 3153 00d6 344B     		ldr	r3, .L207+4
 3154 00d8 93F8FC31 		ldrb	r3, [r3, #508]	@ zero_extendqisi2
 3155 00dc 1946     		mov	r1, r3
 3156 00de 3B68     		ldr	r3, [r7]
 3157 00e0 03FB01F3 		mul	r3, r3, r1
 3158 00e4 9900     		lsls	r1, r3, #2
 3159 00e6 314B     		ldr	r3, .L207+8
 3160 00e8 B3F8F031 		ldrh	r3, [r3, #496]
 3161 00ec C3F58063 		rsb	r3, r3, #1024
 3162 00f0 91FBF3F3 		sdiv	r3, r1, r3
 3163 00f4 1A44     		add	r2, r2, r3
 3164 00f6 BB68     		ldr	r3, [r7, #8]
 3165 00f8 1A60     		str	r2, [r3]
 3166              	.L201:
1031:..\src/interruptions.c ****                 }
1032:..\src/interruptions.c ****                 if (motor_idx == 1){
 3167              		.loc 1 1032 0
 3168 00fa FB7B     		ldrb	r3, [r7, #15]	@ zero_extendqisi2
 3169 00fc 012B     		cmp	r3, #1
 3170 00fe 13D1     		bne	.L200
1033:..\src/interruptions.c ****                     st_ref_p->pos = st_refOld_p->pos - (err_emg_1 * g_mem.emg.emg_speed[0] << 2) / 
 3171              		.loc 1 1033 0
 3172 0100 7B68     		ldr	r3, [r7, #4]
 3173 0102 1A68     		ldr	r2, [r3]
 3174 0104 284B     		ldr	r3, .L207+4
 3175 0106 93F8FC31 		ldrb	r3, [r3, #508]	@ zero_extendqisi2
 3176 010a 1946     		mov	r1, r3
 3177 010c 3B68     		ldr	r3, [r7]
 3178 010e 03FB01F3 		mul	r3, r3, r1
 3179 0112 9900     		lsls	r1, r3, #2
 3180 0114 254B     		ldr	r3, .L207+8
 3181 0116 B3F8F031 		ldrh	r3, [r3, #496]
 3182 011a C3F58063 		rsb	r3, r3, #1024
 3183 011e 91FBF3F3 		sdiv	r3, r1, r3
 3184 0122 D21A     		subs	r2, r2, r3
 3185 0124 BB68     		ldr	r3, [r7, #8]
 3186 0126 1A60     		str	r2, [r3]
 3187              	.L200:
1034:..\src/interruptions.c ****                 }   
1035:..\src/interruptions.c ****             }
1036:..\src/interruptions.c ****             if (err_emg_2 > 0 && err_emg_2 > err_emg_1) {   //(Index point) The wire is unwinded fr
 3188              		.loc 1 1036 0
 3189 0128 BB69     		ldr	r3, [r7, #24]
 3190 012a 002B     		cmp	r3, #0
 3191 012c 34DD     		ble	.L206
 3192              		.loc 1 1036 0 is_stmt 0 discriminator 1
 3193 012e BA69     		ldr	r2, [r7, #24]
 3194 0130 3B68     		ldr	r3, [r7]
 3195 0132 9A42     		cmp	r2, r3
 3196 0134 30DD     		ble	.L206
1037:..\src/interruptions.c ****                 if (motor_idx == 0){
 3197              		.loc 1 1037 0 is_stmt 1
 3198 0136 FB7B     		ldrb	r3, [r7, #15]	@ zero_extendqisi2
 3199 0138 002B     		cmp	r3, #0
ARM GAS  C:\Users\mgnocco\AppData\Local\Temp\cc6peeyS.s 			page 77


 3200 013a 13D1     		bne	.L203
1038:..\src/interruptions.c ****                     st_ref_p->pos = st_refOld_p->pos - (err_emg_2 * g_mem.emg.emg_speed[1] << 2) / 
 3201              		.loc 1 1038 0
 3202 013c 7B68     		ldr	r3, [r7, #4]
 3203 013e 1A68     		ldr	r2, [r3]
 3204 0140 194B     		ldr	r3, .L207+4
 3205 0142 93F8FD31 		ldrb	r3, [r3, #509]	@ zero_extendqisi2
 3206 0146 1946     		mov	r1, r3
 3207 0148 BB69     		ldr	r3, [r7, #24]
 3208 014a 03FB01F3 		mul	r3, r3, r1
 3209 014e 9900     		lsls	r1, r3, #2
 3210 0150 164B     		ldr	r3, .L207+8
 3211 0152 B3F8F231 		ldrh	r3, [r3, #498]
 3212 0156 C3F58063 		rsb	r3, r3, #1024
 3213 015a 91FBF3F3 		sdiv	r3, r1, r3
 3214 015e D21A     		subs	r2, r2, r3
 3215 0160 BB68     		ldr	r3, [r7, #8]
 3216 0162 1A60     		str	r2, [r3]
 3217              	.L203:
1039:..\src/interruptions.c ****                 }
1040:..\src/interruptions.c ****                 if (motor_idx == 1){
 3218              		.loc 1 1040 0
 3219 0164 FB7B     		ldrb	r3, [r7, #15]	@ zero_extendqisi2
 3220 0166 012B     		cmp	r3, #1
 3221 0168 16D1     		bne	.L206
1041:..\src/interruptions.c ****                     st_ref_p->pos = st_refOld_p->pos + (err_emg_2 * g_mem.emg.emg_speed[1] << 2) / 
 3222              		.loc 1 1041 0
 3223 016a 7B68     		ldr	r3, [r7, #4]
 3224 016c 1A68     		ldr	r2, [r3]
 3225 016e 0E4B     		ldr	r3, .L207+4
 3226 0170 93F8FD31 		ldrb	r3, [r3, #509]	@ zero_extendqisi2
 3227 0174 1946     		mov	r1, r3
 3228 0176 BB69     		ldr	r3, [r7, #24]
 3229 0178 03FB01F3 		mul	r3, r3, r1
 3230 017c 9900     		lsls	r1, r3, #2
 3231 017e 0B4B     		ldr	r3, .L207+8
 3232 0180 B3F8F231 		ldrh	r3, [r3, #498]
 3233 0184 C3F58063 		rsb	r3, r3, #1024
 3234 0188 91FBF3F3 		sdiv	r3, r1, r3
 3235 018c 1A44     		add	r2, r2, r3
 3236 018e BB68     		ldr	r3, [r7, #8]
 3237 0190 1A60     		str	r2, [r3]
1042:..\src/interruptions.c ****                 }
1043:..\src/interruptions.c ****             }
1044:..\src/interruptions.c ****             
1045:..\src/interruptions.c ****             break;
 3238              		.loc 1 1045 0
 3239 0192 01E0     		b	.L206
 3240              	.L205:
1024:..\src/interruptions.c ****             
 3241              		.loc 1 1024 0
 3242 0194 00BF     		nop
 3243 0196 00E0     		b	.L204
 3244              	.L206:
 3245              		.loc 1 1045 0
 3246 0198 00BF     		nop
 3247              	.L193:
ARM GAS  C:\Users\mgnocco\AppData\Local\Temp\cc6peeyS.s 			page 78


 3248              	.L204:
1046:..\src/interruptions.c ****     }
1047:..\src/interruptions.c ****  
1048:..\src/interruptions.c **** }
 3249              		.loc 1 1048 0
 3250 019a 00BF     		nop
 3251 019c 1037     		adds	r7, r7, #16
 3252              		.cfi_def_cfa_offset 8
 3253 019e BD46     		mov	sp, r7
 3254              		.cfi_def_cfa_register 13
 3255              		@ sp needed
 3256 01a0 80BD     		pop	{r7, pc}
 3257              	.L208:
 3258 01a2 00BF     		.align	2
 3259              	.L207:
 3260 01a4 8E000000 		.word	fsm_state.10622
 3261 01a8 00000000 		.word	g_mem
 3262 01ac 00000000 		.word	c_mem
 3263              		.cfi_endproc
 3264              	.LFE70:
 3265              		.size	compute_SoftHand_2_motors_emg_reference, .-compute_SoftHand_2_motors_emg_reference
 3266              		.section	.text.motor_control_SH,"ax",%progbits
 3267              		.align	2
 3268              		.global	motor_control_SH
 3269              		.thumb
 3270              		.thumb_func
 3271              		.type	motor_control_SH, %function
 3272              	motor_control_SH:
 3273              	.LFB71:
1049:..\src/interruptions.c **** 
1050:..\src/interruptions.c **** //==============================================================================
1051:..\src/interruptions.c **** //                                                        MOTOR CONTROL SOFTHAND
1052:..\src/interruptions.c **** //==============================================================================
1053:..\src/interruptions.c **** void motor_control_SH() {
 3274              		.loc 1 1053 0
 3275              		.cfi_startproc
 3276              		@ args = 0, pretend = 0, frame = 80
 3277              		@ frame_needed = 1, uses_anonymous_args = 0
 3278 0000 80B5     		push	{r7, lr}
 3279              		.cfi_def_cfa_offset 8
 3280              		.cfi_offset 7, -8
 3281              		.cfi_offset 14, -4
 3282 0002 94B0     		sub	sp, sp, #80
 3283              		.cfi_def_cfa_offset 88
 3284 0004 00AF     		add	r7, sp, #0
 3285              		.cfi_def_cfa_register 7
1054:..\src/interruptions.c **** 
1055:..\src/interruptions.c ****     int32 CYDATA pwm_input = 0;
 3286              		.loc 1 1055 0
 3287 0006 0023     		movs	r3, #0
 3288 0008 FB64     		str	r3, [r7, #76]
1056:..\src/interruptions.c ****     int32 CYDATA pos_error;         // position error
1057:..\src/interruptions.c ****     int32 CYDATA curr_error;        // current error
1058:..\src/interruptions.c ****     int32 CYDATA i_ref;             // current reference
1059:..\src/interruptions.c ****  
1060:..\src/interruptions.c ****     uint8 MOTOR_IDX = 0;
 3289              		.loc 1 1060 0
ARM GAS  C:\Users\mgnocco\AppData\Local\Temp\cc6peeyS.s 			page 79


 3290 000a 0023     		movs	r3, #0
 3291 000c 87F84730 		strb	r3, [r7, #71]
1061:..\src/interruptions.c ****     
1062:..\src/interruptions.c ****     struct st_motor* SH_MOT = &c_mem.motor[MOTOR_IDX];      // SoftHand default motor
 3292              		.loc 1 1062 0
 3293 0010 97F84720 		ldrb	r2, [r7, #71]	@ zero_extendqisi2
 3294 0014 1346     		mov	r3, r2
 3295 0016 DB00     		lsls	r3, r3, #3
 3296 0018 9B1A     		subs	r3, r3, r2
 3297 001a 1B01     		lsls	r3, r3, #4
 3298 001c B033     		adds	r3, r3, #176
 3299 001e 9D4A     		ldr	r2, .L270
 3300 0020 1344     		add	r3, r3, r2
 3301 0022 3B64     		str	r3, [r7, #64]
1063:..\src/interruptions.c ****     uint8 SH_ENC_L = SH_MOT->encoder_line;          // Associated encoder line
 3302              		.loc 1 1063 0
 3303 0024 3B6C     		ldr	r3, [r7, #64]
 3304 0026 93F86030 		ldrb	r3, [r3, #96]
 3305 002a 87F83F30 		strb	r3, [r7, #63]
1064:..\src/interruptions.c ****     
1065:..\src/interruptions.c ****     int32 CYDATA k_p = SH_MOT->k_p;  
 3306              		.loc 1 1065 0
 3307 002e 3B6C     		ldr	r3, [r7, #64]
 3308 0030 1B68     		ldr	r3, [r3]
 3309 0032 BB63     		str	r3, [r7, #56]
1066:..\src/interruptions.c ****     int32 CYDATA k_i = SH_MOT->k_i; 
 3310              		.loc 1 1066 0
 3311 0034 3B6C     		ldr	r3, [r7, #64]
 3312 0036 5B68     		ldr	r3, [r3, #4]
 3313 0038 7B63     		str	r3, [r7, #52]
1067:..\src/interruptions.c ****     int32 CYDATA k_d = SH_MOT->k_d; 
 3314              		.loc 1 1067 0
 3315 003a 3B6C     		ldr	r3, [r7, #64]
 3316 003c 9B68     		ldr	r3, [r3, #8]
 3317 003e 3B63     		str	r3, [r7, #48]
1068:..\src/interruptions.c **** 
1069:..\src/interruptions.c ****     int32 CYDATA k_p_c = SH_MOT->k_p_c;  
 3318              		.loc 1 1069 0
 3319 0040 3B6C     		ldr	r3, [r7, #64]
 3320 0042 DB68     		ldr	r3, [r3, #12]
 3321 0044 FB62     		str	r3, [r7, #44]
1070:..\src/interruptions.c ****     int32 CYDATA k_i_c = SH_MOT->k_i_c; 
 3322              		.loc 1 1070 0
 3323 0046 3B6C     		ldr	r3, [r7, #64]
 3324 0048 1B69     		ldr	r3, [r3, #16]
 3325 004a BB62     		str	r3, [r7, #40]
1071:..\src/interruptions.c ****     int32 CYDATA k_d_c = SH_MOT->k_d_c;   
 3326              		.loc 1 1071 0
 3327 004c 3B6C     		ldr	r3, [r7, #64]
 3328 004e 5B69     		ldr	r3, [r3, #20]
 3329 0050 7B62     		str	r3, [r7, #36]
1072:..\src/interruptions.c **** 
1073:..\src/interruptions.c ****     int32 CYDATA k_p_dl = SH_MOT->k_p_dl;  
 3330              		.loc 1 1073 0
 3331 0052 3B6C     		ldr	r3, [r7, #64]
 3332 0054 9B69     		ldr	r3, [r3, #24]
 3333 0056 3B62     		str	r3, [r7, #32]
ARM GAS  C:\Users\mgnocco\AppData\Local\Temp\cc6peeyS.s 			page 80


1074:..\src/interruptions.c ****     int32 CYDATA k_i_dl = SH_MOT->k_i_dl; 
 3334              		.loc 1 1074 0
 3335 0058 3B6C     		ldr	r3, [r7, #64]
 3336 005a DB69     		ldr	r3, [r3, #28]
 3337 005c FB61     		str	r3, [r7, #28]
1075:..\src/interruptions.c ****     int32 CYDATA k_d_dl = SH_MOT->k_d_dl;
 3338              		.loc 1 1075 0
 3339 005e 3B6C     		ldr	r3, [r7, #64]
 3340 0060 1B6A     		ldr	r3, [r3, #32]
 3341 0062 BB61     		str	r3, [r7, #24]
1076:..\src/interruptions.c ****     
1077:..\src/interruptions.c ****     int32 CYDATA k_p_c_dl = SH_MOT->k_p_c_dl;  
 3342              		.loc 1 1077 0
 3343 0064 3B6C     		ldr	r3, [r7, #64]
 3344 0066 5B6A     		ldr	r3, [r3, #36]
 3345 0068 7B61     		str	r3, [r7, #20]
1078:..\src/interruptions.c ****     int32 CYDATA k_i_c_dl = SH_MOT->k_i_c_dl; 
 3346              		.loc 1 1078 0
 3347 006a 3B6C     		ldr	r3, [r7, #64]
 3348 006c 9B6A     		ldr	r3, [r3, #40]
 3349 006e 3B61     		str	r3, [r7, #16]
1079:..\src/interruptions.c ****     int32 CYDATA k_d_c_dl = SH_MOT->k_d_c_dl;   
 3350              		.loc 1 1079 0
 3351 0070 3B6C     		ldr	r3, [r7, #64]
 3352 0072 DB6A     		ldr	r3, [r3, #44]
 3353 0074 FB60     		str	r3, [r7, #12]
1080:..\src/interruptions.c **** 
1081:..\src/interruptions.c ****     // Static Variables
1082:..\src/interruptions.c **** 
1083:..\src/interruptions.c ****     static int32 pos_error_sum;     // position error sum for integral
1084:..\src/interruptions.c ****     static int32 curr_error_sum;    // current error sum for integral
1085:..\src/interruptions.c ****     
1086:..\src/interruptions.c ****     static int32 prev_pos_err;      // previous position error for deriv. control
1087:..\src/interruptions.c ****     static int32 prev_curr_err;     // previous current error for deriv. control
1088:..\src/interruptions.c ****     static int32 prev_pwm;
1089:..\src/interruptions.c **** 
1090:..\src/interruptions.c ****     static CYBIT motor_dir = FALSE;
1091:..\src/interruptions.c ****     static uint32 position_counter = 0;
1092:..\src/interruptions.c ****   
1093:..\src/interruptions.c ****     // ======================= UPDATE MOTOR REFERENCE ==========================            
1094:..\src/interruptions.c ****     compute_reference(MOTOR_IDX, &g_ref[MOTOR_IDX], &g_refOld[MOTOR_IDX]);
 3354              		.loc 1 1094 0
 3355 0076 97F84730 		ldrb	r3, [r7, #71]	@ zero_extendqisi2
 3356 007a 1B01     		lsls	r3, r3, #4
 3357 007c 864A     		ldr	r2, .L270+4
 3358 007e 9918     		adds	r1, r3, r2
 3359 0080 97F84730 		ldrb	r3, [r7, #71]	@ zero_extendqisi2
 3360 0084 1B01     		lsls	r3, r3, #4
 3361 0086 854A     		ldr	r2, .L270+8
 3362 0088 1A44     		add	r2, r2, r3
 3363 008a 97F84730 		ldrb	r3, [r7, #71]	@ zero_extendqisi2
 3364 008e 1846     		mov	r0, r3
 3365 0090 FFF7FEFF 		bl	compute_reference
1095:..\src/interruptions.c ****      
1096:..\src/interruptions.c ****     switch(SH_MOT->control_mode) {
 3366              		.loc 1 1096 0
 3367 0094 3B6C     		ldr	r3, [r7, #64]
ARM GAS  C:\Users\mgnocco\AppData\Local\Temp\cc6peeyS.s 			page 81


 3368 0096 93F85F30 		ldrb	r3, [r3, #95]	@ zero_extendqisi2
 3369 009a 032B     		cmp	r3, #3
 3370 009c 00F2F781 		bhi	.L210
 3371 00a0 01A2     		adr	r2, .L212
 3372 00a2 52F823F0 		ldr	pc, [r2, r3, lsl #2]
 3373 00a6 00BF     		.p2align 2
 3374              	.L212:
 3375 00a8 55020000 		.word	.L211+1
 3376 00ac 49040000 		.word	.L213+1
 3377 00b0 3B030000 		.word	.L214+1
 3378 00b4 B9000000 		.word	.L215+1
 3379              		.p2align 1
 3380              	.L215:
1097:..\src/interruptions.c ****         // ======================= CURRENT AND POSITION CONTROL =======================
1098:..\src/interruptions.c ****         case CURR_AND_POS_CONTROL:
1099:..\src/interruptions.c ****             pos_error = g_ref[MOTOR_IDX].pos - g_meas[SH_ENC_L].pos[0];
 3381              		.loc 1 1099 0
 3382 00b8 97F84730 		ldrb	r3, [r7, #71]	@ zero_extendqisi2
 3383 00bc 764A     		ldr	r2, .L270+4
 3384 00be 1B01     		lsls	r3, r3, #4
 3385 00c0 1344     		add	r3, r3, r2
 3386 00c2 1A68     		ldr	r2, [r3]
 3387 00c4 97F83F30 		ldrb	r3, [r7, #63]	@ zero_extendqisi2
 3388 00c8 7549     		ldr	r1, .L270+12
 3389 00ca 3420     		movs	r0, #52
 3390 00cc 00FB03F3 		mul	r3, r0, r3
 3391 00d0 0B44     		add	r3, r3, r1
 3392 00d2 1B68     		ldr	r3, [r3]
 3393 00d4 D31A     		subs	r3, r2, r3
 3394 00d6 BB60     		str	r3, [r7, #8]
1100:..\src/interruptions.c **** 
1101:..\src/interruptions.c ****             pos_error_sum += pos_error;
 3395              		.loc 1 1101 0
 3396 00d8 724B     		ldr	r3, .L270+16
 3397 00da 1A68     		ldr	r2, [r3]
 3398 00dc BB68     		ldr	r3, [r7, #8]
 3399 00de 1344     		add	r3, r3, r2
 3400 00e0 704A     		ldr	r2, .L270+16
 3401 00e2 1360     		str	r3, [r2]
1102:..\src/interruptions.c **** 
1103:..\src/interruptions.c ****             // error_sum saturation
1104:..\src/interruptions.c ****             if (pos_error_sum > POS_INTEGRAL_SAT_LIMIT)
 3402              		.loc 1 1104 0
 3403 00e4 6F4B     		ldr	r3, .L270+16
 3404 00e6 1B68     		ldr	r3, [r3]
 3405 00e8 6F4A     		ldr	r2, .L270+20
 3406 00ea 9342     		cmp	r3, r2
 3407 00ec 03DD     		ble	.L216
1105:..\src/interruptions.c ****                 pos_error_sum = POS_INTEGRAL_SAT_LIMIT;
 3408              		.loc 1 1105 0
 3409 00ee 6D4B     		ldr	r3, .L270+16
 3410 00f0 6D4A     		ldr	r2, .L270+20
 3411 00f2 1A60     		str	r2, [r3]
 3412 00f4 07E0     		b	.L217
 3413              	.L216:
1106:..\src/interruptions.c ****             else {
1107:..\src/interruptions.c ****                 if (pos_error_sum < -POS_INTEGRAL_SAT_LIMIT) 
ARM GAS  C:\Users\mgnocco\AppData\Local\Temp\cc6peeyS.s 			page 82


 3414              		.loc 1 1107 0
 3415 00f6 6B4B     		ldr	r3, .L270+16
 3416 00f8 1B68     		ldr	r3, [r3]
 3417 00fa 6C4A     		ldr	r2, .L270+24
 3418 00fc 9342     		cmp	r3, r2
 3419 00fe 02DA     		bge	.L217
1108:..\src/interruptions.c ****                     pos_error_sum = -POS_INTEGRAL_SAT_LIMIT;
 3420              		.loc 1 1108 0
 3421 0100 684B     		ldr	r3, .L270+16
 3422 0102 6A4A     		ldr	r2, .L270+24
 3423 0104 1A60     		str	r2, [r3]
 3424              	.L217:
1109:..\src/interruptions.c ****             }
1110:..\src/interruptions.c ****             
1111:..\src/interruptions.c ****             // ------ position PID control ------
1112:..\src/interruptions.c **** 
1113:..\src/interruptions.c ****             i_ref = 0;
 3425              		.loc 1 1113 0
 3426 0106 0023     		movs	r3, #0
 3427 0108 BB64     		str	r3, [r7, #72]
1114:..\src/interruptions.c ****             
1115:..\src/interruptions.c ****             // Proportional
1116:..\src/interruptions.c ****             if (k_p_dl != 0)
 3428              		.loc 1 1116 0
 3429 010a 3B6A     		ldr	r3, [r7, #32]
 3430 010c 002B     		cmp	r3, #0
 3431 010e 07D0     		beq	.L218
1117:..\src/interruptions.c ****                 i_ref += (int32)(k_p_dl * pos_error) >> 16;
 3432              		.loc 1 1117 0
 3433 0110 3B6A     		ldr	r3, [r7, #32]
 3434 0112 BA68     		ldr	r2, [r7, #8]
 3435 0114 02FB03F3 		mul	r3, r2, r3
 3436 0118 1B14     		asrs	r3, r3, #16
 3437 011a BA6C     		ldr	r2, [r7, #72]
 3438 011c 1344     		add	r3, r3, r2
 3439 011e BB64     		str	r3, [r7, #72]
 3440              	.L218:
1118:..\src/interruptions.c **** 
1119:..\src/interruptions.c ****             // Integral
1120:..\src/interruptions.c ****             if (k_i_dl != 0)
 3441              		.loc 1 1120 0
 3442 0120 FB69     		ldr	r3, [r7, #28]
 3443 0122 002B     		cmp	r3, #0
 3444 0124 08D0     		beq	.L219
1121:..\src/interruptions.c ****                 i_ref += (int32)(k_i_dl * pos_error_sum) >> 16;
 3445              		.loc 1 1121 0
 3446 0126 5F4B     		ldr	r3, .L270+16
 3447 0128 1B68     		ldr	r3, [r3]
 3448 012a FA69     		ldr	r2, [r7, #28]
 3449 012c 02FB03F3 		mul	r3, r2, r3
 3450 0130 1B14     		asrs	r3, r3, #16
 3451 0132 BA6C     		ldr	r2, [r7, #72]
 3452 0134 1344     		add	r3, r3, r2
 3453 0136 BB64     		str	r3, [r7, #72]
 3454              	.L219:
1122:..\src/interruptions.c **** 
1123:..\src/interruptions.c ****             // Derivative
ARM GAS  C:\Users\mgnocco\AppData\Local\Temp\cc6peeyS.s 			page 83


1124:..\src/interruptions.c ****             if (k_d_dl != 0)
 3455              		.loc 1 1124 0
 3456 0138 BB69     		ldr	r3, [r7, #24]
 3457 013a 002B     		cmp	r3, #0
 3458 013c 0AD0     		beq	.L220
1125:..\src/interruptions.c ****                 i_ref += (int32)(k_d_dl * (pos_error - prev_pos_err)) >> 16;
 3459              		.loc 1 1125 0
 3460 013e 5C4B     		ldr	r3, .L270+28
 3461 0140 1B68     		ldr	r3, [r3]
 3462 0142 BA68     		ldr	r2, [r7, #8]
 3463 0144 D31A     		subs	r3, r2, r3
 3464 0146 BA69     		ldr	r2, [r7, #24]
 3465 0148 02FB03F3 		mul	r3, r2, r3
 3466 014c 1B14     		asrs	r3, r3, #16
 3467 014e BA6C     		ldr	r2, [r7, #72]
 3468 0150 1344     		add	r3, r3, r2
 3469 0152 BB64     		str	r3, [r7, #72]
 3470              	.L220:
1126:..\src/interruptions.c ****                         
1127:..\src/interruptions.c ****             // Update previous position
1128:..\src/interruptions.c ****             prev_pos_err = pos_error;
 3471              		.loc 1 1128 0
 3472 0154 564A     		ldr	r2, .L270+28
 3473 0156 BB68     		ldr	r3, [r7, #8]
 3474 0158 1360     		str	r3, [r2]
1129:..\src/interruptions.c **** 
1130:..\src/interruptions.c ****             // motor direction depends on i_ref
1131:..\src/interruptions.c ****             if (i_ref >= 0)
 3475              		.loc 1 1131 0
 3476 015a BB6C     		ldr	r3, [r7, #72]
 3477 015c 002B     		cmp	r3, #0
 3478 015e 03DB     		blt	.L221
1132:..\src/interruptions.c ****                 motor_dir = TRUE;
 3479              		.loc 1 1132 0
 3480 0160 544B     		ldr	r3, .L270+32
 3481 0162 0122     		movs	r2, #1
 3482 0164 1A70     		strb	r2, [r3]
 3483 0166 02E0     		b	.L222
 3484              	.L221:
1133:..\src/interruptions.c ****             else
1134:..\src/interruptions.c ****                 motor_dir = FALSE;
 3485              		.loc 1 1134 0
 3486 0168 524B     		ldr	r3, .L270+32
 3487 016a 0022     		movs	r2, #0
 3488 016c 1A70     		strb	r2, [r3]
 3489              	.L222:
1135:..\src/interruptions.c **** 
1136:..\src/interruptions.c ****             // saturate max current
1137:..\src/interruptions.c ****             if (i_ref > SH_MOT->current_limit)
 3490              		.loc 1 1137 0
 3491 016e 3B6C     		ldr	r3, [r7, #64]
 3492 0170 B3F95C30 		ldrsh	r3, [r3, #92]
 3493 0174 1A46     		mov	r2, r3
 3494 0176 BB6C     		ldr	r3, [r7, #72]
 3495 0178 9A42     		cmp	r2, r3
 3496 017a 04DA     		bge	.L223
1138:..\src/interruptions.c ****                 i_ref = SH_MOT->current_limit;
ARM GAS  C:\Users\mgnocco\AppData\Local\Temp\cc6peeyS.s 			page 84


 3497              		.loc 1 1138 0
 3498 017c 3B6C     		ldr	r3, [r7, #64]
 3499 017e B3F95C30 		ldrsh	r3, [r3, #92]
 3500 0182 BB64     		str	r3, [r7, #72]
 3501 0184 0BE0     		b	.L224
 3502              	.L223:
1139:..\src/interruptions.c ****             else {
1140:..\src/interruptions.c ****                 if (i_ref < -SH_MOT->current_limit)
 3503              		.loc 1 1140 0
 3504 0186 3B6C     		ldr	r3, [r7, #64]
 3505 0188 B3F95C30 		ldrsh	r3, [r3, #92]
 3506 018c 5A42     		negs	r2, r3
 3507 018e BB6C     		ldr	r3, [r7, #72]
 3508 0190 9A42     		cmp	r2, r3
 3509 0192 04DD     		ble	.L224
1141:..\src/interruptions.c ****                     i_ref = -SH_MOT->current_limit;
 3510              		.loc 1 1141 0
 3511 0194 3B6C     		ldr	r3, [r7, #64]
 3512 0196 B3F95C30 		ldrsh	r3, [r3, #92]
 3513 019a 5B42     		negs	r3, r3
 3514 019c BB64     		str	r3, [r7, #72]
 3515              	.L224:
1142:..\src/interruptions.c ****         	}
1143:..\src/interruptions.c **** 
1144:..\src/interruptions.c ****             // current error and curr error sum
1145:..\src/interruptions.c ****             curr_error = i_ref - g_meas[SH_ENC_L].curr;
 3516              		.loc 1 1145 0
 3517 019e 97F83F30 		ldrb	r3, [r7, #63]	@ zero_extendqisi2
 3518 01a2 3F4A     		ldr	r2, .L270+12
 3519 01a4 3421     		movs	r1, #52
 3520 01a6 01FB03F3 		mul	r3, r1, r3
 3521 01aa 1344     		add	r3, r3, r2
 3522 01ac 0C33     		adds	r3, r3, #12
 3523 01ae 1B68     		ldr	r3, [r3]
 3524 01b0 BA6C     		ldr	r2, [r7, #72]
 3525 01b2 D31A     		subs	r3, r2, r3
 3526 01b4 7B60     		str	r3, [r7, #4]
1146:..\src/interruptions.c ****             curr_error_sum += curr_error;
 3527              		.loc 1 1146 0
 3528 01b6 404B     		ldr	r3, .L270+36
 3529 01b8 1A68     		ldr	r2, [r3]
 3530 01ba 7B68     		ldr	r3, [r7, #4]
 3531 01bc 1344     		add	r3, r3, r2
 3532 01be 3E4A     		ldr	r2, .L270+36
 3533 01c0 1360     		str	r3, [r2]
1147:..\src/interruptions.c ****             
1148:..\src/interruptions.c ****             if (curr_error_sum > CURR_INTEGRAL_SAT_LIMIT)
 3534              		.loc 1 1148 0
 3535 01c2 3D4B     		ldr	r3, .L270+36
 3536 01c4 1B68     		ldr	r3, [r3]
 3537 01c6 3D4A     		ldr	r2, .L270+40
 3538 01c8 9342     		cmp	r3, r2
 3539 01ca 03DD     		ble	.L225
1149:..\src/interruptions.c ****                 curr_error_sum = CURR_INTEGRAL_SAT_LIMIT;
 3540              		.loc 1 1149 0
 3541 01cc 3A4B     		ldr	r3, .L270+36
 3542 01ce 3B4A     		ldr	r2, .L270+40
ARM GAS  C:\Users\mgnocco\AppData\Local\Temp\cc6peeyS.s 			page 85


 3543 01d0 1A60     		str	r2, [r3]
 3544 01d2 07E0     		b	.L226
 3545              	.L225:
1150:..\src/interruptions.c ****             else {
1151:..\src/interruptions.c ****                 if (curr_error_sum < -CURR_INTEGRAL_SAT_LIMIT)
 3546              		.loc 1 1151 0
 3547 01d4 384B     		ldr	r3, .L270+36
 3548 01d6 1B68     		ldr	r3, [r3]
 3549 01d8 394A     		ldr	r2, .L270+44
 3550 01da 9342     		cmp	r3, r2
 3551 01dc 02DA     		bge	.L226
1152:..\src/interruptions.c ****                     curr_error_sum = -CURR_INTEGRAL_SAT_LIMIT;
 3552              		.loc 1 1152 0
 3553 01de 364B     		ldr	r3, .L270+36
 3554 01e0 374A     		ldr	r2, .L270+44
 3555 01e2 1A60     		str	r2, [r3]
 3556              	.L226:
1153:..\src/interruptions.c ****             }
1154:..\src/interruptions.c **** 
1155:..\src/interruptions.c ****             // ----- current PID control -----
1156:..\src/interruptions.c **** 
1157:..\src/interruptions.c ****             pwm_input = 0;
 3557              		.loc 1 1157 0
 3558 01e4 0023     		movs	r3, #0
 3559 01e6 FB64     		str	r3, [r7, #76]
1158:..\src/interruptions.c **** 
1159:..\src/interruptions.c ****             // Proportional
1160:..\src/interruptions.c ****             if (k_p_c_dl != 0)
 3560              		.loc 1 1160 0
 3561 01e8 7B69     		ldr	r3, [r7, #20]
 3562 01ea 002B     		cmp	r3, #0
 3563 01ec 07D0     		beq	.L227
1161:..\src/interruptions.c ****                 pwm_input += (int32)(k_p_c_dl * curr_error) >> 16;
 3564              		.loc 1 1161 0
 3565 01ee 7B69     		ldr	r3, [r7, #20]
 3566 01f0 7A68     		ldr	r2, [r7, #4]
 3567 01f2 02FB03F3 		mul	r3, r2, r3
 3568 01f6 1B14     		asrs	r3, r3, #16
 3569 01f8 FA6C     		ldr	r2, [r7, #76]
 3570 01fa 1344     		add	r3, r3, r2
 3571 01fc FB64     		str	r3, [r7, #76]
 3572              	.L227:
1162:..\src/interruptions.c **** 
1163:..\src/interruptions.c ****             // Integral
1164:..\src/interruptions.c ****             if (k_i_c_dl != 0)
 3573              		.loc 1 1164 0
 3574 01fe 3B69     		ldr	r3, [r7, #16]
 3575 0200 002B     		cmp	r3, #0
 3576 0202 08D0     		beq	.L228
1165:..\src/interruptions.c ****                 pwm_input += (int32)(k_i_c_dl * curr_error_sum) >> 16;
 3577              		.loc 1 1165 0
 3578 0204 2C4B     		ldr	r3, .L270+36
 3579 0206 1B68     		ldr	r3, [r3]
 3580 0208 3A69     		ldr	r2, [r7, #16]
 3581 020a 02FB03F3 		mul	r3, r2, r3
 3582 020e 1B14     		asrs	r3, r3, #16
 3583 0210 FA6C     		ldr	r2, [r7, #76]
ARM GAS  C:\Users\mgnocco\AppData\Local\Temp\cc6peeyS.s 			page 86


 3584 0212 1344     		add	r3, r3, r2
 3585 0214 FB64     		str	r3, [r7, #76]
 3586              	.L228:
1166:..\src/interruptions.c **** 
1167:..\src/interruptions.c ****             // Derivative
1168:..\src/interruptions.c ****             if (k_d_c_dl != 0)
 3587              		.loc 1 1168 0
 3588 0216 FB68     		ldr	r3, [r7, #12]
 3589 0218 002B     		cmp	r3, #0
 3590 021a 0AD0     		beq	.L229
1169:..\src/interruptions.c ****                 pwm_input += (int32)(k_d_c_dl * (curr_error - prev_curr_err)) >> 16;
 3591              		.loc 1 1169 0
 3592 021c 294B     		ldr	r3, .L270+48
 3593 021e 1B68     		ldr	r3, [r3]
 3594 0220 7A68     		ldr	r2, [r7, #4]
 3595 0222 D31A     		subs	r3, r2, r3
 3596 0224 FA68     		ldr	r2, [r7, #12]
 3597 0226 02FB03F3 		mul	r3, r2, r3
 3598 022a 1B14     		asrs	r3, r3, #16
 3599 022c FA6C     		ldr	r2, [r7, #76]
 3600 022e 1344     		add	r3, r3, r2
 3601 0230 FB64     		str	r3, [r7, #76]
 3602              	.L229:
1170:..\src/interruptions.c **** 
1171:..\src/interruptions.c ****             // pwm_input saturation
1172:..\src/interruptions.c ****             if (pwm_input < -PWM_MAX_VALUE_DC) 
 3603              		.loc 1 1172 0
 3604 0232 FB6C     		ldr	r3, [r7, #76]
 3605 0234 13F1640F 		cmn	r3, #100
 3606 0238 03DA     		bge	.L230
1173:..\src/interruptions.c ****                 pwm_input = -PWM_MAX_VALUE_DC;
 3607              		.loc 1 1173 0
 3608 023a 6FF06303 		mvn	r3, #99
 3609 023e FB64     		str	r3, [r7, #76]
 3610 0240 04E0     		b	.L231
 3611              	.L230:
1174:..\src/interruptions.c ****             else {
1175:..\src/interruptions.c ****                 if (pwm_input > PWM_MAX_VALUE_DC)
 3612              		.loc 1 1175 0
 3613 0242 FB6C     		ldr	r3, [r7, #76]
 3614 0244 642B     		cmp	r3, #100
 3615 0246 01DD     		ble	.L231
1176:..\src/interruptions.c ****                     pwm_input = PWM_MAX_VALUE_DC;
 3616              		.loc 1 1176 0
 3617 0248 6423     		movs	r3, #100
 3618 024a FB64     		str	r3, [r7, #76]
 3619              	.L231:
1177:..\src/interruptions.c ****             }
1178:..\src/interruptions.c **** 
1179:..\src/interruptions.c ****             // Update previous current
1180:..\src/interruptions.c ****             prev_curr_err = curr_error;
 3620              		.loc 1 1180 0
 3621 024c 1D4A     		ldr	r2, .L270+48
 3622 024e 7B68     		ldr	r3, [r7, #4]
 3623 0250 1360     		str	r3, [r2]
1181:..\src/interruptions.c **** 
1182:..\src/interruptions.c ****         break;
ARM GAS  C:\Users\mgnocco\AppData\Local\Temp\cc6peeyS.s 			page 87


 3624              		.loc 1 1182 0
 3625 0252 1CE1     		b	.L210
 3626              	.L211:
1183:..\src/interruptions.c **** 
1184:..\src/interruptions.c ****         // ============================== POSITION CONTROL =====================
1185:..\src/interruptions.c ****         case CONTROL_ANGLE:
1186:..\src/interruptions.c ****             pos_error = g_ref[MOTOR_IDX].pos - g_meas[SH_ENC_L].pos[0];
 3627              		.loc 1 1186 0
 3628 0254 97F84730 		ldrb	r3, [r7, #71]	@ zero_extendqisi2
 3629 0258 0F4A     		ldr	r2, .L270+4
 3630 025a 1B01     		lsls	r3, r3, #4
 3631 025c 1344     		add	r3, r3, r2
 3632 025e 1A68     		ldr	r2, [r3]
 3633 0260 97F83F30 		ldrb	r3, [r7, #63]	@ zero_extendqisi2
 3634 0264 0E49     		ldr	r1, .L270+12
 3635 0266 3420     		movs	r0, #52
 3636 0268 00FB03F3 		mul	r3, r0, r3
 3637 026c 0B44     		add	r3, r3, r1
 3638 026e 1B68     		ldr	r3, [r3]
 3639 0270 D31A     		subs	r3, r2, r3
 3640 0272 BB60     		str	r3, [r7, #8]
1187:..\src/interruptions.c **** 
1188:..\src/interruptions.c ****             pos_error_sum += pos_error;
 3641              		.loc 1 1188 0
 3642 0274 0B4B     		ldr	r3, .L270+16
 3643 0276 1A68     		ldr	r2, [r3]
 3644 0278 BB68     		ldr	r3, [r7, #8]
 3645 027a 1344     		add	r3, r3, r2
 3646 027c 094A     		ldr	r2, .L270+16
 3647 027e 1360     		str	r3, [r2]
1189:..\src/interruptions.c **** 
1190:..\src/interruptions.c ****             // anti-windup (for integral control)
1191:..\src/interruptions.c ****             if (pos_error_sum > ANTI_WINDUP)
 3648              		.loc 1 1191 0
 3649 0280 084B     		ldr	r3, .L270+16
 3650 0282 1B68     		ldr	r3, [r3]
 3651 0284 B3F57A7F 		cmp	r3, #1000
 3652 0288 1EDD     		ble	.L232
1192:..\src/interruptions.c ****                 pos_error_sum = ANTI_WINDUP;
 3653              		.loc 1 1192 0
 3654 028a 064B     		ldr	r3, .L270+16
 3655 028c 4FF47A72 		mov	r2, #1000
 3656 0290 1A60     		str	r2, [r3]
 3657 0292 21E0     		b	.L233
 3658              	.L271:
 3659              		.align	2
 3660              	.L270:
 3661 0294 00000000 		.word	c_mem
 3662 0298 00000000 		.word	g_ref
 3663 029c 00000000 		.word	g_refOld
 3664 02a0 00000000 		.word	g_meas
 3665 02a4 90000000 		.word	pos_error_sum.10649
 3666 02a8 80F0FA02 		.word	50000000
 3667 02ac 800F05FD 		.word	-50000000
 3668 02b0 94000000 		.word	prev_pos_err.10651
 3669 02b4 98000000 		.word	motor_dir.10654
 3670 02b8 9C000000 		.word	curr_error_sum.10650
ARM GAS  C:\Users\mgnocco\AppData\Local\Temp\cc6peeyS.s 			page 88


 3671 02bc A0860100 		.word	100000
 3672 02c0 6079FEFF 		.word	-100000
 3673 02c4 A0000000 		.word	prev_curr_err.10652
 3674              	.L232:
1193:..\src/interruptions.c ****             else {
1194:..\src/interruptions.c **** 				if (pos_error_sum < -ANTI_WINDUP)
 3675              		.loc 1 1194 0
 3676 02c8 9D4B     		ldr	r3, .L272
 3677 02ca 1B68     		ldr	r3, [r3]
 3678 02cc 13F57A7F 		cmn	r3, #1000
 3679 02d0 02DA     		bge	.L233
1195:..\src/interruptions.c ****                 	pos_error_sum = -ANTI_WINDUP;
 3680              		.loc 1 1195 0
 3681 02d2 9B4B     		ldr	r3, .L272
 3682 02d4 9B4A     		ldr	r2, .L272+4
 3683 02d6 1A60     		str	r2, [r3]
 3684              	.L233:
1196:..\src/interruptions.c ****             }
1197:..\src/interruptions.c **** 
1198:..\src/interruptions.c ****             // Proportional
1199:..\src/interruptions.c ****             if (k_p != 0) 
 3685              		.loc 1 1199 0
 3686 02d8 BB6B     		ldr	r3, [r7, #56]
 3687 02da 002B     		cmp	r3, #0
 3688 02dc 05D0     		beq	.L234
1200:..\src/interruptions.c ****                 pwm_input = (int32)(k_p * pos_error) >> 16;
 3689              		.loc 1 1200 0
 3690 02de BB6B     		ldr	r3, [r7, #56]
 3691 02e0 BA68     		ldr	r2, [r7, #8]
 3692 02e2 02FB03F3 		mul	r3, r2, r3
 3693 02e6 1B14     		asrs	r3, r3, #16
 3694 02e8 FB64     		str	r3, [r7, #76]
 3695              	.L234:
1201:..\src/interruptions.c ****             
1202:..\src/interruptions.c **** 
1203:..\src/interruptions.c ****             // Integral
1204:..\src/interruptions.c ****             if (k_i != 0) 
 3696              		.loc 1 1204 0
 3697 02ea 7B6B     		ldr	r3, [r7, #52]
 3698 02ec 002B     		cmp	r3, #0
 3699 02ee 08D0     		beq	.L235
1205:..\src/interruptions.c ****                 pwm_input += (int32)(k_i * pos_error_sum) >> 16;
 3700              		.loc 1 1205 0
 3701 02f0 934B     		ldr	r3, .L272
 3702 02f2 1B68     		ldr	r3, [r3]
 3703 02f4 7A6B     		ldr	r2, [r7, #52]
 3704 02f6 02FB03F3 		mul	r3, r2, r3
 3705 02fa 1B14     		asrs	r3, r3, #16
 3706 02fc FA6C     		ldr	r2, [r7, #76]
 3707 02fe 1344     		add	r3, r3, r2
 3708 0300 FB64     		str	r3, [r7, #76]
 3709              	.L235:
1206:..\src/interruptions.c ****             
1207:..\src/interruptions.c **** 
1208:..\src/interruptions.c ****             // Derivative
1209:..\src/interruptions.c ****             if (k_d != 0) 
 3710              		.loc 1 1209 0
ARM GAS  C:\Users\mgnocco\AppData\Local\Temp\cc6peeyS.s 			page 89


 3711 0302 3B6B     		ldr	r3, [r7, #48]
 3712 0304 002B     		cmp	r3, #0
 3713 0306 0AD0     		beq	.L236
1210:..\src/interruptions.c ****                 pwm_input += (int32)(k_d * (pos_error - prev_pos_err)) >> 16;
 3714              		.loc 1 1210 0
 3715 0308 8F4B     		ldr	r3, .L272+8
 3716 030a 1B68     		ldr	r3, [r3]
 3717 030c BA68     		ldr	r2, [r7, #8]
 3718 030e D31A     		subs	r3, r2, r3
 3719 0310 3A6B     		ldr	r2, [r7, #48]
 3720 0312 02FB03F3 		mul	r3, r2, r3
 3721 0316 1B14     		asrs	r3, r3, #16
 3722 0318 FA6C     		ldr	r2, [r7, #76]
 3723 031a 1344     		add	r3, r3, r2
 3724 031c FB64     		str	r3, [r7, #76]
 3725              	.L236:
1211:..\src/interruptions.c ****             
1212:..\src/interruptions.c **** 
1213:..\src/interruptions.c ****             // Update measure
1214:..\src/interruptions.c ****             prev_pos_err = pos_error;
 3726              		.loc 1 1214 0
 3727 031e 8A4A     		ldr	r2, .L272+8
 3728 0320 BB68     		ldr	r3, [r7, #8]
 3729 0322 1360     		str	r3, [r2]
1215:..\src/interruptions.c **** 
1216:..\src/interruptions.c ****             if (pwm_input > 0)
 3730              		.loc 1 1216 0
 3731 0324 FB6C     		ldr	r3, [r7, #76]
 3732 0326 002B     		cmp	r3, #0
 3733 0328 03DD     		ble	.L237
1217:..\src/interruptions.c ****                 motor_dir = TRUE;
 3734              		.loc 1 1217 0
 3735 032a 884B     		ldr	r3, .L272+12
 3736 032c 0122     		movs	r2, #1
 3737 032e 1A70     		strb	r2, [r3]
1218:..\src/interruptions.c ****             else
1219:..\src/interruptions.c ****                 motor_dir = FALSE;
1220:..\src/interruptions.c **** 
1221:..\src/interruptions.c ****         break;
 3738              		.loc 1 1221 0
 3739 0330 ADE0     		b	.L210
 3740              	.L237:
1219:..\src/interruptions.c **** 
 3741              		.loc 1 1219 0
 3742 0332 864B     		ldr	r3, .L272+12
 3743 0334 0022     		movs	r2, #0
 3744 0336 1A70     		strb	r2, [r3]
 3745              		.loc 1 1221 0
 3746 0338 A9E0     		b	.L210
 3747              	.L214:
1222:..\src/interruptions.c **** 
1223:..\src/interruptions.c ****         // ========================== CURRENT CONTROL ==========================
1224:..\src/interruptions.c ****         case CONTROL_CURRENT:
1225:..\src/interruptions.c ****             if(g_ref[MOTOR_IDX].onoff && tension_valid) {
 3748              		.loc 1 1225 0
 3749 033a 97F84730 		ldrb	r3, [r7, #71]	@ zero_extendqisi2
 3750 033e 844A     		ldr	r2, .L272+16
ARM GAS  C:\Users\mgnocco\AppData\Local\Temp\cc6peeyS.s 			page 90


 3751 0340 1B01     		lsls	r3, r3, #4
 3752 0342 1344     		add	r3, r3, r2
 3753 0344 0C33     		adds	r3, r3, #12
 3754 0346 1B78     		ldrb	r3, [r3]	@ zero_extendqisi2
 3755 0348 002B     		cmp	r3, #0
 3756 034a 00F09D80 		beq	.L268
 3757              		.loc 1 1225 0 is_stmt 0 discriminator 1
 3758 034e 814B     		ldr	r3, .L272+20
 3759 0350 1B78     		ldrb	r3, [r3]	@ zero_extendqisi2
 3760 0352 002B     		cmp	r3, #0
 3761 0354 00F09880 		beq	.L268
1226:..\src/interruptions.c ****                 
1227:..\src/interruptions.c ****                 i_ref = g_ref[MOTOR_IDX].curr;
 3762              		.loc 1 1227 0 is_stmt 1
 3763 0358 97F84730 		ldrb	r3, [r7, #71]	@ zero_extendqisi2
 3764 035c 7C4A     		ldr	r2, .L272+16
 3765 035e 1B01     		lsls	r3, r3, #4
 3766 0360 1344     		add	r3, r3, r2
 3767 0362 0433     		adds	r3, r3, #4
 3768 0364 1B68     		ldr	r3, [r3]
 3769 0366 BB64     		str	r3, [r7, #72]
1228:..\src/interruptions.c **** 
1229:..\src/interruptions.c ****                 if (i_ref > SH_MOT->current_limit) 
 3770              		.loc 1 1229 0
 3771 0368 3B6C     		ldr	r3, [r7, #64]
 3772 036a B3F95C30 		ldrsh	r3, [r3, #92]
 3773 036e 1A46     		mov	r2, r3
 3774 0370 BB6C     		ldr	r3, [r7, #72]
 3775 0372 9A42     		cmp	r2, r3
 3776 0374 04DA     		bge	.L240
1230:..\src/interruptions.c ****                     i_ref = SH_MOT->current_limit;
 3777              		.loc 1 1230 0
 3778 0376 3B6C     		ldr	r3, [r7, #64]
 3779 0378 B3F95C30 		ldrsh	r3, [r3, #92]
 3780 037c BB64     		str	r3, [r7, #72]
 3781 037e 0BE0     		b	.L241
 3782              	.L240:
1231:..\src/interruptions.c ****                 else {
1232:..\src/interruptions.c ****                     if (i_ref < -SH_MOT->current_limit)
 3783              		.loc 1 1232 0
 3784 0380 3B6C     		ldr	r3, [r7, #64]
 3785 0382 B3F95C30 		ldrsh	r3, [r3, #92]
 3786 0386 5A42     		negs	r2, r3
 3787 0388 BB6C     		ldr	r3, [r7, #72]
 3788 038a 9A42     		cmp	r2, r3
 3789 038c 04DD     		ble	.L241
1233:..\src/interruptions.c ****                         i_ref = -SH_MOT->current_limit;
 3790              		.loc 1 1233 0
 3791 038e 3B6C     		ldr	r3, [r7, #64]
 3792 0390 B3F95C30 		ldrsh	r3, [r3, #92]
 3793 0394 5B42     		negs	r3, r3
 3794 0396 BB64     		str	r3, [r7, #72]
 3795              	.L241:
1234:..\src/interruptions.c ****                 }
1235:..\src/interruptions.c ****                 
1236:..\src/interruptions.c ****                 // current error
1237:..\src/interruptions.c ****                 curr_error = i_ref - g_meas[SH_ENC_L].curr;            
ARM GAS  C:\Users\mgnocco\AppData\Local\Temp\cc6peeyS.s 			page 91


 3796              		.loc 1 1237 0
 3797 0398 97F83F30 		ldrb	r3, [r7, #63]	@ zero_extendqisi2
 3798 039c 6E4A     		ldr	r2, .L272+24
 3799 039e 3421     		movs	r1, #52
 3800 03a0 01FB03F3 		mul	r3, r1, r3
 3801 03a4 1344     		add	r3, r3, r2
 3802 03a6 0C33     		adds	r3, r3, #12
 3803 03a8 1B68     		ldr	r3, [r3]
 3804 03aa BA6C     		ldr	r2, [r7, #72]
 3805 03ac D31A     		subs	r3, r2, r3
 3806 03ae 7B60     		str	r3, [r7, #4]
1238:..\src/interruptions.c ****                 curr_error_sum += curr_error;
 3807              		.loc 1 1238 0
 3808 03b0 6A4B     		ldr	r3, .L272+28
 3809 03b2 1A68     		ldr	r2, [r3]
 3810 03b4 7B68     		ldr	r3, [r7, #4]
 3811 03b6 1344     		add	r3, r3, r2
 3812 03b8 684A     		ldr	r2, .L272+28
 3813 03ba 1360     		str	r3, [r2]
1239:..\src/interruptions.c ****                 
1240:..\src/interruptions.c ****                 if (curr_error_sum > CURR_INTEGRAL_SAT_LIMIT)
 3814              		.loc 1 1240 0
 3815 03bc 674B     		ldr	r3, .L272+28
 3816 03be 1B68     		ldr	r3, [r3]
 3817 03c0 674A     		ldr	r2, .L272+32
 3818 03c2 9342     		cmp	r3, r2
 3819 03c4 03DD     		ble	.L242
1241:..\src/interruptions.c ****                     curr_error_sum = CURR_INTEGRAL_SAT_LIMIT;
 3820              		.loc 1 1241 0
 3821 03c6 654B     		ldr	r3, .L272+28
 3822 03c8 654A     		ldr	r2, .L272+32
 3823 03ca 1A60     		str	r2, [r3]
 3824 03cc 07E0     		b	.L243
 3825              	.L242:
1242:..\src/interruptions.c ****                 else {
1243:..\src/interruptions.c ****                     if (curr_error_sum < -CURR_INTEGRAL_SAT_LIMIT) 
 3826              		.loc 1 1243 0
 3827 03ce 634B     		ldr	r3, .L272+28
 3828 03d0 1B68     		ldr	r3, [r3]
 3829 03d2 644A     		ldr	r2, .L272+36
 3830 03d4 9342     		cmp	r3, r2
 3831 03d6 02DA     		bge	.L243
1244:..\src/interruptions.c ****                         curr_error_sum = -CURR_INTEGRAL_SAT_LIMIT;
 3832              		.loc 1 1244 0
 3833 03d8 604B     		ldr	r3, .L272+28
 3834 03da 624A     		ldr	r2, .L272+36
 3835 03dc 1A60     		str	r2, [r3]
 3836              	.L243:
1245:..\src/interruptions.c ****                 }
1246:..\src/interruptions.c **** 
1247:..\src/interruptions.c ****                 pwm_input = 0;
 3837              		.loc 1 1247 0
 3838 03de 0023     		movs	r3, #0
 3839 03e0 FB64     		str	r3, [r7, #76]
1248:..\src/interruptions.c **** 
1249:..\src/interruptions.c ****                 // Proportional
1250:..\src/interruptions.c ****                 if (k_p_c != 0)
ARM GAS  C:\Users\mgnocco\AppData\Local\Temp\cc6peeyS.s 			page 92


 3840              		.loc 1 1250 0
 3841 03e2 FB6A     		ldr	r3, [r7, #44]
 3842 03e4 002B     		cmp	r3, #0
 3843 03e6 07D0     		beq	.L244
1251:..\src/interruptions.c ****                     pwm_input += (int32)(k_p_c * curr_error) >> 16;
 3844              		.loc 1 1251 0
 3845 03e8 FB6A     		ldr	r3, [r7, #44]
 3846 03ea 7A68     		ldr	r2, [r7, #4]
 3847 03ec 02FB03F3 		mul	r3, r2, r3
 3848 03f0 1B14     		asrs	r3, r3, #16
 3849 03f2 FA6C     		ldr	r2, [r7, #76]
 3850 03f4 1344     		add	r3, r3, r2
 3851 03f6 FB64     		str	r3, [r7, #76]
 3852              	.L244:
1252:..\src/interruptions.c **** 
1253:..\src/interruptions.c ****                 // Integral
1254:..\src/interruptions.c ****                 if (k_i_c != 0)
 3853              		.loc 1 1254 0
 3854 03f8 BB6A     		ldr	r3, [r7, #40]
 3855 03fa 002B     		cmp	r3, #0
 3856 03fc 08D0     		beq	.L245
1255:..\src/interruptions.c ****                     pwm_input += (int32)(k_i_c * curr_error_sum) >> 16;
 3857              		.loc 1 1255 0
 3858 03fe 574B     		ldr	r3, .L272+28
 3859 0400 1B68     		ldr	r3, [r3]
 3860 0402 BA6A     		ldr	r2, [r7, #40]
 3861 0404 02FB03F3 		mul	r3, r2, r3
 3862 0408 1B14     		asrs	r3, r3, #16
 3863 040a FA6C     		ldr	r2, [r7, #76]
 3864 040c 1344     		add	r3, r3, r2
 3865 040e FB64     		str	r3, [r7, #76]
 3866              	.L245:
1256:..\src/interruptions.c **** 
1257:..\src/interruptions.c ****                 // Derivative
1258:..\src/interruptions.c ****                 if (k_d_c != 0)
 3867              		.loc 1 1258 0
 3868 0410 7B6A     		ldr	r3, [r7, #36]
 3869 0412 002B     		cmp	r3, #0
 3870 0414 0AD0     		beq	.L246
1259:..\src/interruptions.c ****                     pwm_input += (int32)(k_d_c * (curr_error - prev_curr_err)) >> 16;
 3871              		.loc 1 1259 0
 3872 0416 544B     		ldr	r3, .L272+40
 3873 0418 1B68     		ldr	r3, [r3]
 3874 041a 7A68     		ldr	r2, [r7, #4]
 3875 041c D31A     		subs	r3, r2, r3
 3876 041e 7A6A     		ldr	r2, [r7, #36]
 3877 0420 02FB03F3 		mul	r3, r2, r3
 3878 0424 1B14     		asrs	r3, r3, #16
 3879 0426 FA6C     		ldr	r2, [r7, #76]
 3880 0428 1344     		add	r3, r3, r2
 3881 042a FB64     		str	r3, [r7, #76]
 3882              	.L246:
1260:..\src/interruptions.c ****                 
1261:..\src/interruptions.c ****                 prev_curr_err = curr_error;
 3883              		.loc 1 1261 0
 3884 042c 4E4A     		ldr	r2, .L272+40
 3885 042e 7B68     		ldr	r3, [r7, #4]
ARM GAS  C:\Users\mgnocco\AppData\Local\Temp\cc6peeyS.s 			page 93


 3886 0430 1360     		str	r3, [r2]
1262:..\src/interruptions.c ****                 
1263:..\src/interruptions.c ****                 if (pwm_input >= 0) 
 3887              		.loc 1 1263 0
 3888 0432 FB6C     		ldr	r3, [r7, #76]
 3889 0434 002B     		cmp	r3, #0
 3890 0436 03DB     		blt	.L247
1264:..\src/interruptions.c ****                     motor_dir = TRUE;
 3891              		.loc 1 1264 0
 3892 0438 444B     		ldr	r3, .L272+12
 3893 043a 0122     		movs	r2, #1
 3894 043c 1A70     		strb	r2, [r3]
1265:..\src/interruptions.c ****                 else
1266:..\src/interruptions.c ****                     motor_dir = FALSE;
1267:..\src/interruptions.c ****             }
1268:..\src/interruptions.c ****         break;
 3895              		.loc 1 1268 0
 3896 043e 23E0     		b	.L268
 3897              	.L247:
1266:..\src/interruptions.c ****             }
 3898              		.loc 1 1266 0
 3899 0440 424B     		ldr	r3, .L272+12
 3900 0442 0022     		movs	r2, #0
 3901 0444 1A70     		strb	r2, [r3]
 3902              		.loc 1 1268 0
 3903 0446 1FE0     		b	.L268
 3904              	.L213:
1269:..\src/interruptions.c ****         
1270:..\src/interruptions.c ****         // ================= DIRECT PWM CONTROL ================================
1271:..\src/interruptions.c ****         case CONTROL_PWM:
1272:..\src/interruptions.c **** 
1273:..\src/interruptions.c ****             pwm_input = g_ref[MOTOR_IDX].pwm;
