ARM GAS  C:\Users\mgnocco\AppData\Local\Temp\cc7PXIoe.s 			page 1


   1              		.syntax unified
   2              		.cpu cortex-m3
   3              		.fpu softvfp
   4              		.eabi_attribute 20, 1
   5              		.eabi_attribute 21, 1
   6              		.eabi_attribute 23, 3
   7              		.eabi_attribute 24, 1
   8              		.eabi_attribute 25, 1
   9              		.eabi_attribute 26, 1
  10              		.eabi_attribute 30, 6
  11              		.eabi_attribute 34, 1
  12              		.eabi_attribute 18, 4
  13              		.thumb
  14              		.syntax unified
  15              		.file	"main.c"
  16              		.text
  17              	.Ltext0:
  18              		.cfi_sections	.debug_frame
  19              		.section	.text.main,"ax",%progbits
  20              		.align	2
  21              		.global	main
  22              		.thumb
  23              		.thumb_func
  24              		.type	main, %function
  25              	main:
  26              	.LFB64:
  27              		.file 1 "..\\src\\main.c"
   1:..\src/main.c **** // ----------------------------------------------------------------------------
   2:..\src/main.c **** // BSD 3-Clause License
   3:..\src/main.c **** 
   4:..\src/main.c **** // Copyright (c) 2016, qbrobotics
   5:..\src/main.c **** // Copyright (c) 2017-2020, Centro "E.Piaggio"
   6:..\src/main.c **** // All rights reserved.
   7:..\src/main.c **** 
   8:..\src/main.c **** // Redistribution and use in source and binary forms, with or without
   9:..\src/main.c **** // modification, are permitted provided that the following conditions are met:
  10:..\src/main.c **** 
  11:..\src/main.c **** // * Redistributions of source code must retain the above copyright notice, this
  12:..\src/main.c **** //   list of conditions and the following disclaimer.
  13:..\src/main.c **** 
  14:..\src/main.c **** // * Redistributions in binary form must reproduce the above copyright notice,
  15:..\src/main.c **** //   this list of conditions and the following disclaimer in the documentation
  16:..\src/main.c **** //   and/or other materials provided with the distribution.
  17:..\src/main.c **** 
  18:..\src/main.c **** // * Neither the name of the copyright holder nor the names of its
  19:..\src/main.c **** //   contributors may be used to endorse or promote products derived from
  20:..\src/main.c **** //   this software without specific prior written permission.
  21:..\src/main.c **** 
  22:..\src/main.c **** // THIS SOFTWARE IS PROVIDED BY THE COPYRIGHT HOLDERS AND CONTRIBUTORS "AS IS"
  23:..\src/main.c **** // AND ANY EXPRESS OR IMPLIED WARRANTIES, INCLUDING, BUT NOT LIMITED TO, THE
  24:..\src/main.c **** // IMPLIED WARRANTIES OF MERCHANTABILITY AND FITNESS FOR A PARTICULAR PURPOSE ARE
  25:..\src/main.c **** // DISCLAIMED. IN NO EVENT SHALL THE COPYRIGHT HOLDER OR CONTRIBUTORS BE LIABLE
  26:..\src/main.c **** // FOR ANY DIRECT, INDIRECT, INCIDENTAL, SPECIAL, EXEMPLARY, OR CONSEQUENTIAL
  27:..\src/main.c **** // DAMAGES (INCLUDING, BUT NOT LIMITED TO, PROCUREMENT OF SUBSTITUTE GOODS OR
  28:..\src/main.c **** // SERVICES; LOSS OF USE, DATA, OR PROFITS; OR BUSINESS INTERRUPTION) HOWEVER
  29:..\src/main.c **** // CAUSED AND ON ANY THEORY OF LIABILITY, WHETHER IN CONTRACT, STRICT LIABILITY,
  30:..\src/main.c **** // OR TORT (INCLUDING NEGLIGENCE OR OTHERWISE) ARISING IN ANY WAY OUT OF THE USE
ARM GAS  C:\Users\mgnocco\AppData\Local\Temp\cc7PXIoe.s 			page 2


  31:..\src/main.c **** // OF THIS SOFTWARE, EVEN IF ADVISED OF THE POSSIBILITY OF SUCH DAMAGE.
  32:..\src/main.c **** // POSSIBILITY OF SUCH DAMAGE.
  33:..\src/main.c **** // ----------------------------------------------------------------------------
  34:..\src/main.c **** 
  35:..\src/main.c **** /**
  36:..\src/main.c **** * \file         main.c
  37:..\src/main.c **** *
  38:..\src/main.c **** * \brief        Firmware main file.
  39:..\src/main.c **** * \date         March 20th, 2020
  40:..\src/main.c **** * \author       _Centro "E.Piaggio"_
  41:..\src/main.c **** * \copyright    (C) 2020 Centro "E.Piaggio". All rights reserved.
  42:..\src/main.c **** * \mainpage     Firmware
  43:..\src/main.c **** * \brief        This is the firmware of PSoC5 logic board.
  44:..\src/main.c **** * \version      1.9.4
  45:..\src/main.c **** *
  46:..\src/main.c **** * \details      This is the firmware of PSoC5 logic board. Depending on the configuration, 
  47:..\src/main.c **** *               it can control up to two motors and read its encoders. Also can read and
  48:..\src/main.c **** *               convert analog measurements connected to the PSoC microcontroller.                
  49:..\src/main.c **** *
  50:..\src/main.c **** */
  51:..\src/main.c **** 
  52:..\src/main.c **** 
  53:..\src/main.c **** // ----------------------------------------------------------------------------
  54:..\src/main.c **** // This version changes:
  55:..\src/main.c **** //      - not reported
  56:..\src/main.c **** 
  57:..\src/main.c **** 
  58:..\src/main.c **** //=================================================================     includes
  59:..\src/main.c **** 
  60:..\src/main.c **** #include "device.h"
  61:..\src/main.c **** #include "globals.h"
  62:..\src/main.c **** #include "interruptions.h"
  63:..\src/main.c **** #include "command_processing.h"
  64:..\src/main.c **** #include "IMU_functions.h"
  65:..\src/main.c **** #include "Encoder_functions.h"
  66:..\src/main.c **** #include "SD_RTC_functions.h"
  67:..\src/main.c **** #include "utils.h"
  68:..\src/main.c **** #include "project.h"
  69:..\src/main.c **** #include "FS.h"
  70:..\src/main.c **** #include "vibrotactile_control.h"
  71:..\src/main.c **** 
  72:..\src/main.c **** //==============================================================================
  73:..\src/main.c **** //                                                                 MAIN FUNCTION
  74:..\src/main.c **** //==============================================================================
  75:..\src/main.c **** 
  76:..\src/main.c **** int main()
  77:..\src/main.c **** {
  28              		.loc 1 77 0
  29              		.cfi_startproc
  30              		@ args = 0, pretend = 0, frame = 8
  31              		@ frame_needed = 1, uses_anonymous_args = 0
  32 0000 90B5     		push	{r4, r7, lr}
  33              		.cfi_def_cfa_offset 12
  34              		.cfi_offset 4, -12
  35              		.cfi_offset 7, -8
  36              		.cfi_offset 14, -4
  37 0002 83B0     		sub	sp, sp, #12
ARM GAS  C:\Users\mgnocco\AppData\Local\Temp\cc7PXIoe.s 			page 3


  38              		.cfi_def_cfa_offset 24
  39 0004 00AF     		add	r7, sp, #0
  40              		.cfi_def_cfa_register 7
  78:..\src/main.c ****     // Iterator    
  79:..\src/main.c ****     uint8 i, j;
  80:..\src/main.c ****     
  81:..\src/main.c ****     // Variable declarations for DMA     
  82:..\src/main.c ****     uint8 DMA_Chan;
  83:..\src/main.c ****     uint8 DMA_TD[1];
  84:..\src/main.c ****     
  85:..\src/main.c ****     //================================     initializations - psoc and components
  86:..\src/main.c **** 
  87:..\src/main.c ****     // EEPROM
  88:..\src/main.c ****     EEPROM_Start();
  41              		.loc 1 88 0
  42 0006 FFF7FEFF 		bl	EEPROM_Start
  89:..\src/main.c ****     memRecall();                                        // Recall configuration.  
  43              		.loc 1 89 0
  44 000a FFF7FEFF 		bl	memRecall
  90:..\src/main.c ****     
  91:..\src/main.c ****     // FTDI chip enable
  92:..\src/main.c ****     CyDelay(100);
  45              		.loc 1 92 0
  46 000e 6420     		movs	r0, #100
  47 0010 FFF7FEFF 		bl	CyDelay
  93:..\src/main.c ****     FTDI_ENABLE_Write(0x01);
  48              		.loc 1 93 0
  49 0014 0120     		movs	r0, #1
  50 0016 FFF7FEFF 		bl	FTDI_ENABLE_Write
  94:..\src/main.c ****     
  95:..\src/main.c **** 	// LED Enable   
  96:..\src/main.c ****     LED_control(1);     // Green fixed light
  51              		.loc 1 96 0
  52 001a 0120     		movs	r0, #1
  53 001c FFF7FEFF 		bl	LED_control
  97:..\src/main.c ****     BLINK_05HZ_Start();
  54              		.loc 1 97 0
  55 0020 FFF7FEFF 		bl	BLINK_05HZ_Start
  98:..\src/main.c ****     BLINK_25HZ_Start();
  56              		.loc 1 98 0
  57 0024 FFF7FEFF 		bl	BLINK_25HZ_Start
  99:..\src/main.c ****     BLINK_05HZ_WriteCompare(499);
  58              		.loc 1 99 0
  59 0028 40F2F310 		movw	r0, #499
  60 002c FFF7FEFF 		bl	BLINK_05HZ_WriteCompare
 100:..\src/main.c ****     BLINK_25HZ_WriteCompare(99);
  61              		.loc 1 100 0
  62 0030 6320     		movs	r0, #99
  63 0032 FFF7FEFF 		bl	BLINK_25HZ_WriteCompare
 101:..\src/main.c ****     
 102:..\src/main.c ****     // RS485
 103:..\src/main.c ****     UART_RS485_Stop();
  64              		.loc 1 103 0
  65 0036 FFF7FEFF 		bl	UART_RS485_Stop
 104:..\src/main.c ****     UART_RS485_Start();
  66              		.loc 1 104 0
  67 003a FFF7FEFF 		bl	UART_RS485_Start
ARM GAS  C:\Users\mgnocco\AppData\Local\Temp\cc7PXIoe.s 			page 4


 105:..\src/main.c ****     UART_RS485_Init();
  68              		.loc 1 105 0
  69 003e FFF7FEFF 		bl	UART_RS485_Init
 106:..\src/main.c ****     UART_RS485_ClearRxBuffer();
  70              		.loc 1 106 0
  71 0042 FFF7FEFF 		bl	UART_RS485_ClearRxBuffer
 107:..\src/main.c ****     UART_RS485_ClearTxBuffer();
  72              		.loc 1 107 0
  73 0046 FFF7FEFF 		bl	UART_RS485_ClearTxBuffer
 108:..\src/main.c ****     ISR_RS485_RX_StartEx(ISR_RS485_RX_ExInterrupt);
  74              		.loc 1 108 0
  75 004a AB48     		ldr	r0, .L41
  76 004c FFF7FEFF 		bl	ISR_RS485_RX_StartEx
 109:..\src/main.c ****     
 110:..\src/main.c ****     // CYCLES TIMER   
 111:..\src/main.c ****     CYCLES_TIMER_Start();
  77              		.loc 1 111 0
  78 0050 FFF7FEFF 		bl	CYCLES_TIMER_Start
 112:..\src/main.c ****     ISR_CYCLES_StartEx(ISR_CYCLES_Handler);
  79              		.loc 1 112 0
  80 0054 A948     		ldr	r0, .L41+4
  81 0056 FFF7FEFF 		bl	ISR_CYCLES_StartEx
 113:..\src/main.c ****     
 114:..\src/main.c ****     // PWM
 115:..\src/main.c ****     PWM_MOTORS_Start();
  82              		.loc 1 115 0
  83 005a FFF7FEFF 		bl	PWM_MOTORS_Start
 116:..\src/main.c ****     PWM_MOTORS_WriteCompare1(0);
  84              		.loc 1 116 0
  85 005e 0020     		movs	r0, #0
  86 0060 FFF7FEFF 		bl	PWM_MOTORS_WriteCompare1
 117:..\src/main.c ****     MOTOR_DIR_1_Write(0);
  87              		.loc 1 117 0
  88 0064 0020     		movs	r0, #0
  89 0066 FFF7FEFF 		bl	MOTOR_DIR_1_Write
 118:..\src/main.c ****     enable_motor(0, 0x00);
  90              		.loc 1 118 0
  91 006a 0021     		movs	r1, #0
  92 006c 0020     		movs	r0, #0
  93 006e FFF7FEFF 		bl	enable_motor
 119:..\src/main.c ****     MOTOR_DIR_2_Write(0);
  94              		.loc 1 119 0
  95 0072 0020     		movs	r0, #0
  96 0074 FFF7FEFF 		bl	MOTOR_DIR_2_Write
 120:..\src/main.c ****     enable_motor(1, 0x00);
  97              		.loc 1 120 0
  98 0078 0021     		movs	r1, #0
  99 007a 0120     		movs	r0, #1
 100 007c FFF7FEFF 		bl	enable_motor
 121:..\src/main.c **** 
 122:..\src/main.c **** #ifdef AIR_CHAMBERS_FB_FW
 123:..\src/main.c ****     if (c_mem.dev.dev_type == AIR_CHAMBERS_FB){
 124:..\src/main.c ****         VALVE_Write(0);
 125:..\src/main.c ****     }
 126:..\src/main.c **** #endif
 127:..\src/main.c ****     
 128:..\src/main.c ****      memInitVibrotactile();             //Initialize vibrotactile variables
ARM GAS  C:\Users\mgnocco\AppData\Local\Temp\cc7PXIoe.s 			page 5


 101              		.loc 1 128 0
 102 0080 FFF7FEFF 		bl	memInitVibrotactile
 129:..\src/main.c **** 
 130:..\src/main.c ****     // Init AS5045 devices  
 131:..\src/main.c ****     COUNTER_ENC_Start();
 103              		.loc 1 131 0
 104 0084 FFF7FEFF 		bl	COUNTER_ENC_Start
 132:..\src/main.c ****     SHIFTREG_ENC_1_Start();
 105              		.loc 1 132 0
 106 0088 FFF7FEFF 		bl	SHIFTREG_ENC_1_Start
 133:..\src/main.c ****     SHIFTREG_ENC_2_Start();
 107              		.loc 1 133 0
 108 008c FFF7FEFF 		bl	SHIFTREG_ENC_2_Start
 134:..\src/main.c ****     SHIFTREG_ENC_3_Start();
 109              		.loc 1 134 0
 110 0090 FFF7FEFF 		bl	SHIFTREG_ENC_3_Start
 135:..\src/main.c **** 
 136:..\src/main.c ****     // ADC
 137:..\src/main.c ****     ADC_Set_N_Channels();           // Set right number of ADC channels to sample
 111              		.loc 1 137 0
 112 0094 FFF7FEFF 		bl	ADC_Set_N_Channels
 138:..\src/main.c ****     ADC_Start();
 113              		.loc 1 138 0
 114 0098 FFF7FEFF 		bl	ADC_Start
 139:..\src/main.c ****     ADC_SOC_Write(0x01);            // Force first read cycle.
 115              		.loc 1 139 0
 116 009c 0120     		movs	r0, #1
 117 009e FFF7FEFF 		bl	ADC_SOC_Write
 140:..\src/main.c **** 
 141:..\src/main.c ****     // ADC DMA    
 142:..\src/main.c ****     DMA_Chan = DMA_DmaInitialize(DMA_BYTES_PER_BURST, DMA_REQUEST_PER_BURST, HI16(DMA_SRC_BASE), HI
 118              		.loc 1 142 0
 119 00a2 41F6FF73 		movw	r3, #8191
 120 00a6 4FF48042 		mov	r2, #16384
 121 00aa 0121     		movs	r1, #1
 122 00ac 0220     		movs	r0, #2
 123 00ae FFF7FEFF 		bl	DMA_DmaInitialize
 124 00b2 0346     		mov	r3, r0
 125 00b4 FB70     		strb	r3, [r7, #3]
 143:..\src/main.c ****     DMA_TD[0] = CyDmaTdAllocate();                                                                 
 126              		.loc 1 143 0
 127 00b6 FFF7FEFF 		bl	CyDmaTdAllocate
 128 00ba 0346     		mov	r3, r0
 129 00bc 3B70     		strb	r3, [r7]
 144:..\src/main.c ****     CyDmaTdSetConfiguration(DMA_TD[0], 2 * NUM_OF_ANALOG_INPUTS, DMA_TD[0], DMA__TD_TERMOUT_EN | TD
 130              		.loc 1 144 0
 131 00be 3878     		ldrb	r0, [r7]	@ zero_extendqisi2
 132 00c0 8F4B     		ldr	r3, .L41+8
 133 00c2 1B78     		ldrb	r3, [r3]	@ zero_extendqisi2
 134 00c4 9BB2     		uxth	r3, r3
 135 00c6 5B00     		lsls	r3, r3, #1
 136 00c8 99B2     		uxth	r1, r3
 137 00ca 3A78     		ldrb	r2, [r7]	@ zero_extendqisi2
 138 00cc 0623     		movs	r3, #6
 139 00ce FFF7FEFF 		bl	CyDmaTdSetConfiguration
 145:..\src/main.c ****     CyDmaTdSetAddress(DMA_TD[0], LO16((uint32)ADC_DEC_SAMP_PTR), LO16((uint32)ADC_buf));           
 140              		.loc 1 145 0
ARM GAS  C:\Users\mgnocco\AppData\Local\Temp\cc7PXIoe.s 			page 6


 141 00d2 3B78     		ldrb	r3, [r7]	@ zero_extendqisi2
 142 00d4 8B4A     		ldr	r2, .L41+12
 143 00d6 92B2     		uxth	r2, r2
 144 00d8 44F61061 		movw	r1, #19984
 145 00dc 1846     		mov	r0, r3
 146 00de FFF7FEFF 		bl	CyDmaTdSetAddress
 146:..\src/main.c ****     CyDmaChSetInitialTd(DMA_Chan, DMA_TD[0]);                                                      
 147              		.loc 1 146 0
 148 00e2 3A78     		ldrb	r2, [r7]	@ zero_extendqisi2
 149 00e4 FB78     		ldrb	r3, [r7, #3]	@ zero_extendqisi2
 150 00e6 1146     		mov	r1, r2
 151 00e8 1846     		mov	r0, r3
 152 00ea FFF7FEFF 		bl	CyDmaChSetInitialTd
 147:..\src/main.c ****     CyDmaChEnable(DMA_Chan, 1);                                                                    
 153              		.loc 1 147 0
 154 00ee FB78     		ldrb	r3, [r7, #3]	@ zero_extendqisi2
 155 00f0 0121     		movs	r1, #1
 156 00f2 1846     		mov	r0, r3
 157 00f4 FFF7FEFF 		bl	CyDmaChEnable
 148:..\src/main.c ****     
 149:..\src/main.c ****     // TIMER
 150:..\src/main.c ****     MY_TIMER_Start();           
 158              		.loc 1 150 0
 159 00f8 FFF7FEFF 		bl	MY_TIMER_Start
 151:..\src/main.c ****     PACER_TIMER_Start();    
 160              		.loc 1 151 0
 161 00fc FFF7FEFF 		bl	PACER_TIMER_Start
 152:..\src/main.c ****     
 153:..\src/main.c ****     CYGlobalIntEnable;              // Enable interrupts.
 162              		.loc 1 153 0
 163              		.syntax unified
 164              	@ 153 "..\src\main.c" 1
 165 0100 62B6     		CPSIE   i
 166              	@ 0 "" 2
 154:..\src/main.c **** 
 155:..\src/main.c ****     // Init AS5045 devices
 156:..\src/main.c ****     InitEncoderGeneral();
 167              		.loc 1 156 0
 168              		.thumb
 169              		.syntax unified
 170 0102 FFF7FEFF 		bl	InitEncoderGeneral
 157:..\src/main.c **** 
 158:..\src/main.c ****     //SPI IMU module
 159:..\src/main.c ****     if (c_mem.imu.read_imu_flag) {
 171              		.loc 1 159 0
 172 0106 804B     		ldr	r3, .L41+16
 173 0108 93F80032 		ldrb	r3, [r3, #512]	@ zero_extendqisi2
 174 010c 002B     		cmp	r3, #0
 175 010e 34D0     		beq	.L2
 160:..\src/main.c **** 
 161:..\src/main.c ****     	SPI_IMU_Start();
 176              		.loc 1 161 0
 177 0110 FFF7FEFF 		bl	SPI_IMU_Start
 162:..\src/main.c ****     	SPI_IMU_Init();
 178              		.loc 1 162 0
 179 0114 FFF7FEFF 		bl	SPI_IMU_Init
 163:..\src/main.c ****     	SPI_IMU_Enable();
ARM GAS  C:\Users\mgnocco\AppData\Local\Temp\cc7PXIoe.s 			page 7


 180              		.loc 1 163 0
 181 0118 FFF7FEFF 		bl	SPI_IMU_Enable
 164:..\src/main.c ****     	SPI_IMU_ClearRxBuffer();
 182              		.loc 1 164 0
 183 011c FFF7FEFF 		bl	SPI_IMU_ClearRxBuffer
 165:..\src/main.c ****     	SPI_IMU_ClearTxBuffer();
 184              		.loc 1 165 0
 185 0120 FFF7FEFF 		bl	SPI_IMU_ClearTxBuffer
 166:..\src/main.c ****     	SPI_IMU_ClearFIFO();							
 186              		.loc 1 166 0
 187 0124 FFF7FEFF 		bl	SPI_IMU_ClearFIFO
 167:..\src/main.c ****         CyDelay(10);
 188              		.loc 1 167 0
 189 0128 0A20     		movs	r0, #10
 190 012a FFF7FEFF 		bl	CyDelay
 168:..\src/main.c ****         
 169:..\src/main.c ****         // Init MPU9250 devices
 170:..\src/main.c ****         InitIMUgeneral();
 191              		.loc 1 170 0
 192 012e FFF7FEFF 		bl	InitIMUgeneral
 171:..\src/main.c ****         
 172:..\src/main.c ****         // Initialize quaternion
 173:..\src/main.c ****         for (i = 0; i<N_IMU_MAX; i++) {
 193              		.loc 1 173 0
 194 0132 0023     		movs	r3, #0
 195 0134 FB71     		strb	r3, [r7, #7]
 196 0136 1DE0     		b	.L3
 197              	.L4:
 174:..\src/main.c ****             Quat[i][0] = 0.999;
 198              		.loc 1 174 0 discriminator 3
 199 0138 FB79     		ldrb	r3, [r7, #7]	@ zero_extendqisi2
 200 013a 744A     		ldr	r2, .L41+20
 201 013c 1B01     		lsls	r3, r3, #4
 202 013e 1344     		add	r3, r3, r2
 203 0140 734A     		ldr	r2, .L41+24
 204 0142 1A60     		str	r2, [r3]	@ float
 175:..\src/main.c ****             Quat[i][1] = 0.01;
 205              		.loc 1 175 0 discriminator 3
 206 0144 FB79     		ldrb	r3, [r7, #7]	@ zero_extendqisi2
 207 0146 714A     		ldr	r2, .L41+20
 208 0148 1B01     		lsls	r3, r3, #4
 209 014a 1344     		add	r3, r3, r2
 210 014c 0433     		adds	r3, r3, #4
 211 014e 714A     		ldr	r2, .L41+28
 212 0150 1A60     		str	r2, [r3]	@ float
 176:..\src/main.c ****             Quat[i][2] = 0.01;
 213              		.loc 1 176 0 discriminator 3
 214 0152 FB79     		ldrb	r3, [r7, #7]	@ zero_extendqisi2
 215 0154 6D4A     		ldr	r2, .L41+20
 216 0156 1B01     		lsls	r3, r3, #4
 217 0158 1344     		add	r3, r3, r2
 218 015a 0833     		adds	r3, r3, #8
 219 015c 6D4A     		ldr	r2, .L41+28
 220 015e 1A60     		str	r2, [r3]	@ float
 177:..\src/main.c ****             Quat[i][3] = 0.01;
 221              		.loc 1 177 0 discriminator 3
 222 0160 FB79     		ldrb	r3, [r7, #7]	@ zero_extendqisi2
ARM GAS  C:\Users\mgnocco\AppData\Local\Temp\cc7PXIoe.s 			page 8


 223 0162 6A4A     		ldr	r2, .L41+20
 224 0164 1B01     		lsls	r3, r3, #4
 225 0166 1344     		add	r3, r3, r2
 226 0168 0C33     		adds	r3, r3, #12
 227 016a 6A4A     		ldr	r2, .L41+28
 228 016c 1A60     		str	r2, [r3]	@ float
 173:..\src/main.c ****             Quat[i][0] = 0.999;
 229              		.loc 1 173 0 discriminator 3
 230 016e FB79     		ldrb	r3, [r7, #7]	@ zero_extendqisi2
 231 0170 0133     		adds	r3, r3, #1
 232 0172 FB71     		strb	r3, [r7, #7]
 233              	.L3:
 173:..\src/main.c ****             Quat[i][0] = 0.999;
 234              		.loc 1 173 0 is_stmt 0 discriminator 1
 235 0174 FB79     		ldrb	r3, [r7, #7]	@ zero_extendqisi2
 236 0176 042B     		cmp	r3, #4
 237 0178 DED9     		bls	.L4
 238              	.L2:
 178:..\src/main.c ****         }
 179:..\src/main.c ****     }
 180:..\src/main.c ****     
 181:..\src/main.c ****     //========================================     initializations - clean variables
 182:..\src/main.c ****     
 183:..\src/main.c ****     //---------------------------------------------------  Initialize filters structure 
 184:..\src/main.c ****     for(i=0;i<NUM_OF_MOTORS;i++) {
 239              		.loc 1 184 0 is_stmt 1
 240 017a 0023     		movs	r3, #0
 241 017c FB71     		strb	r3, [r7, #7]
 242 017e 1AE0     		b	.L5
 243              	.L6:
 185:..\src/main.c ****         filt_i[i].gain = 32;    // Current filter constant.
 244              		.loc 1 185 0 discriminator 3
 245 0180 FB79     		ldrb	r3, [r7, #7]	@ zero_extendqisi2
 246 0182 654A     		ldr	r2, .L41+32
 247 0184 DB00     		lsls	r3, r3, #3
 248 0186 1344     		add	r3, r3, r2
 249 0188 2022     		movs	r2, #32
 250 018a 5A60     		str	r2, [r3, #4]
 186:..\src/main.c ****         filt_curr_diff[i].gain = 16;   // Current residual filter constant.       
 251              		.loc 1 186 0 discriminator 3
 252 018c FB79     		ldrb	r3, [r7, #7]	@ zero_extendqisi2
 253 018e 634A     		ldr	r2, .L41+36
 254 0190 DB00     		lsls	r3, r3, #3
 255 0192 1344     		add	r3, r3, r2
 256 0194 1022     		movs	r2, #16
 257 0196 5A60     		str	r2, [r3, #4]
 187:..\src/main.c ****         filt_v[i].old_value    = 12000;// Initial voltage filter value.
 258              		.loc 1 187 0 discriminator 3
 259 0198 FB79     		ldrb	r3, [r7, #7]	@ zero_extendqisi2
 260 019a 614A     		ldr	r2, .L41+40
 261 019c 42F6E061 		movw	r1, #12000
 262 01a0 42F83310 		str	r1, [r2, r3, lsl #3]
 188:..\src/main.c ****         filt_v[i].gain         = 2;    // Voltage filter constant.
 263              		.loc 1 188 0 discriminator 3
 264 01a4 FB79     		ldrb	r3, [r7, #7]	@ zero_extendqisi2
 265 01a6 5E4A     		ldr	r2, .L41+40
 266 01a8 DB00     		lsls	r3, r3, #3
ARM GAS  C:\Users\mgnocco\AppData\Local\Temp\cc7PXIoe.s 			page 9


 267 01aa 1344     		add	r3, r3, r2
 268 01ac 0222     		movs	r2, #2
 269 01ae 5A60     		str	r2, [r3, #4]
 184:..\src/main.c ****         filt_i[i].gain = 32;    // Current filter constant.
 270              		.loc 1 184 0 discriminator 3
 271 01b0 FB79     		ldrb	r3, [r7, #7]	@ zero_extendqisi2
 272 01b2 0133     		adds	r3, r3, #1
 273 01b4 FB71     		strb	r3, [r7, #7]
 274              	.L5:
 184:..\src/main.c ****         filt_i[i].gain = 32;    // Current filter constant.
 275              		.loc 1 184 0 is_stmt 0 discriminator 1
 276 01b6 FB79     		ldrb	r3, [r7, #7]	@ zero_extendqisi2
 277 01b8 012B     		cmp	r3, #1
 278 01ba E1D9     		bls	.L6
 189:..\src/main.c ****     }
 190:..\src/main.c ****     for(i=0;i<NUM_OF_SENSORS;i++) {
 279              		.loc 1 190 0 is_stmt 1
 280 01bc 0023     		movs	r3, #0
 281 01be FB71     		strb	r3, [r7, #7]
 282 01c0 08E0     		b	.L7
 283              	.L8:
 191:..\src/main.c ****         filt_vel[i].gain = 128; // Velocity filters constant.
 284              		.loc 1 191 0 discriminator 3
 285 01c2 FB79     		ldrb	r3, [r7, #7]	@ zero_extendqisi2
 286 01c4 574A     		ldr	r2, .L41+44
 287 01c6 DB00     		lsls	r3, r3, #3
 288 01c8 1344     		add	r3, r3, r2
 289 01ca 8022     		movs	r2, #128
 290 01cc 5A60     		str	r2, [r3, #4]
 190:..\src/main.c ****         filt_vel[i].gain = 128; // Velocity filters constant.
 291              		.loc 1 190 0 discriminator 3
 292 01ce FB79     		ldrb	r3, [r7, #7]	@ zero_extendqisi2
 293 01d0 0133     		adds	r3, r3, #1
 294 01d2 FB71     		strb	r3, [r7, #7]
 295              	.L7:
 190:..\src/main.c ****         filt_vel[i].gain = 128; // Velocity filters constant.
 296              		.loc 1 190 0 is_stmt 0 discriminator 1
 297 01d4 FB79     		ldrb	r3, [r7, #7]	@ zero_extendqisi2
 298 01d6 022B     		cmp	r3, #2
 299 01d8 F3D9     		bls	.L8
 192:..\src/main.c ****     }
 193:..\src/main.c ****     
 194:..\src/main.c ****     for(i=0;i<NUM_OF_INPUT_EMGS+NUM_OF_ADDITIONAL_EMGS;i++) {
 300              		.loc 1 194 0 is_stmt 1
 301 01da 0023     		movs	r3, #0
 302 01dc FB71     		strb	r3, [r7, #7]
 303 01de 08E0     		b	.L9
 304              	.L10:
 195:..\src/main.c ****         filt_emg[i].gain      = 50;   // Emg channels filter constant.
 305              		.loc 1 195 0 discriminator 3
 306 01e0 FB79     		ldrb	r3, [r7, #7]	@ zero_extendqisi2
 307 01e2 514A     		ldr	r2, .L41+48
 308 01e4 DB00     		lsls	r3, r3, #3
 309 01e6 1344     		add	r3, r3, r2
 310 01e8 3222     		movs	r2, #50
 311 01ea 5A60     		str	r2, [r3, #4]
 194:..\src/main.c ****         filt_emg[i].gain      = 50;   // Emg channels filter constant.
ARM GAS  C:\Users\mgnocco\AppData\Local\Temp\cc7PXIoe.s 			page 10


 312              		.loc 1 194 0 discriminator 3
 313 01ec FB79     		ldrb	r3, [r7, #7]	@ zero_extendqisi2
 314 01ee 0133     		adds	r3, r3, #1
 315 01f0 FB71     		strb	r3, [r7, #7]
 316              	.L9:
 194:..\src/main.c ****         filt_emg[i].gain      = 50;   // Emg channels filter constant.
 317              		.loc 1 194 0 is_stmt 0 discriminator 1
 318 01f2 FB79     		ldrb	r3, [r7, #7]	@ zero_extendqisi2
 319 01f4 072B     		cmp	r3, #7
 320 01f6 F3D9     		bls	.L10
 196:..\src/main.c ****     }
 197:..\src/main.c ****     filt_detect_pc.gain = 500;    
 321              		.loc 1 197 0 is_stmt 1
 322 01f8 4C4B     		ldr	r3, .L41+52
 323 01fa 4FF4FA72 		mov	r2, #500
 324 01fe 5A60     		str	r2, [r3, #4]
 198:..\src/main.c ****     
 199:..\src/main.c ****     //---------------------------------------------------  Initialize reference structure 
 200:..\src/main.c ****     for (i = 0; i< NUM_OF_MOTORS; i++) {
 325              		.loc 1 200 0
 326 0200 0023     		movs	r3, #0
 327 0202 FB71     		strb	r3, [r7, #7]
 328 0204 08E0     		b	.L11
 329              	.L12:
 201:..\src/main.c ****         g_ref[i].pos = 0;
 330              		.loc 1 201 0 discriminator 3
 331 0206 FB79     		ldrb	r3, [r7, #7]	@ zero_extendqisi2
 332 0208 494A     		ldr	r2, .L41+56
 333 020a 1B01     		lsls	r3, r3, #4
 334 020c 1344     		add	r3, r3, r2
 335 020e 0022     		movs	r2, #0
 336 0210 1A60     		str	r2, [r3]
 200:..\src/main.c ****         g_ref[i].pos = 0;
 337              		.loc 1 200 0 discriminator 3
 338 0212 FB79     		ldrb	r3, [r7, #7]	@ zero_extendqisi2
 339 0214 0133     		adds	r3, r3, #1
 340 0216 FB71     		strb	r3, [r7, #7]
 341              	.L11:
 200:..\src/main.c ****         g_ref[i].pos = 0;
 342              		.loc 1 200 0 is_stmt 0 discriminator 1
 343 0218 FB79     		ldrb	r3, [r7, #7]	@ zero_extendqisi2
 344 021a 012B     		cmp	r3, #1
 345 021c F3D9     		bls	.L12
 202:..\src/main.c ****     }
 203:..\src/main.c ****     
 204:..\src/main.c ****     //---------------------------------------------------  Initialize measurement structure
 205:..\src/main.c ****     for (j = 0; j< N_ENCODER_LINE_MAX; j++) { 
 346              		.loc 1 205 0 is_stmt 1
 347 021e 0023     		movs	r3, #0
 348 0220 BB71     		strb	r3, [r7, #6]
 349 0222 22E0     		b	.L13
 350              	.L16:
 206:..\src/main.c ****         for (i = 0; i < NUM_OF_SENSORS; i++) { 
 351              		.loc 1 206 0
 352 0224 0023     		movs	r3, #0
 353 0226 FB71     		strb	r3, [r7, #7]
 354 0228 19E0     		b	.L14
ARM GAS  C:\Users\mgnocco\AppData\Local\Temp\cc7PXIoe.s 			page 11


 355              	.L15:
 207:..\src/main.c ****             g_meas[j].pos[i] = 0;
 356              		.loc 1 207 0 discriminator 3
 357 022a BA79     		ldrb	r2, [r7, #6]	@ zero_extendqisi2
 358 022c F979     		ldrb	r1, [r7, #7]	@ zero_extendqisi2
 359 022e 4148     		ldr	r0, .L41+60
 360 0230 1346     		mov	r3, r2
 361 0232 5B00     		lsls	r3, r3, #1
 362 0234 1344     		add	r3, r3, r2
 363 0236 9B00     		lsls	r3, r3, #2
 364 0238 1344     		add	r3, r3, r2
 365 023a 0B44     		add	r3, r3, r1
 366 023c 0022     		movs	r2, #0
 367 023e 40F82320 		str	r2, [r0, r3, lsl #2]
 208:..\src/main.c ****             g_meas[j].rot[i] = (int8)0;
 368              		.loc 1 208 0 discriminator 3
 369 0242 BA79     		ldrb	r2, [r7, #6]	@ zero_extendqisi2
 370 0244 FB79     		ldrb	r3, [r7, #7]	@ zero_extendqisi2
 371 0246 3B49     		ldr	r1, .L41+60
 372 0248 3420     		movs	r0, #52
 373 024a 00FB02F2 		mul	r2, r0, r2
 374 024e 0A44     		add	r2, r2, r1
 375 0250 1344     		add	r3, r3, r2
 376 0252 1833     		adds	r3, r3, #24
 377 0254 0022     		movs	r2, #0
 378 0256 1A70     		strb	r2, [r3]
 206:..\src/main.c ****         for (i = 0; i < NUM_OF_SENSORS; i++) { 
 379              		.loc 1 206 0 discriminator 3
 380 0258 FB79     		ldrb	r3, [r7, #7]	@ zero_extendqisi2
 381 025a 0133     		adds	r3, r3, #1
 382 025c FB71     		strb	r3, [r7, #7]
 383              	.L14:
 206:..\src/main.c ****         for (i = 0; i < NUM_OF_SENSORS; i++) { 
 384              		.loc 1 206 0 is_stmt 0 discriminator 1
 385 025e FB79     		ldrb	r3, [r7, #7]	@ zero_extendqisi2
 386 0260 022B     		cmp	r3, #2
 387 0262 E2D9     		bls	.L15
 205:..\src/main.c ****         for (i = 0; i < NUM_OF_SENSORS; i++) { 
 388              		.loc 1 205 0 is_stmt 1 discriminator 2
 389 0264 BB79     		ldrb	r3, [r7, #6]	@ zero_extendqisi2
 390 0266 0133     		adds	r3, r3, #1
 391 0268 BB71     		strb	r3, [r7, #6]
 392              	.L13:
 205:..\src/main.c ****         for (i = 0; i < NUM_OF_SENSORS; i++) { 
 393              		.loc 1 205 0 is_stmt 0 discriminator 1
 394 026a BB79     		ldrb	r3, [r7, #6]	@ zero_extendqisi2
 395 026c 012B     		cmp	r3, #1
 396 026e D9D9     		bls	.L16
 209:..\src/main.c ****         }
 210:..\src/main.c ****     }
 211:..\src/main.c **** 
 212:..\src/main.c ****     for (i = 0; i< NUM_OF_MOTORS; i++) {
 397              		.loc 1 212 0 is_stmt 1
 398 0270 0023     		movs	r3, #0
 399 0272 FB71     		strb	r3, [r7, #7]
 400 0274 0EE0     		b	.L17
 401              	.L18:
ARM GAS  C:\Users\mgnocco\AppData\Local\Temp\cc7PXIoe.s 			page 12


 213:..\src/main.c ****         g_refNew[i] = g_ref[i];                         // Initialize k+1 reference structure.
 402              		.loc 1 213 0 discriminator 3
 403 0276 FA79     		ldrb	r2, [r7, #7]	@ zero_extendqisi2
 404 0278 FB79     		ldrb	r3, [r7, #7]	@ zero_extendqisi2
 405 027a 2F49     		ldr	r1, .L41+64
 406 027c 1201     		lsls	r2, r2, #4
 407 027e 1144     		add	r1, r1, r2
 408 0280 2B4A     		ldr	r2, .L41+56
 409 0282 1B01     		lsls	r3, r3, #4
 410 0284 1344     		add	r3, r3, r2
 411 0286 0C46     		mov	r4, r1
 412 0288 0FCB     		ldmia	r3, {r0, r1, r2, r3}
 413 028a 84E80F00 		stmia	r4, {r0, r1, r2, r3}
 212:..\src/main.c ****         g_refNew[i] = g_ref[i];                         // Initialize k+1 reference structure.
 414              		.loc 1 212 0 discriminator 3
 415 028e FB79     		ldrb	r3, [r7, #7]	@ zero_extendqisi2
 416 0290 0133     		adds	r3, r3, #1
 417 0292 FB71     		strb	r3, [r7, #7]
 418              	.L17:
 212:..\src/main.c ****         g_refNew[i] = g_ref[i];                         // Initialize k+1 reference structure.
 419              		.loc 1 212 0 is_stmt 0 discriminator 1
 420 0294 FB79     		ldrb	r3, [r7, #7]	@ zero_extendqisi2
 421 0296 012B     		cmp	r3, #1
 422 0298 EDD9     		bls	.L18
 214:..\src/main.c ****     }
 215:..\src/main.c ****     
 216:..\src/main.c ****     //---------------------------------------------------  Initialize emg structure
 217:..\src/main.c ****     g_adc_meas.emg[0] = 0;
 423              		.loc 1 217 0 is_stmt 1
 424 029a 284B     		ldr	r3, .L41+68
 425 029c 0022     		movs	r2, #0
 426 029e 1A60     		str	r2, [r3]
 218:..\src/main.c ****     g_adc_meas.emg[1] = 0;
 427              		.loc 1 218 0
 428 02a0 264B     		ldr	r3, .L41+68
 429 02a2 0022     		movs	r2, #0
 430 02a4 5A60     		str	r2, [r3, #4]
 219:..\src/main.c ****     g_adc_meas.joystick[0] = 0;
 431              		.loc 1 219 0
 432 02a6 254B     		ldr	r3, .L41+68
 433 02a8 0022     		movs	r2, #0
 434 02aa 1A62     		str	r2, [r3, #32]
 220:..\src/main.c ****     g_adc_meas.joystick[1] = 0;
 435              		.loc 1 220 0
 436 02ac 234B     		ldr	r3, .L41+68
 437 02ae 0022     		movs	r2, #0
 438 02b0 5A62     		str	r2, [r3, #36]
 439              	.LBB2:
 221:..\src/main.c ****     for (uint16 k = 0; k<SAMPLES_FOR_EMG_HISTORY; k++){
 440              		.loc 1 221 0
 441 02b2 0023     		movs	r3, #0
 442 02b4 BB80     		strh	r3, [r7, #4]	@ movhi
 443 02b6 13E0     		b	.L19
 444              	.L22:
 222:..\src/main.c ****         for (j = 0; j<NUM_OF_INPUT_EMGS; j++){
 445              		.loc 1 222 0
 446 02b8 0023     		movs	r3, #0
ARM GAS  C:\Users\mgnocco\AppData\Local\Temp\cc7PXIoe.s 			page 13


 447 02ba BB71     		strb	r3, [r7, #6]
 448 02bc 0AE0     		b	.L20
 449              	.L21:
 223:..\src/main.c ****             emg_history[k][j] = (uint16)0;
 450              		.loc 1 223 0 discriminator 3
 451 02be BA88     		ldrh	r2, [r7, #4]
 452 02c0 BB79     		ldrb	r3, [r7, #6]	@ zero_extendqisi2
 453 02c2 1F49     		ldr	r1, .L41+72
 454 02c4 5200     		lsls	r2, r2, #1
 455 02c6 1344     		add	r3, r3, r2
 456 02c8 0022     		movs	r2, #0
 457 02ca 21F81320 		strh	r2, [r1, r3, lsl #1]	@ movhi
 222:..\src/main.c ****         for (j = 0; j<NUM_OF_INPUT_EMGS; j++){
 458              		.loc 1 222 0 discriminator 3
 459 02ce BB79     		ldrb	r3, [r7, #6]	@ zero_extendqisi2
 460 02d0 0133     		adds	r3, r3, #1
 461 02d2 BB71     		strb	r3, [r7, #6]
 462              	.L20:
 222:..\src/main.c ****         for (j = 0; j<NUM_OF_INPUT_EMGS; j++){
 463              		.loc 1 222 0 is_stmt 0 discriminator 1
 464 02d4 BB79     		ldrb	r3, [r7, #6]	@ zero_extendqisi2
 465 02d6 012B     		cmp	r3, #1
 466 02d8 F1D9     		bls	.L21
 221:..\src/main.c ****     for (uint16 k = 0; k<SAMPLES_FOR_EMG_HISTORY; k++){
 467              		.loc 1 221 0 is_stmt 1 discriminator 2
 468 02da BB88     		ldrh	r3, [r7, #4]
 469 02dc 0133     		adds	r3, r3, #1
 470 02de BB80     		strh	r3, [r7, #4]	@ movhi
 471              	.L19:
 221:..\src/main.c ****     for (uint16 k = 0; k<SAMPLES_FOR_EMG_HISTORY; k++){
 472              		.loc 1 221 0 is_stmt 0 discriminator 1
 473 02e0 BB88     		ldrh	r3, [r7, #4]
 474 02e2 B3F5167F 		cmp	r3, #600
 475 02e6 E7D3     		bcc	.L22
 476              	.LBE2:
 224:..\src/main.c ****         }
 225:..\src/main.c ****     }
 226:..\src/main.c ****     emg_history_next_idx = 0;
 477              		.loc 1 226 0 is_stmt 1
 478 02e8 164B     		ldr	r3, .L41+76
 479 02ea 0022     		movs	r2, #0
 480 02ec 1A60     		str	r2, [r3]
 227:..\src/main.c ****     
 228:..\src/main.c ****     set_motor_driver_type();
 481              		.loc 1 228 0
 482 02ee FFF7FEFF 		bl	set_motor_driver_type
 229:..\src/main.c ****     
 230:..\src/main.c ****     for (i = 0; i< NUM_OF_MOTORS; i++) {
 483              		.loc 1 230 0
 484 02f2 0023     		movs	r3, #0
 485 02f4 FB71     		strb	r3, [r7, #7]
 486 02f6 DBE0     		b	.L23
 487              	.L42:
 488              		.align	2
 489              	.L41:
 490 02f8 00000000 		.word	ISR_RS485_RX_ExInterrupt
 491 02fc 00000000 		.word	ISR_CYCLES_Handler
ARM GAS  C:\Users\mgnocco\AppData\Local\Temp\cc7PXIoe.s 			page 14


 492 0300 00000000 		.word	NUM_OF_ANALOG_INPUTS
 493 0304 00000000 		.word	ADC_buf
 494 0308 00000000 		.word	c_mem
 495 030c 00000000 		.word	Quat
 496 0310 77BE7F3F 		.word	1065336439
 497 0314 0AD7233C 		.word	1008981770
 498 0318 00000000 		.word	filt_i
 499 031c 00000000 		.word	filt_curr_diff
 500 0320 00000000 		.word	filt_v
 501 0324 00000000 		.word	filt_vel
 502 0328 00000000 		.word	filt_emg
 503 032c 00000000 		.word	filt_detect_pc
 504 0330 00000000 		.word	g_ref
 505 0334 00000000 		.word	g_meas
 506 0338 00000000 		.word	g_refNew
 507 033c 00000000 		.word	g_adc_meas
 508 0340 00000000 		.word	emg_history
 509 0344 00000000 		.word	emg_history_next_idx
 510              	.L31:
 231:..\src/main.c ****         if (c_mem.emg.emg_calibration_flag) {
 511              		.loc 1 231 0
 512 0348 924B     		ldr	r3, .L43
 513 034a 93F8FE31 		ldrb	r3, [r3, #510]	@ zero_extendqisi2
 514 034e 002B     		cmp	r3, #0
 515 0350 54D0     		beq	.L24
 232:..\src/main.c ****             if ((c_mem.motor[i].input_mode == INPUT_MODE_EMG_PROPORTIONAL) ||
 516              		.loc 1 232 0
 517 0352 FA79     		ldrb	r2, [r7, #7]	@ zero_extendqisi2
 518 0354 8F49     		ldr	r1, .L43
 519 0356 1346     		mov	r3, r2
 520 0358 DB00     		lsls	r3, r3, #3
 521 035a 9B1A     		subs	r3, r3, r2
 522 035c 1B01     		lsls	r3, r3, #4
 523 035e 0B44     		add	r3, r3, r1
 524 0360 03F58773 		add	r3, r3, #270
 525 0364 1B78     		ldrb	r3, [r3]	@ zero_extendqisi2
 526 0366 022B     		cmp	r3, #2
 527 0368 2FD0     		beq	.L25
 233:..\src/main.c ****                 (c_mem.motor[i].input_mode == INPUT_MODE_EMG_INTEGRAL) ||
 528              		.loc 1 233 0 discriminator 1
 529 036a FA79     		ldrb	r2, [r7, #7]	@ zero_extendqisi2
 530 036c 8949     		ldr	r1, .L43
 531 036e 1346     		mov	r3, r2
 532 0370 DB00     		lsls	r3, r3, #3
 533 0372 9B1A     		subs	r3, r3, r2
 534 0374 1B01     		lsls	r3, r3, #4
 535 0376 0B44     		add	r3, r3, r1
 536 0378 03F58773 		add	r3, r3, #270
 537 037c 1B78     		ldrb	r3, [r3]	@ zero_extendqisi2
 232:..\src/main.c ****             if ((c_mem.motor[i].input_mode == INPUT_MODE_EMG_PROPORTIONAL) ||
 538              		.loc 1 232 0 discriminator 1
 539 037e 032B     		cmp	r3, #3
 540 0380 23D0     		beq	.L25
 234:..\src/main.c ****                 (c_mem.motor[i].input_mode == INPUT_MODE_EMG_FCFS) ||
 541              		.loc 1 234 0
 542 0382 FA79     		ldrb	r2, [r7, #7]	@ zero_extendqisi2
 543 0384 8349     		ldr	r1, .L43
ARM GAS  C:\Users\mgnocco\AppData\Local\Temp\cc7PXIoe.s 			page 15


 544 0386 1346     		mov	r3, r2
 545 0388 DB00     		lsls	r3, r3, #3
 546 038a 9B1A     		subs	r3, r3, r2
 547 038c 1B01     		lsls	r3, r3, #4
 548 038e 0B44     		add	r3, r3, r1
 549 0390 03F58773 		add	r3, r3, #270
 550 0394 1B78     		ldrb	r3, [r3]	@ zero_extendqisi2
 233:..\src/main.c ****                 (c_mem.motor[i].input_mode == INPUT_MODE_EMG_INTEGRAL) ||
 551              		.loc 1 233 0
 552 0396 042B     		cmp	r3, #4
 553 0398 17D0     		beq	.L25
 235:..\src/main.c ****                 (c_mem.motor[i].input_mode == INPUT_MODE_EMG_FCFS_ADV) ||
 554              		.loc 1 235 0
 555 039a FA79     		ldrb	r2, [r7, #7]	@ zero_extendqisi2
 556 039c 7D49     		ldr	r1, .L43
 557 039e 1346     		mov	r3, r2
 558 03a0 DB00     		lsls	r3, r3, #3
 559 03a2 9B1A     		subs	r3, r3, r2
 560 03a4 1B01     		lsls	r3, r3, #4
 561 03a6 0B44     		add	r3, r3, r1
 562 03a8 03F58773 		add	r3, r3, #270
 563 03ac 1B78     		ldrb	r3, [r3]	@ zero_extendqisi2
 234:..\src/main.c ****                 (c_mem.motor[i].input_mode == INPUT_MODE_EMG_FCFS) ||
 564              		.loc 1 234 0
 565 03ae 052B     		cmp	r3, #5
 566 03b0 0BD0     		beq	.L25
 236:..\src/main.c ****                 (c_mem.motor[i].input_mode == INPUT_MODE_EMG_PROPORTIONAL_NC))
 567              		.loc 1 236 0
 568 03b2 FA79     		ldrb	r2, [r7, #7]	@ zero_extendqisi2
 569 03b4 7749     		ldr	r1, .L43
 570 03b6 1346     		mov	r3, r2
 571 03b8 DB00     		lsls	r3, r3, #3
 572 03ba 9B1A     		subs	r3, r3, r2
 573 03bc 1B01     		lsls	r3, r3, #4
 574 03be 0B44     		add	r3, r3, r1
 575 03c0 03F58773 		add	r3, r3, #270
 576 03c4 1B78     		ldrb	r3, [r3]	@ zero_extendqisi2
 235:..\src/main.c ****                 (c_mem.motor[i].input_mode == INPUT_MODE_EMG_FCFS_ADV) ||
 577              		.loc 1 235 0
 578 03c6 072B     		cmp	r3, #7
 579 03c8 07D1     		bne	.L26
 580              	.L25:
 237:..\src/main.c ****                 g_ref[i].onoff = 0x00;
 581              		.loc 1 237 0
 582 03ca FB79     		ldrb	r3, [r7, #7]	@ zero_extendqisi2
 583 03cc 724A     		ldr	r2, .L43+4
 584 03ce 1B01     		lsls	r3, r3, #4
 585 03d0 1344     		add	r3, r3, r2
 586 03d2 0C33     		adds	r3, r3, #12
 587 03d4 0022     		movs	r2, #0
 588 03d6 1A70     		strb	r2, [r3]
 589 03d8 20E0     		b	.L28
 590              	.L26:
 238:..\src/main.c ****             else
 239:..\src/main.c ****                 g_ref[i].onoff = c_mem.motor[i].activ;
 591              		.loc 1 239 0
 592 03da F979     		ldrb	r1, [r7, #7]	@ zero_extendqisi2
ARM GAS  C:\Users\mgnocco\AppData\Local\Temp\cc7PXIoe.s 			page 16


 593 03dc FA79     		ldrb	r2, [r7, #7]	@ zero_extendqisi2
 594 03de 6D48     		ldr	r0, .L43
 595 03e0 1346     		mov	r3, r2
 596 03e2 DB00     		lsls	r3, r3, #3
 597 03e4 9B1A     		subs	r3, r3, r2
 598 03e6 1B01     		lsls	r3, r3, #4
 599 03e8 0344     		add	r3, r3, r0
 600 03ea E033     		adds	r3, r3, #224
 601 03ec 1878     		ldrb	r0, [r3]	@ zero_extendqisi2
 602 03ee 6A4A     		ldr	r2, .L43+4
 603 03f0 0B01     		lsls	r3, r1, #4
 604 03f2 1344     		add	r3, r3, r2
 605 03f4 0C33     		adds	r3, r3, #12
 606 03f6 0246     		mov	r2, r0
 607 03f8 1A70     		strb	r2, [r3]
 608 03fa 0FE0     		b	.L28
 609              	.L24:
 240:..\src/main.c ****         } 
 241:..\src/main.c ****         else
 242:..\src/main.c ****             g_ref[i].onoff = c_mem.motor[i].activ;
 610              		.loc 1 242 0
 611 03fc F979     		ldrb	r1, [r7, #7]	@ zero_extendqisi2
 612 03fe FA79     		ldrb	r2, [r7, #7]	@ zero_extendqisi2
 613 0400 6448     		ldr	r0, .L43
 614 0402 1346     		mov	r3, r2
 615 0404 DB00     		lsls	r3, r3, #3
 616 0406 9B1A     		subs	r3, r3, r2
 617 0408 1B01     		lsls	r3, r3, #4
 618 040a 0344     		add	r3, r3, r0
 619 040c E033     		adds	r3, r3, #224
 620 040e 1878     		ldrb	r0, [r3]	@ zero_extendqisi2
 621 0410 614A     		ldr	r2, .L43+4
 622 0412 0B01     		lsls	r3, r1, #4
 623 0414 1344     		add	r3, r3, r2
 624 0416 0C33     		adds	r3, r3, #12
 625 0418 0246     		mov	r2, r0
 626 041a 1A70     		strb	r2, [r3]
 627              	.L28:
 243:..\src/main.c **** 
 244:..\src/main.c ****         if (!g_mem.enc[g_mem.motor[i].encoder_line].double_encoder_on_off) {
 628              		.loc 1 244 0
 629 041c FA79     		ldrb	r2, [r7, #7]	@ zero_extendqisi2
 630 041e 5F49     		ldr	r1, .L43+8
 631 0420 1346     		mov	r3, r2
 632 0422 DB00     		lsls	r3, r3, #3
 633 0424 9B1A     		subs	r3, r3, r2
 634 0426 1B01     		lsls	r3, r3, #4
 635 0428 0B44     		add	r3, r3, r1
 636 042a 03F58873 		add	r3, r3, #272
 637 042e 1B78     		ldrb	r3, [r3]	@ zero_extendqisi2
 638 0430 1946     		mov	r1, r3
 639 0432 5A4A     		ldr	r2, .L43+8
 640 0434 0B46     		mov	r3, r1
 641 0436 5B00     		lsls	r3, r3, #1
 642 0438 0B44     		add	r3, r3, r1
 643 043a 1B01     		lsls	r3, r3, #4
 644 043c 1344     		add	r3, r3, r2
ARM GAS  C:\Users\mgnocco\AppData\Local\Temp\cc7PXIoe.s 			page 17


 645 043e 03F5D873 		add	r3, r3, #432
 646 0442 1B78     		ldrb	r3, [r3]	@ zero_extendqisi2
 647 0444 002B     		cmp	r3, #0
 648 0446 10D1     		bne	.L29
 245:..\src/main.c ****             g_ref[i].onoff = c_mem.motor[i].activ;                          // Initialize Activatio
 649              		.loc 1 245 0
 650 0448 F979     		ldrb	r1, [r7, #7]	@ zero_extendqisi2
 651 044a FA79     		ldrb	r2, [r7, #7]	@ zero_extendqisi2
 652 044c 5148     		ldr	r0, .L43
 653 044e 1346     		mov	r3, r2
 654 0450 DB00     		lsls	r3, r3, #3
 655 0452 9B1A     		subs	r3, r3, r2
 656 0454 1B01     		lsls	r3, r3, #4
 657 0456 0344     		add	r3, r3, r0
 658 0458 E033     		adds	r3, r3, #224
 659 045a 1878     		ldrb	r0, [r3]	@ zero_extendqisi2
 660 045c 4E4A     		ldr	r2, .L43+4
 661 045e 0B01     		lsls	r3, r1, #4
 662 0460 1344     		add	r3, r3, r2
 663 0462 0C33     		adds	r3, r3, #12
 664 0464 0246     		mov	r2, r0
 665 0466 1A70     		strb	r2, [r3]
 666 0468 06E0     		b	.L30
 667              	.L29:
 246:..\src/main.c ****         } 
 247:..\src/main.c ****         else {
 248:..\src/main.c ****             // Do not activate motor until position reconstruction has finished
 249:..\src/main.c ****             g_ref[i].onoff = 0x00;
 668              		.loc 1 249 0
 669 046a FB79     		ldrb	r3, [r7, #7]	@ zero_extendqisi2
 670 046c 4A4A     		ldr	r2, .L43+4
 671 046e 1B01     		lsls	r3, r3, #4
 672 0470 1344     		add	r3, r3, r2
 673 0472 0C33     		adds	r3, r3, #12
 674 0474 0022     		movs	r2, #0
 675 0476 1A70     		strb	r2, [r3]
 676              	.L30:
 250:..\src/main.c ****         }
 251:..\src/main.c ****         enable_motor(i, g_ref[i].onoff); 
 677              		.loc 1 251 0 discriminator 2
 678 0478 FB79     		ldrb	r3, [r7, #7]	@ zero_extendqisi2
 679 047a 474A     		ldr	r2, .L43+4
 680 047c 1B01     		lsls	r3, r3, #4
 681 047e 1344     		add	r3, r3, r2
 682 0480 0C33     		adds	r3, r3, #12
 683 0482 1A78     		ldrb	r2, [r3]	@ zero_extendqisi2
 684 0484 FB79     		ldrb	r3, [r7, #7]	@ zero_extendqisi2
 685 0486 1146     		mov	r1, r2
 686 0488 1846     		mov	r0, r3
 687 048a FFF7FEFF 		bl	enable_motor
 252:..\src/main.c ****         
 253:..\src/main.c ****         dev_pwm_limit[i] = dev_pwm_sat[i];              // Init PWM limit.
 688              		.loc 1 253 0 discriminator 2
 689 048e FB79     		ldrb	r3, [r7, #7]	@ zero_extendqisi2
 690 0490 FA79     		ldrb	r2, [r7, #7]	@ zero_extendqisi2
 691 0492 4349     		ldr	r1, .L43+12
 692 0494 31F81210 		ldrh	r1, [r1, r2, lsl #1]
ARM GAS  C:\Users\mgnocco\AppData\Local\Temp\cc7PXIoe.s 			page 18


 693 0498 424A     		ldr	r2, .L43+16
 694 049a 22F81310 		strh	r1, [r2, r3, lsl #1]	@ movhi
 254:..\src/main.c **** 	
 255:..\src/main.c ****         pow_tension[i] = 12000;                         // 12000 mV (12 V)
 695              		.loc 1 255 0 discriminator 2
 696 049e FB79     		ldrb	r3, [r7, #7]	@ zero_extendqisi2
 697 04a0 414A     		ldr	r2, .L43+20
 698 04a2 42F6E061 		movw	r1, #12000
 699 04a6 42F82310 		str	r1, [r2, r3, lsl #2]
 230:..\src/main.c ****         if (c_mem.emg.emg_calibration_flag) {
 700              		.loc 1 230 0 discriminator 2
 701 04aa FB79     		ldrb	r3, [r7, #7]	@ zero_extendqisi2
 702 04ac 0133     		adds	r3, r3, #1
 703 04ae FB71     		strb	r3, [r7, #7]
 704              	.L23:
 230:..\src/main.c ****         if (c_mem.emg.emg_calibration_flag) {
 705              		.loc 1 230 0 is_stmt 0 discriminator 1
 706 04b0 FB79     		ldrb	r3, [r7, #7]	@ zero_extendqisi2
 707 04b2 012B     		cmp	r3, #1
 708 04b4 7FF648AF 		bls	.L31
 256:..\src/main.c ****     }
 257:..\src/main.c ****     
 258:..\src/main.c ****     tension_valid = FALSE;                              // Init tension_valid BIT.
 709              		.loc 1 258 0 is_stmt 1
 710 04b8 3C4B     		ldr	r3, .L43+24
 711 04ba 0022     		movs	r2, #0
 712 04bc 1A70     		strb	r2, [r3]
 259:..\src/main.c **** 
 260:..\src/main.c ****     for (j = 0; j< N_ENCODER_LINE_MAX; j++) { 
 713              		.loc 1 260 0
 714 04be 0023     		movs	r3, #0
 715 04c0 BB71     		strb	r3, [r7, #6]
 716 04c2 06E0     		b	.L32
 717              	.L33:
 261:..\src/main.c ****         reset_last_value_flag[j] = 0;                   // Do not reset encoder last value.
 718              		.loc 1 261 0 discriminator 3
 719 04c4 BB79     		ldrb	r3, [r7, #6]	@ zero_extendqisi2
 720 04c6 3A4A     		ldr	r2, .L43+28
 721 04c8 0021     		movs	r1, #0
 722 04ca D154     		strb	r1, [r2, r3]
 260:..\src/main.c ****         reset_last_value_flag[j] = 0;                   // Do not reset encoder last value.
 723              		.loc 1 260 0 discriminator 3
 724 04cc BB79     		ldrb	r3, [r7, #6]	@ zero_extendqisi2
 725 04ce 0133     		adds	r3, r3, #1
 726 04d0 BB71     		strb	r3, [r7, #6]
 727              	.L32:
 260:..\src/main.c ****         reset_last_value_flag[j] = 0;                   // Do not reset encoder last value.
 728              		.loc 1 260 0 is_stmt 0 discriminator 1
 729 04d2 BB79     		ldrb	r3, [r7, #6]	@ zero_extendqisi2
 730 04d4 012B     		cmp	r3, #1
 731 04d6 F5D9     		bls	.L33
 262:..\src/main.c ****     }
 263:..\src/main.c **** 
 264:..\src/main.c ****     //------------------------------------------------- Initialize package on receive from RS485
 265:..\src/main.c ****     g_rx.length = 0;
 732              		.loc 1 265 0 is_stmt 1
 733 04d8 364B     		ldr	r3, .L43+32
ARM GAS  C:\Users\mgnocco\AppData\Local\Temp\cc7PXIoe.s 			page 19


 734 04da 0022     		movs	r2, #0
 735 04dc A3F88020 		strh	r2, [r3, #128]	@ movhi
 266:..\src/main.c ****     g_rx.ready  = 0;
 736              		.loc 1 266 0
 737 04e0 344B     		ldr	r3, .L43+32
 738 04e2 0022     		movs	r2, #0
 739 04e4 83F88420 		strb	r2, [r3, #132]
 267:..\src/main.c ****     
 268:..\src/main.c ****     //------------------------------------------------- Initialize rest position variables    
 269:..\src/main.c **** 	rest_enabled = 0;
 740              		.loc 1 269 0
 741 04e8 334B     		ldr	r3, .L43+36
 742 04ea 0022     		movs	r2, #0
 743 04ec 1A70     		strb	r2, [r3]
 270:..\src/main.c ****     forced_open = 0;
 744              		.loc 1 270 0
 745 04ee 334B     		ldr	r3, .L43+40
 746 04f0 0022     		movs	r2, #0
 747 04f2 1A70     		strb	r2, [r3]
 271:..\src/main.c ****     
 272:..\src/main.c ****     LED_control(5);     // Default - red light
 748              		.loc 1 272 0
 749 04f4 0520     		movs	r0, #5
 750 04f6 FFF7FEFF 		bl	LED_control
 273:..\src/main.c ****     
 274:..\src/main.c **** #ifdef MASTER_FW
 275:..\src/main.c ****     master_mode = 1;    // Default - activate master mode at startup
 276:..\src/main.c **** #endif
 277:..\src/main.c **** 
 278:..\src/main.c ****     //============================================================    check if maintenance is due
 279:..\src/main.c **** 
 280:..\src/main.c ****     if ( (g_mem.cnt.wire_disp/(((g_mem.motor[0].pos_lim_sup>>g_mem.enc[0].res[0]) - (g_mem.motor[0]
 751              		.loc 1 280 0
 752 04fa 284B     		ldr	r3, .L43+8
 753 04fc 5B6D     		ldr	r3, [r3, #84]
 754 04fe 274A     		ldr	r2, .L43+8
 755 0500 D2F8E820 		ldr	r2, [r2, #232]
 756 0504 2549     		ldr	r1, .L43+8
 757 0506 91F89511 		ldrb	r1, [r1, #405]	@ zero_extendqisi2
 758 050a 42FA01F1 		asr	r1, r2, r1
 759 050e 234A     		ldr	r2, .L43+8
 760 0510 D2F8E420 		ldr	r2, [r2, #228]
 761 0514 2148     		ldr	r0, .L43+8
 762 0516 90F89501 		ldrb	r0, [r0, #405]	@ zero_extendqisi2
 763 051a 0241     		asrs	r2, r2, r0
 764 051c 8A1A     		subs	r2, r1, r2
 765 051e 5200     		lsls	r2, r2, #1
 766 0520 B3FBF2F3 		udiv	r3, r3, r2
 767 0524 264A     		ldr	r2, .L43+44
 768 0526 9342     		cmp	r3, r2
 769 0528 02D9     		bls	.L34
 281:..\src/main.c ****         maintenance_flag = TRUE;    
 770              		.loc 1 281 0
 771 052a 264B     		ldr	r3, .L43+48
 772 052c 0122     		movs	r2, #1
 773 052e 1A70     		strb	r2, [r3]
 774              	.L34:
ARM GAS  C:\Users\mgnocco\AppData\Local\Temp\cc7PXIoe.s 			page 20


 282:..\src/main.c **** 
 283:..\src/main.c ****     if (g_mem.exp.read_exp_port_flag == EXP_SD_RTC) {
 775              		.loc 1 283 0
 776 0530 1A4B     		ldr	r3, .L43+8
 777 0532 93F82632 		ldrb	r3, [r3, #550]	@ zero_extendqisi2
 778 0536 012B     		cmp	r3, #1
 779 0538 03D1     		bne	.L35
 284:..\src/main.c ****         
 285:..\src/main.c ****         store_RTC_current_time();
 780              		.loc 1 285 0
 781 053a FFF7FEFF 		bl	store_RTC_current_time
 286:..\src/main.c ****         
 287:..\src/main.c ****         // SD file
 288:..\src/main.c ****         InitSD_FS();
 782              		.loc 1 288 0
 783 053e FFF7FEFF 		bl	InitSD_FS
 784              	.L35:
 289:..\src/main.c ****     }
 290:..\src/main.c ****     
 291:..\src/main.c ****     //============================================================     main loop
 292:..\src/main.c ****     
 293:..\src/main.c ****     // All peripherals has started, now it is ok to start communication
 294:..\src/main.c ****     RS485_CTS_Write(0);             // Clear To Send on RS485.
 785              		.loc 1 294 0
 786 0542 0020     		movs	r0, #0
 787 0544 FFF7FEFF 		bl	RS485_CTS_Write
 788              	.L40:
 295:..\src/main.c **** 
 296:..\src/main.c ****     for(;;)
 297:..\src/main.c **** 
 298:..\src/main.c ****     {             
 299:..\src/main.c ****         // Put the FF reset pin to LOW
 300:..\src/main.c ****         RESET_FF_Write(0x00);
 789              		.loc 1 300 0
 790 0548 0020     		movs	r0, #0
 791 054a FFF7FEFF 		bl	RESET_FF_Write
 301:..\src/main.c **** 
 302:..\src/main.c ****         // Call function scheduler
 303:..\src/main.c ****         function_scheduler(); 
 792              		.loc 1 303 0
 793 054e FFF7FEFF 		bl	function_scheduler
 304:..\src/main.c **** 
 305:..\src/main.c ****         //  Wait until the FF is set to 1
 306:..\src/main.c ****         while(FF_STATUS_Read() == 0){
 794              		.loc 1 306 0
 795 0552 08E0     		b	.L36
 796              	.L37:
 307:..\src/main.c ****             // On interrupt from RS485
 308:..\src/main.c ****             if (interrupt_flag){
 797              		.loc 1 308 0
 798 0554 1C4B     		ldr	r3, .L43+52
 799 0556 1B78     		ldrb	r3, [r3]	@ zero_extendqisi2
 800 0558 002B     		cmp	r3, #0
 801 055a 04D0     		beq	.L36
 309:..\src/main.c ****                 // Reset flags
 310:..\src/main.c ****                 interrupt_flag = FALSE;
 802              		.loc 1 310 0
ARM GAS  C:\Users\mgnocco\AppData\Local\Temp\cc7PXIoe.s 			page 21


 803 055c 1A4B     		ldr	r3, .L43+52
 804 055e 0022     		movs	r2, #0
 805 0560 1A70     		strb	r2, [r3]
 311:..\src/main.c ****                 
 312:..\src/main.c ****                 // Manage Interrupt on rs485
 313:..\src/main.c ****                 interrupt_manager();
 806              		.loc 1 313 0
 807 0562 FFF7FEFF 		bl	interrupt_manager
 808              	.L36:
 306:..\src/main.c ****             // On interrupt from RS485
 809              		.loc 1 306 0
 810 0566 FFF7FEFF 		bl	FF_STATUS_Read
 811 056a 0346     		mov	r3, r0
 812 056c 002B     		cmp	r3, #0
 813 056e F1D0     		beq	.L37
 314:..\src/main.c ****             }
 315:..\src/main.c ****         };
 316:..\src/main.c **** 
 317:..\src/main.c ****         // Command a FF reset
 318:..\src/main.c ****         RESET_FF_Write(0x01);
 814              		.loc 1 318 0
 815 0570 0120     		movs	r0, #1
 816 0572 FFF7FEFF 		bl	RESET_FF_Write
 319:..\src/main.c **** 
 320:..\src/main.c ****         // Wait for FF to be reset
 321:..\src/main.c ****         while(FF_STATUS_Read() == 1);
 817              		.loc 1 321 0
 818 0576 00BF     		nop
 819              	.L38:
 820              		.loc 1 321 0 is_stmt 0 discriminator 1
 821 0578 FFF7FEFF 		bl	FF_STATUS_Read
 822 057c 0346     		mov	r3, r0
 823 057e 012B     		cmp	r3, #1
 824 0580 FAD0     		beq	.L38
 322:..\src/main.c **** 
 323:..\src/main.c ****         if(UART_RS485_ReadRxStatus() & UART_RS485_RX_STS_SOFT_BUFF_OVER)
 825              		.loc 1 323 0 is_stmt 1
 826 0582 FFF7FEFF 		bl	UART_RS485_ReadRxStatus
 827 0586 0346     		mov	r3, r0
 828 0588 5BB2     		sxtb	r3, r3
 829 058a 002B     		cmp	r3, #0
 830 058c DCDA     		bge	.L40
 324:..\src/main.c ****             UART_RS485_ClearRxBuffer();
 831              		.loc 1 324 0
 832 058e FFF7FEFF 		bl	UART_RS485_ClearRxBuffer
 325:..\src/main.c ****     }
 833              		.loc 1 325 0
 834 0592 D9E7     		b	.L40
 835              	.L44:
 836              		.align	2
 837              	.L43:
 838 0594 00000000 		.word	c_mem
 839 0598 00000000 		.word	g_ref
 840 059c 00000000 		.word	g_mem
 841 05a0 00000000 		.word	dev_pwm_sat
 842 05a4 00000000 		.word	dev_pwm_limit
 843 05a8 00000000 		.word	pow_tension
ARM GAS  C:\Users\mgnocco\AppData\Local\Temp\cc7PXIoe.s 			page 22


 844 05ac 00000000 		.word	tension_valid
 845 05b0 00000000 		.word	reset_last_value_flag
 846 05b4 00000000 		.word	g_rx
 847 05b8 00000000 		.word	rest_enabled
 848 05bc 00000000 		.word	forced_open
 849 05c0 400D0300 		.word	200000
 850 05c4 00000000 		.word	maintenance_flag
 851 05c8 00000000 		.word	interrupt_flag
 852              		.cfi_endproc
 853              	.LFE64:
 854              		.size	main, .-main
 855              		.text
 856              	.Letext0:
 857              		.file 2 "c:\\program files (x86)\\cypress\\psoc creator\\4.4\\psoc creator\\import\\gnu\\arm\\5.4.
 858              		.file 3 "c:\\program files (x86)\\cypress\\psoc creator\\4.4\\psoc creator\\import\\gnu\\arm\\5.4.
 859              		.file 4 "Generated_Source\\PSoC5/cytypes.h"
 860              		.file 5 "..\\src\\globals.h"
 861              		.file 6 "Generated_Source\\PSoC5/core_cm3.h"
 862              		.file 7 "..\\src\\commands.h"