ARM GAS  C:\Users\mgnocco\AppData\Local\Temp\ccM9DEjH.s 			page 1


   1              		.syntax unified
   2              		.cpu cortex-m3
   3              		.fpu softvfp
   4              		.eabi_attribute 20, 1
   5              		.eabi_attribute 21, 1
   6              		.eabi_attribute 23, 3
   7              		.eabi_attribute 24, 1
   8              		.eabi_attribute 25, 1
   9              		.eabi_attribute 26, 1
  10              		.eabi_attribute 30, 6
  11              		.eabi_attribute 34, 1
  12              		.eabi_attribute 18, 4
  13              		.thumb
  14              		.syntax unified
  15              		.file	"interruptions.c"
  16              		.text
  17              	.Ltext0:
  18              		.cfi_sections	.debug_frame
  19              		.section	.rodata
  20              		.align	2
  21              		.type	pwm_preload_values, %object
  22              		.size	pwm_preload_values, 29
  23              	pwm_preload_values:
  24 0000 64       		.byte	100
  25 0001 53       		.byte	83
  26 0002 4E       		.byte	78
  27 0003 4C       		.byte	76
  28 0004 4A       		.byte	74
  29 0005 48       		.byte	72
  30 0006 46       		.byte	70
  31 0007 44       		.byte	68
  32 0008 43       		.byte	67
  33 0009 41       		.byte	65
  34 000a 40       		.byte	64
  35 000b 3F       		.byte	63
  36 000c 3E       		.byte	62
  37 000d 3D       		.byte	61
  38 000e 3C       		.byte	60
  39 000f 3B       		.byte	59
  40 0010 3A       		.byte	58
  41 0011 39       		.byte	57
  42 0012 38       		.byte	56
  43 0013 38       		.byte	56
  44 0014 37       		.byte	55
  45 0015 36       		.byte	54
  46 0016 36       		.byte	54
  47 0017 35       		.byte	53
  48 0018 34       		.byte	52
  49 0019 34       		.byte	52
  50 001a 34       		.byte	52
  51 001b 33       		.byte	51
  52 001c 33       		.byte	51
  53              		.section	.text.ISR_RS485_RX_ExInterrupt,"ax",%progbits
  54              		.align	2
  55              		.global	ISR_RS485_RX_ExInterrupt
  56              		.thumb
  57              		.thumb_func
ARM GAS  C:\Users\mgnocco\AppData\Local\Temp\ccM9DEjH.s 			page 2


  58              		.type	ISR_RS485_RX_ExInterrupt, %function
  59              	ISR_RS485_RX_ExInterrupt:
  60              	.LFB64:
  61              		.file 1 "..\\src\\interruptions.c"
   1:..\src/interruptions.c **** // ----------------------------------------------------------------------------
   2:..\src/interruptions.c **** // BSD 3-Clause License
   3:..\src/interruptions.c **** 
   4:..\src/interruptions.c **** // Copyright (c) 2016, qbrobotics
   5:..\src/interruptions.c **** // Copyright (c) 2017-2020, Centro "E.Piaggio"
   6:..\src/interruptions.c **** // All rights reserved.
   7:..\src/interruptions.c **** 
   8:..\src/interruptions.c **** // Redistribution and use in source and binary forms, with or without
   9:..\src/interruptions.c **** // modification, are permitted provided that the following conditions are met:
  10:..\src/interruptions.c **** 
  11:..\src/interruptions.c **** // * Redistributions of source code must retain the above copyright notice, this
  12:..\src/interruptions.c **** //   list of conditions and the following disclaimer.
  13:..\src/interruptions.c **** 
  14:..\src/interruptions.c **** // * Redistributions in binary form must reproduce the above copyright notice,
  15:..\src/interruptions.c **** //   this list of conditions and the following disclaimer in the documentation
  16:..\src/interruptions.c **** //   and/or other materials provided with the distribution.
  17:..\src/interruptions.c **** 
  18:..\src/interruptions.c **** // * Neither the name of the copyright holder nor the names of its
  19:..\src/interruptions.c **** //   contributors may be used to endorse or promote products derived from
  20:..\src/interruptions.c **** //   this software without specific prior written permission.
  21:..\src/interruptions.c **** 
  22:..\src/interruptions.c **** // THIS SOFTWARE IS PROVIDED BY THE COPYRIGHT HOLDERS AND CONTRIBUTORS "AS IS"
  23:..\src/interruptions.c **** // AND ANY EXPRESS OR IMPLIED WARRANTIES, INCLUDING, BUT NOT LIMITED TO, THE
  24:..\src/interruptions.c **** // IMPLIED WARRANTIES OF MERCHANTABILITY AND FITNESS FOR A PARTICULAR PURPOSE ARE
  25:..\src/interruptions.c **** // DISCLAIMED. IN NO EVENT SHALL THE COPYRIGHT HOLDER OR CONTRIBUTORS BE LIABLE
  26:..\src/interruptions.c **** // FOR ANY DIRECT, INDIRECT, INCIDENTAL, SPECIAL, EXEMPLARY, OR CONSEQUENTIAL
  27:..\src/interruptions.c **** // DAMAGES (INCLUDING, BUT NOT LIMITED TO, PROCUREMENT OF SUBSTITUTE GOODS OR
  28:..\src/interruptions.c **** // SERVICES; LOSS OF USE, DATA, OR PROFITS; OR BUSINESS INTERRUPTION) HOWEVER
  29:..\src/interruptions.c **** // CAUSED AND ON ANY THEORY OF LIABILITY, WHETHER IN CONTRACT, STRICT LIABILITY,
  30:..\src/interruptions.c **** // OR TORT (INCLUDING NEGLIGENCE OR OTHERWISE) ARISING IN ANY WAY OUT OF THE USE
  31:..\src/interruptions.c **** // OF THIS SOFTWARE, EVEN IF ADVISED OF THE POSSIBILITY OF SUCH DAMAGE.
  32:..\src/interruptions.c **** // POSSIBILITY OF SUCH DAMAGE.
  33:..\src/interruptions.c **** // ----------------------------------------------------------------------------
  34:..\src/interruptions.c **** 
  35:..\src/interruptions.c **** /**
  36:..\src/interruptions.c **** * \file         interruptions.c
  37:..\src/interruptions.c **** *
  38:..\src/interruptions.c **** * \brief        Interruption handling and firmware core functions
  39:..\src/interruptions.c **** * \date         March 20th, 2020
  40:..\src/interruptions.c **** * \author       _Centro "E.Piaggio"_
  41:..\src/interruptions.c **** * \copyright    (C) 2012-2016 qbrobotics. All rights reserved.
  42:..\src/interruptions.c **** * \copyright    (C) 2017-2020 Centro "E.Piaggio". All rights reserved.
  43:..\src/interruptions.c **** */
  44:..\src/interruptions.c **** 
  45:..\src/interruptions.c **** 
  46:..\src/interruptions.c **** //=================================================================     includes
  47:..\src/interruptions.c **** #include "interruptions.h"
  48:..\src/interruptions.c **** 
  49:..\src/interruptions.c **** //==============================================================================
  50:..\src/interruptions.c **** //                                                            RS485 RX INTERRUPT
  51:..\src/interruptions.c **** //==============================================================================
  52:..\src/interruptions.c **** // Processing RS-485 data frame:
  53:..\src/interruptions.c **** //
ARM GAS  C:\Users\mgnocco\AppData\Local\Temp\ccM9DEjH.s 			page 3


  54:..\src/interruptions.c **** // - 0:     Waits for beginning characters
  55:..\src/interruptions.c **** // - 1:     Waits for ID;
  56:..\src/interruptions.c **** // - 2:     Data length;
  57:..\src/interruptions.c **** // - 3:     Receive all bytes;
  58:..\src/interruptions.c **** // - 4:     Wait for another device end of transmission;
  59:..\src/interruptions.c **** //
  60:..\src/interruptions.c **** //==============================================================================
  61:..\src/interruptions.c **** 
  62:..\src/interruptions.c **** // PWM values needed to obtain 11.5 V given a certain input tension
  63:..\src/interruptions.c **** // Numbers are sperimentally calculated //[index] (millivolts)
  64:..\src/interruptions.c **** static const uint8 pwm_preload_values[29] = {100,    //0 (11500)
  65:..\src/interruptions.c ****                                               83,
  66:..\src/interruptions.c ****                                               78,
  67:..\src/interruptions.c ****                                               76,
  68:..\src/interruptions.c ****                                               74,
  69:..\src/interruptions.c ****                                               72,    //5 (14000)
  70:..\src/interruptions.c ****                                               70,
  71:..\src/interruptions.c ****                                               68,
  72:..\src/interruptions.c ****                                               67,
  73:..\src/interruptions.c ****                                               65,
  74:..\src/interruptions.c ****                                               64,    //10 (16500)
  75:..\src/interruptions.c ****                                               63,
  76:..\src/interruptions.c ****                                               62,
  77:..\src/interruptions.c ****                                               61,
  78:..\src/interruptions.c ****                                               60,
  79:..\src/interruptions.c ****                                               59,    //15 (19000)
  80:..\src/interruptions.c ****                                               58,
  81:..\src/interruptions.c ****                                               57,
  82:..\src/interruptions.c ****                                               56,
  83:..\src/interruptions.c ****                                               56,
  84:..\src/interruptions.c ****                                               55,    //20 (21500)
  85:..\src/interruptions.c ****                                               54,
  86:..\src/interruptions.c ****                                               54,
  87:..\src/interruptions.c ****                                               53,
  88:..\src/interruptions.c ****                                               52,
  89:..\src/interruptions.c ****                                               52,    //25 (24000)
  90:..\src/interruptions.c ****                                               52,
  91:..\src/interruptions.c ****                                               51,
  92:..\src/interruptions.c ****                                               51};   //28 (25500)
  93:..\src/interruptions.c **** 
  94:..\src/interruptions.c **** //==============================================================================
  95:..\src/interruptions.c **** //                                                            RS485 RX INTERRUPT
  96:..\src/interruptions.c **** //==============================================================================
  97:..\src/interruptions.c **** 
  98:..\src/interruptions.c **** CY_ISR(ISR_RS485_RX_ExInterrupt) {
  62              		.loc 1 98 0
  63              		.cfi_startproc
  64              		@ args = 0, pretend = 0, frame = 0
  65              		@ frame_needed = 1, uses_anonymous_args = 0
  66              		@ link register save eliminated.
  67 0000 80B4     		push	{r7}
  68              		.cfi_def_cfa_offset 4
  69              		.cfi_offset 7, -4
  70 0002 00AF     		add	r7, sp, #0
  71              		.cfi_def_cfa_register 7
  99:..\src/interruptions.c **** 
 100:..\src/interruptions.c ****     // Set RS485 flag
ARM GAS  C:\Users\mgnocco\AppData\Local\Temp\ccM9DEjH.s 			page 4


 101:..\src/interruptions.c ****     
 102:..\src/interruptions.c ****     interrupt_flag = TRUE;
  72              		.loc 1 102 0
  73 0004 034B     		ldr	r3, .L2
  74 0006 0122     		movs	r2, #1
  75 0008 1A70     		strb	r2, [r3]
 103:..\src/interruptions.c ****      
 104:..\src/interruptions.c **** }
  76              		.loc 1 104 0
  77 000a 00BF     		nop
  78 000c BD46     		mov	sp, r7
  79              		.cfi_def_cfa_register 13
  80              		@ sp needed
  81 000e 80BC     		pop	{r7}
  82              		.cfi_restore 7
  83              		.cfi_def_cfa_offset 0
  84 0010 7047     		bx	lr
  85              	.L3:
  86 0012 00BF     		.align	2
  87              	.L2:
  88 0014 00000000 		.word	interrupt_flag
  89              		.cfi_endproc
  90              	.LFE64:
  91              		.size	ISR_RS485_RX_ExInterrupt, .-ISR_RS485_RX_ExInterrupt
  92              		.section	.text.ISR_CYCLES_Handler,"ax",%progbits
  93              		.align	2
  94              		.global	ISR_CYCLES_Handler
  95              		.thumb
  96              		.thumb_func
  97              		.type	ISR_CYCLES_Handler, %function
  98              	ISR_CYCLES_Handler:
  99              	.LFB65:
 105:..\src/interruptions.c **** 
 106:..\src/interruptions.c **** //==============================================================================
 107:..\src/interruptions.c **** //                                                        CYCLES TIMER INTERRUPT
 108:..\src/interruptions.c **** //==============================================================================
 109:..\src/interruptions.c **** CY_ISR(ISR_CYCLES_Handler){
 100              		.loc 1 109 0
 101              		.cfi_startproc
 102              		@ args = 0, pretend = 0, frame = 0
 103              		@ frame_needed = 1, uses_anonymous_args = 0
 104              		@ link register save eliminated.
 105 0000 80B4     		push	{r7}
 106              		.cfi_def_cfa_offset 4
 107              		.cfi_offset 7, -4
 108 0002 00AF     		add	r7, sp, #0
 109              		.cfi_def_cfa_register 7
 110:..\src/interruptions.c **** 
 111:..\src/interruptions.c ****     // Set cycles interrupt flag
 112:..\src/interruptions.c ****     
 113:..\src/interruptions.c ****     cycles_interrupt_flag = TRUE;
 110              		.loc 1 113 0
 111 0004 044B     		ldr	r3, .L5
 112 0006 0122     		movs	r2, #1
 113 0008 1A70     		strb	r2, [r3]
 114:..\src/interruptions.c ****     
 115:..\src/interruptions.c ****     CYCLES_TIMER_STATUS;
ARM GAS  C:\Users\mgnocco\AppData\Local\Temp\ccM9DEjH.s 			page 5


 114              		.loc 1 115 0
 115 000a 044B     		ldr	r3, .L5+4
 116 000c 1B78     		ldrb	r3, [r3]
 116:..\src/interruptions.c **** 
 117:..\src/interruptions.c **** }
 117              		.loc 1 117 0
 118 000e 00BF     		nop
 119 0010 BD46     		mov	sp, r7
 120              		.cfi_def_cfa_register 13
 121              		@ sp needed
 122 0012 80BC     		pop	{r7}
 123              		.cfi_restore 7
 124              		.cfi_def_cfa_offset 0
 125 0014 7047     		bx	lr
 126              	.L6:
 127 0016 00BF     		.align	2
 128              	.L5:
 129 0018 00000000 		.word	cycles_interrupt_flag
 130 001c 034F0040 		.word	1073762051
 131              		.cfi_endproc
 132              	.LFE65:
 133              		.size	ISR_CYCLES_Handler, .-ISR_CYCLES_Handler
 134              		.section	.text.interrupt_manager,"ax",%progbits
 135              		.align	2
 136              		.global	interrupt_manager
 137              		.thumb
 138              		.thumb_func
 139              		.type	interrupt_manager, %function
 140              	interrupt_manager:
 141              	.LFB66:
 118:..\src/interruptions.c **** 
 119:..\src/interruptions.c **** //==============================================================================
 120:..\src/interruptions.c **** //                                                             INTERRUPT MANAGER
 121:..\src/interruptions.c **** //==============================================================================
 122:..\src/interruptions.c **** // Manage interrupt from RS485 
 123:..\src/interruptions.c **** //==============================================================================
 124:..\src/interruptions.c **** // Processing RS-485 data frame:
 125:..\src/interruptions.c **** //
 126:..\src/interruptions.c **** // - WAIT_START:    Waits for beginning characters;
 127:..\src/interruptions.c **** // - WAIT_ID:       Waits for ID;
 128:..\src/interruptions.c **** // - WAIT_LENGTH:   Data length;
 129:..\src/interruptions.c **** // - RECEIVE:       Receive all bytes;
 130:..\src/interruptions.c **** // - UNLOAD:        Wait for another device end of transmission;
 131:..\src/interruptions.c **** //
 132:..\src/interruptions.c **** //==============================================================================
 133:..\src/interruptions.c **** 
 134:..\src/interruptions.c **** void interrupt_manager(){
 142              		.loc 1 134 0
 143              		.cfi_startproc
 144              		@ args = 0, pretend = 0, frame = 8
 145              		@ frame_needed = 1, uses_anonymous_args = 0
 146 0000 80B5     		push	{r7, lr}
 147              		.cfi_def_cfa_offset 8
 148              		.cfi_offset 7, -8
 149              		.cfi_offset 14, -4
 150 0002 82B0     		sub	sp, sp, #8
 151              		.cfi_def_cfa_offset 16
ARM GAS  C:\Users\mgnocco\AppData\Local\Temp\ccM9DEjH.s 			page 6


 152 0004 00AF     		add	r7, sp, #0
 153              		.cfi_def_cfa_register 7
 135:..\src/interruptions.c **** 
 136:..\src/interruptions.c ****     
 137:..\src/interruptions.c ****     //===========================================     local variables definition
 138:..\src/interruptions.c **** 
 139:..\src/interruptions.c ****     static uint8 CYDATA state = WAIT_START;                      // state
 140:..\src/interruptions.c ****     
 141:..\src/interruptions.c ****     //------------------------------------------------- local data packet
 142:..\src/interruptions.c ****     static uint8 CYDATA data_packet_index;
 143:..\src/interruptions.c ****     static uint8 CYDATA data_packet_length;
 144:..\src/interruptions.c ****     static uint8 data_packet_buffer[128];                     
 145:..\src/interruptions.c ****     static uint8 CYDATA rx_queue[3];                    // last 2 bytes received
 146:..\src/interruptions.c ****     //-------------------------------------------------
 147:..\src/interruptions.c **** 
 148:..\src/interruptions.c ****     uint8 CYDATA    rx_data;                            // RS485 UART rx data
 149:..\src/interruptions.c ****     CYBIT           rx_data_type = TRUE;                       // my id?
 154              		.loc 1 149 0
 155 0006 0123     		movs	r3, #1
 156 0008 FB71     		strb	r3, [r7, #7]
 150:..\src/interruptions.c ****     uint8 CYDATA    package_count = 0;                     
 157              		.loc 1 150 0
 158 000a 0023     		movs	r3, #0
 159 000c BB71     		strb	r3, [r7, #6]
 151:..\src/interruptions.c **** 
 152:..\src/interruptions.c ****     //======================================================     receive routine
 153:..\src/interruptions.c ****     
 154:..\src/interruptions.c ****     while(UART_RS485_GetRxBufferSize() && (package_count < 100)){
 160              		.loc 1 154 0
 161 000e E0E0     		b	.L8
 162              	.L28:
 155:..\src/interruptions.c ****         // 100 - estimated maximum number of packets we can read without blocking firmware executio
 156:..\src/interruptions.c **** 
 157:..\src/interruptions.c ****         // Get next char
 158:..\src/interruptions.c ****         rx_data = UART_RS485_GetChar();
 163              		.loc 1 158 0
 164 0010 FFF7FEFF 		bl	UART_RS485_GetChar
 165 0014 0346     		mov	r3, r0
 166 0016 7B71     		strb	r3, [r7, #5]
 159:..\src/interruptions.c ****         
 160:..\src/interruptions.c ****         switch (state) {
 167              		.loc 1 160 0
 168 0018 744B     		ldr	r3, .L31
 169 001a 1B78     		ldrb	r3, [r3]	@ zero_extendqisi2
 170 001c 042B     		cmp	r3, #4
 171 001e 00F2D880 		bhi	.L8
 172 0022 01A2     		adr	r2, .L10
 173 0024 52F823F0 		ldr	pc, [r2, r3, lsl #2]
 174              		.p2align 2
 175              	.L10:
 176 0028 3D000000 		.word	.L9+1
 177 002c A3000000 		.word	.L11+1
 178 0030 E1000000 		.word	.L12+1
 179 0034 2F010000 		.word	.L13+1
 180 0038 99010000 		.word	.L14+1
 181              		.p2align 1
 182              	.L9:
ARM GAS  C:\Users\mgnocco\AppData\Local\Temp\ccM9DEjH.s 			page 7


 161:..\src/interruptions.c ****             //-----     wait for frame start     -------------------------------
 162:..\src/interruptions.c ****             case WAIT_START:
 163:..\src/interruptions.c ****             
 164:..\src/interruptions.c ****                 rx_queue[0] = rx_queue[1];
 183              		.loc 1 164 0
 184 003c 6C4B     		ldr	r3, .L31+4
 185 003e 5A78     		ldrb	r2, [r3, #1]	@ zero_extendqisi2
 186 0040 6B4B     		ldr	r3, .L31+4
 187 0042 1A70     		strb	r2, [r3]
 165:..\src/interruptions.c ****                 rx_queue[1] = rx_queue[2];
 188              		.loc 1 165 0
 189 0044 6A4B     		ldr	r3, .L31+4
 190 0046 9A78     		ldrb	r2, [r3, #2]	@ zero_extendqisi2
 191 0048 694B     		ldr	r3, .L31+4
 192 004a 5A70     		strb	r2, [r3, #1]
 166:..\src/interruptions.c ****                 rx_queue[2] = rx_data;
 193              		.loc 1 166 0
 194 004c 684A     		ldr	r2, .L31+4
 195 004e 7B79     		ldrb	r3, [r7, #5]
 196 0050 9370     		strb	r3, [r2, #2]
 167:..\src/interruptions.c ****                 
 168:..\src/interruptions.c ****                 // Check for header configuration package
 169:..\src/interruptions.c ****                 if ((rx_queue[1] == 58) && (rx_queue[2] == 58)) {
 197              		.loc 1 169 0
 198 0052 674B     		ldr	r3, .L31+4
 199 0054 5B78     		ldrb	r3, [r3, #1]	@ zero_extendqisi2
 200 0056 3A2B     		cmp	r3, #58
 201 0058 10D1     		bne	.L15
 202              		.loc 1 169 0 is_stmt 0 discriminator 1
 203 005a 654B     		ldr	r3, .L31+4
 204 005c 9B78     		ldrb	r3, [r3, #2]	@ zero_extendqisi2
 205 005e 3A2B     		cmp	r3, #58
 206 0060 0CD1     		bne	.L15
 170:..\src/interruptions.c ****                     rx_queue[0] = 0;
 207              		.loc 1 170 0 is_stmt 1
 208 0062 634B     		ldr	r3, .L31+4
 209 0064 0022     		movs	r2, #0
 210 0066 1A70     		strb	r2, [r3]
 171:..\src/interruptions.c ****                     rx_queue[1] = 0;
 211              		.loc 1 171 0
 212 0068 614B     		ldr	r3, .L31+4
 213 006a 0022     		movs	r2, #0
 214 006c 5A70     		strb	r2, [r3, #1]
 172:..\src/interruptions.c ****                     rx_queue[2] = 0;
 215              		.loc 1 172 0
 216 006e 604B     		ldr	r3, .L31+4
 217 0070 0022     		movs	r2, #0
 218 0072 9A70     		strb	r2, [r3, #2]
 173:..\src/interruptions.c ****                     state       = WAIT_ID;                    
 219              		.loc 1 173 0
 220 0074 5D4B     		ldr	r3, .L31
 221 0076 0122     		movs	r2, #1
 222 0078 1A70     		strb	r2, [r3]
 223 007a 11E0     		b	.L16
 224              	.L15:
 174:..\src/interruptions.c ****                 }else
 175:..\src/interruptions.c ****                     if ((rx_queue[0] == 63) &&      //ASCII - ?
ARM GAS  C:\Users\mgnocco\AppData\Local\Temp\ccM9DEjH.s 			page 8


 225              		.loc 1 175 0
 226 007c 5C4B     		ldr	r3, .L31+4
 227 007e 1B78     		ldrb	r3, [r3]	@ zero_extendqisi2
 228 0080 3F2B     		cmp	r3, #63
 229 0082 40F0A680 		bne	.L8
 176:..\src/interruptions.c ****                         (rx_queue[1] == 13) &&      //ASCII - CR
 230              		.loc 1 176 0 discriminator 1
 231 0086 5A4B     		ldr	r3, .L31+4
 232 0088 5B78     		ldrb	r3, [r3, #1]	@ zero_extendqisi2
 175:..\src/interruptions.c ****                         (rx_queue[1] == 13) &&      //ASCII - CR
 233              		.loc 1 175 0 discriminator 1
 234 008a 0D2B     		cmp	r3, #13
 235 008c 40F0A180 		bne	.L8
 177:..\src/interruptions.c ****                         (rx_queue[2] == 10))        //ASCII - LF)
 236              		.loc 1 177 0
 237 0090 574B     		ldr	r3, .L31+4
 238 0092 9B78     		ldrb	r3, [r3, #2]	@ zero_extendqisi2
 176:..\src/interruptions.c ****                         (rx_queue[1] == 13) &&      //ASCII - CR
 239              		.loc 1 176 0
 240 0094 0A2B     		cmp	r3, #10
 241 0096 40F09C80 		bne	.L8
 178:..\src/interruptions.c ****                         infoGet(INFO_ALL);
 242              		.loc 1 178 0
 243 009a 0020     		movs	r0, #0
 244 009c FFF7FEFF 		bl	infoGet
 245              	.L16:
 179:..\src/interruptions.c ****                 break;
 246              		.loc 1 179 0
 247 00a0 97E0     		b	.L8
 248              	.L11:
 180:..\src/interruptions.c **** 
 181:..\src/interruptions.c ****             //-----     wait for id     ----------------------------------------
 182:..\src/interruptions.c ****             case  WAIT_ID:
 183:..\src/interruptions.c **** 
 184:..\src/interruptions.c ****                 // packet is for my ID or is broadcast
 185:..\src/interruptions.c **** #ifdef MASTER_FW
 186:..\src/interruptions.c ****                 if (rx_data == c_mem.dev.id || rx_data == 0 || (master_mode && rx_data == c_mem.MS.
 249              		.loc 1 186 0
 250 00a2 544B     		ldr	r3, .L31+8
 251 00a4 93F8A030 		ldrb	r3, [r3, #160]	@ zero_extendqisi2
 252 00a8 7A79     		ldrb	r2, [r7, #5]	@ zero_extendqisi2
 253 00aa 9A42     		cmp	r2, r3
 254 00ac 0CD0     		beq	.L17
 255              		.loc 1 186 0 is_stmt 0 discriminator 1
 256 00ae 7B79     		ldrb	r3, [r7, #5]	@ zero_extendqisi2
 257 00b0 002B     		cmp	r3, #0
 258 00b2 09D0     		beq	.L17
 259              		.loc 1 186 0 discriminator 2
 260 00b4 504B     		ldr	r3, .L31+12
 261 00b6 1B78     		ldrb	r3, [r3]	@ zero_extendqisi2
 262 00b8 002B     		cmp	r3, #0
 263 00ba 08D0     		beq	.L18
 264              		.loc 1 186 0 discriminator 3
 265 00bc 4D4B     		ldr	r3, .L31+8
 266 00be 93F8C132 		ldrb	r3, [r3, #705]	@ zero_extendqisi2
 267 00c2 7A79     		ldrb	r2, [r7, #5]	@ zero_extendqisi2
 268 00c4 9A42     		cmp	r2, r3
ARM GAS  C:\Users\mgnocco\AppData\Local\Temp\ccM9DEjH.s 			page 9


 269 00c6 02D1     		bne	.L18
 270              	.L17:
 187:..\src/interruptions.c ****                    rx_data_type = FALSE;
 271              		.loc 1 187 0 is_stmt 1
 272 00c8 0023     		movs	r3, #0
 273 00ca FB71     		strb	r3, [r7, #7]
 274 00cc 01E0     		b	.L19
 275              	.L18:
 188:..\src/interruptions.c ****                 else                //packet is for others
 189:..\src/interruptions.c ****                     rx_data_type = TRUE;
 276              		.loc 1 189 0
 277 00ce 0123     		movs	r3, #1
 278 00d0 FB71     		strb	r3, [r7, #7]
 279              	.L19:
 190:..\src/interruptions.c **** #else
 191:..\src/interruptions.c ****                 if (rx_data == c_mem.dev.id || rx_data == 0)
 192:..\src/interruptions.c ****                     rx_data_type = FALSE;
 193:..\src/interruptions.c ****                 else                //packet is for others
 194:..\src/interruptions.c ****                     rx_data_type = TRUE;
 195:..\src/interruptions.c **** #endif                
 196:..\src/interruptions.c ****                 data_packet_length = 0;
 280              		.loc 1 196 0
 281 00d2 4A4B     		ldr	r3, .L31+16
 282 00d4 0022     		movs	r2, #0
 283 00d6 1A70     		strb	r2, [r3]
 197:..\src/interruptions.c ****                 state = WAIT_LENGTH;
 284              		.loc 1 197 0
 285 00d8 444B     		ldr	r3, .L31
 286 00da 0222     		movs	r2, #2
 287 00dc 1A70     		strb	r2, [r3]
 198:..\src/interruptions.c ****                 break;
 288              		.loc 1 198 0
 289 00de 78E0     		b	.L8
 290              	.L12:
 199:..\src/interruptions.c **** 
 200:..\src/interruptions.c ****             //-----     wait for length     ------------------------------------
 201:..\src/interruptions.c ****             case  WAIT_LENGTH:
 202:..\src/interruptions.c **** 
 203:..\src/interruptions.c ****                 data_packet_length = rx_data;
 291              		.loc 1 203 0
 292 00e0 464A     		ldr	r2, .L31+16
 293 00e2 7B79     		ldrb	r3, [r7, #5]
 294 00e4 1370     		strb	r3, [r2]
 204:..\src/interruptions.c ****                 // check validity of pack length
 205:..\src/interruptions.c ****                 if (data_packet_length <= 1) {
 295              		.loc 1 205 0
 296 00e6 454B     		ldr	r3, .L31+16
 297 00e8 1B78     		ldrb	r3, [r3]	@ zero_extendqisi2
 298 00ea 012B     		cmp	r3, #1
 299 00ec 06D8     		bhi	.L20
 206:..\src/interruptions.c ****                     data_packet_length = 0;
 300              		.loc 1 206 0
 301 00ee 434B     		ldr	r3, .L31+16
 302 00f0 0022     		movs	r2, #0
 303 00f2 1A70     		strb	r2, [r3]
 207:..\src/interruptions.c ****                     state = WAIT_START;
 304              		.loc 1 207 0
ARM GAS  C:\Users\mgnocco\AppData\Local\Temp\ccM9DEjH.s 			page 10


 305 00f4 3D4B     		ldr	r3, .L31
 306 00f6 0022     		movs	r2, #0
 307 00f8 1A70     		strb	r2, [r3]
 308 00fa 6AE0     		b	.L8
 309              	.L20:
 208:..\src/interruptions.c ****                 } else if (data_packet_length > 128) {
 310              		.loc 1 208 0
 311 00fc 3F4B     		ldr	r3, .L31+16
 312 00fe 1B78     		ldrb	r3, [r3]	@ zero_extendqisi2
 313 0100 802B     		cmp	r3, #128
 314 0102 06D9     		bls	.L22
 209:..\src/interruptions.c ****                     data_packet_length = 0;
 315              		.loc 1 209 0
 316 0104 3D4B     		ldr	r3, .L31+16
 317 0106 0022     		movs	r2, #0
 318 0108 1A70     		strb	r2, [r3]
 210:..\src/interruptions.c ****                     state = WAIT_START;
 319              		.loc 1 210 0
 320 010a 384B     		ldr	r3, .L31
 321 010c 0022     		movs	r2, #0
 322 010e 1A70     		strb	r2, [r3]
 323 0110 5FE0     		b	.L8
 324              	.L22:
 211:..\src/interruptions.c ****                 } else {
 212:..\src/interruptions.c ****                     data_packet_index = 0;
 325              		.loc 1 212 0
 326 0112 3B4B     		ldr	r3, .L31+20
 327 0114 0022     		movs	r2, #0
 328 0116 1A70     		strb	r2, [r3]
 213:..\src/interruptions.c ****                     
 214:..\src/interruptions.c ****                     if(rx_data_type == FALSE)
 329              		.loc 1 214 0
 330 0118 FB79     		ldrb	r3, [r7, #7]	@ zero_extendqisi2
 331 011a 002B     		cmp	r3, #0
 332 011c 03D1     		bne	.L23
 215:..\src/interruptions.c ****                         state = RECEIVE;          // packet for me or broadcast
 333              		.loc 1 215 0
 334 011e 334B     		ldr	r3, .L31
 335 0120 0322     		movs	r2, #3
 336 0122 1A70     		strb	r2, [r3]
 337 0124 55E0     		b	.L8
 338              	.L23:
 216:..\src/interruptions.c ****                     else
 217:..\src/interruptions.c ****                         state = UNLOAD;           // packet for others
 339              		.loc 1 217 0
 340 0126 314B     		ldr	r3, .L31
 341 0128 0422     		movs	r2, #4
 342 012a 1A70     		strb	r2, [r3]
 218:..\src/interruptions.c ****                 }
 219:..\src/interruptions.c ****                 break;
 343              		.loc 1 219 0
 344 012c 51E0     		b	.L8
 345              	.L13:
 220:..\src/interruptions.c **** 
 221:..\src/interruptions.c ****             //-----     receiving     -------------------------------------------
 222:..\src/interruptions.c ****             case RECEIVE:
 223:..\src/interruptions.c **** 
ARM GAS  C:\Users\mgnocco\AppData\Local\Temp\ccM9DEjH.s 			page 11


 224:..\src/interruptions.c ****                 data_packet_buffer[data_packet_index] = rx_data;
 346              		.loc 1 224 0
 347 012e 344B     		ldr	r3, .L31+20
 348 0130 1B78     		ldrb	r3, [r3]	@ zero_extendqisi2
 349 0132 1946     		mov	r1, r3
 350 0134 334A     		ldr	r2, .L31+24
 351 0136 7B79     		ldrb	r3, [r7, #5]
 352 0138 5354     		strb	r3, [r2, r1]
 225:..\src/interruptions.c ****                 data_packet_index++;
 353              		.loc 1 225 0
 354 013a 314B     		ldr	r3, .L31+20
 355 013c 1B78     		ldrb	r3, [r3]	@ zero_extendqisi2
 356 013e 0133     		adds	r3, r3, #1
 357 0140 DAB2     		uxtb	r2, r3
 358 0142 2F4B     		ldr	r3, .L31+20
 359 0144 1A70     		strb	r2, [r3]
 226:..\src/interruptions.c ****                 
 227:..\src/interruptions.c ****                 // check end of transmission
 228:..\src/interruptions.c ****                 if (data_packet_index >= data_packet_length) {
 360              		.loc 1 228 0
 361 0146 2E4B     		ldr	r3, .L31+20
 362 0148 1A78     		ldrb	r2, [r3]	@ zero_extendqisi2
 363 014a 2C4B     		ldr	r3, .L31+16
 364 014c 1B78     		ldrb	r3, [r3]	@ zero_extendqisi2
 365 014e 9A42     		cmp	r2, r3
 366 0150 3FD3     		bcc	.L8
 229:..\src/interruptions.c ****                     // verify if frame ID corresponded to the device ID
 230:..\src/interruptions.c ****                     if (rx_data_type == FALSE) {
 367              		.loc 1 230 0
 368 0152 FB79     		ldrb	r3, [r7, #7]	@ zero_extendqisi2
 369 0154 002B     		cmp	r3, #0
 370 0156 12D1     		bne	.L25
 231:..\src/interruptions.c ****                         // copying data from buffer to global packet
 232:..\src/interruptions.c ****                         memcpy(g_rx.buffer, data_packet_buffer, data_packet_length);
 371              		.loc 1 232 0
 372 0158 284B     		ldr	r3, .L31+16
 373 015a 1B78     		ldrb	r3, [r3]	@ zero_extendqisi2
 374 015c 1A46     		mov	r2, r3
 375 015e 2949     		ldr	r1, .L31+24
 376 0160 2948     		ldr	r0, .L31+28
 377 0162 FFF7FEFF 		bl	memcpy
 233:..\src/interruptions.c ****                         g_rx.length = data_packet_length;
 378              		.loc 1 233 0
 379 0166 254B     		ldr	r3, .L31+16
 380 0168 1B78     		ldrb	r3, [r3]	@ zero_extendqisi2
 381 016a 1AB2     		sxth	r2, r3
 382 016c 264B     		ldr	r3, .L31+28
 383 016e A3F88020 		strh	r2, [r3, #128]	@ movhi
 234:..\src/interruptions.c ****                         g_rx.ready  = 1;
 384              		.loc 1 234 0
 385 0172 254B     		ldr	r3, .L31+28
 386 0174 0122     		movs	r2, #1
 387 0176 83F88420 		strb	r2, [r3, #132]
 235:..\src/interruptions.c ****                         commProcess();
 388              		.loc 1 235 0
 389 017a FFF7FEFF 		bl	commProcess
 390              	.L25:
ARM GAS  C:\Users\mgnocco\AppData\Local\Temp\ccM9DEjH.s 			page 12


 236:..\src/interruptions.c ****                     }
 237:..\src/interruptions.c ****                     
 238:..\src/interruptions.c ****                     data_packet_index  = 0;
 391              		.loc 1 238 0
 392 017e 204B     		ldr	r3, .L31+20
 393 0180 0022     		movs	r2, #0
 394 0182 1A70     		strb	r2, [r3]
 239:..\src/interruptions.c ****                     data_packet_length = 0;
 395              		.loc 1 239 0
 396 0184 1D4B     		ldr	r3, .L31+16
 397 0186 0022     		movs	r2, #0
 398 0188 1A70     		strb	r2, [r3]
 240:..\src/interruptions.c ****                     state              = WAIT_START;
 399              		.loc 1 240 0
 400 018a 184B     		ldr	r3, .L31
 401 018c 0022     		movs	r2, #0
 402 018e 1A70     		strb	r2, [r3]
 241:..\src/interruptions.c ****                     package_count++;
 403              		.loc 1 241 0
 404 0190 BB79     		ldrb	r3, [r7, #6]	@ zero_extendqisi2
 405 0192 0133     		adds	r3, r3, #1
 406 0194 BB71     		strb	r3, [r7, #6]
 242:..\src/interruptions.c ****                 
 243:..\src/interruptions.c ****                 }
 244:..\src/interruptions.c ****                 break;
 407              		.loc 1 244 0
 408 0196 1CE0     		b	.L8
 409              	.L14:
 245:..\src/interruptions.c **** 
 246:..\src/interruptions.c ****             //-----     other device is receving     ---------------------------
 247:..\src/interruptions.c ****             case UNLOAD:
 248:..\src/interruptions.c ****                 if (!(--data_packet_length)) {
 410              		.loc 1 248 0
 411 0198 184B     		ldr	r3, .L31+16
 412 019a 1B78     		ldrb	r3, [r3]	@ zero_extendqisi2
 413 019c 013B     		subs	r3, r3, #1
 414 019e DAB2     		uxtb	r2, r3
 415 01a0 164B     		ldr	r3, .L31+16
 416 01a2 1A70     		strb	r2, [r3]
 417 01a4 154B     		ldr	r3, .L31+16
 418 01a6 1B78     		ldrb	r3, [r3]	@ zero_extendqisi2
 419 01a8 002B     		cmp	r3, #0
 420 01aa 11D1     		bne	.L30
 249:..\src/interruptions.c ****                     data_packet_index  = 0;
 421              		.loc 1 249 0
 422 01ac 144B     		ldr	r3, .L31+20
 423 01ae 0022     		movs	r2, #0
 424 01b0 1A70     		strb	r2, [r3]
 250:..\src/interruptions.c ****                     data_packet_length = 0;
 425              		.loc 1 250 0
 426 01b2 124B     		ldr	r3, .L31+16
 427 01b4 0022     		movs	r2, #0
 428 01b6 1A70     		strb	r2, [r3]
 251:..\src/interruptions.c ****                     RS485_CTS_Write(1);
 429              		.loc 1 251 0
 430 01b8 0120     		movs	r0, #1
 431 01ba FFF7FEFF 		bl	RS485_CTS_Write
ARM GAS  C:\Users\mgnocco\AppData\Local\Temp\ccM9DEjH.s 			page 13


 252:..\src/interruptions.c ****                     RS485_CTS_Write(0);
 432              		.loc 1 252 0
 433 01be 0020     		movs	r0, #0
 434 01c0 FFF7FEFF 		bl	RS485_CTS_Write
 253:..\src/interruptions.c ****                     state              = WAIT_START;
 435              		.loc 1 253 0
 436 01c4 094B     		ldr	r3, .L31
 437 01c6 0022     		movs	r2, #0
 438 01c8 1A70     		strb	r2, [r3]
 254:..\src/interruptions.c ****                     package_count++;
 439              		.loc 1 254 0
 440 01ca BB79     		ldrb	r3, [r7, #6]	@ zero_extendqisi2
 441 01cc 0133     		adds	r3, r3, #1
 442 01ce BB71     		strb	r3, [r7, #6]
 443              	.L30:
 255:..\src/interruptions.c ****                 }
 256:..\src/interruptions.c ****                 break;
 444              		.loc 1 256 0
 445 01d0 00BF     		nop
 446              	.L8:
 154:..\src/interruptions.c ****         // 100 - estimated maximum number of packets we can read without blocking firmware executio
 447              		.loc 1 154 0
 448 01d2 FFF7FEFF 		bl	UART_RS485_GetRxBufferSize
 449 01d6 0346     		mov	r3, r0
 450 01d8 002B     		cmp	r3, #0
 451 01da 03D0     		beq	.L29
 154:..\src/interruptions.c ****         // 100 - estimated maximum number of packets we can read without blocking firmware executio
 452              		.loc 1 154 0 is_stmt 0 discriminator 1
 453 01dc BB79     		ldrb	r3, [r7, #6]	@ zero_extendqisi2
 454 01de 632B     		cmp	r3, #99
 455 01e0 7FF616AF 		bls	.L28
 456              	.L29:
 257:..\src/interruptions.c ****         }
 258:..\src/interruptions.c ****     }
 259:..\src/interruptions.c **** }
 457              		.loc 1 259 0 is_stmt 1
 458 01e4 00BF     		nop
 459 01e6 0837     		adds	r7, r7, #8
 460              		.cfi_def_cfa_offset 8
 461 01e8 BD46     		mov	sp, r7
 462              		.cfi_def_cfa_register 13
 463              		@ sp needed
 464 01ea 80BD     		pop	{r7, pc}
 465              	.L32:
 466              		.align	2
 467              	.L31:
 468 01ec 00000000 		.word	state.10225
 469 01f0 04000000 		.word	rx_queue.10229
 470 01f4 00000000 		.word	c_mem
 471 01f8 00000000 		.word	master_mode
 472 01fc 07000000 		.word	data_packet_length.10227
 473 0200 08000000 		.word	data_packet_index.10226
 474 0204 0C000000 		.word	data_packet_buffer.10228
 475 0208 00000000 		.word	g_rx
 476              		.cfi_endproc
 477              	.LFE66:
 478              		.size	interrupt_manager, .-interrupt_manager
ARM GAS  C:\Users\mgnocco\AppData\Local\Temp\ccM9DEjH.s 			page 14


 479              		.section	.rodata
 480 001d 000000   		.align	2
 481              	.LC0:
 482 0020 00       		.ascii	"\000"
 483              		.global	__aeabi_i2f
 484              		.global	__aeabi_fdiv
 485              		.section	.text.function_scheduler,"ax",%progbits
 486              		.align	2
 487              		.global	function_scheduler
 488              		.thumb
 489              		.thumb_func
 490              		.type	function_scheduler, %function
 491              	function_scheduler:
 492              	.LFB67:
 260:..\src/interruptions.c **** //==============================================================================
 261:..\src/interruptions.c **** //                                                            FUNCTION SCHEDULER
 262:..\src/interruptions.c **** //==============================================================================
 263:..\src/interruptions.c **** // Call all the function with the right frequency
 264:..\src/interruptions.c **** //==============================================================================
 265:..\src/interruptions.c **** // Base frequency 5000 Hz (110 us - max. 200 us cycle time)
 266:..\src/interruptions.c **** //==============================================================================
 267:..\src/interruptions.c **** 
 268:..\src/interruptions.c **** void function_scheduler(void) {
 493              		.loc 1 268 0
 494              		.cfi_startproc
 495              		@ args = 0, pretend = 0, frame = 17504
 496              		@ frame_needed = 1, uses_anonymous_args = 0
 497 0000 B0B5     		push	{r4, r5, r7, lr}
 498              		.cfi_def_cfa_offset 16
 499              		.cfi_offset 4, -16
 500              		.cfi_offset 5, -12
 501              		.cfi_offset 7, -8
 502              		.cfi_offset 14, -4
 503 0002 ADF5884D 		sub	sp, sp, #17408
 504              		.cfi_def_cfa_offset 17424
 505 0006 98B0     		sub	sp, sp, #96
 506              		.cfi_def_cfa_offset 17520
 507 0008 00AF     		add	r7, sp, #0
 508              		.cfi_def_cfa_register 7
 269:..\src/interruptions.c ****  
 270:..\src/interruptions.c ****     static uint16 counter_calibration = DIV_INIT_VALUE;
 271:..\src/interruptions.c ****     static uint16 counter_tension_func = DIV_INIT_VALUE;
 272:..\src/interruptions.c ****     char info_[2500] = "";
 509              		.loc 1 272 0
 510 000a 07F56A53 		add	r3, r7, #14976
 511 000e 03F11803 		add	r3, r3, #24
 512 0012 0022     		movs	r2, #0
 513 0014 1A60     		str	r2, [r3]
 514 0016 0433     		adds	r3, r3, #4
 515 0018 4FF41C62 		mov	r2, #2496
 516 001c 0021     		movs	r1, #0
 517 001e 1846     		mov	r0, r3
 518 0020 FFF7FEFF 		bl	memset
 273:..\src/interruptions.c ****     
 274:..\src/interruptions.c ****     uint8 MOTOR_IDX = 0;
 519              		.loc 1 274 0
 520 0024 0023     		movs	r3, #0
ARM GAS  C:\Users\mgnocco\AppData\Local\Temp\ccM9DEjH.s 			page 15


 521 0026 07F58842 		add	r2, r7, #17408
 522 002a 02F15F02 		add	r2, r2, #95
 523 002e 1370     		strb	r3, [r2]
 275:..\src/interruptions.c ****     uint8 SECOND_MOTOR_IDX = 1;
 524              		.loc 1 275 0
 525 0030 0123     		movs	r3, #1
 526 0032 07F58842 		add	r2, r7, #17408
 527 0036 02F15E02 		add	r2, r2, #94
 528 003a 1370     		strb	r3, [r2]
 276:..\src/interruptions.c ****     
 277:..\src/interruptions.c ****     MY_TIMER_REG_Write(0x00);
 529              		.loc 1 277 0
 530 003c 0020     		movs	r0, #0
 531 003e FFF7FEFF 		bl	MY_TIMER_REG_Write
 278:..\src/interruptions.c ****     timer_value0 = (uint32)MY_TIMER_ReadCounter();
 532              		.loc 1 278 0
 533 0042 FFF7FEFF 		bl	MY_TIMER_ReadCounter
 534 0046 0346     		mov	r3, r0
 535 0048 1A46     		mov	r2, r3
 536 004a A64B     		ldr	r3, .L63
 537 004c 1A80     		strh	r2, [r3]	@ movhi
 279:..\src/interruptions.c ****     // Start ADC Conversion, SOC = 1
 280:..\src/interruptions.c **** 
 281:..\src/interruptions.c ****     ADC_SOC_Write(0x01); 
 538              		.loc 1 281 0
 539 004e 0120     		movs	r0, #1
 540 0050 FFF7FEFF 		bl	ADC_SOC_Write
 282:..\src/interruptions.c ****     
 283:..\src/interruptions.c ****     // Check Interrupt 
 284:..\src/interruptions.c **** 
 285:..\src/interruptions.c ****     if (interrupt_flag){
 541              		.loc 1 285 0
 542 0054 A44B     		ldr	r3, .L63+4
 543 0056 1B78     		ldrb	r3, [r3]	@ zero_extendqisi2
 544 0058 002B     		cmp	r3, #0
 545 005a 04D0     		beq	.L34
 286:..\src/interruptions.c ****         interrupt_flag = FALSE;
 546              		.loc 1 286 0
 547 005c A24B     		ldr	r3, .L63+4
 548 005e 0022     		movs	r2, #0
 549 0060 1A70     		strb	r2, [r3]
 287:..\src/interruptions.c ****         interrupt_manager();
 550              		.loc 1 287 0
 551 0062 FFF7FEFF 		bl	interrupt_manager
 552              	.L34:
 288:..\src/interruptions.c ****     }
 289:..\src/interruptions.c ****             // if master_mode parameter is set to 1
 290:..\src/interruptions.c ****             if (g_mem.MS.master_mode_active){  
 553              		.loc 1 290 0
 554 0066 A14B     		ldr	r3, .L63+8
 555 0068 93F8C032 		ldrb	r3, [r3, #704]	@ zero_extendqisi2
 556 006c 002B     		cmp	r3, #0
 557 006e 11D0     		beq	.L35
 291:..\src/interruptions.c ****                 
 292:..\src/interruptions.c ****                 // Check if voltage on pin MASTER MODE VOLTAGE, set by a physical switch, is HIGH o
 293:..\src/interruptions.c ****                 // This is a way to force exit from master_mode during execution, since USB command
 294:..\src/interruptions.c ****                 // are hampered by the communications between the two boards (slave and master)
ARM GAS  C:\Users\mgnocco\AppData\Local\Temp\ccM9DEjH.s 			page 16


 295:..\src/interruptions.c ****                 
 296:..\src/interruptions.c ****                 if (flag_master < 2000)       // if voltage is LOW, exit master mode
 558              		.loc 1 296 0
 559 0070 9F4B     		ldr	r3, .L63+12
 560 0072 1B68     		ldr	r3, [r3]
 561 0074 B3F5FA6F 		cmp	r3, #2000
 562 0078 03DA     		bge	.L36
 297:..\src/interruptions.c ****                     master_mode = 0;
 563              		.loc 1 297 0
 564 007a 9E4B     		ldr	r3, .L63+16
 565 007c 0022     		movs	r2, #0
 566 007e 1A70     		strb	r2, [r3]
 567 0080 0BE0     		b	.L38
 568              	.L36:
 298:..\src/interruptions.c ****                 
 299:..\src/interruptions.c ****                 else if (flag_master > 2000)  // if voltage is LOW, enter master mode
 569              		.loc 1 299 0
 570 0082 9B4B     		ldr	r3, .L63+12
 571 0084 1B68     		ldr	r3, [r3]
 572 0086 B3F5FA6F 		cmp	r3, #2000
 573 008a 06DD     		ble	.L38
 300:..\src/interruptions.c ****                     
 301:..\src/interruptions.c ****                 master_mode = 1;
 574              		.loc 1 301 0
 575 008c 994B     		ldr	r3, .L63+16
 576 008e 0122     		movs	r2, #1
 577 0090 1A70     		strb	r2, [r3]
 578 0092 02E0     		b	.L38
 579              	.L35:
 302:..\src/interruptions.c ****             }
 303:..\src/interruptions.c ****             
 304:..\src/interruptions.c ****             else{
 305:..\src/interruptions.c ****                 master_mode = 0;
 580              		.loc 1 305 0
 581 0094 974B     		ldr	r3, .L63+16
 582 0096 0022     		movs	r2, #0
 583 0098 1A70     		strb	r2, [r3]
 584              	.L38:
 306:..\src/interruptions.c ****             }
 307:..\src/interruptions.c ****                     
 308:..\src/interruptions.c ****             if (master_mode){
 585              		.loc 1 308 0
 586 009a 964B     		ldr	r3, .L63+16
 587 009c 1B78     		ldrb	r3, [r3]	@ zero_extendqisi2
 588 009e 002B     		cmp	r3, #0
 589 00a0 45D0     		beq	.L39
 309:..\src/interruptions.c ****                 
 310:..\src/interruptions.c ****                 //-------------------------------------------------------------- Air Chamber and Vi
 311:..\src/interruptions.c ****                 if (g_mem.FB.vibrotactile_feedback_active && g_mem.FB.airchamber_feedback_active){ 
 590              		.loc 1 311 0
 591 00a2 924B     		ldr	r3, .L63+8
 592 00a4 93F8DC32 		ldrb	r3, [r3, #732]	@ zero_extendqisi2
 593 00a8 002B     		cmp	r3, #0
 594 00aa 07D0     		beq	.L40
 595              		.loc 1 311 0 is_stmt 0 discriminator 1
 596 00ac 8F4B     		ldr	r3, .L63+8
 597 00ae 93F8DD32 		ldrb	r3, [r3, #733]	@ zero_extendqisi2
ARM GAS  C:\Users\mgnocco\AppData\Local\Temp\ccM9DEjH.s 			page 17


 598 00b2 002B     		cmp	r3, #0
 599 00b4 02D0     		beq	.L40
 312:..\src/interruptions.c ****                     
 313:..\src/interruptions.c ****                     //LED_CTRL_Write(GREEN);
 314:..\src/interruptions.c ****                     //BLINK_CTRL_EN_Write(0);
 315:..\src/interruptions.c ****                 
 316:..\src/interruptions.c ****                     //air_chambers_control();
 317:..\src/interruptions.c ****                     vibrotactile_control();
 600              		.loc 1 317 0 is_stmt 1
 601 00b6 FFF7FEFF 		bl	vibrotactile_control
 602 00ba 11E0     		b	.L41
 603              	.L40:
 318:..\src/interruptions.c ****                   
 319:..\src/interruptions.c ****                 }
 320:..\src/interruptions.c ****                 
 321:..\src/interruptions.c ****                 //-------------------------------------------------------------- Air Chamber contro
 322:..\src/interruptions.c ****                 else if (g_mem.FB.airchamber_feedback_active){
 604              		.loc 1 322 0
 605 00bc 8B4B     		ldr	r3, .L63+8
 606 00be 93F8DD32 		ldrb	r3, [r3, #733]	@ zero_extendqisi2
 607 00c2 002B     		cmp	r3, #0
 608 00c4 0CD1     		bne	.L41
 323:..\src/interruptions.c ****                     
 324:..\src/interruptions.c ****                     //LED_CTRL_Write(RED);
 325:..\src/interruptions.c ****                     //BLINK_CTRL_EN_Write(0);
 326:..\src/interruptions.c ****                     
 327:..\src/interruptions.c ****                     //air_chambers_control();
 328:..\src/interruptions.c ****                     
 329:..\src/interruptions.c ****                 }
 330:..\src/interruptions.c ****             
 331:..\src/interruptions.c ****                 //-------------------------------------------------------------- Vibrotactile contr
 332:..\src/interruptions.c ****                 else if (g_mem.FB.vibrotactile_feedback_active){
 609              		.loc 1 332 0
 610 00c6 894B     		ldr	r3, .L63+8
 611 00c8 93F8DC32 		ldrb	r3, [r3, #732]	@ zero_extendqisi2
 612 00cc 002B     		cmp	r3, #0
 613 00ce 07D0     		beq	.L41
 333:..\src/interruptions.c ****                     
 334:..\src/interruptions.c ****                     LED_CTRL_Write(YELLOW);
 614              		.loc 1 334 0
 615 00d0 0320     		movs	r0, #3
 616 00d2 FFF7FEFF 		bl	LED_CTRL_Write
 335:..\src/interruptions.c ****                     BLINK_CTRL_EN_Write(0);
 617              		.loc 1 335 0
 618 00d6 0020     		movs	r0, #0
 619 00d8 FFF7FEFF 		bl	BLINK_CTRL_EN_Write
 336:..\src/interruptions.c ****                     
 337:..\src/interruptions.c ****                     vibrotactile_control();
 620              		.loc 1 337 0
 621 00dc FFF7FEFF 		bl	vibrotactile_control
 622              	.L41:
 338:..\src/interruptions.c ****                 }
 339:..\src/interruptions.c ****                 
 340:..\src/interruptions.c ****                 if (interrupt_flag){
 623              		.loc 1 340 0
 624 00e0 814B     		ldr	r3, .L63+4
 625 00e2 1B78     		ldrb	r3, [r3]	@ zero_extendqisi2
ARM GAS  C:\Users\mgnocco\AppData\Local\Temp\ccM9DEjH.s 			page 18


 626 00e4 002B     		cmp	r3, #0
 627 00e6 04D0     		beq	.L42
 341:..\src/interruptions.c ****                     interrupt_flag = FALSE;
 628              		.loc 1 341 0
 629 00e8 7F4B     		ldr	r3, .L63+4
 630 00ea 0022     		movs	r2, #0
 631 00ec 1A70     		strb	r2, [r3]
 342:..\src/interruptions.c ****                     interrupt_manager();
 632              		.loc 1 342 0
 633 00ee FFF7FEFF 		bl	interrupt_manager
 634              	.L42:
 343:..\src/interruptions.c ****                 }
 344:..\src/interruptions.c ****                     
 345:..\src/interruptions.c ****                 motor_control_generic(SECOND_MOTOR_IDX); // Compute reference for the SH starting f
 635              		.loc 1 345 0
 636 00f2 07F58843 		add	r3, r7, #17408
 637 00f6 03F15E03 		add	r3, r3, #94
 638 00fa 1B78     		ldrb	r3, [r3]	@ zero_extendqisi2
 639 00fc 1846     		mov	r0, r3
 640 00fe FFF7FEFF 		bl	motor_control_generic
 346:..\src/interruptions.c ****                     
 347:..\src/interruptions.c ****                 drive_slave(SECOND_MOTOR_IDX, c_mem.MS.slave_ID); // Send reference to the SH calli
 641              		.loc 1 347 0
 642 0102 7D4B     		ldr	r3, .L63+20
 643 0104 93F8C122 		ldrb	r2, [r3, #705]	@ zero_extendqisi2
 644 0108 07F58843 		add	r3, r7, #17408
 645 010c 03F15E03 		add	r3, r3, #94
 646 0110 1B78     		ldrb	r3, [r3]	@ zero_extendqisi2
 647 0112 1146     		mov	r1, r2
 648 0114 1846     		mov	r0, r3
 649 0116 FFF7FEFF 		bl	drive_slave
 348:..\src/interruptions.c ****                     
 349:..\src/interruptions.c ****                 if (interrupt_flag){
 650              		.loc 1 349 0
 651 011a 734B     		ldr	r3, .L63+4
 652 011c 1B78     		ldrb	r3, [r3]	@ zero_extendqisi2
 653 011e 002B     		cmp	r3, #0
 654 0120 14D0     		beq	.L44
 350:..\src/interruptions.c ****                     interrupt_flag = FALSE;
 655              		.loc 1 350 0
 656 0122 714B     		ldr	r3, .L63+4
 657 0124 0022     		movs	r2, #0
 658 0126 1A70     		strb	r2, [r3]
 351:..\src/interruptions.c ****                     interrupt_manager();
 659              		.loc 1 351 0
 660 0128 FFF7FEFF 		bl	interrupt_manager
 661 012c 0EE0     		b	.L44
 662              	.L39:
 352:..\src/interruptions.c ****                 }
 353:..\src/interruptions.c ****             }
 354:..\src/interruptions.c ****             
 355:..\src/interruptions.c ****            
 356:..\src/interruptions.c ****             else {
 357:..\src/interruptions.c ****                 
 358:..\src/interruptions.c ****                 LED_CTRL_Write(0);
 663              		.loc 1 358 0
 664 012e 0020     		movs	r0, #0
ARM GAS  C:\Users\mgnocco\AppData\Local\Temp\ccM9DEjH.s 			page 19


 665 0130 FFF7FEFF 		bl	LED_CTRL_Write
 359:..\src/interruptions.c ****                 BLINK_CTRL_EN_Write(0);
 666              		.loc 1 359 0
 667 0134 0020     		movs	r0, #0
 668 0136 FFF7FEFF 		bl	BLINK_CTRL_EN_Write
 360:..\src/interruptions.c ****                     
 361:..\src/interruptions.c ****                 // Check Interrupt 
 362:..\src/interruptions.c ****                 if (interrupt_flag){
 669              		.loc 1 362 0
 670 013a 6B4B     		ldr	r3, .L63+4
 671 013c 1B78     		ldrb	r3, [r3]	@ zero_extendqisi2
 672 013e 002B     		cmp	r3, #0
 673 0140 04D0     		beq	.L44
 363:..\src/interruptions.c ****                     interrupt_flag = FALSE;
 674              		.loc 1 363 0
 675 0142 694B     		ldr	r3, .L63+4
 676 0144 0022     		movs	r2, #0
 677 0146 1A70     		strb	r2, [r3]
 364:..\src/interruptions.c ****                     interrupt_manager();
 678              		.loc 1 364 0
 679 0148 FFF7FEFF 		bl	interrupt_manager
 680              	.L44:
 365:..\src/interruptions.c ****                 } 
 366:..\src/interruptions.c ****             }
 367:..\src/interruptions.c ****             
 368:..\src/interruptions.c ****             //motor_control_generic(MOTOR_IDX);  // Compute references and drive air pump
 369:..\src/interruptions.c ****     
 370:..\src/interruptions.c ****             if (interrupt_flag){
 681              		.loc 1 370 0
 682 014c 664B     		ldr	r3, .L63+4
 683 014e 1B78     		ldrb	r3, [r3]	@ zero_extendqisi2
 684 0150 002B     		cmp	r3, #0
 685 0152 04D0     		beq	.L45
 371:..\src/interruptions.c ****                 interrupt_flag = FALSE;
 686              		.loc 1 371 0
 687 0154 644B     		ldr	r3, .L63+4
 688 0156 0022     		movs	r2, #0
 689 0158 1A70     		strb	r2, [r3]
 372:..\src/interruptions.c ****                 interrupt_manager();
 690              		.loc 1 372 0
 691 015a FFF7FEFF 		bl	interrupt_manager
 692              	.L45:
 373:..\src/interruptions.c ****             }
 374:..\src/interruptions.c ****            
 375:..\src/interruptions.c ****     //---------------------------------- Read conversion buffer - LOCK function
 376:..\src/interruptions.c **** 
 377:..\src/interruptions.c ****     analog_read_end();
 693              		.loc 1 377 0
 694 015e FFF7FEFF 		bl	analog_read_end
 378:..\src/interruptions.c **** 
 379:..\src/interruptions.c ****     if (interrupt_flag){
 695              		.loc 1 379 0
 696 0162 614B     		ldr	r3, .L63+4
 697 0164 1B78     		ldrb	r3, [r3]	@ zero_extendqisi2
 698 0166 002B     		cmp	r3, #0
 699 0168 04D0     		beq	.L46
 380:..\src/interruptions.c ****         interrupt_flag = FALSE;
ARM GAS  C:\Users\mgnocco\AppData\Local\Temp\ccM9DEjH.s 			page 20


 700              		.loc 1 380 0
 701 016a 5F4B     		ldr	r3, .L63+4
 702 016c 0022     		movs	r2, #0
 703 016e 1A70     		strb	r2, [r3]
 381:..\src/interruptions.c ****         interrupt_manager();
 704              		.loc 1 381 0
 705 0170 FFF7FEFF 		bl	interrupt_manager
 706              	.L46:
 382:..\src/interruptions.c ****     }
 383:..\src/interruptions.c **** 
 384:..\src/interruptions.c ****     //---------------------------------- Control Overcurrent
 385:..\src/interruptions.c **** 
 386:..\src/interruptions.c ****     overcurrent_control();
 707              		.loc 1 386 0
 708 0174 FFF7FEFF 		bl	overcurrent_control
 387:..\src/interruptions.c ****     
 388:..\src/interruptions.c ****     // Check Interrupt 
 389:..\src/interruptions.c ****     
 390:..\src/interruptions.c ****     if (interrupt_flag){
 709              		.loc 1 390 0
 710 0178 5B4B     		ldr	r3, .L63+4
 711 017a 1B78     		ldrb	r3, [r3]	@ zero_extendqisi2
 712 017c 002B     		cmp	r3, #0
 713 017e 04D0     		beq	.L47
 391:..\src/interruptions.c ****         interrupt_flag = FALSE;
 714              		.loc 1 391 0
 715 0180 594B     		ldr	r3, .L63+4
 716 0182 0022     		movs	r2, #0
 717 0184 1A70     		strb	r2, [r3]
 392:..\src/interruptions.c ****         interrupt_manager();
 718              		.loc 1 392 0
 719 0186 FFF7FEFF 		bl	interrupt_manager
 720              	.L47:
 393:..\src/interruptions.c ****     }
 394:..\src/interruptions.c **** 
 395:..\src/interruptions.c ****     //---------------------------------- Calibration 
 396:..\src/interruptions.c **** 
 397:..\src/interruptions.c ****     // Divider 10, freq = 500 Hz
 398:..\src/interruptions.c ****     if (calib.enabled == TRUE) {
 721              		.loc 1 398 0
 722 018a 5C4B     		ldr	r3, .L63+24
 723 018c 1B78     		ldrb	r3, [r3]	@ zero_extendqisi2
 724 018e 012B     		cmp	r3, #1
 725 0190 0ED1     		bne	.L48
 399:..\src/interruptions.c ****         if (counter_calibration == CALIBRATION_DIV) {
 726              		.loc 1 399 0
 727 0192 5B4B     		ldr	r3, .L63+28
 728 0194 1B88     		ldrh	r3, [r3]
 729 0196 0A2B     		cmp	r3, #10
 730 0198 04D1     		bne	.L49
 400:..\src/interruptions.c ****             calibration();
 731              		.loc 1 400 0
 732 019a FFF7FEFF 		bl	calibration
 401:..\src/interruptions.c ****             counter_calibration = 0;
 733              		.loc 1 401 0
 734 019e 584B     		ldr	r3, .L63+28
 735 01a0 0022     		movs	r2, #0
ARM GAS  C:\Users\mgnocco\AppData\Local\Temp\ccM9DEjH.s 			page 21


 736 01a2 1A80     		strh	r2, [r3]	@ movhi
 737              	.L49:
 402:..\src/interruptions.c ****         }
 403:..\src/interruptions.c ****         counter_calibration++;
 738              		.loc 1 403 0
 739 01a4 564B     		ldr	r3, .L63+28
 740 01a6 1B88     		ldrh	r3, [r3]
 741 01a8 0133     		adds	r3, r3, #1
 742 01aa 9AB2     		uxth	r2, r3
 743 01ac 544B     		ldr	r3, .L63+28
 744 01ae 1A80     		strh	r2, [r3]	@ movhi
 745              	.L48:
 404:..\src/interruptions.c ****     }
 405:..\src/interruptions.c **** 
 406:..\src/interruptions.c ****     // Check Interrupt 
 407:..\src/interruptions.c ****     
 408:..\src/interruptions.c ****     if (interrupt_flag){
 746              		.loc 1 408 0
 747 01b0 4D4B     		ldr	r3, .L63+4
 748 01b2 1B78     		ldrb	r3, [r3]	@ zero_extendqisi2
 749 01b4 002B     		cmp	r3, #0
 750 01b6 04D0     		beq	.L50
 409:..\src/interruptions.c ****         interrupt_flag = FALSE;
 751              		.loc 1 409 0
 752 01b8 4B4B     		ldr	r3, .L63+4
 753 01ba 0022     		movs	r2, #0
 754 01bc 1A70     		strb	r2, [r3]
 410:..\src/interruptions.c ****         interrupt_manager();
 755              		.loc 1 410 0
 756 01be FFF7FEFF 		bl	interrupt_manager
 757              	.L50:
 411:..\src/interruptions.c ****     }
 412:..\src/interruptions.c ****     
 413:..\src/interruptions.c **** 
 414:..\src/interruptions.c ****     
 415:..\src/interruptions.c ****      
 416:..\src/interruptions.c ****     //---------------------------------- EMG history Update
 417:..\src/interruptions.c ****     if (c_mem.exp.record_EMG_history_on_SD){
 758              		.loc 1 417 0
 759 01c2 4D4B     		ldr	r3, .L63+20
 760 01c4 93F83432 		ldrb	r3, [r3, #564]	@ zero_extendqisi2
 761 01c8 002B     		cmp	r3, #0
 762 01ca 0AD0     		beq	.L51
 418:..\src/interruptions.c ****         
 419:..\src/interruptions.c ****         update_EMG_history();
 763              		.loc 1 419 0
 764 01cc FFF7FEFF 		bl	update_EMG_history
 420:..\src/interruptions.c **** 
 421:..\src/interruptions.c ****         // Check Interrupt 
 422:..\src/interruptions.c **** 
 423:..\src/interruptions.c ****         if (interrupt_flag){
 765              		.loc 1 423 0
 766 01d0 454B     		ldr	r3, .L63+4
 767 01d2 1B78     		ldrb	r3, [r3]	@ zero_extendqisi2
 768 01d4 002B     		cmp	r3, #0
 769 01d6 04D0     		beq	.L51
 424:..\src/interruptions.c ****             interrupt_flag = FALSE;
ARM GAS  C:\Users\mgnocco\AppData\Local\Temp\ccM9DEjH.s 			page 22


 770              		.loc 1 424 0
 771 01d8 434B     		ldr	r3, .L63+4
 772 01da 0022     		movs	r2, #0
 773 01dc 1A70     		strb	r2, [r3]
 425:..\src/interruptions.c ****             interrupt_manager();
 774              		.loc 1 425 0
 775 01de FFF7FEFF 		bl	interrupt_manager
 776              	.L51:
 426:..\src/interruptions.c ****         }
 427:..\src/interruptions.c ****     }
 428:..\src/interruptions.c **** 
 429:..\src/interruptions.c ****     
 430:..\src/interruptions.c ****     //---------------------------------- Control Cycles Counter
 431:..\src/interruptions.c **** 
 432:..\src/interruptions.c ****     if (pos_reconstruct[c_mem.motor[0].encoder_line]){      // Once Motor 0 encoder line reading is
 777              		.loc 1 432 0
 778 01e2 454B     		ldr	r3, .L63+20
 779 01e4 93F81031 		ldrb	r3, [r3, #272]	@ zero_extendqisi2
 780 01e8 1A46     		mov	r2, r3
 781 01ea 464B     		ldr	r3, .L63+32
 782 01ec 9B5C     		ldrb	r3, [r3, r2]	@ zero_extendqisi2
 783 01ee 002B     		cmp	r3, #0
 784 01f0 01D0     		beq	.L52
 433:..\src/interruptions.c ****         cycles_counter_update();                            // Need at least one encoder to work
 785              		.loc 1 433 0
 786 01f2 FFF7FEFF 		bl	cycles_counter_update
 787              	.L52:
 434:..\src/interruptions.c ****     }
 435:..\src/interruptions.c **** 
 436:..\src/interruptions.c ****     // Check Cycles Interrupt 
 437:..\src/interruptions.c ****     
 438:..\src/interruptions.c ****     if (cycles_interrupt_flag){
 788              		.loc 1 438 0
 789 01f6 444B     		ldr	r3, .L63+36
 790 01f8 1B78     		ldrb	r3, [r3]	@ zero_extendqisi2
 791 01fa 002B     		cmp	r3, #0
 792 01fc 00F0A180 		beq	.L53
 439:..\src/interruptions.c ****         cycles_interrupt_flag = FALSE;
 793              		.loc 1 439 0
 794 0200 414B     		ldr	r3, .L63+36
 795 0202 0022     		movs	r2, #0
 796 0204 1A70     		strb	r2, [r3]
 440:..\src/interruptions.c **** 
 441:..\src/interruptions.c ****         // Cycles are written only every 120 seconds (CYCLES_TIMER interrupt)
 442:..\src/interruptions.c ****         // to save EEPROM writings (1M maximum)
 443:..\src/interruptions.c ****         if(can_write) {
 797              		.loc 1 443 0
 798 0206 414B     		ldr	r3, .L63+40
 799 0208 1B78     		ldrb	r3, [r3]	@ zero_extendqisi2
 800 020a 002B     		cmp	r3, #0
 801 020c 54D0     		beq	.L54
 444:..\src/interruptions.c ****             cycles_status = PREPARE_DATA;
 802              		.loc 1 444 0
 803 020e 404B     		ldr	r3, .L63+44
 804 0210 0022     		movs	r2, #0
 805 0212 1A70     		strb	r2, [r3]
 445:..\src/interruptions.c ****             
ARM GAS  C:\Users\mgnocco\AppData\Local\Temp\ccM9DEjH.s 			page 23


 446:..\src/interruptions.c ****             //Update time variable
 447:..\src/interruptions.c ****             g_mem.cnt.total_runtime = g_mem.cnt.total_runtime + 120;  // Add 120 seconds.
 806              		.loc 1 447 0
 807 0214 354B     		ldr	r3, .L63+8
 808 0216 9B6D     		ldr	r3, [r3, #88]
 809 0218 7833     		adds	r3, r3, #120
 810 021a 344A     		ldr	r2, .L63+8
 811 021c 9365     		str	r3, [r2, #88]
 448:..\src/interruptions.c ****             
 449:..\src/interruptions.c ****             if (c_mem.exp.read_exp_port_flag == EXP_SD_RTC) {
 812              		.loc 1 449 0
 813 021e 364B     		ldr	r3, .L63+20
 814 0220 93F82632 		ldrb	r3, [r3, #550]	@ zero_extendqisi2
 815 0224 012B     		cmp	r3, #1
 816 0226 47D1     		bne	.L54
 450:..\src/interruptions.c ****                 
 451:..\src/interruptions.c ****                 store_RTC_current_time();
 817              		.loc 1 451 0
 818 0228 FFF7FEFF 		bl	store_RTC_current_time
 452:..\src/interruptions.c ****                 
 453:..\src/interruptions.c ****                 //Write in SD card
 454:..\src/interruptions.c ****                 prepare_SD_info(info_);
 819              		.loc 1 454 0
 820 022c 07F56A53 		add	r3, r7, #14976
 821 0230 03F11803 		add	r3, r3, #24
 822 0234 1846     		mov	r0, r3
 823 0236 FFF7FEFF 		bl	prepare_SD_info
 455:..\src/interruptions.c ****                 FS_Write(pFile, info_, strlen(info_));
 824              		.loc 1 455 0
 825 023a 364B     		ldr	r3, .L63+48
 826 023c 1C68     		ldr	r4, [r3]
 827 023e 07F56A53 		add	r3, r7, #14976
 828 0242 03F11803 		add	r3, r3, #24
 829 0246 1846     		mov	r0, r3
 830 0248 FFF7FEFF 		bl	strlen
 831 024c 0246     		mov	r2, r0
 832 024e 07F56A53 		add	r3, r7, #14976
 833 0252 03F11803 		add	r3, r3, #24
 834 0256 1946     		mov	r1, r3
 835 0258 2046     		mov	r0, r4
 836 025a FFF7FEFF 		bl	FS_Write
 456:..\src/interruptions.c ****                 
 457:..\src/interruptions.c ****                 if (c_mem.exp.record_EMG_history_on_SD){
 837              		.loc 1 457 0
 838 025e 264B     		ldr	r3, .L63+20
 839 0260 93F83432 		ldrb	r3, [r3, #564]	@ zero_extendqisi2
 840 0264 002B     		cmp	r3, #0
 841 0266 27D0     		beq	.L54
 842              	.LBB2:
 458:..\src/interruptions.c ****                     char EMG_history_info_[15000] = "";
 843              		.loc 1 458 0
 844 0268 07F16003 		add	r3, r7, #96
 845 026c 603B     		subs	r3, r3, #96
 846 026e 0022     		movs	r2, #0
 847 0270 1A60     		str	r2, [r3]
 848 0272 0433     		adds	r3, r3, #4
 849 0274 43F69422 		movw	r2, #14996
ARM GAS  C:\Users\mgnocco\AppData\Local\Temp\ccM9DEjH.s 			page 24


 850 0278 0021     		movs	r1, #0
 851 027a 1846     		mov	r0, r3
 852 027c FFF7FEFF 		bl	memset
 459:..\src/interruptions.c ****                     strcpy(EMG_history_info_, "");
 853              		.loc 1 459 0
 854 0280 254B     		ldr	r3, .L63+52
 855 0282 1A78     		ldrb	r2, [r3]	@ zero_extendqisi2
 856 0284 07F16003 		add	r3, r7, #96
 857 0288 603B     		subs	r3, r3, #96
 858 028a 1A70     		strb	r2, [r3]
 460:..\src/interruptions.c ****                     prepare_SD_EMG_history(EMG_history_info_);
 859              		.loc 1 460 0
 860 028c 07F16003 		add	r3, r7, #96
 861 0290 603B     		subs	r3, r3, #96
 862 0292 1846     		mov	r0, r3
 863 0294 FFF7FEFF 		bl	prepare_SD_EMG_history
 461:..\src/interruptions.c ****                     FS_Write(pEMGHFile, EMG_history_info_, strlen(EMG_history_info_));
 864              		.loc 1 461 0
 865 0298 204B     		ldr	r3, .L63+56
 866 029a 1C68     		ldr	r4, [r3]
 867 029c 07F16003 		add	r3, r7, #96
 868 02a0 603B     		subs	r3, r3, #96
 869 02a2 1846     		mov	r0, r3
 870 02a4 FFF7FEFF 		bl	strlen
 871 02a8 0246     		mov	r2, r0
 872 02aa 07F16003 		add	r3, r7, #96
 873 02ae 603B     		subs	r3, r3, #96
 874 02b0 1946     		mov	r1, r3
 875 02b2 2046     		mov	r0, r4
 876 02b4 FFF7FEFF 		bl	FS_Write
 877              	.L54:
 878              	.LBE2:
 462:..\src/interruptions.c ****                 }
 463:..\src/interruptions.c ****             }
 464:..\src/interruptions.c ****         }
 465:..\src/interruptions.c ****         
 466:..\src/interruptions.c ****         // Deactivate the motor just for the time data are written in the EEPROM
 467:..\src/interruptions.c ****         if (cycles_status == WRITE_CYCLES || cycles_status == WAIT_QUERY){
 879              		.loc 1 467 0
 880 02b8 154B     		ldr	r3, .L63+44
 881 02ba 1B78     		ldrb	r3, [r3]	@ zero_extendqisi2
 882 02bc 012B     		cmp	r3, #1
 883 02be 03D0     		beq	.L55
 884              		.loc 1 467 0 is_stmt 0 discriminator 1
 885 02c0 134B     		ldr	r3, .L63+44
 886 02c2 1B78     		ldrb	r3, [r3]	@ zero_extendqisi2
 887 02c4 022B     		cmp	r3, #2
 888 02c6 2BD1     		bne	.L56
 889              	.L55:
 468:..\src/interruptions.c ****             // Deactivate motors
 469:..\src/interruptions.c ****             enable_motor(0, 0x00); 
 890              		.loc 1 469 0 is_stmt 1
 891 02c8 0021     		movs	r1, #0
 892 02ca 0020     		movs	r0, #0
 893 02cc FFF7FEFF 		bl	enable_motor
 470:..\src/interruptions.c ****             if (g_mem.dev.use_2nd_motor_flag == TRUE) {
 894              		.loc 1 470 0
ARM GAS  C:\Users\mgnocco\AppData\Local\Temp\ccM9DEjH.s 			page 25


 895 02d0 064B     		ldr	r3, .L63+8
 896 02d2 93F8A930 		ldrb	r3, [r3, #169]	@ zero_extendqisi2
 897 02d6 012B     		cmp	r3, #1
 898 02d8 33D1     		bne	.L53
 471:..\src/interruptions.c ****                 enable_motor(1, 0x00); 
 899              		.loc 1 471 0
 900 02da 0021     		movs	r1, #0
 901 02dc 0120     		movs	r0, #1
 902 02de FFF7FEFF 		bl	enable_motor
 470:..\src/interruptions.c ****             if (g_mem.dev.use_2nd_motor_flag == TRUE) {
 903              		.loc 1 470 0
 904 02e2 2EE0     		b	.L53
 905              	.L64:
 906              		.align	2
 907              	.L63:
 908 02e4 00000000 		.word	timer_value0
 909 02e8 00000000 		.word	interrupt_flag
 910 02ec 00000000 		.word	g_mem
 911 02f0 00000000 		.word	flag_master
 912 02f4 00000000 		.word	master_mode
 913 02f8 00000000 		.word	c_mem
 914 02fc 00000000 		.word	calib
 915 0300 00000000 		.word	counter_calibration.10245
 916 0304 00000000 		.word	pos_reconstruct
 917 0308 00000000 		.word	cycles_interrupt_flag
 918 030c 00000000 		.word	can_write
 919 0310 00000000 		.word	cycles_status
 920 0314 00000000 		.word	pFile
 921 0318 20000000 		.word	.LC0
 922 031c 00000000 		.word	pEMGHFile
 923              	.L56:
 472:..\src/interruptions.c ****             }
 473:..\src/interruptions.c ****         }
 474:..\src/interruptions.c ****         else {
 475:..\src/interruptions.c ****             // Activate/Deactivate motors
 476:..\src/interruptions.c ****             enable_motor(0, g_ref[0].onoff); 
 924              		.loc 1 476 0
 925 0320 4D4B     		ldr	r3, .L65
 926 0322 1B7B     		ldrb	r3, [r3, #12]	@ zero_extendqisi2
 927 0324 1946     		mov	r1, r3
 928 0326 0020     		movs	r0, #0
 929 0328 FFF7FEFF 		bl	enable_motor
 477:..\src/interruptions.c ****             if (g_mem.dev.use_2nd_motor_flag == TRUE) {
 930              		.loc 1 477 0
 931 032c 4B4B     		ldr	r3, .L65+4
 932 032e 93F8A930 		ldrb	r3, [r3, #169]	@ zero_extendqisi2
 933 0332 012B     		cmp	r3, #1
 934 0334 05D1     		bne	.L53
 478:..\src/interruptions.c ****                 enable_motor(1, g_ref[1].onoff); 
 935              		.loc 1 478 0
 936 0336 484B     		ldr	r3, .L65
 937 0338 1B7F     		ldrb	r3, [r3, #28]	@ zero_extendqisi2
 938 033a 1946     		mov	r1, r3
 939 033c 0120     		movs	r0, #1
 940 033e FFF7FEFF 		bl	enable_motor
 941              	.L53:
 479:..\src/interruptions.c ****             }
ARM GAS  C:\Users\mgnocco\AppData\Local\Temp\ccM9DEjH.s 			page 26


 480:..\src/interruptions.c ****         }
 481:..\src/interruptions.c ****     }
 482:..\src/interruptions.c ****     
 483:..\src/interruptions.c ****     // Check Interrupt 
 484:..\src/interruptions.c ****     
 485:..\src/interruptions.c ****     if (interrupt_flag){
 942              		.loc 1 485 0
 943 0342 474B     		ldr	r3, .L65+8
 944 0344 1B78     		ldrb	r3, [r3]	@ zero_extendqisi2
 945 0346 002B     		cmp	r3, #0
 946 0348 04D0     		beq	.L58
 486:..\src/interruptions.c ****         interrupt_flag = FALSE;
 947              		.loc 1 486 0
 948 034a 454B     		ldr	r3, .L65+8
 949 034c 0022     		movs	r2, #0
 950 034e 1A70     		strb	r2, [r3]
 487:..\src/interruptions.c ****         interrupt_manager();
 951              		.loc 1 487 0
 952 0350 FFF7FEFF 		bl	interrupt_manager
 953              	.L58:
 488:..\src/interruptions.c ****     }
 489:..\src/interruptions.c ****     
 490:..\src/interruptions.c ****     
 491:..\src/interruptions.c ****     //---------------------------------- Check battery
 492:..\src/interruptions.c **** 
 493:..\src/interruptions.c ****     // Divider 10, freq = 500 Hz
 494:..\src/interruptions.c ****     if (counter_tension_func == CALIBRATION_DIV) {
 954              		.loc 1 494 0
 955 0354 434B     		ldr	r3, .L65+12
 956 0356 1B88     		ldrh	r3, [r3]
 957 0358 0A2B     		cmp	r3, #10
 958 035a 04D1     		bne	.L59
 495:..\src/interruptions.c ****         battery_management();   
 959              		.loc 1 495 0
 960 035c FFF7FEFF 		bl	battery_management
 496:..\src/interruptions.c ****         counter_tension_func = 0;
 961              		.loc 1 496 0
 962 0360 404B     		ldr	r3, .L65+12
 963 0362 0022     		movs	r2, #0
 964 0364 1A80     		strh	r2, [r3]	@ movhi
 965              	.L59:
 497:..\src/interruptions.c ****     }
 498:..\src/interruptions.c ****     counter_tension_func++;
 966              		.loc 1 498 0
 967 0366 3F4B     		ldr	r3, .L65+12
 968 0368 1B88     		ldrh	r3, [r3]
 969 036a 0133     		adds	r3, r3, #1
 970 036c 9AB2     		uxth	r2, r3
 971 036e 3D4B     		ldr	r3, .L65+12
 972 0370 1A80     		strh	r2, [r3]	@ movhi
 499:..\src/interruptions.c **** 
 500:..\src/interruptions.c ****     // Check Interrupt 
 501:..\src/interruptions.c ****     
 502:..\src/interruptions.c ****     if (interrupt_flag){
 973              		.loc 1 502 0
 974 0372 3B4B     		ldr	r3, .L65+8
 975 0374 1B78     		ldrb	r3, [r3]	@ zero_extendqisi2
ARM GAS  C:\Users\mgnocco\AppData\Local\Temp\ccM9DEjH.s 			page 27


 976 0376 002B     		cmp	r3, #0
 977 0378 04D0     		beq	.L60
 503:..\src/interruptions.c ****         interrupt_flag = FALSE;
 978              		.loc 1 503 0
 979 037a 394B     		ldr	r3, .L65+8
 980 037c 0022     		movs	r2, #0
 981 037e 1A70     		strb	r2, [r3]
 504:..\src/interruptions.c ****         interrupt_manager();
 982              		.loc 1 504 0
 983 0380 FFF7FEFF 		bl	interrupt_manager
 984              	.L60:
 505:..\src/interruptions.c ****     }
 506:..\src/interruptions.c ****    
 507:..\src/interruptions.c ****     //---------------------------------- Read IMUs
 508:..\src/interruptions.c ****     if (c_mem.imu.read_imu_flag) {
 985              		.loc 1 508 0
 986 0384 384B     		ldr	r3, .L65+16
 987 0386 93F80032 		ldrb	r3, [r3, #512]	@ zero_extendqisi2
 988 038a 002B     		cmp	r3, #0
 989 038c 0AD0     		beq	.L61
 509:..\src/interruptions.c ****         ReadAllIMUs();      // IMU reading is atomic, no RS485 request is handled
 990              		.loc 1 509 0
 991 038e FFF7FEFF 		bl	ReadAllIMUs
 510:..\src/interruptions.c ****         
 511:..\src/interruptions.c ****         if (interrupt_flag){
 992              		.loc 1 511 0
 993 0392 334B     		ldr	r3, .L65+8
 994 0394 1B78     		ldrb	r3, [r3]	@ zero_extendqisi2
 995 0396 002B     		cmp	r3, #0
 996 0398 04D0     		beq	.L61
 512:..\src/interruptions.c ****             interrupt_flag = FALSE;
 997              		.loc 1 512 0
 998 039a 314B     		ldr	r3, .L65+8
 999 039c 0022     		movs	r2, #0
 1000 039e 1A70     		strb	r2, [r3]
 513:..\src/interruptions.c ****             interrupt_manager();
 1001              		.loc 1 513 0
 1002 03a0 FFF7FEFF 		bl	interrupt_manager
 1003              	.L61:
 514:..\src/interruptions.c ****         }
 515:..\src/interruptions.c ****     }
 516:..\src/interruptions.c ****    
 517:..\src/interruptions.c ****     //---------------------------------- Update States
 518:..\src/interruptions.c ****     
 519:..\src/interruptions.c ****     // Load k-1 state
 520:..\src/interruptions.c ****     memcpy( &g_adc_measOld, &g_adc_meas, sizeof(g_adc_meas) );
 1004              		.loc 1 520 0
 1005 03a4 314A     		ldr	r2, .L65+20
 1006 03a6 324B     		ldr	r3, .L65+24
 1007 03a8 1446     		mov	r4, r2
 1008 03aa 1D46     		mov	r5, r3
 1009 03ac 0FCD     		ldmia	r5!, {r0, r1, r2, r3}
 1010 03ae 0FC4     		stmia	r4!, {r0, r1, r2, r3}
 1011 03b0 0FCD     		ldmia	r5!, {r0, r1, r2, r3}
 1012 03b2 0FC4     		stmia	r4!, {r0, r1, r2, r3}
 1013 03b4 95E80300 		ldmia	r5, {r0, r1}
 1014 03b8 84E80300 		stmia	r4, {r0, r1}
ARM GAS  C:\Users\mgnocco\AppData\Local\Temp\ccM9DEjH.s 			page 28


 521:..\src/interruptions.c ****     memcpy( &g_measOld, &g_meas, sizeof(g_meas) );
 1015              		.loc 1 521 0
 1016 03bc 2D4A     		ldr	r2, .L65+28
 1017 03be 2E4B     		ldr	r3, .L65+32
 1018 03c0 1046     		mov	r0, r2
 1019 03c2 1946     		mov	r1, r3
 1020 03c4 6823     		movs	r3, #104
 1021 03c6 1A46     		mov	r2, r3
 1022 03c8 FFF7FEFF 		bl	memcpy
 522:..\src/interruptions.c ****     memcpy( &g_refOld, &g_ref, sizeof(g_ref) );
 1023              		.loc 1 522 0
 1024 03cc 2B4A     		ldr	r2, .L65+36
 1025 03ce 224B     		ldr	r3, .L65
 1026 03d0 1446     		mov	r4, r2
 1027 03d2 1D46     		mov	r5, r3
 1028 03d4 0FCD     		ldmia	r5!, {r0, r1, r2, r3}
 1029 03d6 0FC4     		stmia	r4!, {r0, r1, r2, r3}
 1030 03d8 95E80F00 		ldmia	r5, {r0, r1, r2, r3}
 1031 03dc 84E80F00 		stmia	r4, {r0, r1, r2, r3}
 523:..\src/interruptions.c **** 
 524:..\src/interruptions.c ****     // Load k+1 state        
 525:..\src/interruptions.c ****     memcpy( &g_ref, &g_refNew, sizeof(g_ref) );
 1032              		.loc 1 525 0
 1033 03e0 1D4A     		ldr	r2, .L65
 1034 03e2 274B     		ldr	r3, .L65+40
 1035 03e4 1446     		mov	r4, r2
 1036 03e6 1D46     		mov	r5, r3
 1037 03e8 0FCD     		ldmia	r5!, {r0, r1, r2, r3}
 1038 03ea 0FC4     		stmia	r4!, {r0, r1, r2, r3}
 1039 03ec 95E80F00 		ldmia	r5, {r0, r1, r2, r3}
 1040 03f0 84E80F00 		stmia	r4, {r0, r1, r2, r3}
 526:..\src/interruptions.c ****     memcpy( &g_imu, &g_imuNew, sizeof(g_imu) );
 1041              		.loc 1 526 0
 1042 03f4 234A     		ldr	r2, .L65+44
 1043 03f6 244B     		ldr	r3, .L65+48
 1044 03f8 1046     		mov	r0, r2
 1045 03fa 1946     		mov	r1, r3
 1046 03fc C823     		movs	r3, #200
 1047 03fe 1A46     		mov	r2, r3
 1048 0400 FFF7FEFF 		bl	memcpy
 527:..\src/interruptions.c ****                     
 528:..\src/interruptions.c ****     if (interrupt_flag){
 1049              		.loc 1 528 0
 1050 0404 164B     		ldr	r3, .L65+8
 1051 0406 1B78     		ldrb	r3, [r3]	@ zero_extendqisi2
 1052 0408 002B     		cmp	r3, #0
 1053 040a 04D0     		beq	.L62
 529:..\src/interruptions.c ****         interrupt_flag = FALSE;
 1054              		.loc 1 529 0
 1055 040c 144B     		ldr	r3, .L65+8
 1056 040e 0022     		movs	r2, #0
 1057 0410 1A70     		strb	r2, [r3]
 530:..\src/interruptions.c ****         interrupt_manager();
 1058              		.loc 1 530 0
 1059 0412 FFF7FEFF 		bl	interrupt_manager
 1060              	.L62:
 531:..\src/interruptions.c ****     }
ARM GAS  C:\Users\mgnocco\AppData\Local\Temp\ccM9DEjH.s 			page 29


 532:..\src/interruptions.c **** 
 533:..\src/interruptions.c ****     timer_value = (uint16)MY_TIMER_ReadCounter();
 1061              		.loc 1 533 0
 1062 0416 FFF7FEFF 		bl	MY_TIMER_ReadCounter
 1063 041a 0346     		mov	r3, r0
 1064 041c 1A46     		mov	r2, r3
 1065 041e 1B4B     		ldr	r3, .L65+52
 1066 0420 1A80     		strh	r2, [r3]	@ movhi
 534:..\src/interruptions.c ****     cycle_time = ((float)(timer_value0 - timer_value)/1000000.0);
 1067              		.loc 1 534 0
 1068 0422 1B4B     		ldr	r3, .L65+56
 1069 0424 1B88     		ldrh	r3, [r3]
 1070 0426 1A46     		mov	r2, r3
 1071 0428 184B     		ldr	r3, .L65+52
 1072 042a 1B88     		ldrh	r3, [r3]
 1073 042c D31A     		subs	r3, r2, r3
 1074 042e 1846     		mov	r0, r3
 1075 0430 FFF7FEFF 		bl	__aeabi_i2f
 1076 0434 0346     		mov	r3, r0
 1077 0436 1749     		ldr	r1, .L65+60
 1078 0438 1846     		mov	r0, r3
 1079 043a FFF7FEFF 		bl	__aeabi_fdiv
 1080 043e 0346     		mov	r3, r0
 1081 0440 1A46     		mov	r2, r3
 1082 0442 154B     		ldr	r3, .L65+64
 1083 0444 1A60     		str	r2, [r3]	@ float
 535:..\src/interruptions.c ****     MY_TIMER_REG_Write(0x01);   // reset timer
 1084              		.loc 1 535 0
 1085 0446 0120     		movs	r0, #1
 1086 0448 FFF7FEFF 		bl	MY_TIMER_REG_Write
 536:..\src/interruptions.c **** 
 537:..\src/interruptions.c **** }
 1087              		.loc 1 537 0
 1088 044c 00BF     		nop
 1089 044e 07F58847 		add	r7, r7, #17408
 1090 0452 6037     		adds	r7, r7, #96
 1091              		.cfi_def_cfa_offset 16
 1092 0454 BD46     		mov	sp, r7
 1093              		.cfi_def_cfa_register 13
 1094              		@ sp needed
 1095 0456 B0BD     		pop	{r4, r5, r7, pc}
 1096              	.L66:
 1097              		.align	2
 1098              	.L65:
 1099 0458 00000000 		.word	g_ref
 1100 045c 00000000 		.word	g_mem
 1101 0460 00000000 		.word	interrupt_flag
 1102 0464 02000000 		.word	counter_tension_func.10246
 1103 0468 00000000 		.word	c_mem
 1104 046c 00000000 		.word	g_adc_measOld
 1105 0470 00000000 		.word	g_adc_meas
 1106 0474 00000000 		.word	g_measOld
 1107 0478 00000000 		.word	g_meas
 1108 047c 00000000 		.word	g_refOld
 1109 0480 00000000 		.word	g_refNew
 1110 0484 00000000 		.word	g_imu
 1111 0488 00000000 		.word	g_imuNew
ARM GAS  C:\Users\mgnocco\AppData\Local\Temp\ccM9DEjH.s 			page 30


 1112 048c 00000000 		.word	timer_value
 1113 0490 00000000 		.word	timer_value0
 1114 0494 00247449 		.word	1232348160
 1115 0498 00000000 		.word	cycle_time
 1116              		.cfi_endproc
 1117              	.LFE67:
 1118              		.size	function_scheduler, .-function_scheduler
 1119              		.section	.text.compute_reference,"ax",%progbits
 1120              		.align	2
 1121              		.global	compute_reference
 1122              		.thumb
 1123              		.thumb_func
 1124              		.type	compute_reference, %function
 1125              	compute_reference:
 1126              	.LFB68:
 538:..\src/interruptions.c **** 
 539:..\src/interruptions.c **** //==============================================================================
 540:..\src/interruptions.c **** //                                                       COMPUTE MOTOR REFERENCE
 541:..\src/interruptions.c **** //==============================================================================
 542:..\src/interruptions.c **** void compute_reference(uint8 motor_idx, struct st_ref* st_ref_p, struct st_ref* st_refOld_p) {
 1127              		.loc 1 542 0
 1128              		.cfi_startproc
 1129              		@ args = 0, pretend = 0, frame = 40
 1130              		@ frame_needed = 1, uses_anonymous_args = 0
 1131 0000 80B5     		push	{r7, lr}
 1132              		.cfi_def_cfa_offset 8
 1133              		.cfi_offset 7, -8
 1134              		.cfi_offset 14, -4
 1135 0002 8CB0     		sub	sp, sp, #48
 1136              		.cfi_def_cfa_offset 56
 1137 0004 02AF     		add	r7, sp, #8
 1138              		.cfi_def_cfa 7, 48
 1139 0006 0346     		mov	r3, r0
 1140 0008 B960     		str	r1, [r7, #8]
 1141 000a 7A60     		str	r2, [r7, #4]
 1142 000c FB73     		strb	r3, [r7, #15]
 543:..\src/interruptions.c ****     
 544:..\src/interruptions.c ****     int32 CYDATA handle_value;
 545:..\src/interruptions.c ****     int32 CYDATA err_emg_1, err_emg_2;
 546:..\src/interruptions.c ****     struct st_motor* MOT = &c_mem.motor[motor_idx];      // SoftHand default motor
 1143              		.loc 1 546 0
 1144 000e FA7B     		ldrb	r2, [r7, #15]	@ zero_extendqisi2
 1145 0010 1346     		mov	r3, r2
 1146 0012 DB00     		lsls	r3, r3, #3
 1147 0014 9B1A     		subs	r3, r3, r2
 1148 0016 1B01     		lsls	r3, r3, #4
 1149 0018 B033     		adds	r3, r3, #176
 1150 001a A74A     		ldr	r2, .L131
 1151 001c 1344     		add	r3, r3, r2
 1152 001e 3B62     		str	r3, [r7, #32]
 547:..\src/interruptions.c ****     uint8 ENC_L = MOT->encoder_line;          // Associated encoder line
 1153              		.loc 1 547 0
 1154 0020 3B6A     		ldr	r3, [r7, #32]
 1155 0022 93F86030 		ldrb	r3, [r3, #96]
 1156 0026 FB77     		strb	r3, [r7, #31]
 548:..\src/interruptions.c ****     
 549:..\src/interruptions.c ****     static uint8 current_emg[NUM_OF_MOTORS] = {0, 0};   // 0 NONE
ARM GAS  C:\Users\mgnocco\AppData\Local\Temp\ccM9DEjH.s 			page 31


 550:..\src/interruptions.c ****                                                         // 1 EMG 1
 551:..\src/interruptions.c ****                                                         // 2 EMG 2
 552:..\src/interruptions.c ****                                                         // wait for both to get down
 553:..\src/interruptions.c ****     
 554:..\src/interruptions.c ****     err_emg_1 = g_adc_meas.emg[0] - c_mem.emg.emg_threshold[0];
 1157              		.loc 1 554 0
 1158 0028 A44B     		ldr	r3, .L131+4
 1159 002a 1B68     		ldr	r3, [r3]
 1160 002c A24A     		ldr	r2, .L131
 1161 002e B2F8F021 		ldrh	r2, [r2, #496]
 1162 0032 9B1A     		subs	r3, r3, r2
 1163 0034 BB61     		str	r3, [r7, #24]
 555:..\src/interruptions.c ****     err_emg_2 = g_adc_meas.emg[1] - c_mem.emg.emg_threshold[1];
 1164              		.loc 1 555 0
 1165 0036 A14B     		ldr	r3, .L131+4
 1166 0038 5B68     		ldr	r3, [r3, #4]
 1167 003a 9F4A     		ldr	r2, .L131
 1168 003c B2F8F221 		ldrh	r2, [r2, #498]
 1169 0040 9B1A     		subs	r3, r3, r2
 1170 0042 7B61     		str	r3, [r7, #20]
 556:..\src/interruptions.c ****     
 557:..\src/interruptions.c ****      // =========================== POSITION INPUT ==============================            
 558:..\src/interruptions.c ****     switch(MOT->input_mode) {
 1171              		.loc 1 558 0
 1172 0044 3B6A     		ldr	r3, [r7, #32]
 1173 0046 93F85E30 		ldrb	r3, [r3, #94]	@ zero_extendqisi2
 1174 004a 013B     		subs	r3, r3, #1
 1175 004c 062B     		cmp	r3, #6
 1176 004e 00F25182 		bhi	.L123
 1177 0052 01A2     		adr	r2, .L70
 1178 0054 52F823F0 		ldr	pc, [r2, r3, lsl #2]
 1179              		.p2align 2
 1180              	.L70:
 1181 0058 75000000 		.word	.L69+1
 1182 005c 21020000 		.word	.L71+1
 1183 0060 C9020000 		.word	.L72+1
 1184 0064 31030000 		.word	.L73+1
 1185 0068 11040000 		.word	.L74+1
 1186 006c 4D010000 		.word	.L75+1
 1187 0070 5B020000 		.word	.L76+1
 1188              		.p2align 1
 1189              	.L69:
 559:..\src/interruptions.c ****         case INPUT_MODE_ENCODER3:
 560:..\src/interruptions.c **** 
 561:..\src/interruptions.c ****             // Calculate handle value based on position of handle in the
 562:..\src/interruptions.c ****             // sensor chain and multiplication factor between handle and motor position
 563:..\src/interruptions.c ****             if (c_mem.enc[ENC_L].double_encoder_on_off) 
 1190              		.loc 1 563 0
 1191 0074 FA7F     		ldrb	r2, [r7, #31]	@ zero_extendqisi2
 1192 0076 9049     		ldr	r1, .L131
 1193 0078 1346     		mov	r3, r2
 1194 007a 5B00     		lsls	r3, r3, #1
 1195 007c 1344     		add	r3, r3, r2
 1196 007e 1B01     		lsls	r3, r3, #4
 1197 0080 0B44     		add	r3, r3, r1
 1198 0082 03F5D873 		add	r3, r3, #432
 1199 0086 1B78     		ldrb	r3, [r3]	@ zero_extendqisi2
ARM GAS  C:\Users\mgnocco\AppData\Local\Temp\ccM9DEjH.s 			page 32


 1200 0088 002B     		cmp	r3, #0
 1201 008a 19D0     		beq	.L77
 564:..\src/interruptions.c ****                 handle_value = (g_meas[ENC_L].pos[2] * c_mem.enc[ENC_L].motor_handle_ratio) + MOT->
 1202              		.loc 1 564 0
 1203 008c FB7F     		ldrb	r3, [r7, #31]	@ zero_extendqisi2
 1204 008e 8C4A     		ldr	r2, .L131+8
 1205 0090 3421     		movs	r1, #52
 1206 0092 01FB03F3 		mul	r3, r1, r3
 1207 0096 1344     		add	r3, r3, r2
 1208 0098 0833     		adds	r3, r3, #8
 1209 009a 1968     		ldr	r1, [r3]
 1210 009c FA7F     		ldrb	r2, [r7, #31]	@ zero_extendqisi2
 1211 009e 8648     		ldr	r0, .L131
 1212 00a0 1346     		mov	r3, r2
 1213 00a2 5B00     		lsls	r3, r3, #1
 1214 00a4 1344     		add	r3, r3, r2
 1215 00a6 1B01     		lsls	r3, r3, #4
 1216 00a8 0344     		add	r3, r3, r0
 1217 00aa 03F5DA73 		add	r3, r3, #436
 1218 00ae 93F90030 		ldrsb	r3, [r3]
 1219 00b2 03FB01F2 		mul	r2, r3, r1
 1220 00b6 3B6A     		ldr	r3, [r7, #32]
 1221 00b8 5B6B     		ldr	r3, [r3, #52]
 1222 00ba 1344     		add	r3, r3, r2
 1223 00bc 7B62     		str	r3, [r7, #36]
 1224 00be 18E0     		b	.L78
 1225              	.L77:
 565:..\src/interruptions.c ****             else
 566:..\src/interruptions.c ****                 handle_value = (g_meas[ENC_L].pos[1] * c_mem.enc[ENC_L].motor_handle_ratio) + MOT->
 1226              		.loc 1 566 0
 1227 00c0 FB7F     		ldrb	r3, [r7, #31]	@ zero_extendqisi2
 1228 00c2 7F4A     		ldr	r2, .L131+8
 1229 00c4 3421     		movs	r1, #52
 1230 00c6 01FB03F3 		mul	r3, r1, r3
 1231 00ca 1344     		add	r3, r3, r2
 1232 00cc 0433     		adds	r3, r3, #4
 1233 00ce 1968     		ldr	r1, [r3]
 1234 00d0 FA7F     		ldrb	r2, [r7, #31]	@ zero_extendqisi2
 1235 00d2 7948     		ldr	r0, .L131
 1236 00d4 1346     		mov	r3, r2
 1237 00d6 5B00     		lsls	r3, r3, #1
 1238 00d8 1344     		add	r3, r3, r2
 1239 00da 1B01     		lsls	r3, r3, #4
 1240 00dc 0344     		add	r3, r3, r0
 1241 00de 03F5DA73 		add	r3, r3, #436
 1242 00e2 93F90030 		ldrsb	r3, [r3]
 1243 00e6 03FB01F2 		mul	r2, r3, r1
 1244 00ea 3B6A     		ldr	r3, [r7, #32]
 1245 00ec 5B6B     		ldr	r3, [r3, #52]
 1246 00ee 1344     		add	r3, r3, r2
 1247 00f0 7B62     		str	r3, [r7, #36]
 1248              	.L78:
 567:..\src/interruptions.c ****             
 568:..\src/interruptions.c **** 
 569:..\src/interruptions.c ****             // Read handle and use it as reference for the motor
 570:..\src/interruptions.c ****             if (((handle_value - st_refOld_p->pos) > MOT->max_step_pos) && (MOT->max_step_pos != 0)
 1249              		.loc 1 570 0
ARM GAS  C:\Users\mgnocco\AppData\Local\Temp\ccM9DEjH.s 			page 33


 1250 00f2 7B68     		ldr	r3, [r7, #4]
 1251 00f4 1B68     		ldr	r3, [r3]
 1252 00f6 7A6A     		ldr	r2, [r7, #36]
 1253 00f8 D21A     		subs	r2, r2, r3
 1254 00fa 3B6A     		ldr	r3, [r7, #32]
 1255 00fc 1B6C     		ldr	r3, [r3, #64]
 1256 00fe 9A42     		cmp	r2, r3
 1257 0100 0BDD     		ble	.L79
 1258              		.loc 1 570 0 is_stmt 0 discriminator 1
 1259 0102 3B6A     		ldr	r3, [r7, #32]
 1260 0104 1B6C     		ldr	r3, [r3, #64]
 1261 0106 002B     		cmp	r3, #0
 1262 0108 07D0     		beq	.L79
 571:..\src/interruptions.c ****                 st_ref_p->pos += MOT->max_step_pos;
 1263              		.loc 1 571 0 is_stmt 1
 1264 010a BB68     		ldr	r3, [r7, #8]
 1265 010c 1A68     		ldr	r2, [r3]
 1266 010e 3B6A     		ldr	r3, [r7, #32]
 1267 0110 1B6C     		ldr	r3, [r3, #64]
 1268 0112 1A44     		add	r2, r2, r3
 1269 0114 BB68     		ldr	r3, [r7, #8]
 1270 0116 1A60     		str	r2, [r3]
 1271 0118 17E0     		b	.L80
 1272              	.L79:
 572:..\src/interruptions.c ****             else {
 573:..\src/interruptions.c ****                 if (((handle_value - st_refOld_p->pos) < MOT->max_step_neg) && (MOT->max_step_neg !
 1273              		.loc 1 573 0
 1274 011a 7B68     		ldr	r3, [r7, #4]
 1275 011c 1B68     		ldr	r3, [r3]
 1276 011e 7A6A     		ldr	r2, [r7, #36]
 1277 0120 D21A     		subs	r2, r2, r3
 1278 0122 3B6A     		ldr	r3, [r7, #32]
 1279 0124 DB6B     		ldr	r3, [r3, #60]
 1280 0126 9A42     		cmp	r2, r3
 1281 0128 0BDA     		bge	.L81
 1282              		.loc 1 573 0 is_stmt 0 discriminator 1
 1283 012a 3B6A     		ldr	r3, [r7, #32]
 1284 012c DB6B     		ldr	r3, [r3, #60]
 1285 012e 002B     		cmp	r3, #0
 1286 0130 07D0     		beq	.L81
 574:..\src/interruptions.c ****                     st_ref_p->pos += MOT->max_step_neg;
 1287              		.loc 1 574 0 is_stmt 1
 1288 0132 BB68     		ldr	r3, [r7, #8]
 1289 0134 1A68     		ldr	r2, [r3]
 1290 0136 3B6A     		ldr	r3, [r7, #32]
 1291 0138 DB6B     		ldr	r3, [r3, #60]
 1292 013a 1A44     		add	r2, r2, r3
 1293 013c BB68     		ldr	r3, [r7, #8]
 1294 013e 1A60     		str	r2, [r3]
 1295 0140 03E0     		b	.L80
 1296              	.L81:
 575:..\src/interruptions.c ****                 else
 576:..\src/interruptions.c ****                     st_ref_p->pos = handle_value;
 1297              		.loc 1 576 0
 1298 0142 BB68     		ldr	r3, [r7, #8]
 1299 0144 7A6A     		ldr	r2, [r7, #36]
 1300 0146 1A60     		str	r2, [r3]
ARM GAS  C:\Users\mgnocco\AppData\Local\Temp\ccM9DEjH.s 			page 34


 577:..\src/interruptions.c ****             }
 578:..\src/interruptions.c ****             break;
 1301              		.loc 1 578 0
 1302 0148 DFE1     		b	.L82
 1303              	.L80:
 1304 014a DEE1     		b	.L82
 1305              	.L75:
 579:..\src/interruptions.c ****         
 580:..\src/interruptions.c ****         case INPUT_MODE_JOYSTICK:
 581:..\src/interruptions.c ****             
 582:..\src/interruptions.c ****             if (c_mem.dev.use_2nd_motor_flag == FALSE){
 1306              		.loc 1 582 0
 1307 014c 5A4B     		ldr	r3, .L131
 1308 014e 93F8A930 		ldrb	r3, [r3, #169]	@ zero_extendqisi2
 1309 0152 002B     		cmp	r3, #0
 1310 0154 57D1     		bne	.L83
 583:..\src/interruptions.c ****                 // Code for single motor devices. Use only up/down direction to give speed referenc
 584:..\src/interruptions.c ****                 st_ref_p->pos = st_refOld_p->pos;
 1311              		.loc 1 584 0
 1312 0156 7B68     		ldr	r3, [r7, #4]
 1313 0158 1A68     		ldr	r2, [r3]
 1314 015a BB68     		ldr	r3, [r7, #8]
 1315 015c 1A60     		str	r2, [r3]
 585:..\src/interruptions.c ****                 if(!(g_adc_meas.joystick[0] > 700)) {
 1316              		.loc 1 585 0
 1317 015e 574B     		ldr	r3, .L131+4
 1318 0160 1B6A     		ldr	r3, [r3, #32]
 1319 0162 B3F52F7F 		cmp	r3, #700
 1320 0166 45DC     		bgt	.L84
 1321              	.LBB3:
 586:..\src/interruptions.c ****                     int32 CYDATA err_joy_1 = g_adc_meas.joystick[0] - c_mem.JOY_spec.joystick_thres
 1322              		.loc 1 586 0
 1323 0168 544B     		ldr	r3, .L131+4
 1324 016a 1B6A     		ldr	r3, [r3, #32]
 1325 016c 524A     		ldr	r2, .L131
 1326 016e B2F9B222 		ldrsh	r2, [r2, #690]
 1327 0172 9B1A     		subs	r3, r3, r2
 1328 0174 3B61     		str	r3, [r7, #16]
 587:..\src/interruptions.c **** 
 588:..\src/interruptions.c ****                     if(g_adc_meas.joystick[0] > c_mem.JOY_spec.joystick_threshold) {     //both mot
 1329              		.loc 1 588 0
 1330 0176 514B     		ldr	r3, .L131+4
 1331 0178 1B6A     		ldr	r3, [r3, #32]
 1332 017a 4F4A     		ldr	r2, .L131
 1333 017c B2F9B222 		ldrsh	r2, [r2, #690]
 1334 0180 9342     		cmp	r3, r2
 1335 0182 13DD     		ble	.L85
 589:..\src/interruptions.c ****                         st_ref_p->pos += ((int32) err_joy_1 * c_mem.JOY_spec.joystick_closure_speed
 1336              		.loc 1 589 0
 1337 0184 BB68     		ldr	r3, [r7, #8]
 1338 0186 1A68     		ldr	r2, [r3]
 1339 0188 4B4B     		ldr	r3, .L131
 1340 018a B3F8B032 		ldrh	r3, [r3, #688]
 1341 018e 1946     		mov	r1, r3
 1342 0190 3B69     		ldr	r3, [r7, #16]
 1343 0192 03FB01F1 		mul	r1, r3, r1
 1344 0196 484B     		ldr	r3, .L131
ARM GAS  C:\Users\mgnocco\AppData\Local\Temp\ccM9DEjH.s 			page 35


 1345 0198 B3F9B232 		ldrsh	r3, [r3, #690]
 1346 019c C3F58063 		rsb	r3, r3, #1024
 1347 01a0 91FBF3F3 		sdiv	r3, r1, r3
 1348 01a4 1A44     		add	r2, r2, r3
 1349 01a6 BB68     		ldr	r3, [r7, #8]
 1350 01a8 1A60     		str	r2, [r3]
 1351              	.LBE3:
 590:..\src/interruptions.c ****                     }
 591:..\src/interruptions.c ****                     else {
 592:..\src/interruptions.c ****                         err_joy_1 = g_adc_meas.joystick[0] + c_mem.JOY_spec.joystick_threshold;
 593:..\src/interruptions.c ****                         if(g_adc_meas.joystick[0] < -c_mem.JOY_spec.joystick_threshold) {  //both m
 594:..\src/interruptions.c ****                             st_ref_p->pos += ((int32) err_joy_1 * c_mem.JOY_spec.joystick_closure_s
 595:..\src/interruptions.c ****                         }
 596:..\src/interruptions.c ****                     }
 597:..\src/interruptions.c ****                 }
 598:..\src/interruptions.c ****                 else {  //The button is pressed and the motor reference is gradually set to zero 
 599:..\src/interruptions.c ****                     st_ref_p->pos -= (int32) g_mem.JOY_spec.joystick_closure_speed;
 600:..\src/interruptions.c ****                 }
 601:..\src/interruptions.c ****             }
 602:..\src/interruptions.c ****             else {
 603:..\src/interruptions.c ****                 // Code for two motors devices. Use both direction to give speed references
 604:..\src/interruptions.c ****                 if (c_mem.dev.dev_type == SOFTHAND_2_MOTORS){
 605:..\src/interruptions.c ****                     compute_SoftHand_2_motors_joystick_reference(motor_idx, st_ref_p, st_refOld_p);
 606:..\src/interruptions.c ****                 }
 607:..\src/interruptions.c ****             }
 608:..\src/interruptions.c ****             break;
 1352              		.loc 1 608 0
 1353 01aa A5E1     		b	.L124
 1354              	.L85:
 1355              	.LBB4:
 592:..\src/interruptions.c ****                         if(g_adc_meas.joystick[0] < -c_mem.JOY_spec.joystick_threshold) {  //both m
 1356              		.loc 1 592 0
 1357 01ac 434B     		ldr	r3, .L131+4
 1358 01ae 1B6A     		ldr	r3, [r3, #32]
 1359 01b0 414A     		ldr	r2, .L131
 1360 01b2 B2F9B222 		ldrsh	r2, [r2, #690]
 1361 01b6 1344     		add	r3, r3, r2
 1362 01b8 3B61     		str	r3, [r7, #16]
 593:..\src/interruptions.c ****                             st_ref_p->pos += ((int32) err_joy_1 * c_mem.JOY_spec.joystick_closure_s
 1363              		.loc 1 593 0
 1364 01ba 404B     		ldr	r3, .L131+4
 1365 01bc 1A6A     		ldr	r2, [r3, #32]
 1366 01be 3E4B     		ldr	r3, .L131
 1367 01c0 B3F9B232 		ldrsh	r3, [r3, #690]
 1368 01c4 5B42     		negs	r3, r3
 1369 01c6 9A42     		cmp	r2, r3
 1370 01c8 80F29681 		bge	.L124
 594:..\src/interruptions.c ****                         }
 1371              		.loc 1 594 0
 1372 01cc BB68     		ldr	r3, [r7, #8]
 1373 01ce 1A68     		ldr	r2, [r3]
 1374 01d0 394B     		ldr	r3, .L131
 1375 01d2 B3F8B032 		ldrh	r3, [r3, #688]
 1376 01d6 1946     		mov	r1, r3
 1377 01d8 3B69     		ldr	r3, [r7, #16]
 1378 01da 03FB01F1 		mul	r1, r3, r1
 1379 01de 364B     		ldr	r3, .L131
ARM GAS  C:\Users\mgnocco\AppData\Local\Temp\ccM9DEjH.s 			page 36


 1380 01e0 B3F9B232 		ldrsh	r3, [r3, #690]
 1381 01e4 C3F58063 		rsb	r3, r3, #1024
 1382 01e8 91FBF3F3 		sdiv	r3, r1, r3
 1383 01ec 1A44     		add	r2, r2, r3
 1384 01ee BB68     		ldr	r3, [r7, #8]
 1385 01f0 1A60     		str	r2, [r3]
 1386              	.LBE4:
 1387              		.loc 1 608 0
 1388 01f2 81E1     		b	.L124
 1389              	.L84:
 599:..\src/interruptions.c ****                 }
 1390              		.loc 1 599 0
 1391 01f4 BB68     		ldr	r3, [r7, #8]
 1392 01f6 1B68     		ldr	r3, [r3]
 1393 01f8 324A     		ldr	r2, .L131+12
 1394 01fa B2F8B022 		ldrh	r2, [r2, #688]
 1395 01fe 9A1A     		subs	r2, r3, r2
 1396 0200 BB68     		ldr	r3, [r7, #8]
 1397 0202 1A60     		str	r2, [r3]
 1398              		.loc 1 608 0
 1399 0204 78E1     		b	.L124
 1400              	.L83:
 604:..\src/interruptions.c ****                     compute_SoftHand_2_motors_joystick_reference(motor_idx, st_ref_p, st_refOld_p);
 1401              		.loc 1 604 0
 1402 0206 2C4B     		ldr	r3, .L131
 1403 0208 93F8AC30 		ldrb	r3, [r3, #172]	@ zero_extendqisi2
 1404 020c 042B     		cmp	r3, #4
 1405 020e 40F07381 		bne	.L124
 605:..\src/interruptions.c ****                 }
 1406              		.loc 1 605 0
 1407 0212 FB7B     		ldrb	r3, [r7, #15]	@ zero_extendqisi2
 1408 0214 7A68     		ldr	r2, [r7, #4]
 1409 0216 B968     		ldr	r1, [r7, #8]
 1410 0218 1846     		mov	r0, r3
 1411 021a FFF7FEFF 		bl	compute_SoftHand_2_motors_joystick_reference
 1412              		.loc 1 608 0
 1413 021e 6BE1     		b	.L124
 1414              	.L71:
 609:..\src/interruptions.c ****             
 610:..\src/interruptions.c ****         case INPUT_MODE_EMG_PROPORTIONAL:
 611:..\src/interruptions.c ****             if (err_emg_1 > 0)
 1415              		.loc 1 611 0
 1416 0220 BB69     		ldr	r3, [r7, #24]
 1417 0222 002B     		cmp	r3, #0
 1418 0224 15DD     		ble	.L89
 612:..\src/interruptions.c ****                 st_ref_p->pos = (err_emg_1 * g_mem.motor[motor_idx].pos_lim_sup) / (1024 - c_mem.em
 1419              		.loc 1 612 0
 1420 0226 FA7B     		ldrb	r2, [r7, #15]	@ zero_extendqisi2
 1421 0228 2649     		ldr	r1, .L131+12
 1422 022a 1346     		mov	r3, r2
 1423 022c DB00     		lsls	r3, r3, #3
 1424 022e 9B1A     		subs	r3, r3, r2
 1425 0230 1B01     		lsls	r3, r3, #4
 1426 0232 0B44     		add	r3, r3, r1
 1427 0234 E833     		adds	r3, r3, #232
 1428 0236 1B68     		ldr	r3, [r3]
 1429 0238 BA69     		ldr	r2, [r7, #24]
ARM GAS  C:\Users\mgnocco\AppData\Local\Temp\ccM9DEjH.s 			page 37


 1430 023a 02FB03F2 		mul	r2, r2, r3
 1431 023e 1E4B     		ldr	r3, .L131
 1432 0240 B3F8F031 		ldrh	r3, [r3, #496]
 1433 0244 C3F58063 		rsb	r3, r3, #1024
 1434 0248 92FBF3F2 		sdiv	r2, r2, r3
 1435 024c BB68     		ldr	r3, [r7, #8]
 1436 024e 1A60     		str	r2, [r3]
 613:..\src/interruptions.c ****             else
 614:..\src/interruptions.c ****                 st_ref_p->pos = 0;
 615:..\src/interruptions.c ****             break;
 1437              		.loc 1 615 0
 1438 0250 5BE1     		b	.L82
 1439              	.L89:
 614:..\src/interruptions.c ****             break;
 1440              		.loc 1 614 0
 1441 0252 BB68     		ldr	r3, [r7, #8]
 1442 0254 0022     		movs	r2, #0
 1443 0256 1A60     		str	r2, [r3]
 1444              		.loc 1 615 0
 1445 0258 57E1     		b	.L82
 1446              	.L76:
 616:..\src/interruptions.c ****         
 617:..\src/interruptions.c ****         case INPUT_MODE_EMG_PROPORTIONAL_NC:
 618:..\src/interruptions.c ****             if (err_emg_1 > 0)
 1447              		.loc 1 618 0
 1448 025a BB69     		ldr	r3, [r7, #24]
 1449 025c 002B     		cmp	r3, #0
 1450 025e 1FDD     		ble	.L91
 619:..\src/interruptions.c ****                 st_ref_p->pos = g_mem.motor[motor_idx].pos_lim_sup - (err_emg_1 * g_mem.motor[motor
 1451              		.loc 1 619 0
 1452 0260 FA7B     		ldrb	r2, [r7, #15]	@ zero_extendqisi2
 1453 0262 1849     		ldr	r1, .L131+12
 1454 0264 1346     		mov	r3, r2
 1455 0266 DB00     		lsls	r3, r3, #3
 1456 0268 9B1A     		subs	r3, r3, r2
 1457 026a 1B01     		lsls	r3, r3, #4
 1458 026c 0B44     		add	r3, r3, r1
 1459 026e E833     		adds	r3, r3, #232
 1460 0270 1968     		ldr	r1, [r3]
 1461 0272 FA7B     		ldrb	r2, [r7, #15]	@ zero_extendqisi2
 1462 0274 1348     		ldr	r0, .L131+12
 1463 0276 1346     		mov	r3, r2
 1464 0278 DB00     		lsls	r3, r3, #3
 1465 027a 9B1A     		subs	r3, r3, r2
 1466 027c 1B01     		lsls	r3, r3, #4
 1467 027e 0344     		add	r3, r3, r0
 1468 0280 E833     		adds	r3, r3, #232
 1469 0282 1B68     		ldr	r3, [r3]
 1470 0284 BA69     		ldr	r2, [r7, #24]
 1471 0286 02FB03F2 		mul	r2, r2, r3
 1472 028a 0B4B     		ldr	r3, .L131
 1473 028c B3F8F031 		ldrh	r3, [r3, #496]
 1474 0290 C3F58063 		rsb	r3, r3, #1024
 1475 0294 92FBF3F3 		sdiv	r3, r2, r3
 1476 0298 CA1A     		subs	r2, r1, r3
 1477 029a BB68     		ldr	r3, [r7, #8]
 1478 029c 1A60     		str	r2, [r3]
ARM GAS  C:\Users\mgnocco\AppData\Local\Temp\ccM9DEjH.s 			page 38


 620:..\src/interruptions.c ****             else
 621:..\src/interruptions.c ****                 st_ref_p->pos = g_mem.motor[motor_idx].pos_lim_sup;
 622:..\src/interruptions.c ****             break;
 1479              		.loc 1 622 0
 1480 029e 34E1     		b	.L82
 1481              	.L91:
 621:..\src/interruptions.c ****             break;
 1482              		.loc 1 621 0
 1483 02a0 FA7B     		ldrb	r2, [r7, #15]	@ zero_extendqisi2
 1484 02a2 0849     		ldr	r1, .L131+12
 1485 02a4 1346     		mov	r3, r2
 1486 02a6 DB00     		lsls	r3, r3, #3
 1487 02a8 9B1A     		subs	r3, r3, r2
 1488 02aa 1B01     		lsls	r3, r3, #4
 1489 02ac 0B44     		add	r3, r3, r1
 1490 02ae E833     		adds	r3, r3, #232
 1491 02b0 1A68     		ldr	r2, [r3]
 1492 02b2 BB68     		ldr	r3, [r7, #8]
 1493 02b4 1A60     		str	r2, [r3]
 1494              		.loc 1 622 0
 1495 02b6 28E1     		b	.L82
 1496              	.L132:
 1497              		.align	2
 1498              	.L131:
 1499 02b8 00000000 		.word	c_mem
 1500 02bc 00000000 		.word	g_adc_meas
 1501 02c0 00000000 		.word	g_meas
 1502 02c4 00000000 		.word	g_mem
 1503              	.L72:
 623:..\src/interruptions.c **** 
 624:..\src/interruptions.c ****         case INPUT_MODE_EMG_INTEGRAL:
 625:..\src/interruptions.c ****             st_ref_p->pos = st_refOld_p->pos;
 1504              		.loc 1 625 0
 1505 02c8 7B68     		ldr	r3, [r7, #4]
 1506 02ca 1A68     		ldr	r2, [r3]
 1507 02cc BB68     		ldr	r3, [r7, #8]
 1508 02ce 1A60     		str	r2, [r3]
 626:..\src/interruptions.c ****             if (err_emg_1 > 0) {
 1509              		.loc 1 626 0
 1510 02d0 BB69     		ldr	r3, [r7, #24]
 1511 02d2 002B     		cmp	r3, #0
 1512 02d4 13DD     		ble	.L93
 627:..\src/interruptions.c ****                 st_ref_p->pos = st_refOld_p->pos + (err_emg_1 * (int)g_mem.emg.emg_speed[0] * 2) / 
 1513              		.loc 1 627 0
 1514 02d6 7B68     		ldr	r3, [r7, #4]
 1515 02d8 1A68     		ldr	r2, [r3]
 1516 02da 884B     		ldr	r3, .L133
 1517 02dc 93F8FC31 		ldrb	r3, [r3, #508]	@ zero_extendqisi2
 1518 02e0 1946     		mov	r1, r3
 1519 02e2 BB69     		ldr	r3, [r7, #24]
 1520 02e4 03FB01F3 		mul	r3, r3, r1
 1521 02e8 5900     		lsls	r1, r3, #1
 1522 02ea 854B     		ldr	r3, .L133+4
 1523 02ec B3F8F031 		ldrh	r3, [r3, #496]
 1524 02f0 C3F58063 		rsb	r3, r3, #1024
 1525 02f4 91FBF3F3 		sdiv	r3, r1, r3
 1526 02f8 1A44     		add	r2, r2, r3
ARM GAS  C:\Users\mgnocco\AppData\Local\Temp\ccM9DEjH.s 			page 39


 1527 02fa BB68     		ldr	r3, [r7, #8]
 1528 02fc 1A60     		str	r2, [r3]
 1529              	.L93:
 628:..\src/interruptions.c ****             }
 629:..\src/interruptions.c ****             if (err_emg_2 > 0) {
 1530              		.loc 1 629 0
 1531 02fe 7B69     		ldr	r3, [r7, #20]
 1532 0300 002B     		cmp	r3, #0
 1533 0302 40F30181 		ble	.L125
 630:..\src/interruptions.c ****                 st_ref_p->pos = st_refOld_p->pos - (err_emg_2 * (int)g_mem.emg.emg_speed[1] * 2) / 
 1534              		.loc 1 630 0
 1535 0306 7B68     		ldr	r3, [r7, #4]
 1536 0308 1A68     		ldr	r2, [r3]
 1537 030a 7C4B     		ldr	r3, .L133
 1538 030c 93F8FD31 		ldrb	r3, [r3, #509]	@ zero_extendqisi2
 1539 0310 1946     		mov	r1, r3
 1540 0312 7B69     		ldr	r3, [r7, #20]
 1541 0314 03FB01F3 		mul	r3, r3, r1
 1542 0318 5900     		lsls	r1, r3, #1
 1543 031a 794B     		ldr	r3, .L133+4
 1544 031c B3F8F231 		ldrh	r3, [r3, #498]
 1545 0320 C3F58063 		rsb	r3, r3, #1024
 1546 0324 91FBF3F3 		sdiv	r3, r1, r3
 1547 0328 D21A     		subs	r2, r2, r3
 1548 032a BB68     		ldr	r3, [r7, #8]
 1549 032c 1A60     		str	r2, [r3]
 631:..\src/interruptions.c ****             }
 632:..\src/interruptions.c ****             break;
 1550              		.loc 1 632 0
 1551 032e EBE0     		b	.L125
 1552              	.L73:
 633:..\src/interruptions.c **** 
 634:..\src/interruptions.c ****         case INPUT_MODE_EMG_FCFS:
 635:..\src/interruptions.c ****             st_ref_p->pos = st_refOld_p->pos;
 1553              		.loc 1 635 0
 1554 0330 7B68     		ldr	r3, [r7, #4]
 1555 0332 1A68     		ldr	r2, [r3]
 1556 0334 BB68     		ldr	r3, [r7, #8]
 1557 0336 1A60     		str	r2, [r3]
 636:..\src/interruptions.c ****             if (c_mem.dev.dev_type != SOFTHAND_2_MOTORS){
 1558              		.loc 1 636 0
 1559 0338 714B     		ldr	r3, .L133+4
 1560 033a 93F8AC30 		ldrb	r3, [r3, #172]	@ zero_extendqisi2
 1561 033e 042B     		cmp	r3, #4
 1562 0340 5BD0     		beq	.L95
 637:..\src/interruptions.c ****                 switch (current_emg[motor_idx]) {
 1563              		.loc 1 637 0
 1564 0342 FB7B     		ldrb	r3, [r7, #15]	@ zero_extendqisi2
 1565 0344 6F4A     		ldr	r2, .L133+8
 1566 0346 D35C     		ldrb	r3, [r2, r3]	@ zero_extendqisi2
 1567 0348 012B     		cmp	r3, #1
 1568 034a 1CD0     		beq	.L97
 1569 034c 022B     		cmp	r3, #2
 1570 034e 37D0     		beq	.L98
 1571 0350 002B     		cmp	r3, #0
 1572 0352 00D0     		beq	.L99
 638:..\src/interruptions.c ****                     case 0:
ARM GAS  C:\Users\mgnocco\AppData\Local\Temp\ccM9DEjH.s 			page 40


 639:..\src/interruptions.c ****                         // Look for the first EMG passing the threshold
 640:..\src/interruptions.c ****                         if (err_emg_1 > 0 && err_emg_1 > err_emg_2) {
 641:..\src/interruptions.c ****                             current_emg[motor_idx] = 1;
 642:..\src/interruptions.c ****                             break;
 643:..\src/interruptions.c ****                         }
 644:..\src/interruptions.c ****                         if (err_emg_2 > 0 && err_emg_2 > err_emg_1) {
 645:..\src/interruptions.c ****                             current_emg[motor_idx] = 2;
 646:..\src/interruptions.c ****                             break;
 647:..\src/interruptions.c ****                         }
 648:..\src/interruptions.c ****                         break;
 649:..\src/interruptions.c **** 
 650:..\src/interruptions.c ****                     case 1:
 651:..\src/interruptions.c ****                         // EMG 1 is first
 652:..\src/interruptions.c ****                         if (err_emg_1 < 0) {
 653:..\src/interruptions.c ****                             current_emg[motor_idx] = 0;
 654:..\src/interruptions.c ****                             break;
 655:..\src/interruptions.c ****                         }
 656:..\src/interruptions.c ****                         st_ref_p->pos = st_refOld_p->pos + (err_emg_1 * g_mem.emg.emg_speed[0] << 2
 657:..\src/interruptions.c ****                         break;
 658:..\src/interruptions.c **** 
 659:..\src/interruptions.c ****                     case 2:
 660:..\src/interruptions.c ****                         // EMG 2 is first
 661:..\src/interruptions.c ****                         if (err_emg_2 < 0) {
 662:..\src/interruptions.c ****                             current_emg[motor_idx] = 0;
 663:..\src/interruptions.c ****                             break;
 664:..\src/interruptions.c ****                         }
 665:..\src/interruptions.c ****                         st_ref_p->pos = st_refOld_p->pos - (err_emg_2 * g_mem.emg.emg_speed[1] << 2
 666:..\src/interruptions.c ****                         break;
 667:..\src/interruptions.c **** 
 668:..\src/interruptions.c ****                     default:
 669:..\src/interruptions.c ****                         break;
 1573              		.loc 1 669 0
 1574 0354 5BE0     		b	.L105
 1575              	.L99:
 640:..\src/interruptions.c ****                             current_emg[motor_idx] = 1;
 1576              		.loc 1 640 0
 1577 0356 BB69     		ldr	r3, [r7, #24]
 1578 0358 002B     		cmp	r3, #0
 1579 035a 08DD     		ble	.L100
 640:..\src/interruptions.c ****                             current_emg[motor_idx] = 1;
 1580              		.loc 1 640 0 is_stmt 0 discriminator 1
 1581 035c BA69     		ldr	r2, [r7, #24]
 1582 035e 7B69     		ldr	r3, [r7, #20]
 1583 0360 9A42     		cmp	r2, r3
 1584 0362 04DD     		ble	.L100
 641:..\src/interruptions.c ****                             break;
 1585              		.loc 1 641 0 is_stmt 1
 1586 0364 FB7B     		ldrb	r3, [r7, #15]	@ zero_extendqisi2
 1587 0366 674A     		ldr	r2, .L133+8
 1588 0368 0121     		movs	r1, #1
 1589 036a D154     		strb	r1, [r2, r3]
 642:..\src/interruptions.c ****                         }
 1590              		.loc 1 642 0
 1591 036c 4FE0     		b	.L105
 1592              	.L100:
 644:..\src/interruptions.c ****                             current_emg[motor_idx] = 2;
 1593              		.loc 1 644 0
ARM GAS  C:\Users\mgnocco\AppData\Local\Temp\ccM9DEjH.s 			page 41


 1594 036e 7B69     		ldr	r3, [r7, #20]
 1595 0370 002B     		cmp	r3, #0
 1596 0372 4BDD     		ble	.L126
 644:..\src/interruptions.c ****                             current_emg[motor_idx] = 2;
 1597              		.loc 1 644 0 is_stmt 0 discriminator 1
 1598 0374 7A69     		ldr	r2, [r7, #20]
 1599 0376 BB69     		ldr	r3, [r7, #24]
 1600 0378 9A42     		cmp	r2, r3
 1601 037a 47DD     		ble	.L126
 645:..\src/interruptions.c ****                             break;
 1602              		.loc 1 645 0 is_stmt 1
 1603 037c FB7B     		ldrb	r3, [r7, #15]	@ zero_extendqisi2
 1604 037e 614A     		ldr	r2, .L133+8
 1605 0380 0221     		movs	r1, #2
 1606 0382 D154     		strb	r1, [r2, r3]
 646:..\src/interruptions.c ****                         }
 1607              		.loc 1 646 0
 1608 0384 43E0     		b	.L105
 1609              	.L97:
 652:..\src/interruptions.c ****                             current_emg[motor_idx] = 0;
 1610              		.loc 1 652 0
 1611 0386 BB69     		ldr	r3, [r7, #24]
 1612 0388 002B     		cmp	r3, #0
 1613 038a 04DA     		bge	.L103
 653:..\src/interruptions.c ****                             break;
 1614              		.loc 1 653 0
 1615 038c FB7B     		ldrb	r3, [r7, #15]	@ zero_extendqisi2
 1616 038e 5D4A     		ldr	r2, .L133+8
 1617 0390 0021     		movs	r1, #0
 1618 0392 D154     		strb	r1, [r2, r3]
 654:..\src/interruptions.c ****                         }
 1619              		.loc 1 654 0
 1620 0394 3BE0     		b	.L105
 1621              	.L103:
 656:..\src/interruptions.c ****                         break;
 1622              		.loc 1 656 0
 1623 0396 7B68     		ldr	r3, [r7, #4]
 1624 0398 1A68     		ldr	r2, [r3]
 1625 039a 584B     		ldr	r3, .L133
 1626 039c 93F8FC31 		ldrb	r3, [r3, #508]	@ zero_extendqisi2
 1627 03a0 1946     		mov	r1, r3
 1628 03a2 BB69     		ldr	r3, [r7, #24]
 1629 03a4 03FB01F3 		mul	r3, r3, r1
 1630 03a8 9900     		lsls	r1, r3, #2
 1631 03aa 554B     		ldr	r3, .L133+4
 1632 03ac B3F8F031 		ldrh	r3, [r3, #496]
 1633 03b0 C3F58063 		rsb	r3, r3, #1024
 1634 03b4 91FBF3F3 		sdiv	r3, r1, r3
 1635 03b8 1A44     		add	r2, r2, r3
 1636 03ba BB68     		ldr	r3, [r7, #8]
 1637 03bc 1A60     		str	r2, [r3]
 657:..\src/interruptions.c **** 
 1638              		.loc 1 657 0
 1639 03be 26E0     		b	.L105
 1640              	.L98:
 661:..\src/interruptions.c ****                             current_emg[motor_idx] = 0;
 1641              		.loc 1 661 0
ARM GAS  C:\Users\mgnocco\AppData\Local\Temp\ccM9DEjH.s 			page 42


 1642 03c0 7B69     		ldr	r3, [r7, #20]
 1643 03c2 002B     		cmp	r3, #0
 1644 03c4 04DA     		bge	.L104
 662:..\src/interruptions.c ****                             break;
 1645              		.loc 1 662 0
 1646 03c6 FB7B     		ldrb	r3, [r7, #15]	@ zero_extendqisi2
 1647 03c8 4E4A     		ldr	r2, .L133+8
 1648 03ca 0021     		movs	r1, #0
 1649 03cc D154     		strb	r1, [r2, r3]
 663:..\src/interruptions.c ****                         }
 1650              		.loc 1 663 0
 1651 03ce 1EE0     		b	.L105
 1652              	.L104:
 665:..\src/interruptions.c ****                         break;
 1653              		.loc 1 665 0
 1654 03d0 7B68     		ldr	r3, [r7, #4]
 1655 03d2 1A68     		ldr	r2, [r3]
 1656 03d4 494B     		ldr	r3, .L133
 1657 03d6 93F8FD31 		ldrb	r3, [r3, #509]	@ zero_extendqisi2
 1658 03da 1946     		mov	r1, r3
 1659 03dc 7B69     		ldr	r3, [r7, #20]
 1660 03de 03FB01F3 		mul	r3, r3, r1
 1661 03e2 9900     		lsls	r1, r3, #2
 1662 03e4 464B     		ldr	r3, .L133+4
 1663 03e6 B3F8F231 		ldrh	r3, [r3, #498]
 1664 03ea C3F58063 		rsb	r3, r3, #1024
 1665 03ee 91FBF3F3 		sdiv	r3, r1, r3
 1666 03f2 D21A     		subs	r2, r2, r3
 1667 03f4 BB68     		ldr	r3, [r7, #8]
 1668 03f6 1A60     		str	r2, [r3]
 666:..\src/interruptions.c **** 
 1669              		.loc 1 666 0
 1670 03f8 09E0     		b	.L105
 1671              	.L95:
 670:..\src/interruptions.c ****                 }
 671:..\src/interruptions.c ****             }
 672:..\src/interruptions.c ****             else{ // case SOFTHAND_2_MOTORS
 673:..\src/interruptions.c ****                 //compute reference using a FSM for choosing the right sinergy to activate
 674:..\src/interruptions.c ****                 compute_SoftHand_2_motors_emg_reference(motor_idx, st_ref_p, st_refOld_p, err_emg_1
 1672              		.loc 1 674 0
 1673 03fa F87B     		ldrb	r0, [r7, #15]	@ zero_extendqisi2
 1674 03fc 7B69     		ldr	r3, [r7, #20]
 1675 03fe 0093     		str	r3, [sp]
 1676 0400 BB69     		ldr	r3, [r7, #24]
 1677 0402 7A68     		ldr	r2, [r7, #4]
 1678 0404 B968     		ldr	r1, [r7, #8]
 1679 0406 FFF7FEFF 		bl	compute_SoftHand_2_motors_emg_reference
 675:..\src/interruptions.c ****             }
 676:..\src/interruptions.c ****             break;
 1680              		.loc 1 676 0
 1681 040a 7EE0     		b	.L82
 1682              	.L126:
 648:..\src/interruptions.c **** 
 1683              		.loc 1 648 0
 1684 040c 00BF     		nop
 1685              	.L105:
 1686              		.loc 1 676 0 discriminator 5
ARM GAS  C:\Users\mgnocco\AppData\Local\Temp\ccM9DEjH.s 			page 43


 1687 040e 7CE0     		b	.L82
 1688              	.L74:
 677:..\src/interruptions.c **** 
 678:..\src/interruptions.c ****         case INPUT_MODE_EMG_FCFS_ADV:
 679:..\src/interruptions.c ****             st_ref_p->pos = st_refOld_p->pos;
 1689              		.loc 1 679 0
 1690 0410 7B68     		ldr	r3, [r7, #4]
 1691 0412 1A68     		ldr	r2, [r3]
 1692 0414 BB68     		ldr	r3, [r7, #8]
 1693 0416 1A60     		str	r2, [r3]
 680:..\src/interruptions.c ****             switch (current_emg[motor_idx]) {
 1694              		.loc 1 680 0
 1695 0418 FB7B     		ldrb	r3, [r7, #15]	@ zero_extendqisi2
 1696 041a 3A4A     		ldr	r2, .L133+8
 1697 041c D35C     		ldrb	r3, [r2, r3]	@ zero_extendqisi2
 1698 041e 012B     		cmp	r3, #1
 1699 0420 1CD0     		beq	.L107
 1700 0422 022B     		cmp	r3, #2
 1701 0424 3DD0     		beq	.L108
 1702 0426 002B     		cmp	r3, #0
 1703 0428 00D0     		beq	.L109
 681:..\src/interruptions.c ****                 // Look for the first EMG passing the threshold
 682:..\src/interruptions.c ****                 case 0:
 683:..\src/interruptions.c ****                     if (err_emg_1 > 0 && err_emg_1 > err_emg_2) {
 684:..\src/interruptions.c ****                         current_emg[motor_idx] = 1;
 685:..\src/interruptions.c ****                         break;
 686:..\src/interruptions.c ****                     }
 687:..\src/interruptions.c ****                     if (err_emg_2 > 0 && err_emg_2 > err_emg_1) {
 688:..\src/interruptions.c ****                         current_emg[motor_idx] = 2;
 689:..\src/interruptions.c ****                         break;
 690:..\src/interruptions.c ****                     }
 691:..\src/interruptions.c ****                     break;
 692:..\src/interruptions.c **** 
 693:..\src/interruptions.c ****                 // EMG 1 is first
 694:..\src/interruptions.c ****                 case 1:
 695:..\src/interruptions.c ****                     // If both signals are under threshold go back to status 0
 696:..\src/interruptions.c ****                     if ((err_emg_1 < 0) && (err_emg_2 < 0)) {
 697:..\src/interruptions.c ****                         current_emg[motor_idx] = 0;
 698:..\src/interruptions.c ****                         break;
 699:..\src/interruptions.c ****                     }
 700:..\src/interruptions.c ****                     // but if the current signal come back over threshold, continue using it
 701:..\src/interruptions.c ****                     if (err_emg_1 > 0) 
 702:..\src/interruptions.c ****                         st_ref_p->pos = st_refOld_p->pos + (err_emg_1 * g_mem.emg.emg_speed[0] << 2
 703:..\src/interruptions.c ****                     
 704:..\src/interruptions.c ****                     break;
 705:..\src/interruptions.c **** 
 706:..\src/interruptions.c ****                 // EMG 2 is first
 707:..\src/interruptions.c ****                 case 2:
 708:..\src/interruptions.c ****                     // If both signals are under threshold go back to status 0
 709:..\src/interruptions.c ****                     if ((err_emg_1 < 0) && (err_emg_2 < 0)) {
 710:..\src/interruptions.c ****                         current_emg[motor_idx] = 0;
 711:..\src/interruptions.c ****                         break;
 712:..\src/interruptions.c ****                     }
 713:..\src/interruptions.c ****                     // but if the current signal come back over threshold, continue using it
 714:..\src/interruptions.c ****                     if (err_emg_2 > 0) {
 715:..\src/interruptions.c ****                         st_ref_p->pos = st_refOld_p->pos - (err_emg_2 * c_mem.emg.emg_speed[1] << 2
 716:..\src/interruptions.c ****                     }
ARM GAS  C:\Users\mgnocco\AppData\Local\Temp\ccM9DEjH.s 			page 44


 717:..\src/interruptions.c ****                     break;
 718:..\src/interruptions.c **** 
 719:..\src/interruptions.c ****                 default:
 720:..\src/interruptions.c ****                     break;
 1704              		.loc 1 720 0
 1705 042a 62E0     		b	.L111
 1706              	.L109:
 683:..\src/interruptions.c ****                         current_emg[motor_idx] = 1;
 1707              		.loc 1 683 0
 1708 042c BB69     		ldr	r3, [r7, #24]
 1709 042e 002B     		cmp	r3, #0
 1710 0430 08DD     		ble	.L110
 683:..\src/interruptions.c ****                         current_emg[motor_idx] = 1;
 1711              		.loc 1 683 0 is_stmt 0 discriminator 1
 1712 0432 BA69     		ldr	r2, [r7, #24]
 1713 0434 7B69     		ldr	r3, [r7, #20]
 1714 0436 9A42     		cmp	r2, r3
 1715 0438 04DD     		ble	.L110
 684:..\src/interruptions.c ****                         break;
 1716              		.loc 1 684 0 is_stmt 1
 1717 043a FB7B     		ldrb	r3, [r7, #15]	@ zero_extendqisi2
 1718 043c 314A     		ldr	r2, .L133+8
 1719 043e 0121     		movs	r1, #1
 1720 0440 D154     		strb	r1, [r2, r3]
 685:..\src/interruptions.c ****                     }
 1721              		.loc 1 685 0
 1722 0442 56E0     		b	.L111
 1723              	.L110:
 687:..\src/interruptions.c ****                         current_emg[motor_idx] = 2;
 1724              		.loc 1 687 0
 1725 0444 7B69     		ldr	r3, [r7, #20]
 1726 0446 002B     		cmp	r3, #0
 1727 0448 4EDD     		ble	.L127
 687:..\src/interruptions.c ****                         current_emg[motor_idx] = 2;
 1728              		.loc 1 687 0 is_stmt 0 discriminator 1
 1729 044a 7A69     		ldr	r2, [r7, #20]
 1730 044c BB69     		ldr	r3, [r7, #24]
 1731 044e 9A42     		cmp	r2, r3
 1732 0450 4ADD     		ble	.L127
 688:..\src/interruptions.c ****                         break;
 1733              		.loc 1 688 0 is_stmt 1
 1734 0452 FB7B     		ldrb	r3, [r7, #15]	@ zero_extendqisi2
 1735 0454 2B4A     		ldr	r2, .L133+8
 1736 0456 0221     		movs	r1, #2
 1737 0458 D154     		strb	r1, [r2, r3]
 689:..\src/interruptions.c ****                     }
 1738              		.loc 1 689 0
 1739 045a 4AE0     		b	.L111
 1740              	.L107:
 696:..\src/interruptions.c ****                         current_emg[motor_idx] = 0;
 1741              		.loc 1 696 0
 1742 045c BB69     		ldr	r3, [r7, #24]
 1743 045e 002B     		cmp	r3, #0
 1744 0460 07DA     		bge	.L113
 696:..\src/interruptions.c ****                         current_emg[motor_idx] = 0;
 1745              		.loc 1 696 0 is_stmt 0 discriminator 1
 1746 0462 7B69     		ldr	r3, [r7, #20]
ARM GAS  C:\Users\mgnocco\AppData\Local\Temp\ccM9DEjH.s 			page 45


 1747 0464 002B     		cmp	r3, #0
 1748 0466 04DA     		bge	.L113
 697:..\src/interruptions.c ****                         break;
 1749              		.loc 1 697 0 is_stmt 1
 1750 0468 FB7B     		ldrb	r3, [r7, #15]	@ zero_extendqisi2
 1751 046a 264A     		ldr	r2, .L133+8
 1752 046c 0021     		movs	r1, #0
 1753 046e D154     		strb	r1, [r2, r3]
 698:..\src/interruptions.c ****                     }
 1754              		.loc 1 698 0
 1755 0470 3FE0     		b	.L111
 1756              	.L113:
 701:..\src/interruptions.c ****                         st_ref_p->pos = st_refOld_p->pos + (err_emg_1 * g_mem.emg.emg_speed[0] << 2
 1757              		.loc 1 701 0
 1758 0472 BB69     		ldr	r3, [r7, #24]
 1759 0474 002B     		cmp	r3, #0
 1760 0476 39DD     		ble	.L128
 702:..\src/interruptions.c ****                     
 1761              		.loc 1 702 0
 1762 0478 7B68     		ldr	r3, [r7, #4]
 1763 047a 1A68     		ldr	r2, [r3]
 1764 047c 1F4B     		ldr	r3, .L133
 1765 047e 93F8FC31 		ldrb	r3, [r3, #508]	@ zero_extendqisi2
 1766 0482 1946     		mov	r1, r3
 1767 0484 BB69     		ldr	r3, [r7, #24]
 1768 0486 03FB01F3 		mul	r3, r3, r1
 1769 048a 9900     		lsls	r1, r3, #2
 1770 048c 1C4B     		ldr	r3, .L133+4
 1771 048e B3F8F031 		ldrh	r3, [r3, #496]
 1772 0492 C3F58063 		rsb	r3, r3, #1024
 1773 0496 91FBF3F3 		sdiv	r3, r1, r3
 1774 049a 1A44     		add	r2, r2, r3
 1775 049c BB68     		ldr	r3, [r7, #8]
 1776 049e 1A60     		str	r2, [r3]
 704:..\src/interruptions.c **** 
 1777              		.loc 1 704 0
 1778 04a0 24E0     		b	.L128
 1779              	.L108:
 709:..\src/interruptions.c ****                         current_emg[motor_idx] = 0;
 1780              		.loc 1 709 0
 1781 04a2 BB69     		ldr	r3, [r7, #24]
 1782 04a4 002B     		cmp	r3, #0
 1783 04a6 07DA     		bge	.L115
 709:..\src/interruptions.c ****                         current_emg[motor_idx] = 0;
 1784              		.loc 1 709 0 is_stmt 0 discriminator 1
 1785 04a8 7B69     		ldr	r3, [r7, #20]
 1786 04aa 002B     		cmp	r3, #0
 1787 04ac 04DA     		bge	.L115
 710:..\src/interruptions.c ****                         break;
 1788              		.loc 1 710 0 is_stmt 1
 1789 04ae FB7B     		ldrb	r3, [r7, #15]	@ zero_extendqisi2
 1790 04b0 144A     		ldr	r2, .L133+8
 1791 04b2 0021     		movs	r1, #0
 1792 04b4 D154     		strb	r1, [r2, r3]
 711:..\src/interruptions.c ****                     }
 1793              		.loc 1 711 0
 1794 04b6 1CE0     		b	.L111
ARM GAS  C:\Users\mgnocco\AppData\Local\Temp\ccM9DEjH.s 			page 46


 1795              	.L115:
 714:..\src/interruptions.c ****                         st_ref_p->pos = st_refOld_p->pos - (err_emg_2 * c_mem.emg.emg_speed[1] << 2
 1796              		.loc 1 714 0
 1797 04b8 7B69     		ldr	r3, [r7, #20]
 1798 04ba 002B     		cmp	r3, #0
 1799 04bc 18DD     		ble	.L129
 715:..\src/interruptions.c ****                     }
 1800              		.loc 1 715 0
 1801 04be 7B68     		ldr	r3, [r7, #4]
 1802 04c0 1A68     		ldr	r2, [r3]
 1803 04c2 0F4B     		ldr	r3, .L133+4
 1804 04c4 93F8FD31 		ldrb	r3, [r3, #509]	@ zero_extendqisi2
 1805 04c8 1946     		mov	r1, r3
 1806 04ca 7B69     		ldr	r3, [r7, #20]
 1807 04cc 03FB01F3 		mul	r3, r3, r1
 1808 04d0 9900     		lsls	r1, r3, #2
 1809 04d2 0B4B     		ldr	r3, .L133+4
 1810 04d4 B3F8F231 		ldrh	r3, [r3, #498]
 1811 04d8 C3F58063 		rsb	r3, r3, #1024
 1812 04dc 91FBF3F3 		sdiv	r3, r1, r3
 1813 04e0 D21A     		subs	r2, r2, r3
 1814 04e2 BB68     		ldr	r3, [r7, #8]
 1815 04e4 1A60     		str	r2, [r3]
 717:..\src/interruptions.c **** 
 1816              		.loc 1 717 0
 1817 04e6 03E0     		b	.L129
 1818              	.L127:
 691:..\src/interruptions.c **** 
 1819              		.loc 1 691 0
 1820 04e8 00BF     		nop
 1821 04ea 0EE0     		b	.L82
 1822              	.L128:
 704:..\src/interruptions.c **** 
 1823              		.loc 1 704 0
 1824 04ec 00BF     		nop
 1825 04ee 0CE0     		b	.L82
 1826              	.L129:
 717:..\src/interruptions.c **** 
 1827              		.loc 1 717 0
 1828 04f0 00BF     		nop
 1829              	.L111:
 721:..\src/interruptions.c ****             }
 722:..\src/interruptions.c ****             break;
 1830              		.loc 1 722 0 discriminator 6
 1831 04f2 0AE0     		b	.L82
 1832              	.L123:
 723:..\src/interruptions.c **** 
 724:..\src/interruptions.c ****         default:
 725:..\src/interruptions.c ****             break;
 1833              		.loc 1 725 0
 1834 04f4 00BF     		nop
 1835 04f6 08E0     		b	.L82
 1836              	.L124:
 608:..\src/interruptions.c ****             
 1837              		.loc 1 608 0
 1838 04f8 00BF     		nop
 1839 04fa 06E0     		b	.L82
ARM GAS  C:\Users\mgnocco\AppData\Local\Temp\ccM9DEjH.s 			page 47


 1840              	.L134:
 1841              		.align	2
 1842              	.L133:
 1843 04fc 00000000 		.word	g_mem
 1844 0500 00000000 		.word	c_mem
 1845 0504 8C000000 		.word	current_emg.10261
 1846              	.L125:
 632:..\src/interruptions.c **** 
 1847              		.loc 1 632 0
 1848 0508 00BF     		nop
 1849              	.L82:
 726:..\src/interruptions.c ****     }
 727:..\src/interruptions.c **** 
 728:..\src/interruptions.c ****     // Position limit saturation
 729:..\src/interruptions.c ****     if (MOT->pos_lim_flag) {
 1850              		.loc 1 729 0
 1851 050a 3B6A     		ldr	r3, [r7, #32]
 1852 050c 93F83330 		ldrb	r3, [r3, #51]	@ zero_extendqisi2
 1853 0510 002B     		cmp	r3, #0
 1854 0512 13D0     		beq	.L117
 730:..\src/interruptions.c ****         if (st_ref_p->pos < MOT->pos_lim_inf) 
 1855              		.loc 1 730 0
 1856 0514 BB68     		ldr	r3, [r7, #8]
 1857 0516 1A68     		ldr	r2, [r3]
 1858 0518 3B6A     		ldr	r3, [r7, #32]
 1859 051a 5B6B     		ldr	r3, [r3, #52]
 1860 051c 9A42     		cmp	r2, r3
 1861 051e 03DA     		bge	.L118
 731:..\src/interruptions.c ****             st_ref_p->pos = MOT->pos_lim_inf;
 1862              		.loc 1 731 0
 1863 0520 3B6A     		ldr	r3, [r7, #32]
 1864 0522 5A6B     		ldr	r2, [r3, #52]
 1865 0524 BB68     		ldr	r3, [r7, #8]
 1866 0526 1A60     		str	r2, [r3]
 1867              	.L118:
 732:..\src/interruptions.c ****         if (st_ref_p->pos > MOT->pos_lim_sup) 
 1868              		.loc 1 732 0
 1869 0528 BB68     		ldr	r3, [r7, #8]
 1870 052a 1A68     		ldr	r2, [r3]
 1871 052c 3B6A     		ldr	r3, [r7, #32]
 1872 052e 9B6B     		ldr	r3, [r3, #56]
 1873 0530 9A42     		cmp	r2, r3
 1874 0532 03DD     		ble	.L117
 733:..\src/interruptions.c ****             st_ref_p->pos = MOT->pos_lim_sup;
 1875              		.loc 1 733 0
 1876 0534 3B6A     		ldr	r3, [r7, #32]
 1877 0536 9A6B     		ldr	r2, [r3, #56]
 1878 0538 BB68     		ldr	r3, [r7, #8]
 1879 053a 1A60     		str	r2, [r3]
 1880              	.L117:
 734:..\src/interruptions.c ****     }
 735:..\src/interruptions.c ****     
 736:..\src/interruptions.c ****     // SAFETY
 737:..\src/interruptions.c ****     if (battery_low_SoC == TRUE) {
 1881              		.loc 1 737 0
 1882 053c 1D4B     		ldr	r3, .L135
 1883 053e 1B78     		ldrb	r3, [r3]	@ zero_extendqisi2
ARM GAS  C:\Users\mgnocco\AppData\Local\Temp\ccM9DEjH.s 			page 48


 1884 0540 012B     		cmp	r3, #1
 1885 0542 02D1     		bne	.L119
 738:..\src/interruptions.c ****         //Reopen the terminal device before disabling motor
 739:..\src/interruptions.c ****         st_ref_p->pos = 0;
 1886              		.loc 1 739 0
 1887 0544 BB68     		ldr	r3, [r7, #8]
 1888 0546 0022     		movs	r2, #0
 1889 0548 1A60     		str	r2, [r3]
 1890              	.L119:
 740:..\src/interruptions.c ****     }      
 741:..\src/interruptions.c ****     
 742:..\src/interruptions.c ****        
 743:..\src/interruptions.c ****     if (c_mem.SH.rest_position_flag == TRUE) {
 1891              		.loc 1 743 0
 1892 054a 1B4B     		ldr	r3, .L135+4
 1893 054c 93F8AC32 		ldrb	r3, [r3, #684]	@ zero_extendqisi2
 1894 0550 012B     		cmp	r3, #1
 1895 0552 2AD1     		bne	.L130
 744:..\src/interruptions.c ****         if (rest_enabled == 1){
 1896              		.loc 1 744 0
 1897 0554 194B     		ldr	r3, .L135+8
 1898 0556 1B78     		ldrb	r3, [r3]	@ zero_extendqisi2
 1899 0558 012B     		cmp	r3, #1
 1900 055a 03D1     		bne	.L121
 745:..\src/interruptions.c ****             // Change position reference to drive motor to rest position smoothly
 746:..\src/interruptions.c ****             st_ref_p->pos = rest_pos_curr_ref;
 1901              		.loc 1 746 0
 1902 055c 184B     		ldr	r3, .L135+12
 1903 055e 1A68     		ldr	r2, [r3]
 1904 0560 BB68     		ldr	r3, [r7, #8]
 1905 0562 1A60     		str	r2, [r3]
 1906              	.L121:
 747:..\src/interruptions.c ****         }
 748:..\src/interruptions.c ****         
 749:..\src/interruptions.c ****         if (forced_open == 1) {
 1907              		.loc 1 749 0
 1908 0564 174B     		ldr	r3, .L135+16
 1909 0566 1B78     		ldrb	r3, [r3]	@ zero_extendqisi2
 1910 0568 012B     		cmp	r3, #1
 1911 056a 1ED1     		bne	.L130
 750:..\src/interruptions.c ****             // Open the SoftHand as EMG PROPORTIONAL input mode 
 751:..\src/interruptions.c ****             if (err_emg_2 > 0)
 1912              		.loc 1 751 0
 1913 056c 7B69     		ldr	r3, [r7, #20]
 1914 056e 002B     		cmp	r3, #0
 1915 0570 13DD     		ble	.L122
 752:..\src/interruptions.c ****                 st_ref_p->pos = g_mem.SH.rest_pos - (err_emg_2 * g_mem.SH.rest_pos) / (1024 - c_mem
 1916              		.loc 1 752 0
 1917 0572 154B     		ldr	r3, .L135+20
 1918 0574 D3F8A022 		ldr	r2, [r3, #672]
 1919 0578 134B     		ldr	r3, .L135+20
 1920 057a D3F8A032 		ldr	r3, [r3, #672]
 1921 057e 7969     		ldr	r1, [r7, #20]
 1922 0580 01FB03F1 		mul	r1, r1, r3
 1923 0584 0C4B     		ldr	r3, .L135+4
 1924 0586 B3F8F231 		ldrh	r3, [r3, #498]
 1925 058a C3F58063 		rsb	r3, r3, #1024
ARM GAS  C:\Users\mgnocco\AppData\Local\Temp\ccM9DEjH.s 			page 49


 1926 058e 91FBF3F3 		sdiv	r3, r1, r3
 1927 0592 D21A     		subs	r2, r2, r3
 1928 0594 BB68     		ldr	r3, [r7, #8]
 1929 0596 1A60     		str	r2, [r3]
 753:..\src/interruptions.c ****             else {
 754:..\src/interruptions.c ****                 st_ref_p->pos = g_mem.SH.rest_pos;
 755:..\src/interruptions.c ****                 forced_open = 0;
 756:..\src/interruptions.c ****             }
 757:..\src/interruptions.c ****         }
 758:..\src/interruptions.c ****     }
 759:..\src/interruptions.c **** }
 1930              		.loc 1 759 0
 1931 0598 07E0     		b	.L130
 1932              	.L122:
 754:..\src/interruptions.c ****                 forced_open = 0;
 1933              		.loc 1 754 0
 1934 059a 0B4B     		ldr	r3, .L135+20
 1935 059c D3F8A022 		ldr	r2, [r3, #672]
 1936 05a0 BB68     		ldr	r3, [r7, #8]
 1937 05a2 1A60     		str	r2, [r3]
 755:..\src/interruptions.c ****             }
 1938              		.loc 1 755 0
 1939 05a4 074B     		ldr	r3, .L135+16
 1940 05a6 0022     		movs	r2, #0
 1941 05a8 1A70     		strb	r2, [r3]
 1942              	.L130:
 1943              		.loc 1 759 0
 1944 05aa 00BF     		nop
 1945 05ac 2837     		adds	r7, r7, #40
 1946              		.cfi_def_cfa_offset 8
 1947 05ae BD46     		mov	sp, r7
 1948              		.cfi_def_cfa_register 13
 1949              		@ sp needed
 1950 05b0 80BD     		pop	{r7, pc}
 1951              	.L136:
 1952 05b2 00BF     		.align	2
 1953              	.L135:
 1954 05b4 00000000 		.word	battery_low_SoC
 1955 05b8 00000000 		.word	c_mem
 1956 05bc 00000000 		.word	rest_enabled
 1957 05c0 00000000 		.word	rest_pos_curr_ref
 1958 05c4 00000000 		.word	forced_open
 1959 05c8 00000000 		.word	g_mem
 1960              		.cfi_endproc
 1961              	.LFE68:
 1962              		.size	compute_reference, .-compute_reference
 1963              		.section	.text.compute_SoftHand_2_motors_joystick_reference,"ax",%progbits
 1964              		.align	2
 1965              		.global	compute_SoftHand_2_motors_joystick_reference
 1966              		.thumb
 1967              		.thumb_func
 1968              		.type	compute_SoftHand_2_motors_joystick_reference, %function
 1969              	compute_SoftHand_2_motors_joystick_reference:
 1970              	.LFB69:
 760:..\src/interruptions.c **** 
 761:..\src/interruptions.c **** 
 762:..\src/interruptions.c **** //==============================================================================
ARM GAS  C:\Users\mgnocco\AppData\Local\Temp\ccM9DEjH.s 			page 50


 763:..\src/interruptions.c **** //                                  COMPUTE SOFTHAND 2 MOTORS JOYSTICK REFERENCE
 764:..\src/interruptions.c **** //==============================================================================
 765:..\src/interruptions.c **** void compute_SoftHand_2_motors_joystick_reference(uint8 motor_idx, struct st_ref* st_ref_p, struct 
 1971              		.loc 1 765 0
 1972              		.cfi_startproc
 1973              		@ args = 0, pretend = 0, frame = 32
 1974              		@ frame_needed = 1, uses_anonymous_args = 0
 1975              		@ link register save eliminated.
 1976 0000 80B4     		push	{r7}
 1977              		.cfi_def_cfa_offset 4
 1978              		.cfi_offset 7, -4
 1979 0002 89B0     		sub	sp, sp, #36
 1980              		.cfi_def_cfa_offset 40
 1981 0004 00AF     		add	r7, sp, #0
 1982              		.cfi_def_cfa_register 7
 1983 0006 0346     		mov	r3, r0
 1984 0008 B960     		str	r1, [r7, #8]
 1985 000a 7A60     		str	r2, [r7, #4]
 1986 000c FB73     		strb	r3, [r7, #15]
 766:..\src/interruptions.c ****     
 767:..\src/interruptions.c ****     if (c_mem.motor[0].input_mode == INPUT_MODE_JOYSTICK && c_mem.motor[1].input_mode == INPUT_MODE
 1987              		.loc 1 767 0
 1988 000e B04B     		ldr	r3, .L158
 1989 0010 93F80E31 		ldrb	r3, [r3, #270]	@ zero_extendqisi2
 1990 0014 062B     		cmp	r3, #6
 1991 0016 40F08581 		bne	.L156
 1992              		.loc 1 767 0 is_stmt 0 discriminator 1
 1993 001a AD4B     		ldr	r3, .L158
 1994 001c 93F87E31 		ldrb	r3, [r3, #382]	@ zero_extendqisi2
 1995 0020 062B     		cmp	r3, #6
 1996 0022 40F07F81 		bne	.L156
 768:..\src/interruptions.c ****         st_ref_p->pos = st_refOld_p->pos;
 1997              		.loc 1 768 0 is_stmt 1
 1998 0026 7B68     		ldr	r3, [r7, #4]
 1999 0028 1A68     		ldr	r2, [r3]
 2000 002a BB68     		ldr	r3, [r7, #8]
 2001 002c 1A60     		str	r2, [r3]
 769:..\src/interruptions.c ****     
 770:..\src/interruptions.c ****         if(!(g_adc_meas.joystick[0] > 700)) {
 2002              		.loc 1 770 0
 2003 002e A94B     		ldr	r3, .L158+4
 2004 0030 1B6A     		ldr	r3, [r3, #32]
 2005 0032 B3F52F7F 		cmp	r3, #700
 2006 0036 00F3C280 		bgt	.L139
 2007              	.LBB5:
 771:..\src/interruptions.c ****              
 772:..\src/interruptions.c ****             int32 CYDATA err_joy_1 = 0;
 2008              		.loc 1 772 0
 2009 003a 0023     		movs	r3, #0
 2010 003c FB61     		str	r3, [r7, #28]
 773:..\src/interruptions.c ****             int32 CYDATA err_joy_2 = 0;
 2011              		.loc 1 773 0
 2012 003e 0023     		movs	r3, #0
 2013 0040 BB61     		str	r3, [r7, #24]
 774:..\src/interruptions.c ****         
 775:..\src/interruptions.c ****             if(g_adc_meas.joystick[0] > c_mem.JOY_spec.joystick_threshold) {     //both motors wind
 2014              		.loc 1 775 0
ARM GAS  C:\Users\mgnocco\AppData\Local\Temp\ccM9DEjH.s 			page 51


 2015 0042 A44B     		ldr	r3, .L158+4
 2016 0044 1B6A     		ldr	r3, [r3, #32]
 2017 0046 A24A     		ldr	r2, .L158
 2018 0048 B2F9B222 		ldrsh	r2, [r2, #690]
 2019 004c 9342     		cmp	r3, r2
 2020 004e 1ADD     		ble	.L140
 776:..\src/interruptions.c ****                 err_joy_1 = g_adc_meas.joystick[0] - c_mem.JOY_spec.joystick_threshold;
 2021              		.loc 1 776 0
 2022 0050 A04B     		ldr	r3, .L158+4
 2023 0052 1B6A     		ldr	r3, [r3, #32]
 2024 0054 9E4A     		ldr	r2, .L158
 2025 0056 B2F9B222 		ldrsh	r2, [r2, #690]
 2026 005a 9B1A     		subs	r3, r3, r2
 2027 005c FB61     		str	r3, [r7, #28]
 777:..\src/interruptions.c ****                 st_ref_p->pos += ((int32) err_joy_1 * c_mem.JOY_spec.joystick_closure_speed) / (102
 2028              		.loc 1 777 0
 2029 005e BB68     		ldr	r3, [r7, #8]
 2030 0060 1A68     		ldr	r2, [r3]
 2031 0062 9B4B     		ldr	r3, .L158
 2032 0064 B3F8B032 		ldrh	r3, [r3, #688]
 2033 0068 1946     		mov	r1, r3
 2034 006a FB69     		ldr	r3, [r7, #28]
 2035 006c 03FB01F1 		mul	r1, r3, r1
 2036 0070 974B     		ldr	r3, .L158
 2037 0072 B3F9B232 		ldrsh	r3, [r3, #690]
 2038 0076 C3F58063 		rsb	r3, r3, #1024
 2039 007a 91FBF3F3 		sdiv	r3, r1, r3
 2040 007e 1A44     		add	r2, r2, r3
 2041 0080 BB68     		ldr	r3, [r7, #8]
 2042 0082 1A60     		str	r2, [r3]
 2043 0084 21E0     		b	.L141
 2044              	.L140:
 778:..\src/interruptions.c ****             }
 779:..\src/interruptions.c ****             else {
 780:..\src/interruptions.c ****                 if(g_adc_meas.joystick[0] < -c_mem.JOY_spec.joystick_threshold) {  //both motors un
 2045              		.loc 1 780 0
 2046 0086 934B     		ldr	r3, .L158+4
 2047 0088 1A6A     		ldr	r2, [r3, #32]
 2048 008a 914B     		ldr	r3, .L158
 2049 008c B3F9B232 		ldrsh	r3, [r3, #690]
 2050 0090 5B42     		negs	r3, r3
 2051 0092 9A42     		cmp	r2, r3
 2052 0094 19DA     		bge	.L141
 781:..\src/interruptions.c ****                     err_joy_1 = g_adc_meas.joystick[0] + c_mem.JOY_spec.joystick_threshold;
 2053              		.loc 1 781 0
 2054 0096 8F4B     		ldr	r3, .L158+4
 2055 0098 1B6A     		ldr	r3, [r3, #32]
 2056 009a 8D4A     		ldr	r2, .L158
 2057 009c B2F9B222 		ldrsh	r2, [r2, #690]
 2058 00a0 1344     		add	r3, r3, r2
 2059 00a2 FB61     		str	r3, [r7, #28]
 782:..\src/interruptions.c ****                     st_ref_p->pos += ((int32) err_joy_1 * c_mem.JOY_spec.joystick_closure_speed) / 
 2060              		.loc 1 782 0
 2061 00a4 BB68     		ldr	r3, [r7, #8]
 2062 00a6 1A68     		ldr	r2, [r3]
 2063 00a8 894B     		ldr	r3, .L158
 2064 00aa B3F8B032 		ldrh	r3, [r3, #688]
ARM GAS  C:\Users\mgnocco\AppData\Local\Temp\ccM9DEjH.s 			page 52


 2065 00ae 1946     		mov	r1, r3
 2066 00b0 FB69     		ldr	r3, [r7, #28]
 2067 00b2 03FB01F1 		mul	r1, r3, r1
 2068 00b6 864B     		ldr	r3, .L158
 2069 00b8 B3F9B232 		ldrsh	r3, [r3, #690]
 2070 00bc C3F58063 		rsb	r3, r3, #1024
 2071 00c0 91FBF3F3 		sdiv	r3, r1, r3
 2072 00c4 1A44     		add	r2, r2, r3
 2073 00c6 BB68     		ldr	r3, [r7, #8]
 2074 00c8 1A60     		str	r2, [r3]
 2075              	.L141:
 783:..\src/interruptions.c ****                 }
 784:..\src/interruptions.c ****             }
 785:..\src/interruptions.c **** 
 786:..\src/interruptions.c ****             if(g_adc_meas.joystick[1] > c_mem.JOY_spec.joystick_threshold) {    //The wire is winde
 2076              		.loc 1 786 0
 2077 00ca 824B     		ldr	r3, .L158+4
 2078 00cc 5B6A     		ldr	r3, [r3, #36]
 2079 00ce 804A     		ldr	r2, .L158
 2080 00d0 B2F9B222 		ldrsh	r2, [r2, #690]
 2081 00d4 9342     		cmp	r3, r2
 2082 00d6 34DD     		ble	.L142
 787:..\src/interruptions.c ****                 err_joy_2 = g_adc_meas.joystick[1] - c_mem.JOY_spec.joystick_threshold;
 2083              		.loc 1 787 0
 2084 00d8 7E4B     		ldr	r3, .L158+4
 2085 00da 5B6A     		ldr	r3, [r3, #36]
 2086 00dc 7C4A     		ldr	r2, .L158
 2087 00de B2F9B222 		ldrsh	r2, [r2, #690]
 2088 00e2 9B1A     		subs	r3, r3, r2
 2089 00e4 BB61     		str	r3, [r7, #24]
 788:..\src/interruptions.c ****                 if (motor_idx == 0){
 2090              		.loc 1 788 0
 2091 00e6 FB7B     		ldrb	r3, [r7, #15]	@ zero_extendqisi2
 2092 00e8 002B     		cmp	r3, #0
 2093 00ea 12D1     		bne	.L143
 789:..\src/interruptions.c ****                     st_ref_p->pos += ((int32) err_joy_2 * c_mem.JOY_spec.joystick_closure_speed) / 
 2094              		.loc 1 789 0
 2095 00ec BB68     		ldr	r3, [r7, #8]
 2096 00ee 1A68     		ldr	r2, [r3]
 2097 00f0 774B     		ldr	r3, .L158
 2098 00f2 B3F8B032 		ldrh	r3, [r3, #688]
 2099 00f6 1946     		mov	r1, r3
 2100 00f8 BB69     		ldr	r3, [r7, #24]
 2101 00fa 03FB01F1 		mul	r1, r3, r1
 2102 00fe 744B     		ldr	r3, .L158
 2103 0100 B3F9B232 		ldrsh	r3, [r3, #690]
 2104 0104 C3F58063 		rsb	r3, r3, #1024
 2105 0108 91FBF3F3 		sdiv	r3, r1, r3
 2106 010c 1A44     		add	r2, r2, r3
 2107 010e BB68     		ldr	r3, [r7, #8]
 2108 0110 1A60     		str	r2, [r3]
 2109              	.L143:
 790:..\src/interruptions.c ****                 }
 791:..\src/interruptions.c ****                 if (motor_idx == 1){
 2110              		.loc 1 791 0
 2111 0112 FB7B     		ldrb	r3, [r7, #15]	@ zero_extendqisi2
 2112 0114 012B     		cmp	r3, #1
ARM GAS  C:\Users\mgnocco\AppData\Local\Temp\ccM9DEjH.s 			page 53


 2113 0116 40F00581 		bne	.L156
 792:..\src/interruptions.c ****                     st_ref_p->pos -= ((int32) err_joy_2 * c_mem.JOY_spec.joystick_closure_speed) / 
 2114              		.loc 1 792 0
 2115 011a BB68     		ldr	r3, [r7, #8]
 2116 011c 1A68     		ldr	r2, [r3]
 2117 011e 6C4B     		ldr	r3, .L158
 2118 0120 B3F8B032 		ldrh	r3, [r3, #688]
 2119 0124 1946     		mov	r1, r3
 2120 0126 BB69     		ldr	r3, [r7, #24]
 2121 0128 03FB01F1 		mul	r1, r3, r1
 2122 012c 684B     		ldr	r3, .L158
 2123 012e B3F9B232 		ldrsh	r3, [r3, #690]
 2124 0132 C3F58063 		rsb	r3, r3, #1024
 2125 0136 91FBF3F3 		sdiv	r3, r1, r3
 2126 013a D21A     		subs	r2, r2, r3
 2127 013c BB68     		ldr	r3, [r7, #8]
 2128 013e 1A60     		str	r2, [r3]
 2129              	.LBE5:
 793:..\src/interruptions.c ****                 }          
 794:..\src/interruptions.c ****             }
 795:..\src/interruptions.c ****             else {
 796:..\src/interruptions.c ****                 if(g_adc_meas.joystick[1] < -c_mem.JOY_spec.joystick_threshold) {  //The wire is un
 797:..\src/interruptions.c ****                     
 798:..\src/interruptions.c ****                     err_joy_2 = g_adc_meas.joystick[1] + c_mem.JOY_spec.joystick_threshold;
 799:..\src/interruptions.c ****                     if (motor_idx == 0){
 800:..\src/interruptions.c ****                         st_ref_p->pos += ((int32) err_joy_2 * c_mem.JOY_spec.joystick_closure_speed
 801:..\src/interruptions.c ****                     }
 802:..\src/interruptions.c ****                     if (motor_idx == 1){
 803:..\src/interruptions.c ****                         st_ref_p->pos -= ((int32) err_joy_2 * c_mem.JOY_spec.joystick_closure_speed
 804:..\src/interruptions.c ****                     }
 805:..\src/interruptions.c ****                 }
 806:..\src/interruptions.c ****             }
 807:..\src/interruptions.c ****         }
 808:..\src/interruptions.c ****         else {  //The button is pressed and the hand is opened firstly making the position differen
 809:..\src/interruptions.c ****                 //equal to zero, then the position sum is gradually set to zero 
 810:..\src/interruptions.c ****             int32 pos_diff = (g_meas[c_mem.motor[0].encoder_line].pos[0] - g_meas[c_mem.motor[0].en
 811:..\src/interruptions.c ****             int32 pos_sum = (g_meas[c_mem.motor[0].encoder_line].pos[0] + g_meas[c_mem.motor[0].enc
 812:..\src/interruptions.c **** 
 813:..\src/interruptions.c ****             if(pos_diff > 500 || pos_diff < -500) {
 814:..\src/interruptions.c ****                 if(SIGN(pos_diff) == 1) {
 815:..\src/interruptions.c ****                     if (motor_idx == 1){
 816:..\src/interruptions.c ****                         st_ref_p->pos += c_mem.JOY_spec.joystick_closure_speed;
 817:..\src/interruptions.c ****                     }
 818:..\src/interruptions.c ****                     if (motor_idx == 0){
 819:..\src/interruptions.c ****                         st_ref_p->pos -= c_mem.JOY_spec.joystick_closure_speed / 2;
 820:..\src/interruptions.c ****                     }                    
 821:..\src/interruptions.c ****                 }
 822:..\src/interruptions.c ****                 else {
 823:..\src/interruptions.c ****                     if (motor_idx == 0){
 824:..\src/interruptions.c ****                         st_ref_p->pos += c_mem.JOY_spec.joystick_closure_speed;
 825:..\src/interruptions.c ****                     }
 826:..\src/interruptions.c ****                     if (motor_idx == 1){
 827:..\src/interruptions.c ****                         st_ref_p->pos -= c_mem.JOY_spec.joystick_closure_speed / 2;
 828:..\src/interruptions.c ****                     }
 829:..\src/interruptions.c ****                 }
 830:..\src/interruptions.c ****                 
 831:..\src/interruptions.c ****             }
ARM GAS  C:\Users\mgnocco\AppData\Local\Temp\ccM9DEjH.s 			page 54


 832:..\src/interruptions.c ****             else {
 833:..\src/interruptions.c ****                 if(pos_sum > 0) {
 834:..\src/interruptions.c ****                     if (motor_idx == 0){
 835:..\src/interruptions.c ****                         st_ref_p->pos -= c_mem.JOY_spec.joystick_closure_speed * 2;
 836:..\src/interruptions.c ****                     }
 837:..\src/interruptions.c ****                     if (motor_idx == 1){
 838:..\src/interruptions.c ****                         st_ref_p->pos -= c_mem.JOY_spec.joystick_closure_speed * 2;
 839:..\src/interruptions.c ****                     }
 840:..\src/interruptions.c ****                     
 841:..\src/interruptions.c ****                     if (st_ref_p->pos < 0){
 842:..\src/interruptions.c ****                         st_ref_p->pos = 0;
 843:..\src/interruptions.c ****                     }
 844:..\src/interruptions.c ****                 }
 845:..\src/interruptions.c ****             }
 846:..\src/interruptions.c ****         }
 847:..\src/interruptions.c ****     }           
 848:..\src/interruptions.c **** }
 2130              		.loc 1 848 0
 2131 0140 F0E0     		b	.L156
 2132              	.L142:
 2133              	.LBB6:
 796:..\src/interruptions.c ****                     
 2134              		.loc 1 796 0
 2135 0142 644B     		ldr	r3, .L158+4
 2136 0144 5A6A     		ldr	r2, [r3, #36]
 2137 0146 624B     		ldr	r3, .L158
 2138 0148 B3F9B232 		ldrsh	r3, [r3, #690]
 2139 014c 5B42     		negs	r3, r3
 2140 014e 9A42     		cmp	r2, r3
 2141 0150 80F2E880 		bge	.L156
 798:..\src/interruptions.c ****                     if (motor_idx == 0){
 2142              		.loc 1 798 0
 2143 0154 5F4B     		ldr	r3, .L158+4
 2144 0156 5B6A     		ldr	r3, [r3, #36]
 2145 0158 5D4A     		ldr	r2, .L158
 2146 015a B2F9B222 		ldrsh	r2, [r2, #690]
 2147 015e 1344     		add	r3, r3, r2
 2148 0160 BB61     		str	r3, [r7, #24]
 799:..\src/interruptions.c ****                         st_ref_p->pos += ((int32) err_joy_2 * c_mem.JOY_spec.joystick_closure_speed
 2149              		.loc 1 799 0
 2150 0162 FB7B     		ldrb	r3, [r7, #15]	@ zero_extendqisi2
 2151 0164 002B     		cmp	r3, #0
 2152 0166 12D1     		bne	.L146
 800:..\src/interruptions.c ****                     }
 2153              		.loc 1 800 0
 2154 0168 BB68     		ldr	r3, [r7, #8]
 2155 016a 1A68     		ldr	r2, [r3]
 2156 016c 584B     		ldr	r3, .L158
 2157 016e B3F8B032 		ldrh	r3, [r3, #688]
 2158 0172 1946     		mov	r1, r3
 2159 0174 BB69     		ldr	r3, [r7, #24]
 2160 0176 03FB01F1 		mul	r1, r3, r1
 2161 017a 554B     		ldr	r3, .L158
 2162 017c B3F9B232 		ldrsh	r3, [r3, #690]
 2163 0180 C3F58063 		rsb	r3, r3, #1024
 2164 0184 91FBF3F3 		sdiv	r3, r1, r3
 2165 0188 1A44     		add	r2, r2, r3
ARM GAS  C:\Users\mgnocco\AppData\Local\Temp\ccM9DEjH.s 			page 55


 2166 018a BB68     		ldr	r3, [r7, #8]
 2167 018c 1A60     		str	r2, [r3]
 2168              	.L146:
 802:..\src/interruptions.c ****                         st_ref_p->pos -= ((int32) err_joy_2 * c_mem.JOY_spec.joystick_closure_speed
 2169              		.loc 1 802 0
 2170 018e FB7B     		ldrb	r3, [r7, #15]	@ zero_extendqisi2
 2171 0190 012B     		cmp	r3, #1
 2172 0192 40F0C780 		bne	.L156
 803:..\src/interruptions.c ****                     }
 2173              		.loc 1 803 0
 2174 0196 BB68     		ldr	r3, [r7, #8]
 2175 0198 1A68     		ldr	r2, [r3]
 2176 019a 4D4B     		ldr	r3, .L158
 2177 019c B3F8B032 		ldrh	r3, [r3, #688]
 2178 01a0 1946     		mov	r1, r3
 2179 01a2 BB69     		ldr	r3, [r7, #24]
 2180 01a4 03FB01F1 		mul	r1, r3, r1
 2181 01a8 494B     		ldr	r3, .L158
 2182 01aa B3F9B232 		ldrsh	r3, [r3, #690]
 2183 01ae C3F58063 		rsb	r3, r3, #1024
 2184 01b2 91FBF3F3 		sdiv	r3, r1, r3
 2185 01b6 D21A     		subs	r2, r2, r3
 2186 01b8 BB68     		ldr	r3, [r7, #8]
 2187 01ba 1A60     		str	r2, [r3]
 2188              	.LBE6:
 2189              		.loc 1 848 0
 2190 01bc B2E0     		b	.L156
 2191              	.L139:
 2192              	.LBB7:
 810:..\src/interruptions.c ****             int32 pos_sum = (g_meas[c_mem.motor[0].encoder_line].pos[0] + g_meas[c_mem.motor[0].enc
 2193              		.loc 1 810 0
 2194 01be 444B     		ldr	r3, .L158
 2195 01c0 93F81031 		ldrb	r3, [r3, #272]	@ zero_extendqisi2
 2196 01c4 1946     		mov	r1, r3
 2197 01c6 444A     		ldr	r2, .L158+8
 2198 01c8 3423     		movs	r3, #52
 2199 01ca 03FB01F3 		mul	r3, r3, r1
 2200 01ce 1344     		add	r3, r3, r2
 2201 01d0 1A68     		ldr	r2, [r3]
 2202 01d2 3F4B     		ldr	r3, .L158
 2203 01d4 93F81031 		ldrb	r3, [r3, #272]	@ zero_extendqisi2
 2204 01d8 1846     		mov	r0, r3
 2205 01da 3F49     		ldr	r1, .L158+8
 2206 01dc 3423     		movs	r3, #52
 2207 01de 03FB00F3 		mul	r3, r3, r0
 2208 01e2 0B44     		add	r3, r3, r1
 2209 01e4 0433     		adds	r3, r3, #4
 2210 01e6 1B68     		ldr	r3, [r3]
 2211 01e8 D21A     		subs	r2, r2, r3
 2212 01ea 394B     		ldr	r3, .L158
 2213 01ec 93F81031 		ldrb	r3, [r3, #272]	@ zero_extendqisi2
 2214 01f0 1846     		mov	r0, r3
 2215 01f2 3749     		ldr	r1, .L158
 2216 01f4 0346     		mov	r3, r0
 2217 01f6 5B00     		lsls	r3, r3, #1
 2218 01f8 0344     		add	r3, r3, r0
 2219 01fa 1B01     		lsls	r3, r3, #4
ARM GAS  C:\Users\mgnocco\AppData\Local\Temp\ccM9DEjH.s 			page 56


 2220 01fc 0B44     		add	r3, r3, r1
 2221 01fe 03F29513 		addw	r3, r3, #405
 2222 0202 1B78     		ldrb	r3, [r3]	@ zero_extendqisi2
 2223 0204 42FA03F3 		asr	r3, r2, r3
 2224 0208 7B61     		str	r3, [r7, #20]
 811:..\src/interruptions.c **** 
 2225              		.loc 1 811 0
 2226 020a 314B     		ldr	r3, .L158
 2227 020c 93F81031 		ldrb	r3, [r3, #272]	@ zero_extendqisi2
 2228 0210 1946     		mov	r1, r3
 2229 0212 314A     		ldr	r2, .L158+8
 2230 0214 3423     		movs	r3, #52
 2231 0216 03FB01F3 		mul	r3, r3, r1
 2232 021a 1344     		add	r3, r3, r2
 2233 021c 1A68     		ldr	r2, [r3]
 2234 021e 2C4B     		ldr	r3, .L158
 2235 0220 93F81031 		ldrb	r3, [r3, #272]	@ zero_extendqisi2
 2236 0224 1846     		mov	r0, r3
 2237 0226 2C49     		ldr	r1, .L158+8
 2238 0228 3423     		movs	r3, #52
 2239 022a 03FB00F3 		mul	r3, r3, r0
 2240 022e 0B44     		add	r3, r3, r1
 2241 0230 0433     		adds	r3, r3, #4
 2242 0232 1B68     		ldr	r3, [r3]
 2243 0234 1A44     		add	r2, r2, r3
 2244 0236 264B     		ldr	r3, .L158
 2245 0238 93F81031 		ldrb	r3, [r3, #272]	@ zero_extendqisi2
 2246 023c 1846     		mov	r0, r3
 2247 023e 2449     		ldr	r1, .L158
 2248 0240 0346     		mov	r3, r0
 2249 0242 5B00     		lsls	r3, r3, #1
 2250 0244 0344     		add	r3, r3, r0
 2251 0246 1B01     		lsls	r3, r3, #4
 2252 0248 0B44     		add	r3, r3, r1
 2253 024a 03F29513 		addw	r3, r3, #405
 2254 024e 1B78     		ldrb	r3, [r3]	@ zero_extendqisi2
 2255 0250 42FA03F3 		asr	r3, r2, r3
 2256 0254 3B61     		str	r3, [r7, #16]
 813:..\src/interruptions.c ****                 if(SIGN(pos_diff) == 1) {
 2257              		.loc 1 813 0
 2258 0256 7B69     		ldr	r3, [r7, #20]
 2259 0258 B3F5FA7F 		cmp	r3, #500
 2260 025c 03DC     		bgt	.L147
 813:..\src/interruptions.c ****                 if(SIGN(pos_diff) == 1) {
 2261              		.loc 1 813 0 is_stmt 0 discriminator 1
 2262 025e 7B69     		ldr	r3, [r7, #20]
 2263 0260 13F5FA7F 		cmn	r3, #500
 2264 0264 3ADA     		bge	.L148
 2265              	.L147:
 814:..\src/interruptions.c ****                     if (motor_idx == 1){
 2266              		.loc 1 814 0 is_stmt 1
 2267 0266 7B69     		ldr	r3, [r7, #20]
 2268 0268 002B     		cmp	r3, #0
 2269 026a 18DB     		blt	.L149
 815:..\src/interruptions.c ****                         st_ref_p->pos += c_mem.JOY_spec.joystick_closure_speed;
 2270              		.loc 1 815 0
 2271 026c FB7B     		ldrb	r3, [r7, #15]	@ zero_extendqisi2
ARM GAS  C:\Users\mgnocco\AppData\Local\Temp\ccM9DEjH.s 			page 57


 2272 026e 012B     		cmp	r3, #1
 2273 0270 07D1     		bne	.L150
 816:..\src/interruptions.c ****                     }
 2274              		.loc 1 816 0
 2275 0272 BB68     		ldr	r3, [r7, #8]
 2276 0274 1B68     		ldr	r3, [r3]
 2277 0276 164A     		ldr	r2, .L158
 2278 0278 B2F8B022 		ldrh	r2, [r2, #688]
 2279 027c 1A44     		add	r2, r2, r3
 2280 027e BB68     		ldr	r3, [r7, #8]
 2281 0280 1A60     		str	r2, [r3]
 2282              	.L150:
 818:..\src/interruptions.c ****                         st_ref_p->pos -= c_mem.JOY_spec.joystick_closure_speed / 2;
 2283              		.loc 1 818 0
 2284 0282 FB7B     		ldrb	r3, [r7, #15]	@ zero_extendqisi2
 2285 0284 002B     		cmp	r3, #0
 2286 0286 4CD1     		bne	.L157
 819:..\src/interruptions.c ****                     }                    
 2287              		.loc 1 819 0
 2288 0288 BB68     		ldr	r3, [r7, #8]
 2289 028a 1B68     		ldr	r3, [r3]
 2290 028c 104A     		ldr	r2, .L158
 2291 028e B2F8B022 		ldrh	r2, [r2, #688]
 2292 0292 5208     		lsrs	r2, r2, #1
 2293 0294 92B2     		uxth	r2, r2
 2294 0296 9A1A     		subs	r2, r3, r2
 2295 0298 BB68     		ldr	r3, [r7, #8]
 2296 029a 1A60     		str	r2, [r3]
 814:..\src/interruptions.c ****                     if (motor_idx == 1){
 2297              		.loc 1 814 0
 2298 029c 41E0     		b	.L157
 2299              	.L149:
 823:..\src/interruptions.c ****                         st_ref_p->pos += c_mem.JOY_spec.joystick_closure_speed;
 2300              		.loc 1 823 0
 2301 029e FB7B     		ldrb	r3, [r7, #15]	@ zero_extendqisi2
 2302 02a0 002B     		cmp	r3, #0
 2303 02a2 07D1     		bne	.L153
 824:..\src/interruptions.c ****                     }
 2304              		.loc 1 824 0
 2305 02a4 BB68     		ldr	r3, [r7, #8]
 2306 02a6 1B68     		ldr	r3, [r3]
 2307 02a8 094A     		ldr	r2, .L158
 2308 02aa B2F8B022 		ldrh	r2, [r2, #688]
 2309 02ae 1A44     		add	r2, r2, r3
 2310 02b0 BB68     		ldr	r3, [r7, #8]
 2311 02b2 1A60     		str	r2, [r3]
 2312              	.L153:
 826:..\src/interruptions.c ****                         st_ref_p->pos -= c_mem.JOY_spec.joystick_closure_speed / 2;
 2313              		.loc 1 826 0
 2314 02b4 FB7B     		ldrb	r3, [r7, #15]	@ zero_extendqisi2
 2315 02b6 012B     		cmp	r3, #1
 2316 02b8 33D1     		bne	.L157
 827:..\src/interruptions.c ****                     }
 2317              		.loc 1 827 0
 2318 02ba BB68     		ldr	r3, [r7, #8]
 2319 02bc 1B68     		ldr	r3, [r3]
 2320 02be 044A     		ldr	r2, .L158
ARM GAS  C:\Users\mgnocco\AppData\Local\Temp\ccM9DEjH.s 			page 58


 2321 02c0 B2F8B022 		ldrh	r2, [r2, #688]
 2322 02c4 5208     		lsrs	r2, r2, #1
 2323 02c6 92B2     		uxth	r2, r2
 2324 02c8 9A1A     		subs	r2, r3, r2
 2325 02ca BB68     		ldr	r3, [r7, #8]
 2326 02cc 1A60     		str	r2, [r3]
 814:..\src/interruptions.c ****                     if (motor_idx == 1){
 2327              		.loc 1 814 0
 2328 02ce 28E0     		b	.L157
 2329              	.L159:
 2330              		.align	2
 2331              	.L158:
 2332 02d0 00000000 		.word	c_mem
 2333 02d4 00000000 		.word	g_adc_meas
 2334 02d8 00000000 		.word	g_meas
 2335              	.L148:
 833:..\src/interruptions.c ****                     if (motor_idx == 0){
 2336              		.loc 1 833 0
 2337 02dc 3B69     		ldr	r3, [r7, #16]
 2338 02de 002B     		cmp	r3, #0
 2339 02e0 20DD     		ble	.L156
 834:..\src/interruptions.c ****                         st_ref_p->pos -= c_mem.JOY_spec.joystick_closure_speed * 2;
 2340              		.loc 1 834 0
 2341 02e2 FB7B     		ldrb	r3, [r7, #15]	@ zero_extendqisi2
 2342 02e4 002B     		cmp	r3, #0
 2343 02e6 08D1     		bne	.L154
 835:..\src/interruptions.c ****                     }
 2344              		.loc 1 835 0
 2345 02e8 BB68     		ldr	r3, [r7, #8]
 2346 02ea 1A68     		ldr	r2, [r3]
 2347 02ec 104B     		ldr	r3, .L160
 2348 02ee B3F8B032 		ldrh	r3, [r3, #688]
 2349 02f2 5B00     		lsls	r3, r3, #1
 2350 02f4 D21A     		subs	r2, r2, r3
 2351 02f6 BB68     		ldr	r3, [r7, #8]
 2352 02f8 1A60     		str	r2, [r3]
 2353              	.L154:
 837:..\src/interruptions.c ****                         st_ref_p->pos -= c_mem.JOY_spec.joystick_closure_speed * 2;
 2354              		.loc 1 837 0
 2355 02fa FB7B     		ldrb	r3, [r7, #15]	@ zero_extendqisi2
 2356 02fc 012B     		cmp	r3, #1
 2357 02fe 08D1     		bne	.L155
 838:..\src/interruptions.c ****                     }
 2358              		.loc 1 838 0
 2359 0300 BB68     		ldr	r3, [r7, #8]
 2360 0302 1A68     		ldr	r2, [r3]
 2361 0304 0A4B     		ldr	r3, .L160
 2362 0306 B3F8B032 		ldrh	r3, [r3, #688]
 2363 030a 5B00     		lsls	r3, r3, #1
 2364 030c D21A     		subs	r2, r2, r3
 2365 030e BB68     		ldr	r3, [r7, #8]
 2366 0310 1A60     		str	r2, [r3]
 2367              	.L155:
 841:..\src/interruptions.c ****                         st_ref_p->pos = 0;
 2368              		.loc 1 841 0
 2369 0312 BB68     		ldr	r3, [r7, #8]
 2370 0314 1B68     		ldr	r3, [r3]
ARM GAS  C:\Users\mgnocco\AppData\Local\Temp\ccM9DEjH.s 			page 59


 2371 0316 002B     		cmp	r3, #0
 2372 0318 04DA     		bge	.L156
 842:..\src/interruptions.c ****                     }
 2373              		.loc 1 842 0
 2374 031a BB68     		ldr	r3, [r7, #8]
 2375 031c 0022     		movs	r2, #0
 2376 031e 1A60     		str	r2, [r3]
 2377              	.LBE7:
 2378              		.loc 1 848 0
 2379 0320 00E0     		b	.L156
 2380              	.L157:
 2381              	.LBB8:
 814:..\src/interruptions.c ****                     if (motor_idx == 1){
 2382              		.loc 1 814 0
 2383 0322 00BF     		nop
 2384              	.L156:
 2385              	.LBE8:
 2386              		.loc 1 848 0
 2387 0324 00BF     		nop
 2388 0326 2437     		adds	r7, r7, #36
 2389              		.cfi_def_cfa_offset 4
 2390 0328 BD46     		mov	sp, r7
 2391              		.cfi_def_cfa_register 13
 2392              		@ sp needed
 2393 032a 80BC     		pop	{r7}
 2394              		.cfi_restore 7
 2395              		.cfi_def_cfa_offset 0
 2396 032c 7047     		bx	lr
 2397              	.L161:
 2398 032e 00BF     		.align	2
 2399              	.L160:
 2400 0330 00000000 		.word	c_mem
 2401              		.cfi_endproc
 2402              	.LFE69:
 2403              		.size	compute_SoftHand_2_motors_joystick_reference, .-compute_SoftHand_2_motors_joystick_reference
 2404              		.section	.text.compute_SoftHand_2_motors_emg_reference,"ax",%progbits
 2405              		.align	2
 2406              		.global	compute_SoftHand_2_motors_emg_reference
 2407              		.thumb
 2408              		.thumb_func
 2409              		.type	compute_SoftHand_2_motors_emg_reference, %function
 2410              	compute_SoftHand_2_motors_emg_reference:
 2411              	.LFB70:
 849:..\src/interruptions.c **** 
 850:..\src/interruptions.c **** 
 851:..\src/interruptions.c **** //==============================================================================
 852:..\src/interruptions.c **** //                                       COMPUTE SOFTHAND 2 MOTORS EMG REFERENCE
 853:..\src/interruptions.c **** //==============================================================================
 854:..\src/interruptions.c **** void compute_SoftHand_2_motors_emg_reference(uint8 motor_idx, struct st_ref* st_ref_p, struct st_re
 855:..\src/interruptions.c ****     int32 err_emg_1, int32 err_emg_2) {
 2412              		.loc 1 855 0
 2413              		.cfi_startproc
 2414              		@ args = 4, pretend = 0, frame = 16
 2415              		@ frame_needed = 1, uses_anonymous_args = 0
 2416 0000 80B5     		push	{r7, lr}
 2417              		.cfi_def_cfa_offset 8
 2418              		.cfi_offset 7, -8
ARM GAS  C:\Users\mgnocco\AppData\Local\Temp\ccM9DEjH.s 			page 60


 2419              		.cfi_offset 14, -4
 2420 0002 84B0     		sub	sp, sp, #16
 2421              		.cfi_def_cfa_offset 24
 2422 0004 00AF     		add	r7, sp, #0
 2423              		.cfi_def_cfa_register 7
 2424 0006 B960     		str	r1, [r7, #8]
 2425 0008 7A60     		str	r2, [r7, #4]
 2426 000a 3B60     		str	r3, [r7]
 2427 000c 0346     		mov	r3, r0
 2428 000e FB73     		strb	r3, [r7, #15]
 856:..\src/interruptions.c ****     
 857:..\src/interruptions.c ****     //Compute reference using a FSM for choosing the right sinergy to activate (call this routine o
 858:..\src/interruptions.c ****     static uint8 fsm_state;     
 859:..\src/interruptions.c ****     if (motor_idx == 0){        //update the fsm only at motor 0 compute reference call and hold th
 2429              		.loc 1 859 0
 2430 0010 FB7B     		ldrb	r3, [r7, #15]	@ zero_extendqisi2
 2431 0012 002B     		cmp	r3, #0
 2432 0014 05D1     		bne	.L163
 860:..\src/interruptions.c ****         fsm_state = emg_activation_velocity_fsm();
 2433              		.loc 1 860 0
 2434 0016 FFF7FEFF 		bl	emg_activation_velocity_fsm
 2435 001a 0346     		mov	r3, r0
 2436 001c 1A46     		mov	r2, r3
 2437 001e 614B     		ldr	r3, .L178
 2438 0020 1A70     		strb	r2, [r3]
 2439              	.L163:
 861:..\src/interruptions.c ****     }
 862:..\src/interruptions.c ****        
 863:..\src/interruptions.c ****     switch (fsm_state){
 2440              		.loc 1 863 0
 2441 0022 604B     		ldr	r3, .L178
 2442 0024 1B78     		ldrb	r3, [r3]	@ zero_extendqisi2
 2443 0026 032B     		cmp	r3, #3
 2444 0028 00F2B780 		bhi	.L175
 2445 002c 01A2     		adr	r2, .L166
 2446 002e 52F823F0 		ldr	pc, [r2, r3, lsl #2]
 2447 0032 00BF     		.p2align 2
 2448              	.L166:
 2449 0034 45000000 		.word	.L165+1
 2450 0038 45000000 		.word	.L165+1
 2451 003c BF000000 		.word	.L167+1
 2452 0040 4F000000 		.word	.L168+1
 2453              		.p2align 1
 2454              	.L165:
 864:..\src/interruptions.c ****         case RELAX_STATE: case TIMER_STATE:
 865:..\src/interruptions.c ****              
 866:..\src/interruptions.c ****             st_ref_p->pos = st_refOld_p->pos;
 2455              		.loc 1 866 0
 2456 0044 7B68     		ldr	r3, [r7, #4]
 2457 0046 1A68     		ldr	r2, [r3]
 2458 0048 BB68     		ldr	r3, [r7, #8]
 2459 004a 1A60     		str	r2, [r3]
 867:..\src/interruptions.c ****     
 868:..\src/interruptions.c ****             break;
 2460              		.loc 1 868 0
 2461 004c A5E0     		b	.L164
 2462              	.L168:
ARM GAS  C:\Users\mgnocco\AppData\Local\Temp\ccM9DEjH.s 			page 61


 869:..\src/interruptions.c ****         
 870:..\src/interruptions.c ****         case MOVE_SLOW_ACT: // First sinergy movement (related to default slow activation)
 871:..\src/interruptions.c **** 
 872:..\src/interruptions.c ****             if (err_emg_1 > 0 && err_emg_1 > err_emg_2) {   //both motors wind the wire around the 
 2463              		.loc 1 872 0
 2464 004e 3B68     		ldr	r3, [r7]
 2465 0050 002B     		cmp	r3, #0
 2466 0052 17DD     		ble	.L169
 2467              		.loc 1 872 0 is_stmt 0 discriminator 1
 2468 0054 3A68     		ldr	r2, [r7]
 2469 0056 BB69     		ldr	r3, [r7, #24]
 2470 0058 9A42     		cmp	r2, r3
 2471 005a 13DD     		ble	.L169
 873:..\src/interruptions.c ****                st_ref_p->pos = st_refOld_p->pos + (err_emg_1 * g_mem.emg.emg_speed[0] << 2) / (1024
 2472              		.loc 1 873 0 is_stmt 1
 2473 005c 7B68     		ldr	r3, [r7, #4]
 2474 005e 1A68     		ldr	r2, [r3]
 2475 0060 514B     		ldr	r3, .L178+4
 2476 0062 93F8FC31 		ldrb	r3, [r3, #508]	@ zero_extendqisi2
 2477 0066 1946     		mov	r1, r3
 2478 0068 3B68     		ldr	r3, [r7]
 2479 006a 03FB01F3 		mul	r3, r3, r1
 2480 006e 9900     		lsls	r1, r3, #2
 2481 0070 4E4B     		ldr	r3, .L178+8
 2482 0072 B3F8F031 		ldrh	r3, [r3, #496]
 2483 0076 C3F58063 		rsb	r3, r3, #1024
 2484 007a 91FBF3F3 		sdiv	r3, r1, r3
 2485 007e 1A44     		add	r2, r2, r3
 2486 0080 BB68     		ldr	r3, [r7, #8]
 2487 0082 1A60     		str	r2, [r3]
 2488              	.L169:
 874:..\src/interruptions.c ****             }
 875:..\src/interruptions.c ****             if (err_emg_2 > 0 && err_emg_2 > err_emg_1) {   //both motors unroll the wire around th
 2489              		.loc 1 875 0
 2490 0084 BB69     		ldr	r3, [r7, #24]
 2491 0086 002B     		cmp	r3, #0
 2492 0088 40F38480 		ble	.L176
 2493              		.loc 1 875 0 is_stmt 0 discriminator 1
 2494 008c BA69     		ldr	r2, [r7, #24]
 2495 008e 3B68     		ldr	r3, [r7]
 2496 0090 9A42     		cmp	r2, r3
 2497 0092 7FDD     		ble	.L176
 876:..\src/interruptions.c ****                st_ref_p->pos = st_refOld_p->pos - (err_emg_2 * g_mem.emg.emg_speed[1] << 2) / (1024
 2498              		.loc 1 876 0 is_stmt 1
 2499 0094 7B68     		ldr	r3, [r7, #4]
 2500 0096 1A68     		ldr	r2, [r3]
 2501 0098 434B     		ldr	r3, .L178+4
 2502 009a 93F8FD31 		ldrb	r3, [r3, #509]	@ zero_extendqisi2
 2503 009e 1946     		mov	r1, r3
 2504 00a0 BB69     		ldr	r3, [r7, #24]
 2505 00a2 03FB01F3 		mul	r3, r3, r1
 2506 00a6 9900     		lsls	r1, r3, #2
 2507 00a8 404B     		ldr	r3, .L178+8
 2508 00aa B3F8F231 		ldrh	r3, [r3, #498]
 2509 00ae C3F58063 		rsb	r3, r3, #1024
 2510 00b2 91FBF3F3 		sdiv	r3, r1, r3
 2511 00b6 D21A     		subs	r2, r2, r3
ARM GAS  C:\Users\mgnocco\AppData\Local\Temp\ccM9DEjH.s 			page 62


 2512 00b8 BB68     		ldr	r3, [r7, #8]
 2513 00ba 1A60     		str	r2, [r3]
 877:..\src/interruptions.c ****             }
 878:..\src/interruptions.c ****             
 879:..\src/interruptions.c ****             break;
 2514              		.loc 1 879 0
 2515 00bc 6AE0     		b	.L176
 2516              	.L167:
 880:..\src/interruptions.c ****             
 881:..\src/interruptions.c ****         case MOVE_FAST_ACT: // Second sinergy movement (related to default fast activation)
 882:..\src/interruptions.c ****             
 883:..\src/interruptions.c ****             if (err_emg_1 > 0 && err_emg_1 > err_emg_2) {   //(Pinch) The wire is winded around the
 2517              		.loc 1 883 0
 2518 00be 3B68     		ldr	r3, [r7]
 2519 00c0 002B     		cmp	r3, #0
 2520 00c2 31DD     		ble	.L171
 2521              		.loc 1 883 0 is_stmt 0 discriminator 1
 2522 00c4 3A68     		ldr	r2, [r7]
 2523 00c6 BB69     		ldr	r3, [r7, #24]
 2524 00c8 9A42     		cmp	r2, r3
 2525 00ca 2DDD     		ble	.L171
 884:..\src/interruptions.c ****                 if (motor_idx == 0){
 2526              		.loc 1 884 0 is_stmt 1
 2527 00cc FB7B     		ldrb	r3, [r7, #15]	@ zero_extendqisi2
 2528 00ce 002B     		cmp	r3, #0
 2529 00d0 13D1     		bne	.L172
 885:..\src/interruptions.c ****                     st_ref_p->pos = st_refOld_p->pos + (err_emg_1 * g_mem.emg.emg_speed[0] << 2) / 
 2530              		.loc 1 885 0
 2531 00d2 7B68     		ldr	r3, [r7, #4]
 2532 00d4 1A68     		ldr	r2, [r3]
 2533 00d6 344B     		ldr	r3, .L178+4
 2534 00d8 93F8FC31 		ldrb	r3, [r3, #508]	@ zero_extendqisi2
 2535 00dc 1946     		mov	r1, r3
 2536 00de 3B68     		ldr	r3, [r7]
 2537 00e0 03FB01F3 		mul	r3, r3, r1
 2538 00e4 9900     		lsls	r1, r3, #2
 2539 00e6 314B     		ldr	r3, .L178+8
 2540 00e8 B3F8F031 		ldrh	r3, [r3, #496]
 2541 00ec C3F58063 		rsb	r3, r3, #1024
 2542 00f0 91FBF3F3 		sdiv	r3, r1, r3
 2543 00f4 1A44     		add	r2, r2, r3
 2544 00f6 BB68     		ldr	r3, [r7, #8]
 2545 00f8 1A60     		str	r2, [r3]
 2546              	.L172:
 886:..\src/interruptions.c ****                 }
 887:..\src/interruptions.c ****                 if (motor_idx == 1){
 2547              		.loc 1 887 0
 2548 00fa FB7B     		ldrb	r3, [r7, #15]	@ zero_extendqisi2
 2549 00fc 012B     		cmp	r3, #1
 2550 00fe 13D1     		bne	.L171
 888:..\src/interruptions.c ****                     st_ref_p->pos = st_refOld_p->pos - (err_emg_1 * g_mem.emg.emg_speed[0] << 2) / 
 2551              		.loc 1 888 0
 2552 0100 7B68     		ldr	r3, [r7, #4]
 2553 0102 1A68     		ldr	r2, [r3]
 2554 0104 284B     		ldr	r3, .L178+4
 2555 0106 93F8FC31 		ldrb	r3, [r3, #508]	@ zero_extendqisi2
 2556 010a 1946     		mov	r1, r3
ARM GAS  C:\Users\mgnocco\AppData\Local\Temp\ccM9DEjH.s 			page 63


 2557 010c 3B68     		ldr	r3, [r7]
 2558 010e 03FB01F3 		mul	r3, r3, r1
 2559 0112 9900     		lsls	r1, r3, #2
 2560 0114 254B     		ldr	r3, .L178+8
 2561 0116 B3F8F031 		ldrh	r3, [r3, #496]
 2562 011a C3F58063 		rsb	r3, r3, #1024
 2563 011e 91FBF3F3 		sdiv	r3, r1, r3
 2564 0122 D21A     		subs	r2, r2, r3
 2565 0124 BB68     		ldr	r3, [r7, #8]
 2566 0126 1A60     		str	r2, [r3]
 2567              	.L171:
 889:..\src/interruptions.c ****                 }   
 890:..\src/interruptions.c ****             }
 891:..\src/interruptions.c ****             if (err_emg_2 > 0 && err_emg_2 > err_emg_1) {   //(Index point) The wire is unwinded fr
 2568              		.loc 1 891 0
 2569 0128 BB69     		ldr	r3, [r7, #24]
 2570 012a 002B     		cmp	r3, #0
 2571 012c 34DD     		ble	.L177
 2572              		.loc 1 891 0 is_stmt 0 discriminator 1
 2573 012e BA69     		ldr	r2, [r7, #24]
 2574 0130 3B68     		ldr	r3, [r7]
 2575 0132 9A42     		cmp	r2, r3
 2576 0134 30DD     		ble	.L177
 892:..\src/interruptions.c ****                 if (motor_idx == 0){
 2577              		.loc 1 892 0 is_stmt 1
 2578 0136 FB7B     		ldrb	r3, [r7, #15]	@ zero_extendqisi2
 2579 0138 002B     		cmp	r3, #0
 2580 013a 13D1     		bne	.L174
 893:..\src/interruptions.c ****                     st_ref_p->pos = st_refOld_p->pos - (err_emg_2 * g_mem.emg.emg_speed[1] << 2) / 
 2581              		.loc 1 893 0
 2582 013c 7B68     		ldr	r3, [r7, #4]
 2583 013e 1A68     		ldr	r2, [r3]
 2584 0140 194B     		ldr	r3, .L178+4
 2585 0142 93F8FD31 		ldrb	r3, [r3, #509]	@ zero_extendqisi2
 2586 0146 1946     		mov	r1, r3
 2587 0148 BB69     		ldr	r3, [r7, #24]
 2588 014a 03FB01F3 		mul	r3, r3, r1
 2589 014e 9900     		lsls	r1, r3, #2
 2590 0150 164B     		ldr	r3, .L178+8
 2591 0152 B3F8F231 		ldrh	r3, [r3, #498]
 2592 0156 C3F58063 		rsb	r3, r3, #1024
 2593 015a 91FBF3F3 		sdiv	r3, r1, r3
 2594 015e D21A     		subs	r2, r2, r3
 2595 0160 BB68     		ldr	r3, [r7, #8]
 2596 0162 1A60     		str	r2, [r3]
 2597              	.L174:
 894:..\src/interruptions.c ****                 }
 895:..\src/interruptions.c ****                 if (motor_idx == 1){
 2598              		.loc 1 895 0
 2599 0164 FB7B     		ldrb	r3, [r7, #15]	@ zero_extendqisi2
 2600 0166 012B     		cmp	r3, #1
 2601 0168 16D1     		bne	.L177
 896:..\src/interruptions.c ****                     st_ref_p->pos = st_refOld_p->pos + (err_emg_2 * g_mem.emg.emg_speed[1] << 2) / 
 2602              		.loc 1 896 0
 2603 016a 7B68     		ldr	r3, [r7, #4]
 2604 016c 1A68     		ldr	r2, [r3]
 2605 016e 0E4B     		ldr	r3, .L178+4
ARM GAS  C:\Users\mgnocco\AppData\Local\Temp\ccM9DEjH.s 			page 64


 2606 0170 93F8FD31 		ldrb	r3, [r3, #509]	@ zero_extendqisi2
 2607 0174 1946     		mov	r1, r3
 2608 0176 BB69     		ldr	r3, [r7, #24]
 2609 0178 03FB01F3 		mul	r3, r3, r1
 2610 017c 9900     		lsls	r1, r3, #2
 2611 017e 0B4B     		ldr	r3, .L178+8
 2612 0180 B3F8F231 		ldrh	r3, [r3, #498]
 2613 0184 C3F58063 		rsb	r3, r3, #1024
 2614 0188 91FBF3F3 		sdiv	r3, r1, r3
 2615 018c 1A44     		add	r2, r2, r3
 2616 018e BB68     		ldr	r3, [r7, #8]
 2617 0190 1A60     		str	r2, [r3]
 897:..\src/interruptions.c ****                 }
 898:..\src/interruptions.c ****             }
 899:..\src/interruptions.c ****             
 900:..\src/interruptions.c ****             break;
 2618              		.loc 1 900 0
 2619 0192 01E0     		b	.L177
 2620              	.L176:
 879:..\src/interruptions.c ****             
 2621              		.loc 1 879 0
 2622 0194 00BF     		nop
 2623 0196 00E0     		b	.L175
 2624              	.L177:
 2625              		.loc 1 900 0
 2626 0198 00BF     		nop
 2627              	.L164:
 2628              	.L175:
 901:..\src/interruptions.c ****     }
 902:..\src/interruptions.c ****  
 903:..\src/interruptions.c **** }
 2629              		.loc 1 903 0
 2630 019a 00BF     		nop
 2631 019c 1037     		adds	r7, r7, #16
 2632              		.cfi_def_cfa_offset 8
 2633 019e BD46     		mov	sp, r7
 2634              		.cfi_def_cfa_register 13
 2635              		@ sp needed
 2636 01a0 80BD     		pop	{r7, pc}
 2637              	.L179:
 2638 01a2 00BF     		.align	2
 2639              	.L178:
 2640 01a4 8E000000 		.word	fsm_state.10298
 2641 01a8 00000000 		.word	g_mem
 2642 01ac 00000000 		.word	c_mem
 2643              		.cfi_endproc
 2644              	.LFE70:
 2645              		.size	compute_SoftHand_2_motors_emg_reference, .-compute_SoftHand_2_motors_emg_reference
 2646              		.section	.text.motor_control_SH,"ax",%progbits
 2647              		.align	2
 2648              		.global	motor_control_SH
 2649              		.thumb
 2650              		.thumb_func
 2651              		.type	motor_control_SH, %function
 2652              	motor_control_SH:
 2653              	.LFB71:
 904:..\src/interruptions.c **** 
ARM GAS  C:\Users\mgnocco\AppData\Local\Temp\ccM9DEjH.s 			page 65


 905:..\src/interruptions.c **** //==============================================================================
 906:..\src/interruptions.c **** //                                                        MOTOR CONTROL SOFTHAND
 907:..\src/interruptions.c **** //==============================================================================
 908:..\src/interruptions.c **** void motor_control_SH() {
 2654              		.loc 1 908 0
 2655              		.cfi_startproc
 2656              		@ args = 0, pretend = 0, frame = 80
 2657              		@ frame_needed = 1, uses_anonymous_args = 0
 2658 0000 80B5     		push	{r7, lr}
 2659              		.cfi_def_cfa_offset 8
 2660              		.cfi_offset 7, -8
 2661              		.cfi_offset 14, -4
 2662 0002 94B0     		sub	sp, sp, #80
 2663              		.cfi_def_cfa_offset 88
 2664 0004 00AF     		add	r7, sp, #0
 2665              		.cfi_def_cfa_register 7
 909:..\src/interruptions.c **** 
 910:..\src/interruptions.c ****     int32 CYDATA pwm_input = 0;
 2666              		.loc 1 910 0
 2667 0006 0023     		movs	r3, #0
 2668 0008 FB64     		str	r3, [r7, #76]
 911:..\src/interruptions.c ****     int32 CYDATA pos_error;         // position error
 912:..\src/interruptions.c ****     int32 CYDATA curr_error;        // current error
 913:..\src/interruptions.c ****     int32 CYDATA i_ref;             // current reference
 914:..\src/interruptions.c ****  
 915:..\src/interruptions.c ****     uint8 MOTOR_IDX = 0;
 2669              		.loc 1 915 0
 2670 000a 0023     		movs	r3, #0
 2671 000c 87F84730 		strb	r3, [r7, #71]
 916:..\src/interruptions.c ****     
 917:..\src/interruptions.c ****     struct st_motor* SH_MOT = &c_mem.motor[MOTOR_IDX];      // SoftHand default motor
 2672              		.loc 1 917 0
 2673 0010 97F84720 		ldrb	r2, [r7, #71]	@ zero_extendqisi2
 2674 0014 1346     		mov	r3, r2
 2675 0016 DB00     		lsls	r3, r3, #3
 2676 0018 9B1A     		subs	r3, r3, r2
 2677 001a 1B01     		lsls	r3, r3, #4
 2678 001c B033     		adds	r3, r3, #176
 2679 001e 9D4A     		ldr	r2, .L241
 2680 0020 1344     		add	r3, r3, r2
 2681 0022 3B64     		str	r3, [r7, #64]
 918:..\src/interruptions.c ****     uint8 SH_ENC_L = SH_MOT->encoder_line;          // Associated encoder line
 2682              		.loc 1 918 0
 2683 0024 3B6C     		ldr	r3, [r7, #64]
 2684 0026 93F86030 		ldrb	r3, [r3, #96]
 2685 002a 87F83F30 		strb	r3, [r7, #63]
 919:..\src/interruptions.c ****     
 920:..\src/interruptions.c ****     int32 CYDATA k_p = SH_MOT->k_p;  
 2686              		.loc 1 920 0
 2687 002e 3B6C     		ldr	r3, [r7, #64]
 2688 0030 1B68     		ldr	r3, [r3]
 2689 0032 BB63     		str	r3, [r7, #56]
 921:..\src/interruptions.c ****     int32 CYDATA k_i = SH_MOT->k_i; 
 2690              		.loc 1 921 0
 2691 0034 3B6C     		ldr	r3, [r7, #64]
 2692 0036 5B68     		ldr	r3, [r3, #4]
 2693 0038 7B63     		str	r3, [r7, #52]
ARM GAS  C:\Users\mgnocco\AppData\Local\Temp\ccM9DEjH.s 			page 66


 922:..\src/interruptions.c ****     int32 CYDATA k_d = SH_MOT->k_d; 
 2694              		.loc 1 922 0
 2695 003a 3B6C     		ldr	r3, [r7, #64]
 2696 003c 9B68     		ldr	r3, [r3, #8]
 2697 003e 3B63     		str	r3, [r7, #48]
 923:..\src/interruptions.c **** 
 924:..\src/interruptions.c ****     int32 CYDATA k_p_c = SH_MOT->k_p_c;  
 2698              		.loc 1 924 0
 2699 0040 3B6C     		ldr	r3, [r7, #64]
 2700 0042 DB68     		ldr	r3, [r3, #12]
 2701 0044 FB62     		str	r3, [r7, #44]
 925:..\src/interruptions.c ****     int32 CYDATA k_i_c = SH_MOT->k_i_c; 
 2702              		.loc 1 925 0
 2703 0046 3B6C     		ldr	r3, [r7, #64]
 2704 0048 1B69     		ldr	r3, [r3, #16]
 2705 004a BB62     		str	r3, [r7, #40]
 926:..\src/interruptions.c ****     int32 CYDATA k_d_c = SH_MOT->k_d_c;   
 2706              		.loc 1 926 0
 2707 004c 3B6C     		ldr	r3, [r7, #64]
 2708 004e 5B69     		ldr	r3, [r3, #20]
 2709 0050 7B62     		str	r3, [r7, #36]
 927:..\src/interruptions.c **** 
 928:..\src/interruptions.c ****     int32 CYDATA k_p_dl = SH_MOT->k_p_dl;  
 2710              		.loc 1 928 0
 2711 0052 3B6C     		ldr	r3, [r7, #64]
 2712 0054 9B69     		ldr	r3, [r3, #24]
 2713 0056 3B62     		str	r3, [r7, #32]
 929:..\src/interruptions.c ****     int32 CYDATA k_i_dl = SH_MOT->k_i_dl; 
 2714              		.loc 1 929 0
 2715 0058 3B6C     		ldr	r3, [r7, #64]
 2716 005a DB69     		ldr	r3, [r3, #28]
 2717 005c FB61     		str	r3, [r7, #28]
 930:..\src/interruptions.c ****     int32 CYDATA k_d_dl = SH_MOT->k_d_dl;
 2718              		.loc 1 930 0
 2719 005e 3B6C     		ldr	r3, [r7, #64]
 2720 0060 1B6A     		ldr	r3, [r3, #32]
 2721 0062 BB61     		str	r3, [r7, #24]
 931:..\src/interruptions.c ****     
 932:..\src/interruptions.c ****     int32 CYDATA k_p_c_dl = SH_MOT->k_p_c_dl;  
 2722              		.loc 1 932 0
 2723 0064 3B6C     		ldr	r3, [r7, #64]
 2724 0066 5B6A     		ldr	r3, [r3, #36]
 2725 0068 7B61     		str	r3, [r7, #20]
 933:..\src/interruptions.c ****     int32 CYDATA k_i_c_dl = SH_MOT->k_i_c_dl; 
 2726              		.loc 1 933 0
 2727 006a 3B6C     		ldr	r3, [r7, #64]
 2728 006c 9B6A     		ldr	r3, [r3, #40]
 2729 006e 3B61     		str	r3, [r7, #16]
 934:..\src/interruptions.c ****     int32 CYDATA k_d_c_dl = SH_MOT->k_d_c_dl;   
 2730              		.loc 1 934 0
 2731 0070 3B6C     		ldr	r3, [r7, #64]
 2732 0072 DB6A     		ldr	r3, [r3, #44]
 2733 0074 FB60     		str	r3, [r7, #12]
 935:..\src/interruptions.c **** 
 936:..\src/interruptions.c ****     // Static Variables
 937:..\src/interruptions.c **** 
 938:..\src/interruptions.c ****     static int32 pos_error_sum;     // position error sum for integral
ARM GAS  C:\Users\mgnocco\AppData\Local\Temp\ccM9DEjH.s 			page 67


 939:..\src/interruptions.c ****     static int32 curr_error_sum;    // current error sum for integral
 940:..\src/interruptions.c ****     
 941:..\src/interruptions.c ****     static int32 prev_pos_err;      // previous position error for deriv. control
 942:..\src/interruptions.c ****     static int32 prev_curr_err;     // previous current error for deriv. control
 943:..\src/interruptions.c ****     static int32 prev_pwm;
 944:..\src/interruptions.c **** 
 945:..\src/interruptions.c ****     static CYBIT motor_dir = FALSE;
 946:..\src/interruptions.c ****     static uint32 position_counter = 0;
 947:..\src/interruptions.c ****   
 948:..\src/interruptions.c ****     // ======================= UPDATE MOTOR REFERENCE ==========================            
 949:..\src/interruptions.c ****     compute_reference(MOTOR_IDX, &g_ref[MOTOR_IDX], &g_refOld[MOTOR_IDX]);
 2734              		.loc 1 949 0
 2735 0076 97F84730 		ldrb	r3, [r7, #71]	@ zero_extendqisi2
 2736 007a 1B01     		lsls	r3, r3, #4
 2737 007c 864A     		ldr	r2, .L241+4
 2738 007e 9918     		adds	r1, r3, r2
 2739 0080 97F84730 		ldrb	r3, [r7, #71]	@ zero_extendqisi2
 2740 0084 1B01     		lsls	r3, r3, #4
 2741 0086 854A     		ldr	r2, .L241+8
 2742 0088 1A44     		add	r2, r2, r3
 2743 008a 97F84730 		ldrb	r3, [r7, #71]	@ zero_extendqisi2
 2744 008e 1846     		mov	r0, r3
 2745 0090 FFF7FEFF 		bl	compute_reference
 950:..\src/interruptions.c ****      
 951:..\src/interruptions.c ****     switch(SH_MOT->control_mode) {
 2746              		.loc 1 951 0
 2747 0094 3B6C     		ldr	r3, [r7, #64]
 2748 0096 93F85F30 		ldrb	r3, [r3, #95]	@ zero_extendqisi2
 2749 009a 032B     		cmp	r3, #3
 2750 009c 00F2F781 		bhi	.L181
 2751 00a0 01A2     		adr	r2, .L183
 2752 00a2 52F823F0 		ldr	pc, [r2, r3, lsl #2]
 2753 00a6 00BF     		.p2align 2
 2754              	.L183:
 2755 00a8 55020000 		.word	.L182+1
 2756 00ac 49040000 		.word	.L184+1
 2757 00b0 3B030000 		.word	.L185+1
 2758 00b4 B9000000 		.word	.L186+1
 2759              		.p2align 1
 2760              	.L186:
 952:..\src/interruptions.c ****         // ======================= CURRENT AND POSITION CONTROL =======================
 953:..\src/interruptions.c ****         case CURR_AND_POS_CONTROL:
 954:..\src/interruptions.c ****             pos_error = g_ref[MOTOR_IDX].pos - g_meas[SH_ENC_L].pos[0];
 2761              		.loc 1 954 0
 2762 00b8 97F84730 		ldrb	r3, [r7, #71]	@ zero_extendqisi2
 2763 00bc 764A     		ldr	r2, .L241+4
 2764 00be 1B01     		lsls	r3, r3, #4
 2765 00c0 1344     		add	r3, r3, r2
 2766 00c2 1A68     		ldr	r2, [r3]
 2767 00c4 97F83F30 		ldrb	r3, [r7, #63]	@ zero_extendqisi2
 2768 00c8 7549     		ldr	r1, .L241+12
 2769 00ca 3420     		movs	r0, #52
 2770 00cc 00FB03F3 		mul	r3, r0, r3
 2771 00d0 0B44     		add	r3, r3, r1
 2772 00d2 1B68     		ldr	r3, [r3]
 2773 00d4 D31A     		subs	r3, r2, r3
 2774 00d6 BB60     		str	r3, [r7, #8]
ARM GAS  C:\Users\mgnocco\AppData\Local\Temp\ccM9DEjH.s 			page 68


 955:..\src/interruptions.c **** 
 956:..\src/interruptions.c ****             pos_error_sum += pos_error;
 2775              		.loc 1 956 0
 2776 00d8 724B     		ldr	r3, .L241+16
 2777 00da 1A68     		ldr	r2, [r3]
 2778 00dc BB68     		ldr	r3, [r7, #8]
 2779 00de 1344     		add	r3, r3, r2
 2780 00e0 704A     		ldr	r2, .L241+16
 2781 00e2 1360     		str	r3, [r2]
 957:..\src/interruptions.c **** 
 958:..\src/interruptions.c ****             // error_sum saturation
 959:..\src/interruptions.c ****             if (pos_error_sum > POS_INTEGRAL_SAT_LIMIT)
 2782              		.loc 1 959 0
 2783 00e4 6F4B     		ldr	r3, .L241+16
 2784 00e6 1B68     		ldr	r3, [r3]
 2785 00e8 6F4A     		ldr	r2, .L241+20
 2786 00ea 9342     		cmp	r3, r2
 2787 00ec 03DD     		ble	.L187
 960:..\src/interruptions.c ****                 pos_error_sum = POS_INTEGRAL_SAT_LIMIT;
 2788              		.loc 1 960 0
 2789 00ee 6D4B     		ldr	r3, .L241+16
 2790 00f0 6D4A     		ldr	r2, .L241+20
 2791 00f2 1A60     		str	r2, [r3]
 2792 00f4 07E0     		b	.L188
 2793              	.L187:
 961:..\src/interruptions.c ****             else {
 962:..\src/interruptions.c ****                 if (pos_error_sum < -POS_INTEGRAL_SAT_LIMIT) 
 2794              		.loc 1 962 0
 2795 00f6 6B4B     		ldr	r3, .L241+16
 2796 00f8 1B68     		ldr	r3, [r3]
 2797 00fa 6C4A     		ldr	r2, .L241+24
 2798 00fc 9342     		cmp	r3, r2
 2799 00fe 02DA     		bge	.L188
 963:..\src/interruptions.c ****                     pos_error_sum = -POS_INTEGRAL_SAT_LIMIT;
 2800              		.loc 1 963 0
 2801 0100 684B     		ldr	r3, .L241+16
 2802 0102 6A4A     		ldr	r2, .L241+24
 2803 0104 1A60     		str	r2, [r3]
 2804              	.L188:
 964:..\src/interruptions.c ****             }
 965:..\src/interruptions.c ****             
 966:..\src/interruptions.c ****             // ------ position PID control ------
 967:..\src/interruptions.c **** 
 968:..\src/interruptions.c ****             i_ref = 0;
 2805              		.loc 1 968 0
 2806 0106 0023     		movs	r3, #0
 2807 0108 BB64     		str	r3, [r7, #72]
 969:..\src/interruptions.c ****             
 970:..\src/interruptions.c ****             // Proportional
 971:..\src/interruptions.c ****             if (k_p_dl != 0)
 2808              		.loc 1 971 0
 2809 010a 3B6A     		ldr	r3, [r7, #32]
 2810 010c 002B     		cmp	r3, #0
 2811 010e 07D0     		beq	.L189
 972:..\src/interruptions.c ****                 i_ref += (int32)(k_p_dl * pos_error) >> 16;
 2812              		.loc 1 972 0
 2813 0110 3B6A     		ldr	r3, [r7, #32]
ARM GAS  C:\Users\mgnocco\AppData\Local\Temp\ccM9DEjH.s 			page 69


 2814 0112 BA68     		ldr	r2, [r7, #8]
 2815 0114 02FB03F3 		mul	r3, r2, r3
 2816 0118 1B14     		asrs	r3, r3, #16
 2817 011a BA6C     		ldr	r2, [r7, #72]
 2818 011c 1344     		add	r3, r3, r2
 2819 011e BB64     		str	r3, [r7, #72]
 2820              	.L189:
 973:..\src/interruptions.c **** 
 974:..\src/interruptions.c ****             // Integral
 975:..\src/interruptions.c ****             if (k_i_dl != 0)
 2821              		.loc 1 975 0
 2822 0120 FB69     		ldr	r3, [r7, #28]
 2823 0122 002B     		cmp	r3, #0
 2824 0124 08D0     		beq	.L190
 976:..\src/interruptions.c ****                 i_ref += (int32)(k_i_dl * pos_error_sum) >> 16;
 2825              		.loc 1 976 0
 2826 0126 5F4B     		ldr	r3, .L241+16
 2827 0128 1B68     		ldr	r3, [r3]
 2828 012a FA69     		ldr	r2, [r7, #28]
 2829 012c 02FB03F3 		mul	r3, r2, r3
 2830 0130 1B14     		asrs	r3, r3, #16
 2831 0132 BA6C     		ldr	r2, [r7, #72]
 2832 0134 1344     		add	r3, r3, r2
 2833 0136 BB64     		str	r3, [r7, #72]
 2834              	.L190:
 977:..\src/interruptions.c **** 
 978:..\src/interruptions.c ****             // Derivative
 979:..\src/interruptions.c ****             if (k_d_dl != 0)
 2835              		.loc 1 979 0
 2836 0138 BB69     		ldr	r3, [r7, #24]
 2837 013a 002B     		cmp	r3, #0
 2838 013c 0AD0     		beq	.L191
 980:..\src/interruptions.c ****                 i_ref += (int32)(k_d_dl * (pos_error - prev_pos_err)) >> 16;
 2839              		.loc 1 980 0
 2840 013e 5C4B     		ldr	r3, .L241+28
 2841 0140 1B68     		ldr	r3, [r3]
 2842 0142 BA68     		ldr	r2, [r7, #8]
 2843 0144 D31A     		subs	r3, r2, r3
 2844 0146 BA69     		ldr	r2, [r7, #24]
 2845 0148 02FB03F3 		mul	r3, r2, r3
 2846 014c 1B14     		asrs	r3, r3, #16
 2847 014e BA6C     		ldr	r2, [r7, #72]
 2848 0150 1344     		add	r3, r3, r2
 2849 0152 BB64     		str	r3, [r7, #72]
 2850              	.L191:
 981:..\src/interruptions.c ****                         
 982:..\src/interruptions.c ****             // Update previous position
 983:..\src/interruptions.c ****             prev_pos_err = pos_error;
 2851              		.loc 1 983 0
 2852 0154 564A     		ldr	r2, .L241+28
 2853 0156 BB68     		ldr	r3, [r7, #8]
 2854 0158 1360     		str	r3, [r2]
 984:..\src/interruptions.c **** 
 985:..\src/interruptions.c ****             // motor direction depends on i_ref
 986:..\src/interruptions.c ****             if (i_ref >= 0)
 2855              		.loc 1 986 0
 2856 015a BB6C     		ldr	r3, [r7, #72]
ARM GAS  C:\Users\mgnocco\AppData\Local\Temp\ccM9DEjH.s 			page 70


 2857 015c 002B     		cmp	r3, #0
 2858 015e 03DB     		blt	.L192
 987:..\src/interruptions.c ****                 motor_dir = TRUE;
 2859              		.loc 1 987 0
 2860 0160 544B     		ldr	r3, .L241+32
 2861 0162 0122     		movs	r2, #1
 2862 0164 1A70     		strb	r2, [r3]
 2863 0166 02E0     		b	.L193
 2864              	.L192:
 988:..\src/interruptions.c ****             else
 989:..\src/interruptions.c ****                 motor_dir = FALSE;
 2865              		.loc 1 989 0
 2866 0168 524B     		ldr	r3, .L241+32
 2867 016a 0022     		movs	r2, #0
 2868 016c 1A70     		strb	r2, [r3]
 2869              	.L193:
 990:..\src/interruptions.c **** 
 991:..\src/interruptions.c ****             // saturate max current
 992:..\src/interruptions.c ****             if (i_ref > SH_MOT->current_limit)
 2870              		.loc 1 992 0
 2871 016e 3B6C     		ldr	r3, [r7, #64]
 2872 0170 B3F95C30 		ldrsh	r3, [r3, #92]
 2873 0174 1A46     		mov	r2, r3
 2874 0176 BB6C     		ldr	r3, [r7, #72]
 2875 0178 9A42     		cmp	r2, r3
 2876 017a 04DA     		bge	.L194
 993:..\src/interruptions.c ****                 i_ref = SH_MOT->current_limit;
 2877              		.loc 1 993 0
 2878 017c 3B6C     		ldr	r3, [r7, #64]
 2879 017e B3F95C30 		ldrsh	r3, [r3, #92]
 2880 0182 BB64     		str	r3, [r7, #72]
 2881 0184 0BE0     		b	.L195
 2882              	.L194:
 994:..\src/interruptions.c ****             else {
 995:..\src/interruptions.c ****                 if (i_ref < -SH_MOT->current_limit)
 2883              		.loc 1 995 0
 2884 0186 3B6C     		ldr	r3, [r7, #64]
 2885 0188 B3F95C30 		ldrsh	r3, [r3, #92]
 2886 018c 5A42     		negs	r2, r3
 2887 018e BB6C     		ldr	r3, [r7, #72]
 2888 0190 9A42     		cmp	r2, r3
 2889 0192 04DD     		ble	.L195
 996:..\src/interruptions.c ****                     i_ref = -SH_MOT->current_limit;
 2890              		.loc 1 996 0
 2891 0194 3B6C     		ldr	r3, [r7, #64]
 2892 0196 B3F95C30 		ldrsh	r3, [r3, #92]
 2893 019a 5B42     		negs	r3, r3
 2894 019c BB64     		str	r3, [r7, #72]
 2895              	.L195:
 997:..\src/interruptions.c ****         	}
 998:..\src/interruptions.c **** 
 999:..\src/interruptions.c ****             // current error and curr error sum
1000:..\src/interruptions.c ****             curr_error = i_ref - g_meas[SH_ENC_L].curr;
 2896              		.loc 1 1000 0
 2897 019e 97F83F30 		ldrb	r3, [r7, #63]	@ zero_extendqisi2
 2898 01a2 3F4A     		ldr	r2, .L241+12
 2899 01a4 3421     		movs	r1, #52
ARM GAS  C:\Users\mgnocco\AppData\Local\Temp\ccM9DEjH.s 			page 71


 2900 01a6 01FB03F3 		mul	r3, r1, r3
 2901 01aa 1344     		add	r3, r3, r2
 2902 01ac 0C33     		adds	r3, r3, #12
 2903 01ae 1B68     		ldr	r3, [r3]
 2904 01b0 BA6C     		ldr	r2, [r7, #72]
 2905 01b2 D31A     		subs	r3, r2, r3
 2906 01b4 7B60     		str	r3, [r7, #4]
1001:..\src/interruptions.c ****             curr_error_sum += curr_error;
 2907              		.loc 1 1001 0
 2908 01b6 404B     		ldr	r3, .L241+36
 2909 01b8 1A68     		ldr	r2, [r3]
 2910 01ba 7B68     		ldr	r3, [r7, #4]
 2911 01bc 1344     		add	r3, r3, r2
 2912 01be 3E4A     		ldr	r2, .L241+36
 2913 01c0 1360     		str	r3, [r2]
1002:..\src/interruptions.c ****             
1003:..\src/interruptions.c ****             if (curr_error_sum > CURR_INTEGRAL_SAT_LIMIT)
 2914              		.loc 1 1003 0
 2915 01c2 3D4B     		ldr	r3, .L241+36
 2916 01c4 1B68     		ldr	r3, [r3]
 2917 01c6 3D4A     		ldr	r2, .L241+40
 2918 01c8 9342     		cmp	r3, r2
 2919 01ca 03DD     		ble	.L196
1004:..\src/interruptions.c ****                 curr_error_sum = CURR_INTEGRAL_SAT_LIMIT;
 2920              		.loc 1 1004 0
 2921 01cc 3A4B     		ldr	r3, .L241+36
 2922 01ce 3B4A     		ldr	r2, .L241+40
 2923 01d0 1A60     		str	r2, [r3]
 2924 01d2 07E0     		b	.L197
 2925              	.L196:
1005:..\src/interruptions.c ****             else {
1006:..\src/interruptions.c ****                 if (curr_error_sum < -CURR_INTEGRAL_SAT_LIMIT)
 2926              		.loc 1 1006 0
 2927 01d4 384B     		ldr	r3, .L241+36
 2928 01d6 1B68     		ldr	r3, [r3]
 2929 01d8 394A     		ldr	r2, .L241+44
 2930 01da 9342     		cmp	r3, r2
 2931 01dc 02DA     		bge	.L197
1007:..\src/interruptions.c ****                     curr_error_sum = -CURR_INTEGRAL_SAT_LIMIT;
 2932              		.loc 1 1007 0
 2933 01de 364B     		ldr	r3, .L241+36
 2934 01e0 374A     		ldr	r2, .L241+44
 2935 01e2 1A60     		str	r2, [r3]
 2936              	.L197:
1008:..\src/interruptions.c ****             }
1009:..\src/interruptions.c **** 
1010:..\src/interruptions.c ****             // ----- current PID control -----
1011:..\src/interruptions.c **** 
1012:..\src/interruptions.c ****             pwm_input = 0;
 2937              		.loc 1 1012 0
 2938 01e4 0023     		movs	r3, #0
 2939 01e6 FB64     		str	r3, [r7, #76]
1013:..\src/interruptions.c **** 
1014:..\src/interruptions.c ****             // Proportional
1015:..\src/interruptions.c ****             if (k_p_c_dl != 0)
 2940              		.loc 1 1015 0
 2941 01e8 7B69     		ldr	r3, [r7, #20]
ARM GAS  C:\Users\mgnocco\AppData\Local\Temp\ccM9DEjH.s 			page 72


 2942 01ea 002B     		cmp	r3, #0
 2943 01ec 07D0     		beq	.L198
1016:..\src/interruptions.c ****                 pwm_input += (int32)(k_p_c_dl * curr_error) >> 16;
 2944              		.loc 1 1016 0
 2945 01ee 7B69     		ldr	r3, [r7, #20]
 2946 01f0 7A68     		ldr	r2, [r7, #4]
 2947 01f2 02FB03F3 		mul	r3, r2, r3
 2948 01f6 1B14     		asrs	r3, r3, #16
 2949 01f8 FA6C     		ldr	r2, [r7, #76]
 2950 01fa 1344     		add	r3, r3, r2
 2951 01fc FB64     		str	r3, [r7, #76]
 2952              	.L198:
1017:..\src/interruptions.c **** 
1018:..\src/interruptions.c ****             // Integral
1019:..\src/interruptions.c ****             if (k_i_c_dl != 0)
 2953              		.loc 1 1019 0
 2954 01fe 3B69     		ldr	r3, [r7, #16]
 2955 0200 002B     		cmp	r3, #0
 2956 0202 08D0     		beq	.L199
1020:..\src/interruptions.c ****                 pwm_input += (int32)(k_i_c_dl * curr_error_sum) >> 16;
 2957              		.loc 1 1020 0
 2958 0204 2C4B     		ldr	r3, .L241+36
 2959 0206 1B68     		ldr	r3, [r3]
 2960 0208 3A69     		ldr	r2, [r7, #16]
 2961 020a 02FB03F3 		mul	r3, r2, r3
 2962 020e 1B14     		asrs	r3, r3, #16
 2963 0210 FA6C     		ldr	r2, [r7, #76]
 2964 0212 1344     		add	r3, r3, r2
 2965 0214 FB64     		str	r3, [r7, #76]
 2966              	.L199:
1021:..\src/interruptions.c **** 
1022:..\src/interruptions.c ****             // Derivative
1023:..\src/interruptions.c ****             if (k_d_c_dl != 0)
 2967              		.loc 1 1023 0
 2968 0216 FB68     		ldr	r3, [r7, #12]
 2969 0218 002B     		cmp	r3, #0
 2970 021a 0AD0     		beq	.L200
1024:..\src/interruptions.c ****                 pwm_input += (int32)(k_d_c_dl * (curr_error - prev_curr_err)) >> 16;
 2971              		.loc 1 1024 0
 2972 021c 294B     		ldr	r3, .L241+48
 2973 021e 1B68     		ldr	r3, [r3]
 2974 0220 7A68     		ldr	r2, [r7, #4]
 2975 0222 D31A     		subs	r3, r2, r3
 2976 0224 FA68     		ldr	r2, [r7, #12]
 2977 0226 02FB03F3 		mul	r3, r2, r3
 2978 022a 1B14     		asrs	r3, r3, #16
 2979 022c FA6C     		ldr	r2, [r7, #76]
 2980 022e 1344     		add	r3, r3, r2
 2981 0230 FB64     		str	r3, [r7, #76]
 2982              	.L200:
1025:..\src/interruptions.c **** 
1026:..\src/interruptions.c ****             // pwm_input saturation
1027:..\src/interruptions.c ****             if (pwm_input < -PWM_MAX_VALUE_DC) 
 2983              		.loc 1 1027 0
 2984 0232 FB6C     		ldr	r3, [r7, #76]
 2985 0234 13F1640F 		cmn	r3, #100
 2986 0238 03DA     		bge	.L201
ARM GAS  C:\Users\mgnocco\AppData\Local\Temp\ccM9DEjH.s 			page 73


1028:..\src/interruptions.c ****                 pwm_input = -PWM_MAX_VALUE_DC;
 2987              		.loc 1 1028 0
 2988 023a 6FF06303 		mvn	r3, #99
 2989 023e FB64     		str	r3, [r7, #76]
 2990 0240 04E0     		b	.L202
 2991              	.L201:
1029:..\src/interruptions.c ****             else {
1030:..\src/interruptions.c ****                 if (pwm_input > PWM_MAX_VALUE_DC)
 2992              		.loc 1 1030 0
 2993 0242 FB6C     		ldr	r3, [r7, #76]
 2994 0244 642B     		cmp	r3, #100
 2995 0246 01DD     		ble	.L202
1031:..\src/interruptions.c ****                     pwm_input = PWM_MAX_VALUE_DC;
 2996              		.loc 1 1031 0
 2997 0248 6423     		movs	r3, #100
 2998 024a FB64     		str	r3, [r7, #76]
 2999              	.L202:
1032:..\src/interruptions.c ****             }
1033:..\src/interruptions.c **** 
1034:..\src/interruptions.c ****             // Update previous current
1035:..\src/interruptions.c ****             prev_curr_err = curr_error;
 3000              		.loc 1 1035 0
 3001 024c 1D4A     		ldr	r2, .L241+48
 3002 024e 7B68     		ldr	r3, [r7, #4]
 3003 0250 1360     		str	r3, [r2]
1036:..\src/interruptions.c **** 
1037:..\src/interruptions.c ****         break;
 3004              		.loc 1 1037 0
 3005 0252 1CE1     		b	.L181
 3006              	.L182:
1038:..\src/interruptions.c **** 
1039:..\src/interruptions.c ****         // ============================== POSITION CONTROL =====================
1040:..\src/interruptions.c ****         case CONTROL_ANGLE:
1041:..\src/interruptions.c ****             pos_error = g_ref[MOTOR_IDX].pos - g_meas[SH_ENC_L].pos[0];
 3007              		.loc 1 1041 0
 3008 0254 97F84730 		ldrb	r3, [r7, #71]	@ zero_extendqisi2
 3009 0258 0F4A     		ldr	r2, .L241+4
 3010 025a 1B01     		lsls	r3, r3, #4
 3011 025c 1344     		add	r3, r3, r2
 3012 025e 1A68     		ldr	r2, [r3]
 3013 0260 97F83F30 		ldrb	r3, [r7, #63]	@ zero_extendqisi2
 3014 0264 0E49     		ldr	r1, .L241+12
 3015 0266 3420     		movs	r0, #52
 3016 0268 00FB03F3 		mul	r3, r0, r3
 3017 026c 0B44     		add	r3, r3, r1
 3018 026e 1B68     		ldr	r3, [r3]
 3019 0270 D31A     		subs	r3, r2, r3
 3020 0272 BB60     		str	r3, [r7, #8]
1042:..\src/interruptions.c **** 
1043:..\src/interruptions.c ****             pos_error_sum += pos_error;
 3021              		.loc 1 1043 0
 3022 0274 0B4B     		ldr	r3, .L241+16
 3023 0276 1A68     		ldr	r2, [r3]
 3024 0278 BB68     		ldr	r3, [r7, #8]
 3025 027a 1344     		add	r3, r3, r2
 3026 027c 094A     		ldr	r2, .L241+16
 3027 027e 1360     		str	r3, [r2]
ARM GAS  C:\Users\mgnocco\AppData\Local\Temp\ccM9DEjH.s 			page 74


1044:..\src/interruptions.c **** 
1045:..\src/interruptions.c ****             // anti-windup (for integral control)
1046:..\src/interruptions.c ****             if (pos_error_sum > ANTI_WINDUP)
 3028              		.loc 1 1046 0
 3029 0280 084B     		ldr	r3, .L241+16
 3030 0282 1B68     		ldr	r3, [r3]
 3031 0284 B3F57A7F 		cmp	r3, #1000
 3032 0288 1EDD     		ble	.L203
1047:..\src/interruptions.c ****                 pos_error_sum = ANTI_WINDUP;
 3033              		.loc 1 1047 0
 3034 028a 064B     		ldr	r3, .L241+16
 3035 028c 4FF47A72 		mov	r2, #1000
 3036 0290 1A60     		str	r2, [r3]
 3037 0292 21E0     		b	.L204
 3038              	.L242:
 3039              		.align	2
 3040              	.L241:
 3041 0294 00000000 		.word	c_mem
 3042 0298 00000000 		.word	g_ref
 3043 029c 00000000 		.word	g_refOld
 3044 02a0 00000000 		.word	g_meas
 3045 02a4 90000000 		.word	pos_error_sum.10325
 3046 02a8 80F0FA02 		.word	50000000
 3047 02ac 800F05FD 		.word	-50000000
 3048 02b0 94000000 		.word	prev_pos_err.10327
 3049 02b4 98000000 		.word	motor_dir.10330
 3050 02b8 9C000000 		.word	curr_error_sum.10326
 3051 02bc A0860100 		.word	100000
 3052 02c0 6079FEFF 		.word	-100000
 3053 02c4 A0000000 		.word	prev_curr_err.10328
 3054              	.L203:
1048:..\src/interruptions.c ****             else {
1049:..\src/interruptions.c **** 				if (pos_error_sum < -ANTI_WINDUP)
 3055              		.loc 1 1049 0
 3056 02c8 9D4B     		ldr	r3, .L243
 3057 02ca 1B68     		ldr	r3, [r3]
 3058 02cc 13F57A7F 		cmn	r3, #1000
 3059 02d0 02DA     		bge	.L204
1050:..\src/interruptions.c ****                 	pos_error_sum = -ANTI_WINDUP;
 3060              		.loc 1 1050 0
 3061 02d2 9B4B     		ldr	r3, .L243
 3062 02d4 9B4A     		ldr	r2, .L243+4
 3063 02d6 1A60     		str	r2, [r3]
 3064              	.L204:
1051:..\src/interruptions.c ****             }
1052:..\src/interruptions.c **** 
1053:..\src/interruptions.c ****             // Proportional
1054:..\src/interruptions.c ****             if (k_p != 0) 
 3065              		.loc 1 1054 0
 3066 02d8 BB6B     		ldr	r3, [r7, #56]
 3067 02da 002B     		cmp	r3, #0
 3068 02dc 05D0     		beq	.L205
1055:..\src/interruptions.c ****                 pwm_input = (int32)(k_p * pos_error) >> 16;
 3069              		.loc 1 1055 0
 3070 02de BB6B     		ldr	r3, [r7, #56]
 3071 02e0 BA68     		ldr	r2, [r7, #8]
 3072 02e2 02FB03F3 		mul	r3, r2, r3
ARM GAS  C:\Users\mgnocco\AppData\Local\Temp\ccM9DEjH.s 			page 75


 3073 02e6 1B14     		asrs	r3, r3, #16
 3074 02e8 FB64     		str	r3, [r7, #76]
 3075              	.L205:
1056:..\src/interruptions.c ****             
1057:..\src/interruptions.c **** 
1058:..\src/interruptions.c ****             // Integral
1059:..\src/interruptions.c ****             if (k_i != 0) 
 3076              		.loc 1 1059 0
 3077 02ea 7B6B     		ldr	r3, [r7, #52]
 3078 02ec 002B     		cmp	r3, #0
 3079 02ee 08D0     		beq	.L206
1060:..\src/interruptions.c ****                 pwm_input += (int32)(k_i * pos_error_sum) >> 16;
 3080              		.loc 1 1060 0
 3081 02f0 934B     		ldr	r3, .L243
 3082 02f2 1B68     		ldr	r3, [r3]
 3083 02f4 7A6B     		ldr	r2, [r7, #52]
 3084 02f6 02FB03F3 		mul	r3, r2, r3
 3085 02fa 1B14     		asrs	r3, r3, #16
 3086 02fc FA6C     		ldr	r2, [r7, #76]
 3087 02fe 1344     		add	r3, r3, r2
 3088 0300 FB64     		str	r3, [r7, #76]
 3089              	.L206:
1061:..\src/interruptions.c ****             
1062:..\src/interruptions.c **** 
1063:..\src/interruptions.c ****             // Derivative
1064:..\src/interruptions.c ****             if (k_d != 0) 
 3090              		.loc 1 1064 0
 3091 0302 3B6B     		ldr	r3, [r7, #48]
 3092 0304 002B     		cmp	r3, #0
 3093 0306 0AD0     		beq	.L207
1065:..\src/interruptions.c ****                 pwm_input += (int32)(k_d * (pos_error - prev_pos_err)) >> 16;
 3094              		.loc 1 1065 0
 3095 0308 8F4B     		ldr	r3, .L243+8
 3096 030a 1B68     		ldr	r3, [r3]
 3097 030c BA68     		ldr	r2, [r7, #8]
 3098 030e D31A     		subs	r3, r2, r3
 3099 0310 3A6B     		ldr	r2, [r7, #48]
 3100 0312 02FB03F3 		mul	r3, r2, r3
 3101 0316 1B14     		asrs	r3, r3, #16
 3102 0318 FA6C     		ldr	r2, [r7, #76]
 3103 031a 1344     		add	r3, r3, r2
 3104 031c FB64     		str	r3, [r7, #76]
 3105              	.L207:
1066:..\src/interruptions.c ****             
1067:..\src/interruptions.c **** 
1068:..\src/interruptions.c ****             // Update measure
1069:..\src/interruptions.c ****             prev_pos_err = pos_error;
 3106              		.loc 1 1069 0
 3107 031e 8A4A     		ldr	r2, .L243+8
 3108 0320 BB68     		ldr	r3, [r7, #8]
 3109 0322 1360     		str	r3, [r2]
1070:..\src/interruptions.c **** 
1071:..\src/interruptions.c ****             if (pwm_input > 0)
 3110              		.loc 1 1071 0
 3111 0324 FB6C     		ldr	r3, [r7, #76]
 3112 0326 002B     		cmp	r3, #0
 3113 0328 03DD     		ble	.L208
ARM GAS  C:\Users\mgnocco\AppData\Local\Temp\ccM9DEjH.s 			page 76


1072:..\src/interruptions.c ****                 motor_dir = TRUE;
 3114              		.loc 1 1072 0
 3115 032a 884B     		ldr	r3, .L243+12
 3116 032c 0122     		movs	r2, #1
 3117 032e 1A70     		strb	r2, [r3]
1073:..\src/interruptions.c ****             else
1074:..\src/interruptions.c ****                 motor_dir = FALSE;
1075:..\src/interruptions.c **** 
1076:..\src/interruptions.c ****         break;
 3118              		.loc 1 1076 0
 3119 0330 ADE0     		b	.L181
 3120              	.L208:
1074:..\src/interruptions.c **** 
 3121              		.loc 1 1074 0
 3122 0332 864B     		ldr	r3, .L243+12
 3123 0334 0022     		movs	r2, #0
 3124 0336 1A70     		strb	r2, [r3]
 3125              		.loc 1 1076 0
 3126 0338 A9E0     		b	.L181
 3127              	.L185:
1077:..\src/interruptions.c **** 
1078:..\src/interruptions.c ****         // ========================== CURRENT CONTROL ==========================
1079:..\src/interruptions.c ****         case CONTROL_CURRENT:
1080:..\src/interruptions.c ****             if(g_ref[MOTOR_IDX].onoff && tension_valid) {
 3128              		.loc 1 1080 0
 3129 033a 97F84730 		ldrb	r3, [r7, #71]	@ zero_extendqisi2
 3130 033e 844A     		ldr	r2, .L243+16
 3131 0340 1B01     		lsls	r3, r3, #4
 3132 0342 1344     		add	r3, r3, r2
 3133 0344 0C33     		adds	r3, r3, #12
 3134 0346 1B78     		ldrb	r3, [r3]	@ zero_extendqisi2
 3135 0348 002B     		cmp	r3, #0
 3136 034a 00F09D80 		beq	.L239
 3137              		.loc 1 1080 0 is_stmt 0 discriminator 1
 3138 034e 814B     		ldr	r3, .L243+20
 3139 0350 1B78     		ldrb	r3, [r3]	@ zero_extendqisi2
 3140 0352 002B     		cmp	r3, #0
 3141 0354 00F09880 		beq	.L239
1081:..\src/interruptions.c ****                 
1082:..\src/interruptions.c ****                 i_ref = g_ref[MOTOR_IDX].curr;
 3142              		.loc 1 1082 0 is_stmt 1
 3143 0358 97F84730 		ldrb	r3, [r7, #71]	@ zero_extendqisi2
 3144 035c 7C4A     		ldr	r2, .L243+16
 3145 035e 1B01     		lsls	r3, r3, #4
 3146 0360 1344     		add	r3, r3, r2
 3147 0362 0433     		adds	r3, r3, #4
 3148 0364 1B68     		ldr	r3, [r3]
 3149 0366 BB64     		str	r3, [r7, #72]
1083:..\src/interruptions.c **** 
1084:..\src/interruptions.c ****                 if (i_ref > SH_MOT->current_limit) 
 3150              		.loc 1 1084 0
 3151 0368 3B6C     		ldr	r3, [r7, #64]
 3152 036a B3F95C30 		ldrsh	r3, [r3, #92]
 3153 036e 1A46     		mov	r2, r3
 3154 0370 BB6C     		ldr	r3, [r7, #72]
 3155 0372 9A42     		cmp	r2, r3
 3156 0374 04DA     		bge	.L211
ARM GAS  C:\Users\mgnocco\AppData\Local\Temp\ccM9DEjH.s 			page 77


1085:..\src/interruptions.c ****                     i_ref = SH_MOT->current_limit;
 3157              		.loc 1 1085 0
 3158 0376 3B6C     		ldr	r3, [r7, #64]
 3159 0378 B3F95C30 		ldrsh	r3, [r3, #92]
 3160 037c BB64     		str	r3, [r7, #72]
 3161 037e 0BE0     		b	.L212
 3162              	.L211:
1086:..\src/interruptions.c ****                 else {
1087:..\src/interruptions.c ****                     if (i_ref < -SH_MOT->current_limit)
 3163              		.loc 1 1087 0
 3164 0380 3B6C     		ldr	r3, [r7, #64]
 3165 0382 B3F95C30 		ldrsh	r3, [r3, #92]
 3166 0386 5A42     		negs	r2, r3
 3167 0388 BB6C     		ldr	r3, [r7, #72]
 3168 038a 9A42     		cmp	r2, r3
 3169 038c 04DD     		ble	.L212
1088:..\src/interruptions.c ****                         i_ref = -SH_MOT->current_limit;
 3170              		.loc 1 1088 0
 3171 038e 3B6C     		ldr	r3, [r7, #64]
 3172 0390 B3F95C30 		ldrsh	r3, [r3, #92]
 3173 0394 5B42     		negs	r3, r3
 3174 0396 BB64     		str	r3, [r7, #72]
 3175              	.L212:
1089:..\src/interruptions.c ****                 }
1090:..\src/interruptions.c ****                 
1091:..\src/interruptions.c ****                 // current error
1092:..\src/interruptions.c ****                 curr_error = i_ref - g_meas[SH_ENC_L].curr;            
 3176              		.loc 1 1092 0
 3177 0398 97F83F30 		ldrb	r3, [r7, #63]	@ zero_extendqisi2
 3178 039c 6E4A     		ldr	r2, .L243+24
 3179 039e 3421     		movs	r1, #52
 3180 03a0 01FB03F3 		mul	r3, r1, r3
 3181 03a4 1344     		add	r3, r3, r2
 3182 03a6 0C33     		adds	r3, r3, #12
 3183 03a8 1B68     		ldr	r3, [r3]
 3184 03aa BA6C     		ldr	r2, [r7, #72]
 3185 03ac D31A     		subs	r3, r2, r3
 3186 03ae 7B60     		str	r3, [r7, #4]
1093:..\src/interruptions.c ****                 curr_error_sum += curr_error;
 3187              		.loc 1 1093 0
 3188 03b0 6A4B     		ldr	r3, .L243+28
 3189 03b2 1A68     		ldr	r2, [r3]
 3190 03b4 7B68     		ldr	r3, [r7, #4]
 3191 03b6 1344     		add	r3, r3, r2
 3192 03b8 684A     		ldr	r2, .L243+28
 3193 03ba 1360     		str	r3, [r2]
1094:..\src/interruptions.c ****                 
1095:..\src/interruptions.c ****                 if (curr_error_sum > CURR_INTEGRAL_SAT_LIMIT)
 3194              		.loc 1 1095 0
 3195 03bc 674B     		ldr	r3, .L243+28
 3196 03be 1B68     		ldr	r3, [r3]
 3197 03c0 674A     		ldr	r2, .L243+32
 3198 03c2 9342     		cmp	r3, r2
 3199 03c4 03DD     		ble	.L213
1096:..\src/interruptions.c ****                     curr_error_sum = CURR_INTEGRAL_SAT_LIMIT;
 3200              		.loc 1 1096 0
 3201 03c6 654B     		ldr	r3, .L243+28
ARM GAS  C:\Users\mgnocco\AppData\Local\Temp\ccM9DEjH.s 			page 78


 3202 03c8 654A     		ldr	r2, .L243+32
 3203 03ca 1A60     		str	r2, [r3]
 3204 03cc 07E0     		b	.L214
 3205              	.L213:
1097:..\src/interruptions.c ****                 else {
1098:..\src/interruptions.c ****                     if (curr_error_sum < -CURR_INTEGRAL_SAT_LIMIT) 
 3206              		.loc 1 1098 0
 3207 03ce 634B     		ldr	r3, .L243+28
 3208 03d0 1B68     		ldr	r3, [r3]
 3209 03d2 644A     		ldr	r2, .L243+36
 3210 03d4 9342     		cmp	r3, r2
 3211 03d6 02DA     		bge	.L214
1099:..\src/interruptions.c ****                         curr_error_sum = -CURR_INTEGRAL_SAT_LIMIT;
 3212              		.loc 1 1099 0
 3213 03d8 604B     		ldr	r3, .L243+28
 3214 03da 624A     		ldr	r2, .L243+36
 3215 03dc 1A60     		str	r2, [r3]
 3216              	.L214:
1100:..\src/interruptions.c ****                 }
1101:..\src/interruptions.c **** 
1102:..\src/interruptions.c ****                 pwm_input = 0;
 3217              		.loc 1 1102 0
 3218 03de 0023     		movs	r3, #0
 3219 03e0 FB64     		str	r3, [r7, #76]
1103:..\src/interruptions.c **** 
1104:..\src/interruptions.c ****                 // Proportional
1105:..\src/interruptions.c ****                 if (k_p_c != 0)
 3220              		.loc 1 1105 0
 3221 03e2 FB6A     		ldr	r3, [r7, #44]
 3222 03e4 002B     		cmp	r3, #0
 3223 03e6 07D0     		beq	.L215
1106:..\src/interruptions.c ****                     pwm_input += (int32)(k_p_c * curr_error) >> 16;
 3224              		.loc 1 1106 0
 3225 03e8 FB6A     		ldr	r3, [r7, #44]
 3226 03ea 7A68     		ldr	r2, [r7, #4]
 3227 03ec 02FB03F3 		mul	r3, r2, r3
 3228 03f0 1B14     		asrs	r3, r3, #16
 3229 03f2 FA6C     		ldr	r2, [r7, #76]
 3230 03f4 1344     		add	r3, r3, r2
 3231 03f6 FB64     		str	r3, [r7, #76]
 3232              	.L215:
1107:..\src/interruptions.c **** 
1108:..\src/interruptions.c ****                 // Integral
1109:..\src/interruptions.c ****                 if (k_i_c != 0)
 3233              		.loc 1 1109 0
 3234 03f8 BB6A     		ldr	r3, [r7, #40]
 3235 03fa 002B     		cmp	r3, #0
 3236 03fc 08D0     		beq	.L216
1110:..\src/interruptions.c ****                     pwm_input += (int32)(k_i_c * curr_error_sum) >> 16;
 3237              		.loc 1 1110 0
 3238 03fe 574B     		ldr	r3, .L243+28
 3239 0400 1B68     		ldr	r3, [r3]
 3240 0402 BA6A     		ldr	r2, [r7, #40]
 3241 0404 02FB03F3 		mul	r3, r2, r3
 3242 0408 1B14     		asrs	r3, r3, #16
 3243 040a FA6C     		ldr	r2, [r7, #76]
 3244 040c 1344     		add	r3, r3, r2
ARM GAS  C:\Users\mgnocco\AppData\Local\Temp\ccM9DEjH.s 			page 79


 3245 040e FB64     		str	r3, [r7, #76]
 3246              	.L216:
1111:..\src/interruptions.c **** 
1112:..\src/interruptions.c ****                 // Derivative
1113:..\src/interruptions.c ****                 if (k_d_c != 0)
 3247              		.loc 1 1113 0
 3248 0410 7B6A     		ldr	r3, [r7, #36]
 3249 0412 002B     		cmp	r3, #0
 3250 0414 0AD0     		beq	.L217
1114:..\src/interruptions.c ****                     pwm_input += (int32)(k_d_c * (curr_error - prev_curr_err)) >> 16;
 3251              		.loc 1 1114 0
 3252 0416 544B     		ldr	r3, .L243+40
 3253 0418 1B68     		ldr	r3, [r3]
 3254 041a 7A68     		ldr	r2, [r7, #4]
 3255 041c D31A     		subs	r3, r2, r3
 3256 041e 7A6A     		ldr	r2, [r7, #36]
 3257 0420 02FB03F3 		mul	r3, r2, r3
 3258 0424 1B14     		asrs	r3, r3, #16
 3259 0426 FA6C     		ldr	r2, [r7, #76]
 3260 0428 1344     		add	r3, r3, r2
 3261 042a FB64     		str	r3, [r7, #76]
 3262              	.L217:
1115:..\src/interruptions.c ****                 
1116:..\src/interruptions.c ****                 prev_curr_err = curr_error;
 3263              		.loc 1 1116 0
 3264 042c 4E4A     		ldr	r2, .L243+40
 3265 042e 7B68     		ldr	r3, [r7, #4]
 3266 0430 1360     		str	r3, [r2]
1117:..\src/interruptions.c ****                 
1118:..\src/interruptions.c ****                 if (pwm_input >= 0) 
 3267              		.loc 1 1118 0
 3268 0432 FB6C     		ldr	r3, [r7, #76]
 3269 0434 002B     		cmp	r3, #0
 3270 0436 03DB     		blt	.L218
1119:..\src/interruptions.c ****                     motor_dir = TRUE;
 3271              		.loc 1 1119 0
 3272 0438 444B     		ldr	r3, .L243+12
 3273 043a 0122     		movs	r2, #1
 3274 043c 1A70     		strb	r2, [r3]
1120:..\src/interruptions.c ****                 else
1121:..\src/interruptions.c ****                     motor_dir = FALSE;
1122:..\src/interruptions.c ****             }
1123:..\src/interruptions.c ****         break;
 3275              		.loc 1 1123 0
 3276 043e 23E0     		b	.L239
 3277              	.L218:
1121:..\src/interruptions.c ****             }
 3278              		.loc 1 1121 0
 3279 0440 424B     		ldr	r3, .L243+12
 3280 0442 0022     		movs	r2, #0
 3281 0444 1A70     		strb	r2, [r3]
 3282              		.loc 1 1123 0
 3283 0446 1FE0     		b	.L239
 3284              	.L184:
1124:..\src/interruptions.c ****         
1125:..\src/interruptions.c ****         // ================= DIRECT PWM CONTROL ================================
1126:..\src/interruptions.c ****         case CONTROL_PWM:
ARM GAS  C:\Users\mgnocco\AppData\Local\Temp\ccM9DEjH.s 			page 80


1127:..\src/interruptions.c **** 
1128:..\src/interruptions.c ****             pwm_input = g_ref[MOTOR_IDX].pwm;
 3285              		.loc 1 1128 0
 3286 0448 97F84730 		ldrb	r3, [r7, #71]	@ zero_extendqisi2
 3287 044c 404A     		ldr	r2, .L243+16
 3288 044e 1B01     		lsls	r3, r3, #4
 3289 0450 1344     		add	r3, r3, r2
 3290 0452 0833     		adds	r3, r3, #8
 3291 0454 1B68     		ldr	r3, [r3]
 3292 0456 FB64     		str	r3, [r7, #76]
1129:..\src/interruptions.c **** 
1130:..\src/interruptions.c ****             if (pwm_input > 0) 
 3293              		.loc 1 1130 0
 3294 0458 FB6C     		ldr	r3, [r7, #76]
 3295 045a 002B     		cmp	r3, #0
 3296 045c 03DD     		ble	.L219
1131:..\src/interruptions.c ****                 motor_dir = TRUE;
 3297              		.loc 1 1131 0
 3298 045e 3B4B     		ldr	r3, .L243+12
 3299 0460 0122     		movs	r2, #1
 3300 0462 1A70     		strb	r2, [r3]
 3301 0464 02E0     		b	.L220
 3302              	.L219:
1132:..\src/interruptions.c ****             else 
1133:..\src/interruptions.c ****                 motor_dir = FALSE;
 3303              		.loc 1 1133 0
 3304 0466 394B     		ldr	r3, .L243+12
 3305 0468 0022     		movs	r2, #0
 3306 046a 1A70     		strb	r2, [r3]
 3307              	.L220:
1134:..\src/interruptions.c ****             
1135:..\src/interruptions.c **** 
1136:..\src/interruptions.c ****             // pwm_input saturation
1137:..\src/interruptions.c ****             if (pwm_input < -PWM_MAX_VALUE_DC) 
 3308              		.loc 1 1137 0
 3309 046c FB6C     		ldr	r3, [r7, #76]
 3310 046e 13F1640F 		cmn	r3, #100
 3311 0472 03DA     		bge	.L221
1138:..\src/interruptions.c ****                 pwm_input = -PWM_MAX_VALUE_DC;
 3312              		.loc 1 1138 0
 3313 0474 6FF06303 		mvn	r3, #99
 3314 0478 FB64     		str	r3, [r7, #76]
1139:..\src/interruptions.c ****             else {
1140:..\src/interruptions.c **** 				if (pwm_input > PWM_MAX_VALUE_DC) 
1141:..\src/interruptions.c ****                 	pwm_input = PWM_MAX_VALUE_DC;
1142:..\src/interruptions.c ****         	}
1143:..\src/interruptions.c **** 
1144:..\src/interruptions.c ****         break;
 3315              		.loc 1 1144 0
 3316 047a 07E0     		b	.L240
 3317              	.L221:
1140:..\src/interruptions.c ****                 	pwm_input = PWM_MAX_VALUE_DC;
 3318              		.loc 1 1140 0
 3319 047c FB6C     		ldr	r3, [r7, #76]
 3320 047e 642B     		cmp	r3, #100
 3321 0480 04DD     		ble	.L240
1141:..\src/interruptions.c ****         	}
ARM GAS  C:\Users\mgnocco\AppData\Local\Temp\ccM9DEjH.s 			page 81


 3322              		.loc 1 1141 0
 3323 0482 6423     		movs	r3, #100
 3324 0484 FB64     		str	r3, [r7, #76]
 3325              		.loc 1 1144 0
 3326 0486 01E0     		b	.L240
 3327              	.L239:
1123:..\src/interruptions.c ****         
 3328              		.loc 1 1123 0
 3329 0488 00BF     		nop
 3330 048a 00E0     		b	.L181
 3331              	.L240:
 3332              		.loc 1 1144 0
 3333 048c 00BF     		nop
 3334              	.L181:
1145:..\src/interruptions.c ****             
1146:..\src/interruptions.c ****     }
1147:..\src/interruptions.c **** 
1148:..\src/interruptions.c ****     ////////////////////////////////////////////////////////////////////////////
1149:..\src/interruptions.c **** 
1150:..\src/interruptions.c ****     if(pwm_input >  PWM_MAX_VALUE_DC) 
 3335              		.loc 1 1150 0
 3336 048e FB6C     		ldr	r3, [r7, #76]
 3337 0490 642B     		cmp	r3, #100
 3338 0492 01DD     		ble	.L223
1151:..\src/interruptions.c ****         pwm_input =  PWM_MAX_VALUE_DC;
 3339              		.loc 1 1151 0
 3340 0494 6423     		movs	r3, #100
 3341 0496 FB64     		str	r3, [r7, #76]
 3342              	.L223:
1152:..\src/interruptions.c ****     if(pwm_input < -PWM_MAX_VALUE_DC) 
 3343              		.loc 1 1152 0
 3344 0498 FB6C     		ldr	r3, [r7, #76]
 3345 049a 13F1640F 		cmn	r3, #100
 3346 049e 02DA     		bge	.L224
1153:..\src/interruptions.c ****         pwm_input = -PWM_MAX_VALUE_DC;
 3347              		.loc 1 1153 0
 3348 04a0 6FF06303 		mvn	r3, #99
 3349 04a4 FB64     		str	r3, [r7, #76]
 3350              	.L224:
1154:..\src/interruptions.c **** 
1155:..\src/interruptions.c ****     if (SH_MOT->control_mode != CONTROL_PWM) 
 3351              		.loc 1 1155 0
 3352 04a6 3B6C     		ldr	r3, [r7, #64]
 3353 04a8 93F85F30 		ldrb	r3, [r3, #95]	@ zero_extendqisi2
 3354 04ac 012B     		cmp	r3, #1
 3355 04ae 0DD0     		beq	.L225
1156:..\src/interruptions.c ****         pwm_input = (((pwm_input << 10) / PWM_MAX_VALUE_DC) * dev_pwm_limit[0]) >> 10;
 3356              		.loc 1 1156 0
 3357 04b0 FB6C     		ldr	r3, [r7, #76]
 3358 04b2 9B02     		lsls	r3, r3, #10
 3359 04b4 2D4A     		ldr	r2, .L243+44
 3360 04b6 82FB0312 		smull	r1, r2, r2, r3
 3361 04ba 5211     		asrs	r2, r2, #5
 3362 04bc DB17     		asrs	r3, r3, #31
 3363 04be D31A     		subs	r3, r2, r3
 3364 04c0 2B4A     		ldr	r2, .L243+48
 3365 04c2 1288     		ldrh	r2, [r2]
ARM GAS  C:\Users\mgnocco\AppData\Local\Temp\ccM9DEjH.s 			page 82


 3366 04c4 02FB03F3 		mul	r3, r2, r3
 3367 04c8 9B12     		asrs	r3, r3, #10
 3368 04ca FB64     		str	r3, [r7, #76]
 3369              	.L225:
1157:..\src/interruptions.c ****  
1158:..\src/interruptions.c ****     //// RATE LIMITER ////
1159:..\src/interruptions.c ****     if((pwm_input-prev_pwm) > SH_MOT->pwm_rate_limiter){
 3370              		.loc 1 1159 0
 3371 04cc 294B     		ldr	r3, .L243+52
 3372 04ce 1B68     		ldr	r3, [r3]
 3373 04d0 FA6C     		ldr	r2, [r7, #76]
 3374 04d2 D31A     		subs	r3, r2, r3
 3375 04d4 3A6C     		ldr	r2, [r7, #64]
 3376 04d6 92F86120 		ldrb	r2, [r2, #97]	@ zero_extendqisi2
 3377 04da 9342     		cmp	r3, r2
 3378 04dc 08DD     		ble	.L226
1160:..\src/interruptions.c ****         pwm_input =  prev_pwm + SH_MOT->pwm_rate_limiter;
 3379              		.loc 1 1160 0
 3380 04de 3B6C     		ldr	r3, [r7, #64]
 3381 04e0 93F86130 		ldrb	r3, [r3, #97]	@ zero_extendqisi2
 3382 04e4 1A46     		mov	r2, r3
 3383 04e6 234B     		ldr	r3, .L243+52
 3384 04e8 1B68     		ldr	r3, [r3]
 3385 04ea 1344     		add	r3, r3, r2
 3386 04ec FB64     		str	r3, [r7, #76]
 3387 04ee 10E0     		b	.L227
 3388              	.L226:
1161:..\src/interruptions.c ****     }
1162:..\src/interruptions.c ****     else {
1163:..\src/interruptions.c ****         if((pwm_input-prev_pwm) < -SH_MOT->pwm_rate_limiter)
 3389              		.loc 1 1163 0
 3390 04f0 204B     		ldr	r3, .L243+52
 3391 04f2 1B68     		ldr	r3, [r3]
 3392 04f4 FA6C     		ldr	r2, [r7, #76]
 3393 04f6 D21A     		subs	r2, r2, r3
 3394 04f8 3B6C     		ldr	r3, [r7, #64]
 3395 04fa 93F86130 		ldrb	r3, [r3, #97]	@ zero_extendqisi2
 3396 04fe 5B42     		negs	r3, r3
 3397 0500 9A42     		cmp	r2, r3
 3398 0502 06DA     		bge	.L227
1164:..\src/interruptions.c ****             pwm_input =  prev_pwm - SH_MOT->pwm_rate_limiter;
 3399              		.loc 1 1164 0
 3400 0504 1B4B     		ldr	r3, .L243+52
 3401 0506 1B68     		ldr	r3, [r3]
 3402 0508 3A6C     		ldr	r2, [r7, #64]
 3403 050a 92F86120 		ldrb	r2, [r2, #97]	@ zero_extendqisi2
 3404 050e 9B1A     		subs	r3, r3, r2
 3405 0510 FB64     		str	r3, [r7, #76]
 3406              	.L227:
1165:..\src/interruptions.c ****     }
1166:..\src/interruptions.c ****     
1167:..\src/interruptions.c ****     if(pwm_input >  PWM_MAX_VALUE_DC) 
 3407              		.loc 1 1167 0
 3408 0512 FB6C     		ldr	r3, [r7, #76]
 3409 0514 642B     		cmp	r3, #100
 3410 0516 01DD     		ble	.L228
1168:..\src/interruptions.c ****         pwm_input =  PWM_MAX_VALUE_DC;
ARM GAS  C:\Users\mgnocco\AppData\Local\Temp\ccM9DEjH.s 			page 83


 3411              		.loc 1 1168 0
 3412 0518 6423     		movs	r3, #100
 3413 051a FB64     		str	r3, [r7, #76]
 3414              	.L228:
1169:..\src/interruptions.c ****     if(pwm_input < -PWM_MAX_VALUE_DC) 
 3415              		.loc 1 1169 0
 3416 051c FB6C     		ldr	r3, [r7, #76]
 3417 051e 13F1640F 		cmn	r3, #100
 3418 0522 02DA     		bge	.L229
1170:..\src/interruptions.c ****         pwm_input = -PWM_MAX_VALUE_DC;
 3419              		.loc 1 1170 0
 3420 0524 6FF06303 		mvn	r3, #99
 3421 0528 FB64     		str	r3, [r7, #76]
 3422              	.L229:
1171:..\src/interruptions.c ****     
1172:..\src/interruptions.c ****     prev_pwm = pwm_input;
 3423              		.loc 1 1172 0
 3424 052a 124A     		ldr	r2, .L243+52
 3425 052c FB6C     		ldr	r3, [r7, #76]
 3426 052e 1360     		str	r3, [r2]
1173:..\src/interruptions.c **** 	
1174:..\src/interruptions.c ****     pwm_sign[MOTOR_IDX] = SIGN(pwm_input);   
 3427              		.loc 1 1174 0
 3428 0530 97F84730 		ldrb	r3, [r7, #71]	@ zero_extendqisi2
 3429 0534 FA6C     		ldr	r2, [r7, #76]
 3430 0536 002A     		cmp	r2, #0
 3431 0538 1EDB     		blt	.L230
 3432              		.loc 1 1174 0 is_stmt 0 discriminator 1
 3433 053a 0121     		movs	r1, #1
 3434 053c 1EE0     		b	.L231
 3435              	.L244:
 3436 053e 00BF     		.align	2
 3437              	.L243:
 3438 0540 90000000 		.word	pos_error_sum.10325
 3439 0544 18FCFFFF 		.word	-1000
 3440 0548 94000000 		.word	prev_pos_err.10327
 3441 054c 98000000 		.word	motor_dir.10330
 3442 0550 00000000 		.word	g_ref
 3443 0554 00000000 		.word	tension_valid
 3444 0558 00000000 		.word	g_meas
 3445 055c 9C000000 		.word	curr_error_sum.10326
 3446 0560 A0860100 		.word	100000
 3447 0564 6079FEFF 		.word	-100000
 3448 0568 A0000000 		.word	prev_curr_err.10328
 3449 056c 1F85EB51 		.word	1374389535
 3450 0570 00000000 		.word	dev_pwm_limit
 3451 0574 A4000000 		.word	prev_pwm.10329
 3452              	.L230:
 3453              		.loc 1 1174 0 discriminator 2
 3454 0578 4FF0FF31 		mov	r1, #-1
 3455              	.L231:
 3456              		.loc 1 1174 0 discriminator 4
 3457 057c 5A4A     		ldr	r2, .L245
 3458 057e D154     		strb	r1, [r2, r3]
1175:..\src/interruptions.c ****     
1176:..\src/interruptions.c ****     if (SH_MOT->not_revers_motor_flag == TRUE) {
 3459              		.loc 1 1176 0 is_stmt 1 discriminator 4
ARM GAS  C:\Users\mgnocco\AppData\Local\Temp\ccM9DEjH.s 			page 84


 3460 0580 3B6C     		ldr	r3, [r7, #64]
 3461 0582 93F86230 		ldrb	r3, [r3, #98]	@ zero_extendqisi2
 3462 0586 012B     		cmp	r3, #1
 3463 0588 40F09680 		bne	.L232
1177:..\src/interruptions.c ****         // Block motor with pwm = 0 to exploit not reversible motor behaviour 
1178:..\src/interruptions.c ****     	if ( SH_MOT->control_mode != CONTROL_PWM && ((g_measOld[SH_ENC_L].pos[0]-g_meas[SH_ENC_L].pos[
 3464              		.loc 1 1178 0
 3465 058c 3B6C     		ldr	r3, [r7, #64]
 3466 058e 93F85F30 		ldrb	r3, [r3, #95]	@ zero_extendqisi2
 3467 0592 012B     		cmp	r3, #1
 3468 0594 00F08D80 		beq	.L233
 3469              		.loc 1 1178 0 is_stmt 0 discriminator 1
 3470 0598 97F83F30 		ldrb	r3, [r7, #63]	@ zero_extendqisi2
 3471 059c 534A     		ldr	r2, .L245+4
 3472 059e 3421     		movs	r1, #52
 3473 05a0 01FB03F3 		mul	r3, r1, r3
 3474 05a4 1344     		add	r3, r3, r2
 3475 05a6 1A68     		ldr	r2, [r3]
 3476 05a8 97F83F30 		ldrb	r3, [r7, #63]	@ zero_extendqisi2
 3477 05ac 5049     		ldr	r1, .L245+8
 3478 05ae 3420     		movs	r0, #52
 3479 05b0 00FB03F3 		mul	r3, r0, r3
 3480 05b4 0B44     		add	r3, r3, r1
 3481 05b6 1B68     		ldr	r3, [r3]
 3482 05b8 D31A     		subs	r3, r2, r3
 3483 05ba 312B     		cmp	r3, #49
 3484 05bc 79DC     		bgt	.L233
1179:..\src/interruptions.c ****             (g_measOld[SH_ENC_L].pos[0]-g_meas[SH_ENC_L].pos[0]) > -50) && 
 3485              		.loc 1 1179 0 is_stmt 1 discriminator 2
 3486 05be 97F83F30 		ldrb	r3, [r7, #63]	@ zero_extendqisi2
 3487 05c2 4A4A     		ldr	r2, .L245+4
 3488 05c4 3421     		movs	r1, #52
 3489 05c6 01FB03F3 		mul	r3, r1, r3
 3490 05ca 1344     		add	r3, r3, r2
 3491 05cc 1A68     		ldr	r2, [r3]
 3492 05ce 97F83F30 		ldrb	r3, [r7, #63]	@ zero_extendqisi2
 3493 05d2 4749     		ldr	r1, .L245+8
 3494 05d4 3420     		movs	r0, #52
 3495 05d6 00FB03F3 		mul	r3, r0, r3
 3496 05da 0B44     		add	r3, r3, r1
 3497 05dc 1B68     		ldr	r3, [r3]
 3498 05de D31A     		subs	r3, r2, r3
1178:..\src/interruptions.c ****             (g_measOld[SH_ENC_L].pos[0]-g_meas[SH_ENC_L].pos[0]) > -50) && 
 3499              		.loc 1 1178 0 discriminator 2
 3500 05e0 13F1310F 		cmn	r3, #49
 3501 05e4 65DB     		blt	.L233
1180:..\src/interruptions.c ****             ((g_refOld[MOTOR_IDX].pos - g_ref[MOTOR_IDX].pos) < 100 && (g_refOld[MOTOR_IDX].pos - g
 3502              		.loc 1 1180 0
 3503 05e6 97F84730 		ldrb	r3, [r7, #71]	@ zero_extendqisi2
 3504 05ea 424A     		ldr	r2, .L245+12
 3505 05ec 1B01     		lsls	r3, r3, #4
 3506 05ee 1344     		add	r3, r3, r2
 3507 05f0 1A68     		ldr	r2, [r3]
 3508 05f2 97F84730 		ldrb	r3, [r7, #71]	@ zero_extendqisi2
 3509 05f6 4049     		ldr	r1, .L245+16
 3510 05f8 1B01     		lsls	r3, r3, #4
 3511 05fa 0B44     		add	r3, r3, r1
ARM GAS  C:\Users\mgnocco\AppData\Local\Temp\ccM9DEjH.s 			page 85


 3512 05fc 1B68     		ldr	r3, [r3]
 3513 05fe D31A     		subs	r3, r2, r3
1179:..\src/interruptions.c ****             (g_measOld[SH_ENC_L].pos[0]-g_meas[SH_ENC_L].pos[0]) > -50) && 
 3514              		.loc 1 1179 0
 3515 0600 632B     		cmp	r3, #99
 3516 0602 56DC     		bgt	.L233
 3517              		.loc 1 1180 0
 3518 0604 97F84730 		ldrb	r3, [r7, #71]	@ zero_extendqisi2
 3519 0608 3A4A     		ldr	r2, .L245+12
 3520 060a 1B01     		lsls	r3, r3, #4
 3521 060c 1344     		add	r3, r3, r2
 3522 060e 1A68     		ldr	r2, [r3]
 3523 0610 97F84730 		ldrb	r3, [r7, #71]	@ zero_extendqisi2
 3524 0614 3849     		ldr	r1, .L245+16
 3525 0616 1B01     		lsls	r3, r3, #4
 3526 0618 0B44     		add	r3, r3, r1
 3527 061a 1B68     		ldr	r3, [r3]
 3528 061c D31A     		subs	r3, r2, r3
 3529 061e 13F1630F 		cmn	r3, #99
 3530 0622 46DB     		blt	.L233
1181:..\src/interruptions.c ****             position_counter++;
 3531              		.loc 1 1181 0
 3532 0624 354B     		ldr	r3, .L245+20
 3533 0626 1B68     		ldr	r3, [r3]
 3534 0628 0133     		adds	r3, r3, #1
 3535 062a 344A     		ldr	r2, .L245+20
 3536 062c 1360     		str	r3, [r2]
1182:..\src/interruptions.c ****             
1183:..\src/interruptions.c ****             if (position_counter >= 250) { 
 3537              		.loc 1 1183 0
 3538 062e 334B     		ldr	r3, .L245+20
 3539 0630 1B68     		ldr	r3, [r3]
 3540 0632 F92B     		cmp	r3, #249
 3541 0634 40D9     		bls	.L232
1184:..\src/interruptions.c ****                 if (SH_MOT->input_mode == INPUT_MODE_EXTERNAL && change_ext_ref_flag == FALSE) {
 3542              		.loc 1 1184 0
 3543 0636 3B6C     		ldr	r3, [r7, #64]
 3544 0638 93F85E30 		ldrb	r3, [r3, #94]	@ zero_extendqisi2
 3545 063c 002B     		cmp	r3, #0
 3546 063e 11D1     		bne	.L235
 3547              		.loc 1 1184 0 is_stmt 0 discriminator 1
 3548 0640 2F4B     		ldr	r3, .L245+24
 3549 0642 1B78     		ldrb	r3, [r3]	@ zero_extendqisi2
 3550 0644 002B     		cmp	r3, #0
 3551 0646 0DD1     		bne	.L235
1185:..\src/interruptions.c ****                     g_refNew[MOTOR_IDX].pos = g_meas[SH_ENC_L].pos[0];       // Needed only when US
 3552              		.loc 1 1185 0 is_stmt 1
 3553 0648 97F84730 		ldrb	r3, [r7, #71]	@ zero_extendqisi2
 3554 064c 97F83F20 		ldrb	r2, [r7, #63]	@ zero_extendqisi2
 3555 0650 2749     		ldr	r1, .L245+8
 3556 0652 3420     		movs	r0, #52
 3557 0654 00FB02F2 		mul	r2, r0, r2
 3558 0658 0A44     		add	r2, r2, r1
 3559 065a 1268     		ldr	r2, [r2]
 3560 065c 2949     		ldr	r1, .L245+28
 3561 065e 1B01     		lsls	r3, r3, #4
 3562 0660 0B44     		add	r3, r3, r1
ARM GAS  C:\Users\mgnocco\AppData\Local\Temp\ccM9DEjH.s 			page 86


 3563 0662 1A60     		str	r2, [r3]
 3564              	.L235:
1186:..\src/interruptions.c ****                 }
1187:..\src/interruptions.c ****                 g_ref[MOTOR_IDX].pos = g_meas[SH_ENC_L].pos[0];
 3565              		.loc 1 1187 0
 3566 0664 97F84730 		ldrb	r3, [r7, #71]	@ zero_extendqisi2
 3567 0668 97F83F20 		ldrb	r2, [r7, #63]	@ zero_extendqisi2
 3568 066c 2049     		ldr	r1, .L245+8
 3569 066e 3420     		movs	r0, #52
 3570 0670 00FB02F2 		mul	r2, r0, r2
 3571 0674 0A44     		add	r2, r2, r1
 3572 0676 1268     		ldr	r2, [r2]
 3573 0678 1F49     		ldr	r1, .L245+16
 3574 067a 1B01     		lsls	r3, r3, #4
 3575 067c 0B44     		add	r3, r3, r1
 3576 067e 1A60     		str	r2, [r3]
1188:..\src/interruptions.c ****                 
1189:..\src/interruptions.c ****                 if (position_counter == 250){
 3577              		.loc 1 1189 0
 3578 0680 1E4B     		ldr	r3, .L245+20
 3579 0682 1B68     		ldr	r3, [r3]
 3580 0684 FA2B     		cmp	r3, #250
 3581 0686 11D1     		bne	.L236
1190:..\src/interruptions.c ****                     // To do only once
1191:..\src/interruptions.c ****                     g_meas[SH_ENC_L].hold_curr = g_meas[SH_ENC_L].curr;
 3582              		.loc 1 1191 0
 3583 0688 97F83F30 		ldrb	r3, [r7, #63]	@ zero_extendqisi2
 3584 068c 97F83F20 		ldrb	r2, [r7, #63]	@ zero_extendqisi2
 3585 0690 1749     		ldr	r1, .L245+8
 3586 0692 3420     		movs	r0, #52
 3587 0694 00FB02F2 		mul	r2, r0, r2
 3588 0698 0A44     		add	r2, r2, r1
 3589 069a 0C32     		adds	r2, r2, #12
 3590 069c 1268     		ldr	r2, [r2]
 3591 069e 1449     		ldr	r1, .L245+8
 3592 06a0 3420     		movs	r0, #52
 3593 06a2 00FB03F3 		mul	r3, r0, r3
 3594 06a6 0B44     		add	r3, r3, r1
 3595 06a8 1433     		adds	r3, r3, #20
 3596 06aa 1A60     		str	r2, [r3]
 3597              	.L236:
1192:..\src/interruptions.c ****                 }
1193:..\src/interruptions.c ****                 pwm_input = 0;            
 3598              		.loc 1 1193 0
 3599 06ac 0023     		movs	r3, #0
 3600 06ae FB64     		str	r3, [r7, #76]
1183:..\src/interruptions.c ****                 if (SH_MOT->input_mode == INPUT_MODE_EXTERNAL && change_ext_ref_flag == FALSE) {
 3601              		.loc 1 1183 0
 3602 06b0 02E0     		b	.L232
 3603              	.L233:
1194:..\src/interruptions.c ****             }
1195:..\src/interruptions.c ****         }
1196:..\src/interruptions.c ****         else {
1197:..\src/interruptions.c ****             position_counter = 0;
 3604              		.loc 1 1197 0
 3605 06b2 124B     		ldr	r3, .L245+20
 3606 06b4 0022     		movs	r2, #0
ARM GAS  C:\Users\mgnocco\AppData\Local\Temp\ccM9DEjH.s 			page 87


 3607 06b6 1A60     		str	r2, [r3]
 3608              	.L232:
1198:..\src/interruptions.c ****         }
1199:..\src/interruptions.c ****     }
1200:..\src/interruptions.c ****     
1201:..\src/interruptions.c ****     if (motor_dir)
 3609              		.loc 1 1201 0
 3610 06b8 134B     		ldr	r3, .L245+32
 3611 06ba 1B78     		ldrb	r3, [r3]	@ zero_extendqisi2
 3612 06bc 002B     		cmp	r3, #0
 3613 06be 03D0     		beq	.L237
1202:..\src/interruptions.c ****         MOTOR_DIR_1_Write(0x01);
 3614              		.loc 1 1202 0
 3615 06c0 0120     		movs	r0, #1
 3616 06c2 FFF7FEFF 		bl	MOTOR_DIR_1_Write
 3617 06c6 02E0     		b	.L238
 3618              	.L237:
1203:..\src/interruptions.c ****     else
1204:..\src/interruptions.c ****         MOTOR_DIR_1_Write(0x00);
 3619              		.loc 1 1204 0
 3620 06c8 0020     		movs	r0, #0
 3621 06ca FFF7FEFF 		bl	MOTOR_DIR_1_Write
 3622              	.L238:
1205:..\src/interruptions.c **** 
1206:..\src/interruptions.c ****     PWM_MOTORS_WriteCompare1(abs(pwm_input));
 3623              		.loc 1 1206 0
 3624 06ce FB6C     		ldr	r3, [r7, #76]
 3625 06d0 002B     		cmp	r3, #0
 3626 06d2 B8BF     		it	lt
 3627 06d4 5B42     		rsblt	r3, r3, #0
 3628 06d6 DBB2     		uxtb	r3, r3
 3629 06d8 1846     		mov	r0, r3
 3630 06da FFF7FEFF 		bl	PWM_MOTORS_WriteCompare1
1207:..\src/interruptions.c **** }
 3631              		.loc 1 1207 0
 3632 06de 00BF     		nop
 3633 06e0 5037     		adds	r7, r7, #80
 3634              		.cfi_def_cfa_offset 8
 3635 06e2 BD46     		mov	sp, r7
 3636              		.cfi_def_cfa_register 13
 3637              		@ sp needed
 3638 06e4 80BD     		pop	{r7, pc}
 3639              	.L246:
 3640 06e6 00BF     		.align	2
 3641              	.L245:
 3642 06e8 00000000 		.word	pwm_sign
 3643 06ec 00000000 		.word	g_measOld
 3644 06f0 00000000 		.word	g_meas
 3645 06f4 00000000 		.word	g_refOld
 3646 06f8 00000000 		.word	g_ref
 3647 06fc A8000000 		.word	position_counter.10331
 3648 0700 00000000 		.word	change_ext_ref_flag
 3649 0704 00000000 		.word	g_refNew
 3650 0708 98000000 		.word	motor_dir.10330
 3651              		.cfi_endproc
 3652              	.LFE71:
 3653              		.size	motor_control_SH, .-motor_control_SH
ARM GAS  C:\Users\mgnocco\AppData\Local\Temp\ccM9DEjH.s 			page 88


 3654              		.section	.text.motor_control_generic,"ax",%progbits
 3655              		.align	2
 3656              		.global	motor_control_generic
 3657              		.thumb
 3658              		.thumb_func
 3659              		.type	motor_control_generic, %function
 3660              	motor_control_generic:
 3661              	.LFB72:
1208:..\src/interruptions.c **** 
1209:..\src/interruptions.c **** //==============================================================================
1210:..\src/interruptions.c **** //                                                         MOTOR CONTROL GENERIC
1211:..\src/interruptions.c **** //==============================================================================
1212:..\src/interruptions.c **** void motor_control_generic(uint8 idx) {
 3662              		.loc 1 1212 0
 3663              		.cfi_startproc
 3664              		@ args = 0, pretend = 0, frame = 80
 3665              		@ frame_needed = 1, uses_anonymous_args = 0
 3666 0000 90B5     		push	{r4, r7, lr}
 3667              		.cfi_def_cfa_offset 12
 3668              		.cfi_offset 4, -12
 3669              		.cfi_offset 7, -8
 3670              		.cfi_offset 14, -4
 3671 0002 95B0     		sub	sp, sp, #84
 3672              		.cfi_def_cfa_offset 96
 3673 0004 00AF     		add	r7, sp, #0
 3674              		.cfi_def_cfa_register 7
 3675 0006 0346     		mov	r3, r0
 3676 0008 FB71     		strb	r3, [r7, #7]
1213:..\src/interruptions.c ****     
1214:..\src/interruptions.c ****     int32 CYDATA pwm_input = 0;
 3677              		.loc 1 1214 0
 3678 000a 0023     		movs	r3, #0
 3679 000c FB64     		str	r3, [r7, #76]
1215:..\src/interruptions.c ****     int32 CYDATA pos_error;         // position error
1216:..\src/interruptions.c ****     int32 CYDATA curr_error;        // current error
1217:..\src/interruptions.c ****     int32 CYDATA i_ref;             // current reference
1218:..\src/interruptions.c **** 
1219:..\src/interruptions.c ****     struct st_motor* MOT = &c_mem.motor[idx]; // Motor struct
 3680              		.loc 1 1219 0
 3681 000e FA79     		ldrb	r2, [r7, #7]	@ zero_extendqisi2
 3682 0010 1346     		mov	r3, r2
 3683 0012 DB00     		lsls	r3, r3, #3
 3684 0014 9B1A     		subs	r3, r3, r2
 3685 0016 1B01     		lsls	r3, r3, #4
 3686 0018 B033     		adds	r3, r3, #176
 3687 001a 9D4A     		ldr	r2, .L338
 3688 001c 1344     		add	r3, r3, r2
 3689 001e 7B64     		str	r3, [r7, #68]
1220:..\src/interruptions.c ****     uint8 ENC_L = MOT->encoder_line;          // Associated encoder line
 3690              		.loc 1 1220 0
 3691 0020 7B6C     		ldr	r3, [r7, #68]
 3692 0022 93F86030 		ldrb	r3, [r3, #96]
 3693 0026 87F84330 		strb	r3, [r7, #67]
1221:..\src/interruptions.c ****     
1222:..\src/interruptions.c ****     int32 CYDATA k_p = MOT->k_p;  
 3694              		.loc 1 1222 0
 3695 002a 7B6C     		ldr	r3, [r7, #68]
ARM GAS  C:\Users\mgnocco\AppData\Local\Temp\ccM9DEjH.s 			page 89


 3696 002c 1B68     		ldr	r3, [r3]
 3697 002e FB63     		str	r3, [r7, #60]
1223:..\src/interruptions.c ****     int32 CYDATA k_i = MOT->k_i; 
 3698              		.loc 1 1223 0
 3699 0030 7B6C     		ldr	r3, [r7, #68]
 3700 0032 5B68     		ldr	r3, [r3, #4]
 3701 0034 BB63     		str	r3, [r7, #56]
1224:..\src/interruptions.c ****     int32 CYDATA k_d = MOT->k_d; 
 3702              		.loc 1 1224 0
 3703 0036 7B6C     		ldr	r3, [r7, #68]
 3704 0038 9B68     		ldr	r3, [r3, #8]
 3705 003a 7B63     		str	r3, [r7, #52]
1225:..\src/interruptions.c **** 
1226:..\src/interruptions.c ****     int32 CYDATA k_p_c = MOT->k_p_c;  
 3706              		.loc 1 1226 0
 3707 003c 7B6C     		ldr	r3, [r7, #68]
 3708 003e DB68     		ldr	r3, [r3, #12]
 3709 0040 3B63     		str	r3, [r7, #48]
1227:..\src/interruptions.c ****     int32 CYDATA k_i_c = MOT->k_i_c; 
 3710              		.loc 1 1227 0
 3711 0042 7B6C     		ldr	r3, [r7, #68]
 3712 0044 1B69     		ldr	r3, [r3, #16]
 3713 0046 FB62     		str	r3, [r7, #44]
1228:..\src/interruptions.c ****     int32 CYDATA k_d_c = MOT->k_d_c;   
 3714              		.loc 1 1228 0
 3715 0048 7B6C     		ldr	r3, [r7, #68]
 3716 004a 5B69     		ldr	r3, [r3, #20]
 3717 004c BB62     		str	r3, [r7, #40]
1229:..\src/interruptions.c **** 
1230:..\src/interruptions.c ****     int32 CYDATA k_p_dl = MOT->k_p_dl;  
 3718              		.loc 1 1230 0
 3719 004e 7B6C     		ldr	r3, [r7, #68]
 3720 0050 9B69     		ldr	r3, [r3, #24]
 3721 0052 7B62     		str	r3, [r7, #36]
1231:..\src/interruptions.c ****     int32 CYDATA k_i_dl = MOT->k_i_dl; 
 3722              		.loc 1 1231 0
 3723 0054 7B6C     		ldr	r3, [r7, #68]
 3724 0056 DB69     		ldr	r3, [r3, #28]
 3725 0058 3B62     		str	r3, [r7, #32]
1232:..\src/interruptions.c ****     int32 CYDATA k_d_dl = MOT->k_d_dl;
 3726              		.loc 1 1232 0
 3727 005a 7B6C     		ldr	r3, [r7, #68]
 3728 005c 1B6A     		ldr	r3, [r3, #32]
 3729 005e FB61     		str	r3, [r7, #28]
1233:..\src/interruptions.c ****     
1234:..\src/interruptions.c ****     int32 CYDATA k_p_c_dl = MOT->k_p_c_dl;  
 3730              		.loc 1 1234 0
 3731 0060 7B6C     		ldr	r3, [r7, #68]
 3732 0062 5B6A     		ldr	r3, [r3, #36]
 3733 0064 BB61     		str	r3, [r7, #24]
1235:..\src/interruptions.c ****     int32 CYDATA k_i_c_dl = MOT->k_i_c_dl; 
 3734              		.loc 1 1235 0
 3735 0066 7B6C     		ldr	r3, [r7, #68]
 3736 0068 9B6A     		ldr	r3, [r3, #40]
 3737 006a 7B61     		str	r3, [r7, #20]
1236:..\src/interruptions.c ****     int32 CYDATA k_d_c_dl = MOT->k_d_c_dl;   
 3738              		.loc 1 1236 0
ARM GAS  C:\Users\mgnocco\AppData\Local\Temp\ccM9DEjH.s 			page 90


 3739 006c 7B6C     		ldr	r3, [r7, #68]
 3740 006e DB6A     		ldr	r3, [r3, #44]
 3741 0070 3B61     		str	r3, [r7, #16]
1237:..\src/interruptions.c **** 
1238:..\src/interruptions.c ****     // Static Variables
1239:..\src/interruptions.c **** 
1240:..\src/interruptions.c ****     static int32 pos_error_sum[NUM_OF_MOTORS];     // position error sum for integral
1241:..\src/interruptions.c ****     static int32 curr_error_sum[NUM_OF_MOTORS];    // current error sum for integral
1242:..\src/interruptions.c ****     
1243:..\src/interruptions.c ****     static int32 prev_pos_err[NUM_OF_MOTORS];      // previous position error for deriv. control
1244:..\src/interruptions.c ****     static int32 prev_curr_err[NUM_OF_MOTORS];     // previous current error for deriv. control
1245:..\src/interruptions.c ****     static int32 prev_pwm[NUM_OF_MOTORS];
1246:..\src/interruptions.c **** 
1247:..\src/interruptions.c ****     static CYBIT motor_dir[NUM_OF_MOTORS] = {FALSE, FALSE};
1248:..\src/interruptions.c ****     static uint32 position_counter[NUM_OF_MOTORS] = {0, 0};
1249:..\src/interruptions.c **** 
1250:..\src/interruptions.c ****     // ======================= UPDATE MOTOR REFERENCE ==========================            
1251:..\src/interruptions.c ****     compute_reference(idx, &g_ref[idx], &g_refOld[idx]);
 3742              		.loc 1 1251 0
 3743 0072 FB79     		ldrb	r3, [r7, #7]	@ zero_extendqisi2
 3744 0074 1B01     		lsls	r3, r3, #4
 3745 0076 874A     		ldr	r2, .L338+4
 3746 0078 9918     		adds	r1, r3, r2
 3747 007a FB79     		ldrb	r3, [r7, #7]	@ zero_extendqisi2
 3748 007c 1B01     		lsls	r3, r3, #4
 3749 007e 864A     		ldr	r2, .L338+8
 3750 0080 1A44     		add	r2, r2, r3
 3751 0082 FB79     		ldrb	r3, [r7, #7]	@ zero_extendqisi2
 3752 0084 1846     		mov	r0, r3
 3753 0086 FFF7FEFF 		bl	compute_reference
1252:..\src/interruptions.c ****     
1253:..\src/interruptions.c ****    
1254:..\src/interruptions.c ****     switch(MOT->control_mode) {
 3754              		.loc 1 1254 0
 3755 008a 7B6C     		ldr	r3, [r7, #68]
 3756 008c 93F85F30 		ldrb	r3, [r3, #95]	@ zero_extendqisi2
 3757 0090 032B     		cmp	r3, #3
 3758 0092 00F28082 		bhi	.L248
 3759 0096 01A2     		adr	r2, .L250
 3760 0098 52F823F0 		ldr	pc, [r2, r3, lsl #2]
 3761              		.p2align 2
 3762              	.L250:
 3763 009c ED020000 		.word	.L249+1
 3764 00a0 F7040000 		.word	.L251+1
 3765 00a4 C5030000 		.word	.L252+1
 3766 00a8 AD000000 		.word	.L253+1
 3767              		.p2align 1
 3768              	.L253:
1255:..\src/interruptions.c ****         // ======================= CURRENT AND POSITION CONTROL =======================
1256:..\src/interruptions.c ****         case CURR_AND_POS_CONTROL:
1257:..\src/interruptions.c ****             pos_error = g_ref[0].pos - g_meas[ENC_L].pos[0];
 3769              		.loc 1 1257 0
 3770 00ac 794B     		ldr	r3, .L338+4
 3771 00ae 1A68     		ldr	r2, [r3]
 3772 00b0 97F84330 		ldrb	r3, [r7, #67]	@ zero_extendqisi2
 3773 00b4 7949     		ldr	r1, .L338+12
 3774 00b6 3420     		movs	r0, #52
ARM GAS  C:\Users\mgnocco\AppData\Local\Temp\ccM9DEjH.s 			page 91


 3775 00b8 00FB03F3 		mul	r3, r0, r3
 3776 00bc 0B44     		add	r3, r3, r1
 3777 00be 1B68     		ldr	r3, [r3]
 3778 00c0 D31A     		subs	r3, r2, r3
 3779 00c2 FB60     		str	r3, [r7, #12]
1258:..\src/interruptions.c **** 
1259:..\src/interruptions.c ****             pos_error_sum[idx] += pos_error;
 3780              		.loc 1 1259 0
 3781 00c4 FB79     		ldrb	r3, [r7, #7]	@ zero_extendqisi2
 3782 00c6 FA79     		ldrb	r2, [r7, #7]	@ zero_extendqisi2
 3783 00c8 7549     		ldr	r1, .L338+16
 3784 00ca 51F82210 		ldr	r1, [r1, r2, lsl #2]
 3785 00ce FA68     		ldr	r2, [r7, #12]
 3786 00d0 0A44     		add	r2, r2, r1
 3787 00d2 7349     		ldr	r1, .L338+16
 3788 00d4 41F82320 		str	r2, [r1, r3, lsl #2]
1260:..\src/interruptions.c **** 
1261:..\src/interruptions.c ****             // error_sum saturation
1262:..\src/interruptions.c ****             if (pos_error_sum[idx] > POS_INTEGRAL_SAT_LIMIT)
 3789              		.loc 1 1262 0
 3790 00d8 FB79     		ldrb	r3, [r7, #7]	@ zero_extendqisi2
 3791 00da 714A     		ldr	r2, .L338+16
 3792 00dc 52F82330 		ldr	r3, [r2, r3, lsl #2]
 3793 00e0 704A     		ldr	r2, .L338+20
 3794 00e2 9342     		cmp	r3, r2
 3795 00e4 05DD     		ble	.L254
1263:..\src/interruptions.c ****                 pos_error_sum[idx] = POS_INTEGRAL_SAT_LIMIT;
 3796              		.loc 1 1263 0
 3797 00e6 FB79     		ldrb	r3, [r7, #7]	@ zero_extendqisi2
 3798 00e8 6D4A     		ldr	r2, .L338+16
 3799 00ea 6E49     		ldr	r1, .L338+20
 3800 00ec 42F82310 		str	r1, [r2, r3, lsl #2]
 3801 00f0 0BE0     		b	.L255
 3802              	.L254:
1264:..\src/interruptions.c ****             else {
1265:..\src/interruptions.c ****                 if (pos_error_sum[idx] < -POS_INTEGRAL_SAT_LIMIT) 
 3803              		.loc 1 1265 0
 3804 00f2 FB79     		ldrb	r3, [r7, #7]	@ zero_extendqisi2
 3805 00f4 6A4A     		ldr	r2, .L338+16
 3806 00f6 52F82330 		ldr	r3, [r2, r3, lsl #2]
 3807 00fa 6B4A     		ldr	r2, .L338+24
 3808 00fc 9342     		cmp	r3, r2
 3809 00fe 04DA     		bge	.L255
1266:..\src/interruptions.c ****                     pos_error_sum[idx] = -POS_INTEGRAL_SAT_LIMIT;
 3810              		.loc 1 1266 0
 3811 0100 FB79     		ldrb	r3, [r7, #7]	@ zero_extendqisi2
 3812 0102 674A     		ldr	r2, .L338+16
 3813 0104 6849     		ldr	r1, .L338+24
 3814 0106 42F82310 		str	r1, [r2, r3, lsl #2]
 3815              	.L255:
1267:..\src/interruptions.c ****             }
1268:..\src/interruptions.c ****             
1269:..\src/interruptions.c ****             // ------ position PID control ------
1270:..\src/interruptions.c **** 
1271:..\src/interruptions.c ****             i_ref = 0;
 3816              		.loc 1 1271 0
 3817 010a 0023     		movs	r3, #0
ARM GAS  C:\Users\mgnocco\AppData\Local\Temp\ccM9DEjH.s 			page 92


 3818 010c BB64     		str	r3, [r7, #72]
1272:..\src/interruptions.c ****             
1273:..\src/interruptions.c ****             // Proportional
1274:..\src/interruptions.c ****             if (k_p_dl != 0)
 3819              		.loc 1 1274 0
 3820 010e 7B6A     		ldr	r3, [r7, #36]
 3821 0110 002B     		cmp	r3, #0
 3822 0112 07D0     		beq	.L256
1275:..\src/interruptions.c ****                 i_ref += (int32)(k_p_dl * pos_error) >> 16;
 3823              		.loc 1 1275 0
 3824 0114 7B6A     		ldr	r3, [r7, #36]
 3825 0116 FA68     		ldr	r2, [r7, #12]
 3826 0118 02FB03F3 		mul	r3, r2, r3
 3827 011c 1B14     		asrs	r3, r3, #16
 3828 011e BA6C     		ldr	r2, [r7, #72]
 3829 0120 1344     		add	r3, r3, r2
 3830 0122 BB64     		str	r3, [r7, #72]
 3831              	.L256:
1276:..\src/interruptions.c **** 
1277:..\src/interruptions.c ****             // Integral
1278:..\src/interruptions.c ****             if (k_i_dl != 0)
 3832              		.loc 1 1278 0
 3833 0124 3B6A     		ldr	r3, [r7, #32]
 3834 0126 002B     		cmp	r3, #0
 3835 0128 0AD0     		beq	.L257
1279:..\src/interruptions.c ****                 i_ref += (int32)(k_i_dl * pos_error_sum[idx]) >> 16;
 3836              		.loc 1 1279 0
 3837 012a FB79     		ldrb	r3, [r7, #7]	@ zero_extendqisi2
 3838 012c 5C4A     		ldr	r2, .L338+16
 3839 012e 52F82330 		ldr	r3, [r2, r3, lsl #2]
 3840 0132 3A6A     		ldr	r2, [r7, #32]
 3841 0134 02FB03F3 		mul	r3, r2, r3
 3842 0138 1B14     		asrs	r3, r3, #16
 3843 013a BA6C     		ldr	r2, [r7, #72]
 3844 013c 1344     		add	r3, r3, r2
 3845 013e BB64     		str	r3, [r7, #72]
 3846              	.L257:
1280:..\src/interruptions.c **** 
1281:..\src/interruptions.c ****             // Derivative
1282:..\src/interruptions.c ****             if (k_d_dl != 0)
 3847              		.loc 1 1282 0
 3848 0140 FB69     		ldr	r3, [r7, #28]
 3849 0142 002B     		cmp	r3, #0
 3850 0144 0CD0     		beq	.L258
1283:..\src/interruptions.c ****                 i_ref += (int32)(k_d_dl * (pos_error - prev_pos_err[idx])) >> 16;
 3851              		.loc 1 1283 0
 3852 0146 FB79     		ldrb	r3, [r7, #7]	@ zero_extendqisi2
 3853 0148 584A     		ldr	r2, .L338+28
 3854 014a 52F82330 		ldr	r3, [r2, r3, lsl #2]
 3855 014e FA68     		ldr	r2, [r7, #12]
 3856 0150 D31A     		subs	r3, r2, r3
 3857 0152 FA69     		ldr	r2, [r7, #28]
 3858 0154 02FB03F3 		mul	r3, r2, r3
 3859 0158 1B14     		asrs	r3, r3, #16
 3860 015a BA6C     		ldr	r2, [r7, #72]
 3861 015c 1344     		add	r3, r3, r2
 3862 015e BB64     		str	r3, [r7, #72]
ARM GAS  C:\Users\mgnocco\AppData\Local\Temp\ccM9DEjH.s 			page 93


 3863              	.L258:
1284:..\src/interruptions.c ****                         
1285:..\src/interruptions.c ****             // Update previous position
1286:..\src/interruptions.c ****             prev_pos_err[idx] = pos_error;
 3864              		.loc 1 1286 0
 3865 0160 FB79     		ldrb	r3, [r7, #7]	@ zero_extendqisi2
 3866 0162 5249     		ldr	r1, .L338+28
 3867 0164 FA68     		ldr	r2, [r7, #12]
 3868 0166 41F82320 		str	r2, [r1, r3, lsl #2]
1287:..\src/interruptions.c **** 
1288:..\src/interruptions.c ****             // motor direction depends on i_ref
1289:..\src/interruptions.c ****             if (i_ref >= 0)
 3869              		.loc 1 1289 0
 3870 016a BB6C     		ldr	r3, [r7, #72]
 3871 016c 002B     		cmp	r3, #0
 3872 016e 04DB     		blt	.L259
1290:..\src/interruptions.c ****                 motor_dir[idx] = TRUE;
 3873              		.loc 1 1290 0
 3874 0170 FB79     		ldrb	r3, [r7, #7]	@ zero_extendqisi2
 3875 0172 4F4A     		ldr	r2, .L338+32
 3876 0174 0121     		movs	r1, #1
 3877 0176 D154     		strb	r1, [r2, r3]
 3878 0178 03E0     		b	.L260
 3879              	.L259:
1291:..\src/interruptions.c ****             else
1292:..\src/interruptions.c ****                 motor_dir[idx] = FALSE;
 3880              		.loc 1 1292 0
 3881 017a FB79     		ldrb	r3, [r7, #7]	@ zero_extendqisi2
