ARM GAS  C:\Users\mgnocco\AppData\Local\Temp\cc5vWZGV.s 			page 1


   1              		.syntax unified
   2              		.cpu cortex-m3
   3              		.fpu softvfp
   4              		.eabi_attribute 20, 1
   5              		.eabi_attribute 21, 1
   6              		.eabi_attribute 23, 3
   7              		.eabi_attribute 24, 1
   8              		.eabi_attribute 25, 1
   9              		.eabi_attribute 26, 1
  10              		.eabi_attribute 30, 6
  11              		.eabi_attribute 34, 1
  12              		.eabi_attribute 18, 4
  13              		.thumb
  14              		.syntax unified
  15              		.file	"command_processing.c"
  16              		.text
  17              	.Ltext0:
  18              		.cfi_sections	.debug_frame
  19              		.global	EEPROM_ADDR
  20              		.data
  21              		.align	2
  22              		.type	EEPROM_ADDR, %object
  23              		.size	EEPROM_ADDR, 4
  24              	EEPROM_ADDR:
  25 0000 00800040 		.word	1073774592
  26              		.section	.text.commProcess,"ax",%progbits
  27              		.align	2
  28              		.global	commProcess
  29              		.thumb
  30              		.thumb_func
  31              		.type	commProcess, %function
  32              	commProcess:
  33              	.LFB64:
  34              		.file 1 "..\\src\\command_processing.c"
   1:..\src/command_processing.c **** // ----------------------------------------------------------------------------
   2:..\src/command_processing.c **** // BSD 3-Clause License
   3:..\src/command_processing.c **** 
   4:..\src/command_processing.c **** // Copyright (c) 2016, qbrobotics
   5:..\src/command_processing.c **** // Copyright (c) 2017-2020, Centro "E.Piaggio"
   6:..\src/command_processing.c **** // All rights reserved.
   7:..\src/command_processing.c **** 
   8:..\src/command_processing.c **** // Redistribution and use in source and binary forms, with or without
   9:..\src/command_processing.c **** // modification, are permitted provided that the following conditions are met:
  10:..\src/command_processing.c **** 
  11:..\src/command_processing.c **** // * Redistributions of source code must retain the above copyright notice, this
  12:..\src/command_processing.c **** //   list of conditions and the following disclaimer.
  13:..\src/command_processing.c **** 
  14:..\src/command_processing.c **** // * Redistributions in binary form must reproduce the above copyright notice,
  15:..\src/command_processing.c **** //   this list of conditions and the following disclaimer in the documentation
  16:..\src/command_processing.c **** //   and/or other materials provided with the distribution.
  17:..\src/command_processing.c **** 
  18:..\src/command_processing.c **** // * Neither the name of the copyright holder nor the names of its
  19:..\src/command_processing.c **** //   contributors may be used to endorse or promote products derived from
  20:..\src/command_processing.c **** //   this software without specific prior written permission.
  21:..\src/command_processing.c **** 
  22:..\src/command_processing.c **** // THIS SOFTWARE IS PROVIDED BY THE COPYRIGHT HOLDERS AND CONTRIBUTORS "AS IS"
  23:..\src/command_processing.c **** // AND ANY EXPRESS OR IMPLIED WARRANTIES, INCLUDING, BUT NOT LIMITED TO, THE
ARM GAS  C:\Users\mgnocco\AppData\Local\Temp\cc5vWZGV.s 			page 2


  24:..\src/command_processing.c **** // IMPLIED WARRANTIES OF MERCHANTABILITY AND FITNESS FOR A PARTICULAR PURPOSE ARE
  25:..\src/command_processing.c **** // DISCLAIMED. IN NO EVENT SHALL THE COPYRIGHT HOLDER OR CONTRIBUTORS BE LIABLE
  26:..\src/command_processing.c **** // FOR ANY DIRECT, INDIRECT, INCIDENTAL, SPECIAL, EXEMPLARY, OR CONSEQUENTIAL
  27:..\src/command_processing.c **** // DAMAGES (INCLUDING, BUT NOT LIMITED TO, PROCUREMENT OF SUBSTITUTE GOODS OR
  28:..\src/command_processing.c **** // SERVICES; LOSS OF USE, DATA, OR PROFITS; OR BUSINESS INTERRUPTION) HOWEVER
  29:..\src/command_processing.c **** // CAUSED AND ON ANY THEORY OF LIABILITY, WHETHER IN CONTRACT, STRICT LIABILITY,
  30:..\src/command_processing.c **** // OR TORT (INCLUDING NEGLIGENCE OR OTHERWISE) ARISING IN ANY WAY OUT OF THE USE
  31:..\src/command_processing.c **** // OF THIS SOFTWARE, EVEN IF ADVISED OF THE POSSIBILITY OF SUCH DAMAGE.
  32:..\src/command_processing.c **** // POSSIBILITY OF SUCH DAMAGE.
  33:..\src/command_processing.c **** // ----------------------------------------------------------------------------
  34:..\src/command_processing.c **** 
  35:..\src/command_processing.c **** 
  36:..\src/command_processing.c **** /**
  37:..\src/command_processing.c **** * \file         command_processing.c
  38:..\src/command_processing.c **** *
  39:..\src/command_processing.c **** 
  40:..\src/command_processing.c **** * \brief        Command processing functions.
  41:..\src/command_processing.c **** * \date         March 20th, 2020
  42:..\src/command_processing.c **** * \author       _Centro "E.Piaggio"_
  43:..\src/command_processing.c **** * \copyright    (C) 2012-2016 qbrobotics. All rights reserved.
  44:..\src/command_processing.c **** * \copyright    (C) 2017-2020 Centro "E.Piaggio". All rights reserved.
  45:..\src/command_processing.c **** */
  46:..\src/command_processing.c **** //=================================================================     includes
  47:..\src/command_processing.c **** #include "command_processing.h"
  48:..\src/command_processing.c **** 
  49:..\src/command_processing.c **** //================================================================     variables
  50:..\src/command_processing.c **** 
  51:..\src/command_processing.c **** reg8 * EEPROM_ADDR = (reg8 *) CYDEV_EE_BASE;
  52:..\src/command_processing.c **** 
  53:..\src/command_processing.c **** //==============================================================================
  54:..\src/command_processing.c **** //                                                            RX DATA PROCESSING
  55:..\src/command_processing.c **** //==============================================================================
  56:..\src/command_processing.c **** //  This function checks for the availability of a data packet and process it:
  57:..\src/command_processing.c **** //      - Verify checksum;
  58:..\src/command_processing.c **** //      - Process commands;
  59:..\src/command_processing.c **** //==============================================================================
  60:..\src/command_processing.c **** 
  61:..\src/command_processing.c **** void commProcess(void){
  35              		.loc 1 61 0
  36              		.cfi_startproc
  37              		@ args = 0, pretend = 0, frame = 48
  38              		@ frame_needed = 1, uses_anonymous_args = 0
  39 0000 80B5     		push	{r7, lr}
  40              		.cfi_def_cfa_offset 8
  41              		.cfi_offset 7, -8
  42              		.cfi_offset 14, -4
  43 0002 8CB0     		sub	sp, sp, #48
  44              		.cfi_def_cfa_offset 56
  45 0004 00AF     		add	r7, sp, #0
  46              		.cfi_def_cfa_register 7
  62:..\src/command_processing.c **** 
  63:..\src/command_processing.c ****     uint8 CYDATA rx_cmd;
  64:..\src/command_processing.c ****     rx_cmd = g_rx.buffer[0];
  47              		.loc 1 64 0
  48 0006 0E4B     		ldr	r3, .L54
  49 0008 1B78     		ldrb	r3, [r3]
  50 000a 87F82F30 		strb	r3, [r7, #47]
ARM GAS  C:\Users\mgnocco\AppData\Local\Temp\cc5vWZGV.s 			page 3


  65:..\src/command_processing.c **** 
  66:..\src/command_processing.c **** //==========================================================     verify checksum
  67:..\src/command_processing.c **** 
  68:..\src/command_processing.c ****     if (!(LCRChecksum(g_rx.buffer, g_rx.length - 1) == g_rx.buffer[g_rx.length - 1])){
  51              		.loc 1 68 0
  52 000e 0C4B     		ldr	r3, .L54
  53 0010 B3F98030 		ldrsh	r3, [r3, #128]
  54 0014 DBB2     		uxtb	r3, r3
  55 0016 013B     		subs	r3, r3, #1
  56 0018 DBB2     		uxtb	r3, r3
  57 001a 1946     		mov	r1, r3
  58 001c 0848     		ldr	r0, .L54
  59 001e FFF7FEFF 		bl	LCRChecksum
  60 0022 0346     		mov	r3, r0
  61 0024 1946     		mov	r1, r3
  62 0026 064B     		ldr	r3, .L54
  63 0028 B3F98030 		ldrsh	r3, [r3, #128]
  64 002c 013B     		subs	r3, r3, #1
  65 002e 044A     		ldr	r2, .L54
  66 0030 D35C     		ldrb	r3, [r2, r3]	@ zero_extendqisi2
  67 0032 9942     		cmp	r1, r3
  68 0034 06D0     		beq	.L2
  69:..\src/command_processing.c ****         // Wrong checksum
  70:..\src/command_processing.c ****         g_rx.ready = 0;
  69              		.loc 1 70 0
  70 0036 024B     		ldr	r3, .L54
  71 0038 0022     		movs	r2, #0
  72 003a 83F88420 		strb	r2, [r3, #132]
  71:..\src/command_processing.c ****         return;
  73              		.loc 1 71 0
  74 003e 06E3     		b	.L1
  75              	.L55:
  76              		.align	2
  77              	.L54:
  78 0040 00000000 		.word	g_rx
  79              	.L2:
  72:..\src/command_processing.c ****     }
  73:..\src/command_processing.c **** 
  74:..\src/command_processing.c ****     switch(rx_cmd) {
  80              		.loc 1 74 0
  81 0044 97F82F30 		ldrb	r3, [r7, #47]	@ zero_extendqisi2
  82 0048 FA2B     		cmp	r3, #250
  83 004a 00F2FF82 		bhi	.L53
  84 004e 01A2     		adr	r2, .L6
  85 0050 52F823F0 		ldr	pc, [r2, r3, lsl #2]
  86              		.p2align 2
  87              	.L6:
  88 0054 CB040000 		.word	.L5+1
  89 0058 AD040000 		.word	.L7+1
  90 005c 4D060000 		.word	.L53+1
  91 0060 D1040000 		.word	.L8+1
  92 0064 D7040000 		.word	.L9+1
  93 0068 F3040000 		.word	.L10+1
  94 006c 95040000 		.word	.L11+1
  95 0070 4D060000 		.word	.L53+1
  96 0074 4D060000 		.word	.L53+1
  97 0078 27050000 		.word	.L12+1
ARM GAS  C:\Users\mgnocco\AppData\Local\Temp\cc5vWZGV.s 			page 4


  98 007c 0D050000 		.word	.L13+1
  99 0080 4D060000 		.word	.L53+1
 100 0084 B3040000 		.word	.L14+1
 101 0088 49050000 		.word	.L15+1
 102 008c 4D060000 		.word	.L53+1
 103 0090 4D060000 		.word	.L53+1
 104 0094 4D060000 		.word	.L53+1
 105 0098 4D060000 		.word	.L53+1
 106 009c 4D060000 		.word	.L53+1
 107 00a0 4D060000 		.word	.L53+1
 108 00a4 4D060000 		.word	.L53+1
 109 00a8 4D060000 		.word	.L53+1
 110 00ac 4D060000 		.word	.L53+1
 111 00b0 4D060000 		.word	.L53+1
 112 00b4 4D060000 		.word	.L53+1
 113 00b8 4D060000 		.word	.L53+1
 114 00bc 4D060000 		.word	.L53+1
 115 00c0 4D060000 		.word	.L53+1
 116 00c4 4D060000 		.word	.L53+1
 117 00c8 4D060000 		.word	.L53+1
 118 00cc 4D060000 		.word	.L53+1
 119 00d0 4D060000 		.word	.L53+1
 120 00d4 4D060000 		.word	.L53+1
 121 00d8 4D060000 		.word	.L53+1
 122 00dc 4D060000 		.word	.L53+1
 123 00e0 4D060000 		.word	.L53+1
 124 00e4 4D060000 		.word	.L53+1
 125 00e8 4D060000 		.word	.L53+1
 126 00ec 4D060000 		.word	.L53+1
 127 00f0 4D060000 		.word	.L53+1
 128 00f4 4D060000 		.word	.L53+1
 129 00f8 4D060000 		.word	.L53+1
 130 00fc 4D060000 		.word	.L53+1
 131 0100 4D060000 		.word	.L53+1
 132 0104 4D060000 		.word	.L53+1
 133 0108 4D060000 		.word	.L53+1
 134 010c 4D060000 		.word	.L53+1
 135 0110 4D060000 		.word	.L53+1
 136 0114 4D060000 		.word	.L53+1
 137 0118 4D060000 		.word	.L53+1
 138 011c 4D060000 		.word	.L53+1
 139 0120 4D060000 		.word	.L53+1
 140 0124 4D060000 		.word	.L53+1
 141 0128 4D060000 		.word	.L53+1
 142 012c 4D060000 		.word	.L53+1
 143 0130 4D060000 		.word	.L53+1
 144 0134 4D060000 		.word	.L53+1
 145 0138 4D060000 		.word	.L53+1
 146 013c 4D060000 		.word	.L53+1
 147 0140 4D060000 		.word	.L53+1
 148 0144 4D060000 		.word	.L53+1
 149 0148 4D060000 		.word	.L53+1
 150 014c 4D060000 		.word	.L53+1
 151 0150 4D060000 		.word	.L53+1
 152 0154 4D060000 		.word	.L53+1
 153 0158 4D060000 		.word	.L53+1
 154 015c 4D060000 		.word	.L53+1
ARM GAS  C:\Users\mgnocco\AppData\Local\Temp\cc5vWZGV.s 			page 5


 155 0160 4D060000 		.word	.L53+1
 156 0164 4D060000 		.word	.L53+1
 157 0168 4D060000 		.word	.L53+1
 158 016c 4D060000 		.word	.L53+1
 159 0170 4D060000 		.word	.L53+1
 160 0174 4D060000 		.word	.L53+1
 161 0178 4D060000 		.word	.L53+1
 162 017c 4D060000 		.word	.L53+1
 163 0180 4D060000 		.word	.L53+1
 164 0184 4D060000 		.word	.L53+1
 165 0188 4D060000 		.word	.L53+1
 166 018c 4D060000 		.word	.L53+1
 167 0190 4D060000 		.word	.L53+1
 168 0194 4D060000 		.word	.L53+1
 169 0198 4D060000 		.word	.L53+1
 170 019c 4D060000 		.word	.L53+1
 171 01a0 4D060000 		.word	.L53+1
 172 01a4 4D060000 		.word	.L53+1
 173 01a8 4D060000 		.word	.L53+1
 174 01ac 4D060000 		.word	.L53+1
 175 01b0 4D060000 		.word	.L53+1
 176 01b4 4D060000 		.word	.L53+1
 177 01b8 4D060000 		.word	.L53+1
 178 01bc 4D060000 		.word	.L53+1
 179 01c0 4D060000 		.word	.L53+1
 180 01c4 4D060000 		.word	.L53+1
 181 01c8 4D060000 		.word	.L53+1
 182 01cc 4D060000 		.word	.L53+1
 183 01d0 4D060000 		.word	.L53+1
 184 01d4 4D060000 		.word	.L53+1
 185 01d8 4D060000 		.word	.L53+1
 186 01dc 4D060000 		.word	.L53+1
 187 01e0 4D060000 		.word	.L53+1
 188 01e4 4D060000 		.word	.L53+1
 189 01e8 4D060000 		.word	.L53+1
 190 01ec 4D060000 		.word	.L53+1
 191 01f0 4D060000 		.word	.L53+1
 192 01f4 4D060000 		.word	.L53+1
 193 01f8 4D060000 		.word	.L53+1
 194 01fc 4D060000 		.word	.L53+1
 195 0200 4D060000 		.word	.L53+1
 196 0204 4D060000 		.word	.L53+1
 197 0208 4D060000 		.word	.L53+1
 198 020c 4D060000 		.word	.L53+1
 199 0210 4D060000 		.word	.L53+1
 200 0214 4D060000 		.word	.L53+1
 201 0218 4D060000 		.word	.L53+1
 202 021c 4D060000 		.word	.L53+1
 203 0220 4D060000 		.word	.L53+1
 204 0224 4D060000 		.word	.L53+1
 205 0228 4D060000 		.word	.L53+1
 206 022c 4D060000 		.word	.L53+1
 207 0230 4D060000 		.word	.L53+1
 208 0234 4D060000 		.word	.L53+1
 209 0238 4D060000 		.word	.L53+1
 210 023c 4D060000 		.word	.L53+1
 211 0240 4D060000 		.word	.L53+1
ARM GAS  C:\Users\mgnocco\AppData\Local\Temp\cc5vWZGV.s 			page 6


 212 0244 4D060000 		.word	.L53+1
 213 0248 4D060000 		.word	.L53+1
 214 024c 4D060000 		.word	.L53+1
 215 0250 4D060000 		.word	.L53+1
 216 0254 41040000 		.word	.L16+1
 217 0258 83040000 		.word	.L17+1
 218 025c 47040000 		.word	.L18+1
 219 0260 8F040000 		.word	.L19+1
 220 0264 4D040000 		.word	.L20+1
 221 0268 59040000 		.word	.L21+1
 222 026c 53040000 		.word	.L22+1
 223 0270 4D060000 		.word	.L53+1
 224 0274 7D040000 		.word	.L23+1
 225 0278 6B040000 		.word	.L24+1
 226 027c 4D060000 		.word	.L53+1
 227 0280 71040000 		.word	.L25+1
 228 0284 5F040000 		.word	.L26+1
 229 0288 4D060000 		.word	.L53+1
 230 028c 4D060000 		.word	.L53+1
 231 0290 4D060000 		.word	.L53+1
 232 0294 89040000 		.word	.L27+1
 233 0298 4D060000 		.word	.L53+1
 234 029c 77040000 		.word	.L28+1
 235 02a0 4D060000 		.word	.L53+1
 236 02a4 4D060000 		.word	.L53+1
 237 02a8 4D060000 		.word	.L53+1
 238 02ac 4D060000 		.word	.L53+1
 239 02b0 4D060000 		.word	.L53+1
 240 02b4 4D060000 		.word	.L53+1
 241 02b8 4D060000 		.word	.L53+1
 242 02bc 4D060000 		.word	.L53+1
 243 02c0 4D060000 		.word	.L53+1
 244 02c4 4D060000 		.word	.L53+1
 245 02c8 4D060000 		.word	.L53+1
 246 02cc 4D060000 		.word	.L53+1
 247 02d0 4D060000 		.word	.L53+1
 248 02d4 4D060000 		.word	.L53+1
 249 02d8 E7050000 		.word	.L29+1
 250 02dc ED050000 		.word	.L30+1
 251 02e0 05060000 		.word	.L31+1
 252 02e4 0B060000 		.word	.L32+1
 253 02e8 11060000 		.word	.L33+1
 254 02ec 17060000 		.word	.L34+1
 255 02f0 1D060000 		.word	.L35+1
 256 02f4 35060000 		.word	.L36+1
 257 02f8 4D060000 		.word	.L53+1
 258 02fc 4D060000 		.word	.L53+1
 259 0300 4D060000 		.word	.L53+1
 260 0304 4D060000 		.word	.L53+1
 261 0308 4D060000 		.word	.L53+1
 262 030c 4D060000 		.word	.L53+1
 263 0310 4D060000 		.word	.L53+1
 264 0314 4D060000 		.word	.L53+1
 265 0318 4D060000 		.word	.L53+1
 266 031c 4D060000 		.word	.L53+1
 267 0320 4D060000 		.word	.L53+1
 268 0324 4D060000 		.word	.L53+1
ARM GAS  C:\Users\mgnocco\AppData\Local\Temp\cc5vWZGV.s 			page 7


 269 0328 4D060000 		.word	.L53+1
 270 032c 4D060000 		.word	.L53+1
 271 0330 4D060000 		.word	.L53+1
 272 0334 4D060000 		.word	.L53+1
 273 0338 4D060000 		.word	.L53+1
 274 033c 4D060000 		.word	.L53+1
 275 0340 4D060000 		.word	.L53+1
 276 0344 4D060000 		.word	.L53+1
 277 0348 4D060000 		.word	.L53+1
 278 034c 4D060000 		.word	.L53+1
 279 0350 4D060000 		.word	.L53+1
 280 0354 4D060000 		.word	.L53+1
 281 0358 4D060000 		.word	.L53+1
 282 035c 4D060000 		.word	.L53+1
 283 0360 4D060000 		.word	.L53+1
 284 0364 4D060000 		.word	.L53+1
 285 0368 4D060000 		.word	.L53+1
 286 036c 4D060000 		.word	.L53+1
 287 0370 4D060000 		.word	.L53+1
 288 0374 4D060000 		.word	.L53+1
 289 0378 4D060000 		.word	.L53+1
 290 037c 4D060000 		.word	.L53+1
 291 0380 4D060000 		.word	.L53+1
 292 0384 4D060000 		.word	.L53+1
 293 0388 4D060000 		.word	.L53+1
 294 038c 4D060000 		.word	.L53+1
 295 0390 4D060000 		.word	.L53+1
 296 0394 4D060000 		.word	.L53+1
 297 0398 4D060000 		.word	.L53+1
 298 039c 4D060000 		.word	.L53+1
 299 03a0 4D060000 		.word	.L53+1
 300 03a4 4D060000 		.word	.L53+1
 301 03a8 4D060000 		.word	.L53+1
 302 03ac 4D060000 		.word	.L53+1
 303 03b0 4D060000 		.word	.L53+1
 304 03b4 4D060000 		.word	.L53+1
 305 03b8 4D060000 		.word	.L53+1
 306 03bc 4D060000 		.word	.L53+1
 307 03c0 4D060000 		.word	.L53+1
 308 03c4 4D060000 		.word	.L53+1
 309 03c8 4D060000 		.word	.L53+1
 310 03cc 4D060000 		.word	.L53+1
 311 03d0 4D060000 		.word	.L53+1
 312 03d4 4D060000 		.word	.L53+1
 313 03d8 4D060000 		.word	.L53+1
 314 03dc 4D060000 		.word	.L53+1
 315 03e0 4D060000 		.word	.L53+1
 316 03e4 4D060000 		.word	.L53+1
 317 03e8 4D060000 		.word	.L53+1
 318 03ec 4D060000 		.word	.L53+1
 319 03f0 4D060000 		.word	.L53+1
 320 03f4 4D060000 		.word	.L53+1
 321 03f8 4D060000 		.word	.L53+1
 322 03fc 4D060000 		.word	.L53+1
 323 0400 4D060000 		.word	.L53+1
 324 0404 4D060000 		.word	.L53+1
 325 0408 4D060000 		.word	.L53+1
ARM GAS  C:\Users\mgnocco\AppData\Local\Temp\cc5vWZGV.s 			page 8


 326 040c 4D060000 		.word	.L53+1
 327 0410 4D060000 		.word	.L53+1
 328 0414 4D060000 		.word	.L53+1
 329 0418 4D060000 		.word	.L53+1
 330 041c 4D060000 		.word	.L53+1
 331 0420 4D060000 		.word	.L53+1
 332 0424 4D060000 		.word	.L53+1
 333 0428 4D060000 		.word	.L53+1
 334 042c 4D060000 		.word	.L53+1
 335 0430 4D060000 		.word	.L53+1
 336 0434 4D060000 		.word	.L53+1
 337 0438 4D060000 		.word	.L53+1
 338 043c 65040000 		.word	.L37+1
 339              		.p2align 1
 340              	.L16:
  75:..\src/command_processing.c **** 
  76:..\src/command_processing.c **** //=============================================================     CMD_ACTIVATE
  77:..\src/command_processing.c ****         case CMD_ACTIVATE:
  78:..\src/command_processing.c ****             cmd_activate();
 341              		.loc 1 78 0
 342 0440 FFF7FEFF 		bl	cmd_activate
  79:..\src/command_processing.c ****             break;
 343              		.loc 1 79 0
 344 0444 03E1     		b	.L1
 345              	.L18:
  80:..\src/command_processing.c **** 
  81:..\src/command_processing.c **** //===========================================================     CMD_SET_INPUTS
  82:..\src/command_processing.c **** 
  83:..\src/command_processing.c ****         case CMD_SET_INPUTS:
  84:..\src/command_processing.c ****             cmd_set_inputs();
 346              		.loc 1 84 0
 347 0446 FFF7FEFF 		bl	cmd_set_inputs
  85:..\src/command_processing.c ****             break;
 348              		.loc 1 85 0
 349 044a 00E1     		b	.L1
 350              	.L20:
  86:..\src/command_processing.c **** 
  87:..\src/command_processing.c **** //=====================================================     CMD_GET_MEASUREMENTS
  88:..\src/command_processing.c **** 
  89:..\src/command_processing.c ****         case CMD_GET_MEASUREMENTS:
  90:..\src/command_processing.c ****             cmd_get_measurements();
 351              		.loc 1 90 0
 352 044c FFF7FEFF 		bl	cmd_get_measurements
  91:..\src/command_processing.c ****             break;
 353              		.loc 1 91 0
 354 0450 FDE0     		b	.L1
 355              	.L22:
  92:..\src/command_processing.c **** 
  93:..\src/command_processing.c **** //=====================================================     CMD_GET_CURR_AND_MEAS
  94:..\src/command_processing.c **** 
  95:..\src/command_processing.c ****         case CMD_GET_CURR_AND_MEAS:
  96:..\src/command_processing.c ****             cmd_get_curr_and_meas();
 356              		.loc 1 96 0
 357 0452 FFF7FEFF 		bl	cmd_get_curr_and_meas
  97:..\src/command_processing.c ****             break;
 358              		.loc 1 97 0
 359 0456 FAE0     		b	.L1
ARM GAS  C:\Users\mgnocco\AppData\Local\Temp\cc5vWZGV.s 			page 9


 360              	.L21:
  98:..\src/command_processing.c ****             
  99:..\src/command_processing.c **** //=========================================================     CMD_GET_CURRENTS
 100:..\src/command_processing.c **** 
 101:..\src/command_processing.c ****         case CMD_GET_CURRENTS:
 102:..\src/command_processing.c ****             cmd_get_currents();
 361              		.loc 1 102 0
 362 0458 FFF7FEFF 		bl	cmd_get_currents
 103:..\src/command_processing.c ****             break;
 363              		.loc 1 103 0
 364 045c F7E0     		b	.L1
 365              	.L26:
 104:..\src/command_processing.c **** 
 105:..\src/command_processing.c **** //=========================================================     CMD_GET_CURR_DIFF
 106:..\src/command_processing.c ****          
 107:..\src/command_processing.c ****         case CMD_GET_CURR_DIFF:
 108:..\src/command_processing.c ****             cmd_get_currents_for_cuff();
 366              		.loc 1 108 0
 367 045e FFF7FEFF 		bl	cmd_get_currents_for_cuff
 109:..\src/command_processing.c ****             break;
 368              		.loc 1 109 0
 369 0462 F4E0     		b	.L1
 370              	.L37:
 110:..\src/command_processing.c **** 
 111:..\src/command_processing.c **** //=========================================================     CMD_GET_VIBROTACTILE_INPUTS
 112:..\src/command_processing.c ****          
 113:..\src/command_processing.c ****         case CMD_GET_VIBROTACTILE_INPUTS:
 114:..\src/command_processing.c ****             cmd_get_vibrotactile_inputs();
 371              		.loc 1 114 0
 372 0464 FFF7FEFF 		bl	cmd_get_vibrotactile_inputs
 115:..\src/command_processing.c ****             break;            
 373              		.loc 1 115 0
 374 0468 F1E0     		b	.L1
 375              	.L24:
 116:..\src/command_processing.c ****             
 117:..\src/command_processing.c **** //=========================================================     CMD_GET_CURR_DIFF
 118:..\src/command_processing.c ****         
 119:..\src/command_processing.c ****         case CMD_GET_VELOCITIES:
 120:..\src/command_processing.c ****             cmd_get_velocities();
 376              		.loc 1 120 0
 377 046a FFF7FEFF 		bl	cmd_get_velocities
 121:..\src/command_processing.c ****             break;
 378              		.loc 1 121 0
 379 046e EEE0     		b	.L1
 380              	.L25:
 122:..\src/command_processing.c ****             
 123:..\src/command_processing.c **** //=========================================================     CMD_GET_CURR_DIFF
 124:..\src/command_processing.c **** 
 125:..\src/command_processing.c ****         case CMD_GET_ACCEL:
 126:..\src/command_processing.c ****             cmd_get_accelerations();
 381              		.loc 1 126 0
 382 0470 FFF7FEFF 		bl	cmd_get_accelerations
 127:..\src/command_processing.c ****             break;
 383              		.loc 1 127 0
 384 0474 EBE0     		b	.L1
 385              	.L28:
 128:..\src/command_processing.c **** 
ARM GAS  C:\Users\mgnocco\AppData\Local\Temp\cc5vWZGV.s 			page 10


 129:..\src/command_processing.c **** //=========================================================     CMD_GET_JOYSTICK
 130:..\src/command_processing.c **** 
 131:..\src/command_processing.c ****         case CMD_GET_JOYSTICK:
 132:..\src/command_processing.c ****             cmd_get_joystick();
 386              		.loc 1 132 0
 387 0476 FFF7FEFF 		bl	cmd_get_joystick
 133:..\src/command_processing.c ****         break;
 388              		.loc 1 133 0
 389 047a E8E0     		b	.L1
 390              	.L23:
 134:..\src/command_processing.c ****             
 135:..\src/command_processing.c **** //=========================================================     CMD_GET_EMG
 136:..\src/command_processing.c **** 
 137:..\src/command_processing.c ****         case CMD_GET_EMG:
 138:..\src/command_processing.c ****             cmd_get_emg();
 391              		.loc 1 138 0
 392 047c FFF7FEFF 		bl	cmd_get_emg
 139:..\src/command_processing.c ****             break;
 393              		.loc 1 139 0
 394 0480 E5E0     		b	.L1
 395              	.L17:
 140:..\src/command_processing.c ****             
 141:..\src/command_processing.c **** //=========================================================     CMD_GET_ACTIVATE
 142:..\src/command_processing.c ****             
 143:..\src/command_processing.c ****         case CMD_GET_ACTIVATE:
 144:..\src/command_processing.c ****             cmd_get_activate();
 396              		.loc 1 144 0
 397 0482 FFF7FEFF 		bl	cmd_get_activate
 145:..\src/command_processing.c ****             break;
 398              		.loc 1 145 0
 399 0486 E2E0     		b	.L1
 400              	.L27:
 146:..\src/command_processing.c ****             
 147:..\src/command_processing.c **** //=========================================================     CMD_SET_BAUDRATE
 148:..\src/command_processing.c ****             
 149:..\src/command_processing.c ****         case CMD_SET_BAUDRATE:
 150:..\src/command_processing.c ****             cmd_set_baudrate();
 401              		.loc 1 150 0
 402 0488 FFF7FEFF 		bl	cmd_set_baudrate
 151:..\src/command_processing.c ****             break;  
 403              		.loc 1 151 0
 404 048c DFE0     		b	.L1
 405              	.L19:
 152:..\src/command_processing.c ****             
 153:..\src/command_processing.c **** //============================================================     CMD_GET_INPUT
 154:..\src/command_processing.c **** 
 155:..\src/command_processing.c ****         case CMD_GET_INPUTS:
 156:..\src/command_processing.c ****             cmd_get_inputs();
 406              		.loc 1 156 0
 407 048e FFF7FEFF 		bl	cmd_get_inputs
 157:..\src/command_processing.c ****             break;
 408              		.loc 1 157 0
 409 0492 DCE0     		b	.L1
 410              	.L11:
 158:..\src/command_processing.c **** 
 159:..\src/command_processing.c **** //=============================================================     CMD_GET_INFO
 160:..\src/command_processing.c **** 
ARM GAS  C:\Users\mgnocco\AppData\Local\Temp\cc5vWZGV.s 			page 11


 161:..\src/command_processing.c ****         case CMD_GET_INFO:
 162:..\src/command_processing.c ****             infoGet(  __REV16(*((uint16 *) &g_rx.buffer[1])) );
 411              		.loc 1 162 0
 412 0494 6F4B     		ldr	r3, .L56
 413 0496 1B88     		ldrh	r3, [r3]
 414 0498 BB61     		str	r3, [r7, #24]
 415              	.LBB12:
 416              	.LBB13:
 417              		.file 2 "Generated_Source\\PSoC5/cmsis_gcc.h"
   1:Generated_Source\PSoC5/cmsis_gcc.h **** /**************************************************************************//**
   2:Generated_Source\PSoC5/cmsis_gcc.h ****  * @file     cmsis_gcc.h
   3:Generated_Source\PSoC5/cmsis_gcc.h ****  * @brief    CMSIS Cortex-M Core Function/Instruction Header File
   4:Generated_Source\PSoC5/cmsis_gcc.h ****  * @version  V5.00
   5:Generated_Source\PSoC5/cmsis_gcc.h ****  * @date     28. October 2016
   6:Generated_Source\PSoC5/cmsis_gcc.h ****  ******************************************************************************/
   7:Generated_Source\PSoC5/cmsis_gcc.h **** /*
   8:Generated_Source\PSoC5/cmsis_gcc.h ****  * Copyright (c) 2009-2016 ARM Limited. All rights reserved.
   9:Generated_Source\PSoC5/cmsis_gcc.h ****  *
  10:Generated_Source\PSoC5/cmsis_gcc.h ****  * SPDX-License-Identifier: Apache-2.0
  11:Generated_Source\PSoC5/cmsis_gcc.h ****  *
  12:Generated_Source\PSoC5/cmsis_gcc.h ****  * Licensed under the Apache License, Version 2.0 (the License); you may
  13:Generated_Source\PSoC5/cmsis_gcc.h ****  * not use this file except in compliance with the License.
  14:Generated_Source\PSoC5/cmsis_gcc.h ****  * You may obtain a copy of the License at
  15:Generated_Source\PSoC5/cmsis_gcc.h ****  *
  16:Generated_Source\PSoC5/cmsis_gcc.h ****  * http://www.apache.org/licenses/LICENSE-2.0
  17:Generated_Source\PSoC5/cmsis_gcc.h ****  *
  18:Generated_Source\PSoC5/cmsis_gcc.h ****  * Unless required by applicable law or agreed to in writing, software
  19:Generated_Source\PSoC5/cmsis_gcc.h ****  * distributed under the License is distributed on an AS IS BASIS, WITHOUT
  20:Generated_Source\PSoC5/cmsis_gcc.h ****  * WARRANTIES OR CONDITIONS OF ANY KIND, either express or implied.
  21:Generated_Source\PSoC5/cmsis_gcc.h ****  * See the License for the specific language governing permissions and
  22:Generated_Source\PSoC5/cmsis_gcc.h ****  * limitations under the License.
  23:Generated_Source\PSoC5/cmsis_gcc.h ****  */
  24:Generated_Source\PSoC5/cmsis_gcc.h **** 
  25:Generated_Source\PSoC5/cmsis_gcc.h **** #ifndef __CMSIS_GCC_H
  26:Generated_Source\PSoC5/cmsis_gcc.h **** #define __CMSIS_GCC_H
  27:Generated_Source\PSoC5/cmsis_gcc.h **** 
  28:Generated_Source\PSoC5/cmsis_gcc.h **** /* ignore some GCC warnings */
  29:Generated_Source\PSoC5/cmsis_gcc.h **** #pragma GCC diagnostic push
  30:Generated_Source\PSoC5/cmsis_gcc.h **** #pragma GCC diagnostic ignored "-Wsign-conversion"
  31:Generated_Source\PSoC5/cmsis_gcc.h **** #pragma GCC diagnostic ignored "-Wconversion"
  32:Generated_Source\PSoC5/cmsis_gcc.h **** #pragma GCC diagnostic ignored "-Wunused-parameter"
  33:Generated_Source\PSoC5/cmsis_gcc.h **** 
  34:Generated_Source\PSoC5/cmsis_gcc.h **** /* CMSIS compiler specific defines */
  35:Generated_Source\PSoC5/cmsis_gcc.h **** #ifndef   __ASM
  36:Generated_Source\PSoC5/cmsis_gcc.h ****   #define __ASM                     __asm
  37:Generated_Source\PSoC5/cmsis_gcc.h **** #endif
  38:Generated_Source\PSoC5/cmsis_gcc.h **** #ifndef   __INLINE
  39:Generated_Source\PSoC5/cmsis_gcc.h ****   #define __INLINE                  inline
  40:Generated_Source\PSoC5/cmsis_gcc.h **** #endif
  41:Generated_Source\PSoC5/cmsis_gcc.h **** #ifndef   __STATIC_INLINE
  42:Generated_Source\PSoC5/cmsis_gcc.h ****   #define __STATIC_INLINE           static inline
  43:Generated_Source\PSoC5/cmsis_gcc.h **** #endif
  44:Generated_Source\PSoC5/cmsis_gcc.h **** #ifndef   __NO_RETURN
  45:Generated_Source\PSoC5/cmsis_gcc.h ****   #define __NO_RETURN               __attribute__((noreturn))
  46:Generated_Source\PSoC5/cmsis_gcc.h **** #endif
  47:Generated_Source\PSoC5/cmsis_gcc.h **** #ifndef   __USED
  48:Generated_Source\PSoC5/cmsis_gcc.h ****   #define __USED                    __attribute__((used))
ARM GAS  C:\Users\mgnocco\AppData\Local\Temp\cc5vWZGV.s 			page 12


  49:Generated_Source\PSoC5/cmsis_gcc.h **** #endif
  50:Generated_Source\PSoC5/cmsis_gcc.h **** #ifndef   _WEAK
  51:Generated_Source\PSoC5/cmsis_gcc.h ****   #define __WEAK                    __attribute__((weak))
  52:Generated_Source\PSoC5/cmsis_gcc.h **** #endif
  53:Generated_Source\PSoC5/cmsis_gcc.h **** #ifndef   __UNALIGNED_UINT32
  54:Generated_Source\PSoC5/cmsis_gcc.h ****   struct __attribute__((packed)) T_UINT32 { uint32_t v; };
  55:Generated_Source\PSoC5/cmsis_gcc.h ****   #define __UNALIGNED_UINT32(x)     (((struct T_UINT32 *)(x))->v)
  56:Generated_Source\PSoC5/cmsis_gcc.h **** #endif
  57:Generated_Source\PSoC5/cmsis_gcc.h **** #ifndef   __ALIGNED
  58:Generated_Source\PSoC5/cmsis_gcc.h ****   #define __ALIGNED(x)              __attribute__((aligned(x)))
  59:Generated_Source\PSoC5/cmsis_gcc.h **** #endif
  60:Generated_Source\PSoC5/cmsis_gcc.h **** #ifndef   __PACKED
  61:Generated_Source\PSoC5/cmsis_gcc.h ****   #define __PACKED                  __attribute__((packed, aligned(1)))
  62:Generated_Source\PSoC5/cmsis_gcc.h **** #endif
  63:Generated_Source\PSoC5/cmsis_gcc.h **** 
  64:Generated_Source\PSoC5/cmsis_gcc.h **** 
  65:Generated_Source\PSoC5/cmsis_gcc.h **** /* ###########################  Core Function Access  ########################### */
  66:Generated_Source\PSoC5/cmsis_gcc.h **** /** \ingroup  CMSIS_Core_FunctionInterface
  67:Generated_Source\PSoC5/cmsis_gcc.h ****     \defgroup CMSIS_Core_RegAccFunctions CMSIS Core Register Access Functions
  68:Generated_Source\PSoC5/cmsis_gcc.h ****   @{
  69:Generated_Source\PSoC5/cmsis_gcc.h ****  */
  70:Generated_Source\PSoC5/cmsis_gcc.h **** 
  71:Generated_Source\PSoC5/cmsis_gcc.h **** /**
  72:Generated_Source\PSoC5/cmsis_gcc.h ****   \brief   Enable IRQ Interrupts
  73:Generated_Source\PSoC5/cmsis_gcc.h ****   \details Enables IRQ interrupts by clearing the I-bit in the CPSR.
  74:Generated_Source\PSoC5/cmsis_gcc.h ****            Can only be executed in Privileged modes.
  75:Generated_Source\PSoC5/cmsis_gcc.h ****  */
  76:Generated_Source\PSoC5/cmsis_gcc.h **** __attribute__((always_inline)) __STATIC_INLINE void __enable_irq(void)
  77:Generated_Source\PSoC5/cmsis_gcc.h **** {
  78:Generated_Source\PSoC5/cmsis_gcc.h ****   __ASM volatile ("cpsie i" : : : "memory");
  79:Generated_Source\PSoC5/cmsis_gcc.h **** }
  80:Generated_Source\PSoC5/cmsis_gcc.h **** 
  81:Generated_Source\PSoC5/cmsis_gcc.h **** 
  82:Generated_Source\PSoC5/cmsis_gcc.h **** /**
  83:Generated_Source\PSoC5/cmsis_gcc.h ****   \brief   Disable IRQ Interrupts
  84:Generated_Source\PSoC5/cmsis_gcc.h ****   \details Disables IRQ interrupts by setting the I-bit in the CPSR.
  85:Generated_Source\PSoC5/cmsis_gcc.h ****            Can only be executed in Privileged modes.
  86:Generated_Source\PSoC5/cmsis_gcc.h ****  */
  87:Generated_Source\PSoC5/cmsis_gcc.h **** __attribute__((always_inline)) __STATIC_INLINE void __disable_irq(void)
  88:Generated_Source\PSoC5/cmsis_gcc.h **** {
  89:Generated_Source\PSoC5/cmsis_gcc.h ****   __ASM volatile ("cpsid i" : : : "memory");
  90:Generated_Source\PSoC5/cmsis_gcc.h **** }
  91:Generated_Source\PSoC5/cmsis_gcc.h **** 
  92:Generated_Source\PSoC5/cmsis_gcc.h **** 
  93:Generated_Source\PSoC5/cmsis_gcc.h **** /**
  94:Generated_Source\PSoC5/cmsis_gcc.h ****   \brief   Get Control Register
  95:Generated_Source\PSoC5/cmsis_gcc.h ****   \details Returns the content of the Control Register.
  96:Generated_Source\PSoC5/cmsis_gcc.h ****   \return               Control Register value
  97:Generated_Source\PSoC5/cmsis_gcc.h ****  */
  98:Generated_Source\PSoC5/cmsis_gcc.h **** __attribute__((always_inline)) __STATIC_INLINE uint32_t __get_CONTROL(void)
  99:Generated_Source\PSoC5/cmsis_gcc.h **** {
 100:Generated_Source\PSoC5/cmsis_gcc.h ****   uint32_t result;
 101:Generated_Source\PSoC5/cmsis_gcc.h **** 
 102:Generated_Source\PSoC5/cmsis_gcc.h ****   __ASM volatile ("MRS %0, control" : "=r" (result) );
 103:Generated_Source\PSoC5/cmsis_gcc.h ****   return(result);
 104:Generated_Source\PSoC5/cmsis_gcc.h **** }
 105:Generated_Source\PSoC5/cmsis_gcc.h **** 
ARM GAS  C:\Users\mgnocco\AppData\Local\Temp\cc5vWZGV.s 			page 13


 106:Generated_Source\PSoC5/cmsis_gcc.h **** 
 107:Generated_Source\PSoC5/cmsis_gcc.h **** #if (defined (__ARM_FEATURE_CMSE ) && (__ARM_FEATURE_CMSE == 3))
 108:Generated_Source\PSoC5/cmsis_gcc.h **** /**
 109:Generated_Source\PSoC5/cmsis_gcc.h ****   \brief   Get Control Register (non-secure)
 110:Generated_Source\PSoC5/cmsis_gcc.h ****   \details Returns the content of the non-secure Control Register when in secure mode.
 111:Generated_Source\PSoC5/cmsis_gcc.h ****   \return               non-secure Control Register value
 112:Generated_Source\PSoC5/cmsis_gcc.h ****  */
 113:Generated_Source\PSoC5/cmsis_gcc.h **** __attribute__((always_inline)) __STATIC_INLINE uint32_t __TZ_get_CONTROL_NS(void)
 114:Generated_Source\PSoC5/cmsis_gcc.h **** {
 115:Generated_Source\PSoC5/cmsis_gcc.h ****   uint32_t result;
 116:Generated_Source\PSoC5/cmsis_gcc.h **** 
 117:Generated_Source\PSoC5/cmsis_gcc.h ****   __ASM volatile ("MRS %0, control_ns" : "=r" (result) );
 118:Generated_Source\PSoC5/cmsis_gcc.h ****   return(result);
 119:Generated_Source\PSoC5/cmsis_gcc.h **** }
 120:Generated_Source\PSoC5/cmsis_gcc.h **** #endif
 121:Generated_Source\PSoC5/cmsis_gcc.h **** 
 122:Generated_Source\PSoC5/cmsis_gcc.h **** 
 123:Generated_Source\PSoC5/cmsis_gcc.h **** /**
 124:Generated_Source\PSoC5/cmsis_gcc.h ****   \brief   Set Control Register
 125:Generated_Source\PSoC5/cmsis_gcc.h ****   \details Writes the given value to the Control Register.
 126:Generated_Source\PSoC5/cmsis_gcc.h ****   \param [in]    control  Control Register value to set
 127:Generated_Source\PSoC5/cmsis_gcc.h ****  */
 128:Generated_Source\PSoC5/cmsis_gcc.h **** __attribute__((always_inline)) __STATIC_INLINE void __set_CONTROL(uint32_t control)
 129:Generated_Source\PSoC5/cmsis_gcc.h **** {
 130:Generated_Source\PSoC5/cmsis_gcc.h ****   __ASM volatile ("MSR control, %0" : : "r" (control) : "memory");
 131:Generated_Source\PSoC5/cmsis_gcc.h **** }
 132:Generated_Source\PSoC5/cmsis_gcc.h **** 
 133:Generated_Source\PSoC5/cmsis_gcc.h **** 
 134:Generated_Source\PSoC5/cmsis_gcc.h **** #if (defined (__ARM_FEATURE_CMSE ) && (__ARM_FEATURE_CMSE == 3))
 135:Generated_Source\PSoC5/cmsis_gcc.h **** /**
 136:Generated_Source\PSoC5/cmsis_gcc.h ****   \brief   Set Control Register (non-secure)
 137:Generated_Source\PSoC5/cmsis_gcc.h ****   \details Writes the given value to the non-secure Control Register when in secure state.
 138:Generated_Source\PSoC5/cmsis_gcc.h ****   \param [in]    control  Control Register value to set
 139:Generated_Source\PSoC5/cmsis_gcc.h ****  */
 140:Generated_Source\PSoC5/cmsis_gcc.h **** __attribute__((always_inline)) __STATIC_INLINE void __TZ_set_CONTROL_NS(uint32_t control)
 141:Generated_Source\PSoC5/cmsis_gcc.h **** {
 142:Generated_Source\PSoC5/cmsis_gcc.h ****   __ASM volatile ("MSR control_ns, %0" : : "r" (control) : "memory");
 143:Generated_Source\PSoC5/cmsis_gcc.h **** }
 144:Generated_Source\PSoC5/cmsis_gcc.h **** #endif
 145:Generated_Source\PSoC5/cmsis_gcc.h **** 
 146:Generated_Source\PSoC5/cmsis_gcc.h **** 
 147:Generated_Source\PSoC5/cmsis_gcc.h **** /**
 148:Generated_Source\PSoC5/cmsis_gcc.h ****   \brief   Get IPSR Register
 149:Generated_Source\PSoC5/cmsis_gcc.h ****   \details Returns the content of the IPSR Register.
 150:Generated_Source\PSoC5/cmsis_gcc.h ****   \return               IPSR Register value
 151:Generated_Source\PSoC5/cmsis_gcc.h ****  */
 152:Generated_Source\PSoC5/cmsis_gcc.h **** __attribute__((always_inline)) __STATIC_INLINE uint32_t __get_IPSR(void)
 153:Generated_Source\PSoC5/cmsis_gcc.h **** {
 154:Generated_Source\PSoC5/cmsis_gcc.h ****   uint32_t result;
 155:Generated_Source\PSoC5/cmsis_gcc.h **** 
 156:Generated_Source\PSoC5/cmsis_gcc.h ****   __ASM volatile ("MRS %0, ipsr" : "=r" (result) );
 157:Generated_Source\PSoC5/cmsis_gcc.h ****   return(result);
 158:Generated_Source\PSoC5/cmsis_gcc.h **** }
 159:Generated_Source\PSoC5/cmsis_gcc.h **** 
 160:Generated_Source\PSoC5/cmsis_gcc.h **** 
 161:Generated_Source\PSoC5/cmsis_gcc.h **** /**
 162:Generated_Source\PSoC5/cmsis_gcc.h ****   \brief   Get APSR Register
ARM GAS  C:\Users\mgnocco\AppData\Local\Temp\cc5vWZGV.s 			page 14


 163:Generated_Source\PSoC5/cmsis_gcc.h ****   \details Returns the content of the APSR Register.
 164:Generated_Source\PSoC5/cmsis_gcc.h ****   \return               APSR Register value
 165:Generated_Source\PSoC5/cmsis_gcc.h ****  */
 166:Generated_Source\PSoC5/cmsis_gcc.h **** __attribute__((always_inline)) __STATIC_INLINE uint32_t __get_APSR(void)
 167:Generated_Source\PSoC5/cmsis_gcc.h **** {
 168:Generated_Source\PSoC5/cmsis_gcc.h ****   uint32_t result;
 169:Generated_Source\PSoC5/cmsis_gcc.h **** 
 170:Generated_Source\PSoC5/cmsis_gcc.h ****   __ASM volatile ("MRS %0, apsr" : "=r" (result) );
 171:Generated_Source\PSoC5/cmsis_gcc.h ****   return(result);
 172:Generated_Source\PSoC5/cmsis_gcc.h **** }
 173:Generated_Source\PSoC5/cmsis_gcc.h **** 
 174:Generated_Source\PSoC5/cmsis_gcc.h **** 
 175:Generated_Source\PSoC5/cmsis_gcc.h **** /**
 176:Generated_Source\PSoC5/cmsis_gcc.h ****   \brief   Get xPSR Register
 177:Generated_Source\PSoC5/cmsis_gcc.h ****   \details Returns the content of the xPSR Register.
 178:Generated_Source\PSoC5/cmsis_gcc.h ****   \return               xPSR Register value
 179:Generated_Source\PSoC5/cmsis_gcc.h ****  */
 180:Generated_Source\PSoC5/cmsis_gcc.h **** __attribute__((always_inline)) __STATIC_INLINE uint32_t __get_xPSR(void)
 181:Generated_Source\PSoC5/cmsis_gcc.h **** {
 182:Generated_Source\PSoC5/cmsis_gcc.h ****   uint32_t result;
 183:Generated_Source\PSoC5/cmsis_gcc.h **** 
 184:Generated_Source\PSoC5/cmsis_gcc.h ****   __ASM volatile ("MRS %0, xpsr" : "=r" (result) );
 185:Generated_Source\PSoC5/cmsis_gcc.h ****   return(result);
 186:Generated_Source\PSoC5/cmsis_gcc.h **** }
 187:Generated_Source\PSoC5/cmsis_gcc.h **** 
 188:Generated_Source\PSoC5/cmsis_gcc.h **** 
 189:Generated_Source\PSoC5/cmsis_gcc.h **** /**
 190:Generated_Source\PSoC5/cmsis_gcc.h ****   \brief   Get Process Stack Pointer
 191:Generated_Source\PSoC5/cmsis_gcc.h ****   \details Returns the current value of the Process Stack Pointer (PSP).
 192:Generated_Source\PSoC5/cmsis_gcc.h ****   \return               PSP Register value
 193:Generated_Source\PSoC5/cmsis_gcc.h ****  */
 194:Generated_Source\PSoC5/cmsis_gcc.h **** __attribute__((always_inline)) __STATIC_INLINE uint32_t __get_PSP(void)
 195:Generated_Source\PSoC5/cmsis_gcc.h **** {
 196:Generated_Source\PSoC5/cmsis_gcc.h ****   register uint32_t result;
 197:Generated_Source\PSoC5/cmsis_gcc.h **** 
 198:Generated_Source\PSoC5/cmsis_gcc.h ****   __ASM volatile ("MRS %0, psp"  : "=r" (result) );
 199:Generated_Source\PSoC5/cmsis_gcc.h ****   return(result);
 200:Generated_Source\PSoC5/cmsis_gcc.h **** }
 201:Generated_Source\PSoC5/cmsis_gcc.h **** 
 202:Generated_Source\PSoC5/cmsis_gcc.h **** 
 203:Generated_Source\PSoC5/cmsis_gcc.h **** #if (defined (__ARM_FEATURE_CMSE ) && (__ARM_FEATURE_CMSE == 3))
 204:Generated_Source\PSoC5/cmsis_gcc.h **** /**
 205:Generated_Source\PSoC5/cmsis_gcc.h ****   \brief   Get Process Stack Pointer (non-secure)
 206:Generated_Source\PSoC5/cmsis_gcc.h ****   \details Returns the current value of the non-secure Process Stack Pointer (PSP) when in secure s
 207:Generated_Source\PSoC5/cmsis_gcc.h ****   \return               PSP Register value
 208:Generated_Source\PSoC5/cmsis_gcc.h ****  */
 209:Generated_Source\PSoC5/cmsis_gcc.h **** __attribute__((always_inline)) __STATIC_INLINE uint32_t __TZ_get_PSP_NS(void)
 210:Generated_Source\PSoC5/cmsis_gcc.h **** {
 211:Generated_Source\PSoC5/cmsis_gcc.h ****   register uint32_t result;
 212:Generated_Source\PSoC5/cmsis_gcc.h **** 
 213:Generated_Source\PSoC5/cmsis_gcc.h ****   __ASM volatile ("MRS %0, psp_ns"  : "=r" (result) );
 214:Generated_Source\PSoC5/cmsis_gcc.h ****   return(result);
 215:Generated_Source\PSoC5/cmsis_gcc.h **** }
 216:Generated_Source\PSoC5/cmsis_gcc.h **** #endif
 217:Generated_Source\PSoC5/cmsis_gcc.h **** 
 218:Generated_Source\PSoC5/cmsis_gcc.h **** 
 219:Generated_Source\PSoC5/cmsis_gcc.h **** /**
ARM GAS  C:\Users\mgnocco\AppData\Local\Temp\cc5vWZGV.s 			page 15


 220:Generated_Source\PSoC5/cmsis_gcc.h ****   \brief   Set Process Stack Pointer
 221:Generated_Source\PSoC5/cmsis_gcc.h ****   \details Assigns the given value to the Process Stack Pointer (PSP).
 222:Generated_Source\PSoC5/cmsis_gcc.h ****   \param [in]    topOfProcStack  Process Stack Pointer value to set
 223:Generated_Source\PSoC5/cmsis_gcc.h ****  */
 224:Generated_Source\PSoC5/cmsis_gcc.h **** __attribute__((always_inline)) __STATIC_INLINE void __set_PSP(uint32_t topOfProcStack)
 225:Generated_Source\PSoC5/cmsis_gcc.h **** {
 226:Generated_Source\PSoC5/cmsis_gcc.h ****   __ASM volatile ("MSR psp, %0" : : "r" (topOfProcStack) : "sp");
 227:Generated_Source\PSoC5/cmsis_gcc.h **** }
 228:Generated_Source\PSoC5/cmsis_gcc.h **** 
 229:Generated_Source\PSoC5/cmsis_gcc.h **** 
 230:Generated_Source\PSoC5/cmsis_gcc.h **** #if (defined (__ARM_FEATURE_CMSE ) && (__ARM_FEATURE_CMSE == 3))
 231:Generated_Source\PSoC5/cmsis_gcc.h **** /**
 232:Generated_Source\PSoC5/cmsis_gcc.h ****   \brief   Set Process Stack Pointer (non-secure)
 233:Generated_Source\PSoC5/cmsis_gcc.h ****   \details Assigns the given value to the non-secure Process Stack Pointer (PSP) when in secure sta
 234:Generated_Source\PSoC5/cmsis_gcc.h ****   \param [in]    topOfProcStack  Process Stack Pointer value to set
 235:Generated_Source\PSoC5/cmsis_gcc.h ****  */
 236:Generated_Source\PSoC5/cmsis_gcc.h **** __attribute__((always_inline)) __STATIC_INLINE void __TZ_set_PSP_NS(uint32_t topOfProcStack)
 237:Generated_Source\PSoC5/cmsis_gcc.h **** {
 238:Generated_Source\PSoC5/cmsis_gcc.h ****   __ASM volatile ("MSR psp_ns, %0" : : "r" (topOfProcStack) : "sp");
 239:Generated_Source\PSoC5/cmsis_gcc.h **** }
 240:Generated_Source\PSoC5/cmsis_gcc.h **** #endif
 241:Generated_Source\PSoC5/cmsis_gcc.h **** 
 242:Generated_Source\PSoC5/cmsis_gcc.h **** 
 243:Generated_Source\PSoC5/cmsis_gcc.h **** /**
 244:Generated_Source\PSoC5/cmsis_gcc.h ****   \brief   Get Main Stack Pointer
 245:Generated_Source\PSoC5/cmsis_gcc.h ****   \details Returns the current value of the Main Stack Pointer (MSP).
 246:Generated_Source\PSoC5/cmsis_gcc.h ****   \return               MSP Register value
 247:Generated_Source\PSoC5/cmsis_gcc.h ****  */
 248:Generated_Source\PSoC5/cmsis_gcc.h **** __attribute__((always_inline)) __STATIC_INLINE uint32_t __get_MSP(void)
 249:Generated_Source\PSoC5/cmsis_gcc.h **** {
 250:Generated_Source\PSoC5/cmsis_gcc.h ****   register uint32_t result;
 251:Generated_Source\PSoC5/cmsis_gcc.h **** 
 252:Generated_Source\PSoC5/cmsis_gcc.h ****   __ASM volatile ("MRS %0, msp" : "=r" (result) );
 253:Generated_Source\PSoC5/cmsis_gcc.h ****   return(result);
 254:Generated_Source\PSoC5/cmsis_gcc.h **** }
 255:Generated_Source\PSoC5/cmsis_gcc.h **** 
 256:Generated_Source\PSoC5/cmsis_gcc.h **** 
 257:Generated_Source\PSoC5/cmsis_gcc.h **** #if (defined (__ARM_FEATURE_CMSE ) && (__ARM_FEATURE_CMSE == 3))
 258:Generated_Source\PSoC5/cmsis_gcc.h **** /**
 259:Generated_Source\PSoC5/cmsis_gcc.h ****   \brief   Get Main Stack Pointer (non-secure)
 260:Generated_Source\PSoC5/cmsis_gcc.h ****   \details Returns the current value of the non-secure Main Stack Pointer (MSP) when in secure stat
 261:Generated_Source\PSoC5/cmsis_gcc.h ****   \return               MSP Register value
 262:Generated_Source\PSoC5/cmsis_gcc.h ****  */
 263:Generated_Source\PSoC5/cmsis_gcc.h **** __attribute__((always_inline)) __STATIC_INLINE uint32_t __TZ_get_MSP_NS(void)
 264:Generated_Source\PSoC5/cmsis_gcc.h **** {
 265:Generated_Source\PSoC5/cmsis_gcc.h ****   register uint32_t result;
 266:Generated_Source\PSoC5/cmsis_gcc.h **** 
 267:Generated_Source\PSoC5/cmsis_gcc.h ****   __ASM volatile ("MRS %0, msp_ns" : "=r" (result) );
 268:Generated_Source\PSoC5/cmsis_gcc.h ****   return(result);
 269:Generated_Source\PSoC5/cmsis_gcc.h **** }
 270:Generated_Source\PSoC5/cmsis_gcc.h **** #endif
 271:Generated_Source\PSoC5/cmsis_gcc.h **** 
 272:Generated_Source\PSoC5/cmsis_gcc.h **** 
 273:Generated_Source\PSoC5/cmsis_gcc.h **** /**
 274:Generated_Source\PSoC5/cmsis_gcc.h ****   \brief   Set Main Stack Pointer
 275:Generated_Source\PSoC5/cmsis_gcc.h ****   \details Assigns the given value to the Main Stack Pointer (MSP).
 276:Generated_Source\PSoC5/cmsis_gcc.h ****   \param [in]    topOfMainStack  Main Stack Pointer value to set
ARM GAS  C:\Users\mgnocco\AppData\Local\Temp\cc5vWZGV.s 			page 16


 277:Generated_Source\PSoC5/cmsis_gcc.h ****  */
 278:Generated_Source\PSoC5/cmsis_gcc.h **** __attribute__((always_inline)) __STATIC_INLINE void __set_MSP(uint32_t topOfMainStack)
 279:Generated_Source\PSoC5/cmsis_gcc.h **** {
 280:Generated_Source\PSoC5/cmsis_gcc.h ****   __ASM volatile ("MSR msp, %0" : : "r" (topOfMainStack) : "sp");
 281:Generated_Source\PSoC5/cmsis_gcc.h **** }
 282:Generated_Source\PSoC5/cmsis_gcc.h **** 
 283:Generated_Source\PSoC5/cmsis_gcc.h **** 
 284:Generated_Source\PSoC5/cmsis_gcc.h **** #if (defined (__ARM_FEATURE_CMSE ) && (__ARM_FEATURE_CMSE == 3))
 285:Generated_Source\PSoC5/cmsis_gcc.h **** /**
 286:Generated_Source\PSoC5/cmsis_gcc.h ****   \brief   Set Main Stack Pointer (non-secure)
 287:Generated_Source\PSoC5/cmsis_gcc.h ****   \details Assigns the given value to the non-secure Main Stack Pointer (MSP) when in secure state.
 288:Generated_Source\PSoC5/cmsis_gcc.h ****   \param [in]    topOfMainStack  Main Stack Pointer value to set
 289:Generated_Source\PSoC5/cmsis_gcc.h ****  */
 290:Generated_Source\PSoC5/cmsis_gcc.h **** __attribute__((always_inline)) __STATIC_INLINE void __TZ_set_MSP_NS(uint32_t topOfMainStack)
 291:Generated_Source\PSoC5/cmsis_gcc.h **** {
 292:Generated_Source\PSoC5/cmsis_gcc.h ****   __ASM volatile ("MSR msp_ns, %0" : : "r" (topOfMainStack) : "sp");
 293:Generated_Source\PSoC5/cmsis_gcc.h **** }
 294:Generated_Source\PSoC5/cmsis_gcc.h **** #endif
 295:Generated_Source\PSoC5/cmsis_gcc.h **** 
 296:Generated_Source\PSoC5/cmsis_gcc.h **** 
 297:Generated_Source\PSoC5/cmsis_gcc.h **** /**
 298:Generated_Source\PSoC5/cmsis_gcc.h ****   \brief   Get Priority Mask
 299:Generated_Source\PSoC5/cmsis_gcc.h ****   \details Returns the current state of the priority mask bit from the Priority Mask Register.
 300:Generated_Source\PSoC5/cmsis_gcc.h ****   \return               Priority Mask value
 301:Generated_Source\PSoC5/cmsis_gcc.h ****  */
 302:Generated_Source\PSoC5/cmsis_gcc.h **** __attribute__((always_inline)) __STATIC_INLINE uint32_t __get_PRIMASK(void)
 303:Generated_Source\PSoC5/cmsis_gcc.h **** {
 304:Generated_Source\PSoC5/cmsis_gcc.h ****   uint32_t result;
 305:Generated_Source\PSoC5/cmsis_gcc.h **** 
 306:Generated_Source\PSoC5/cmsis_gcc.h ****   __ASM volatile ("MRS %0, primask" : "=r" (result) );
 307:Generated_Source\PSoC5/cmsis_gcc.h ****   return(result);
 308:Generated_Source\PSoC5/cmsis_gcc.h **** }
 309:Generated_Source\PSoC5/cmsis_gcc.h **** 
 310:Generated_Source\PSoC5/cmsis_gcc.h **** 
 311:Generated_Source\PSoC5/cmsis_gcc.h **** #if (defined (__ARM_FEATURE_CMSE ) && (__ARM_FEATURE_CMSE == 3))
 312:Generated_Source\PSoC5/cmsis_gcc.h **** /**
 313:Generated_Source\PSoC5/cmsis_gcc.h ****   \brief   Get Priority Mask (non-secure)
 314:Generated_Source\PSoC5/cmsis_gcc.h ****   \details Returns the current state of the non-secure priority mask bit from the Priority Mask Reg
 315:Generated_Source\PSoC5/cmsis_gcc.h ****   \return               Priority Mask value
 316:Generated_Source\PSoC5/cmsis_gcc.h ****  */
 317:Generated_Source\PSoC5/cmsis_gcc.h **** __attribute__((always_inline)) __STATIC_INLINE uint32_t __TZ_get_PRIMASK_NS(void)
 318:Generated_Source\PSoC5/cmsis_gcc.h **** {
 319:Generated_Source\PSoC5/cmsis_gcc.h ****   uint32_t result;
 320:Generated_Source\PSoC5/cmsis_gcc.h **** 
 321:Generated_Source\PSoC5/cmsis_gcc.h ****   __ASM volatile ("MRS %0, primask_ns" : "=r" (result) );
 322:Generated_Source\PSoC5/cmsis_gcc.h ****   return(result);
 323:Generated_Source\PSoC5/cmsis_gcc.h **** }
 324:Generated_Source\PSoC5/cmsis_gcc.h **** #endif
 325:Generated_Source\PSoC5/cmsis_gcc.h **** 
 326:Generated_Source\PSoC5/cmsis_gcc.h **** 
 327:Generated_Source\PSoC5/cmsis_gcc.h **** /**
 328:Generated_Source\PSoC5/cmsis_gcc.h ****   \brief   Set Priority Mask
 329:Generated_Source\PSoC5/cmsis_gcc.h ****   \details Assigns the given value to the Priority Mask Register.
 330:Generated_Source\PSoC5/cmsis_gcc.h ****   \param [in]    priMask  Priority Mask
 331:Generated_Source\PSoC5/cmsis_gcc.h ****  */
 332:Generated_Source\PSoC5/cmsis_gcc.h **** __attribute__((always_inline)) __STATIC_INLINE void __set_PRIMASK(uint32_t priMask)
 333:Generated_Source\PSoC5/cmsis_gcc.h **** {
ARM GAS  C:\Users\mgnocco\AppData\Local\Temp\cc5vWZGV.s 			page 17


 334:Generated_Source\PSoC5/cmsis_gcc.h ****   __ASM volatile ("MSR primask, %0" : : "r" (priMask) : "memory");
 335:Generated_Source\PSoC5/cmsis_gcc.h **** }
 336:Generated_Source\PSoC5/cmsis_gcc.h **** 
 337:Generated_Source\PSoC5/cmsis_gcc.h **** 
 338:Generated_Source\PSoC5/cmsis_gcc.h **** #if (defined (__ARM_FEATURE_CMSE ) && (__ARM_FEATURE_CMSE == 3))
 339:Generated_Source\PSoC5/cmsis_gcc.h **** /**
 340:Generated_Source\PSoC5/cmsis_gcc.h ****   \brief   Set Priority Mask (non-secure)
 341:Generated_Source\PSoC5/cmsis_gcc.h ****   \details Assigns the given value to the non-secure Priority Mask Register when in secure state.
 342:Generated_Source\PSoC5/cmsis_gcc.h ****   \param [in]    priMask  Priority Mask
 343:Generated_Source\PSoC5/cmsis_gcc.h ****  */
 344:Generated_Source\PSoC5/cmsis_gcc.h **** __attribute__((always_inline)) __STATIC_INLINE void __TZ_set_PRIMASK_NS(uint32_t priMask)
 345:Generated_Source\PSoC5/cmsis_gcc.h **** {
 346:Generated_Source\PSoC5/cmsis_gcc.h ****   __ASM volatile ("MSR primask_ns, %0" : : "r" (priMask) : "memory");
 347:Generated_Source\PSoC5/cmsis_gcc.h **** }
 348:Generated_Source\PSoC5/cmsis_gcc.h **** #endif
 349:Generated_Source\PSoC5/cmsis_gcc.h **** 
 350:Generated_Source\PSoC5/cmsis_gcc.h **** 
 351:Generated_Source\PSoC5/cmsis_gcc.h **** #if ((defined (__ARM_ARCH_7M__      ) && (__ARM_ARCH_7M__      == 1)) || \
 352:Generated_Source\PSoC5/cmsis_gcc.h ****      (defined (__ARM_ARCH_7EM__     ) && (__ARM_ARCH_7EM__     == 1)) || \
 353:Generated_Source\PSoC5/cmsis_gcc.h ****      (defined (__ARM_ARCH_8M_MAIN__ ) && (__ARM_ARCH_8M_MAIN__ == 1))    )
 354:Generated_Source\PSoC5/cmsis_gcc.h **** /**
 355:Generated_Source\PSoC5/cmsis_gcc.h ****   \brief   Enable FIQ
 356:Generated_Source\PSoC5/cmsis_gcc.h ****   \details Enables FIQ interrupts by clearing the F-bit in the CPSR.
 357:Generated_Source\PSoC5/cmsis_gcc.h ****            Can only be executed in Privileged modes.
 358:Generated_Source\PSoC5/cmsis_gcc.h ****  */
 359:Generated_Source\PSoC5/cmsis_gcc.h **** __attribute__((always_inline)) __STATIC_INLINE void __enable_fault_irq(void)
 360:Generated_Source\PSoC5/cmsis_gcc.h **** {
 361:Generated_Source\PSoC5/cmsis_gcc.h ****   __ASM volatile ("cpsie f" : : : "memory");
 362:Generated_Source\PSoC5/cmsis_gcc.h **** }
 363:Generated_Source\PSoC5/cmsis_gcc.h **** 
 364:Generated_Source\PSoC5/cmsis_gcc.h **** 
 365:Generated_Source\PSoC5/cmsis_gcc.h **** /**
 366:Generated_Source\PSoC5/cmsis_gcc.h ****   \brief   Disable FIQ
 367:Generated_Source\PSoC5/cmsis_gcc.h ****   \details Disables FIQ interrupts by setting the F-bit in the CPSR.
 368:Generated_Source\PSoC5/cmsis_gcc.h ****            Can only be executed in Privileged modes.
 369:Generated_Source\PSoC5/cmsis_gcc.h ****  */
 370:Generated_Source\PSoC5/cmsis_gcc.h **** __attribute__((always_inline)) __STATIC_INLINE void __disable_fault_irq(void)
 371:Generated_Source\PSoC5/cmsis_gcc.h **** {
 372:Generated_Source\PSoC5/cmsis_gcc.h ****   __ASM volatile ("cpsid f" : : : "memory");
 373:Generated_Source\PSoC5/cmsis_gcc.h **** }
 374:Generated_Source\PSoC5/cmsis_gcc.h **** 
 375:Generated_Source\PSoC5/cmsis_gcc.h **** 
 376:Generated_Source\PSoC5/cmsis_gcc.h **** /**
 377:Generated_Source\PSoC5/cmsis_gcc.h ****   \brief   Get Base Priority
 378:Generated_Source\PSoC5/cmsis_gcc.h ****   \details Returns the current value of the Base Priority register.
 379:Generated_Source\PSoC5/cmsis_gcc.h ****   \return               Base Priority register value
 380:Generated_Source\PSoC5/cmsis_gcc.h ****  */
 381:Generated_Source\PSoC5/cmsis_gcc.h **** __attribute__((always_inline)) __STATIC_INLINE uint32_t __get_BASEPRI(void)
 382:Generated_Source\PSoC5/cmsis_gcc.h **** {
 383:Generated_Source\PSoC5/cmsis_gcc.h ****   uint32_t result;
 384:Generated_Source\PSoC5/cmsis_gcc.h **** 
 385:Generated_Source\PSoC5/cmsis_gcc.h ****   __ASM volatile ("MRS %0, basepri" : "=r" (result) );
 386:Generated_Source\PSoC5/cmsis_gcc.h ****   return(result);
 387:Generated_Source\PSoC5/cmsis_gcc.h **** }
 388:Generated_Source\PSoC5/cmsis_gcc.h **** 
 389:Generated_Source\PSoC5/cmsis_gcc.h **** 
 390:Generated_Source\PSoC5/cmsis_gcc.h **** #if (defined (__ARM_FEATURE_CMSE ) && (__ARM_FEATURE_CMSE == 3))
ARM GAS  C:\Users\mgnocco\AppData\Local\Temp\cc5vWZGV.s 			page 18


 391:Generated_Source\PSoC5/cmsis_gcc.h **** /**
 392:Generated_Source\PSoC5/cmsis_gcc.h ****   \brief   Get Base Priority (non-secure)
 393:Generated_Source\PSoC5/cmsis_gcc.h ****   \details Returns the current value of the non-secure Base Priority register when in secure state.
 394:Generated_Source\PSoC5/cmsis_gcc.h ****   \return               Base Priority register value
 395:Generated_Source\PSoC5/cmsis_gcc.h ****  */
 396:Generated_Source\PSoC5/cmsis_gcc.h **** __attribute__((always_inline)) __STATIC_INLINE uint32_t __TZ_get_BASEPRI_NS(void)
 397:Generated_Source\PSoC5/cmsis_gcc.h **** {
 398:Generated_Source\PSoC5/cmsis_gcc.h ****   uint32_t result;
 399:Generated_Source\PSoC5/cmsis_gcc.h **** 
 400:Generated_Source\PSoC5/cmsis_gcc.h ****   __ASM volatile ("MRS %0, basepri_ns" : "=r" (result) );
 401:Generated_Source\PSoC5/cmsis_gcc.h ****   return(result);
 402:Generated_Source\PSoC5/cmsis_gcc.h **** }
 403:Generated_Source\PSoC5/cmsis_gcc.h **** #endif
 404:Generated_Source\PSoC5/cmsis_gcc.h **** 
 405:Generated_Source\PSoC5/cmsis_gcc.h **** 
 406:Generated_Source\PSoC5/cmsis_gcc.h **** /**
 407:Generated_Source\PSoC5/cmsis_gcc.h ****   \brief   Set Base Priority
 408:Generated_Source\PSoC5/cmsis_gcc.h ****   \details Assigns the given value to the Base Priority register.
 409:Generated_Source\PSoC5/cmsis_gcc.h ****   \param [in]    basePri  Base Priority value to set
 410:Generated_Source\PSoC5/cmsis_gcc.h ****  */
 411:Generated_Source\PSoC5/cmsis_gcc.h **** __attribute__((always_inline)) __STATIC_INLINE void __set_BASEPRI(uint32_t basePri)
 412:Generated_Source\PSoC5/cmsis_gcc.h **** {
 413:Generated_Source\PSoC5/cmsis_gcc.h ****   __ASM volatile ("MSR basepri, %0" : : "r" (basePri) : "memory");
 414:Generated_Source\PSoC5/cmsis_gcc.h **** }
 415:Generated_Source\PSoC5/cmsis_gcc.h **** 
 416:Generated_Source\PSoC5/cmsis_gcc.h **** 
 417:Generated_Source\PSoC5/cmsis_gcc.h **** #if (defined (__ARM_FEATURE_CMSE ) && (__ARM_FEATURE_CMSE == 3))
 418:Generated_Source\PSoC5/cmsis_gcc.h **** /**
 419:Generated_Source\PSoC5/cmsis_gcc.h ****   \brief   Set Base Priority (non-secure)
 420:Generated_Source\PSoC5/cmsis_gcc.h ****   \details Assigns the given value to the non-secure Base Priority register when in secure state.
 421:Generated_Source\PSoC5/cmsis_gcc.h ****   \param [in]    basePri  Base Priority value to set
 422:Generated_Source\PSoC5/cmsis_gcc.h ****  */
 423:Generated_Source\PSoC5/cmsis_gcc.h **** __attribute__((always_inline)) __STATIC_INLINE void __TZ_set_BASEPRI_NS(uint32_t basePri)
 424:Generated_Source\PSoC5/cmsis_gcc.h **** {
 425:Generated_Source\PSoC5/cmsis_gcc.h ****   __ASM volatile ("MSR basepri_ns, %0" : : "r" (basePri) : "memory");
 426:Generated_Source\PSoC5/cmsis_gcc.h **** }
 427:Generated_Source\PSoC5/cmsis_gcc.h **** #endif
 428:Generated_Source\PSoC5/cmsis_gcc.h **** 
 429:Generated_Source\PSoC5/cmsis_gcc.h **** 
 430:Generated_Source\PSoC5/cmsis_gcc.h **** /**
 431:Generated_Source\PSoC5/cmsis_gcc.h ****   \brief   Set Base Priority with condition
 432:Generated_Source\PSoC5/cmsis_gcc.h ****   \details Assigns the given value to the Base Priority register only if BASEPRI masking is disable
 433:Generated_Source\PSoC5/cmsis_gcc.h ****            or the new value increases the BASEPRI priority level.
 434:Generated_Source\PSoC5/cmsis_gcc.h ****   \param [in]    basePri  Base Priority value to set
 435:Generated_Source\PSoC5/cmsis_gcc.h ****  */
 436:Generated_Source\PSoC5/cmsis_gcc.h **** __attribute__((always_inline)) __STATIC_INLINE void __set_BASEPRI_MAX(uint32_t basePri)
 437:Generated_Source\PSoC5/cmsis_gcc.h **** {
 438:Generated_Source\PSoC5/cmsis_gcc.h ****   __ASM volatile ("MSR basepri_max, %0" : : "r" (basePri) : "memory");
 439:Generated_Source\PSoC5/cmsis_gcc.h **** }
 440:Generated_Source\PSoC5/cmsis_gcc.h **** 
 441:Generated_Source\PSoC5/cmsis_gcc.h **** 
 442:Generated_Source\PSoC5/cmsis_gcc.h **** /**
 443:Generated_Source\PSoC5/cmsis_gcc.h ****   \brief   Get Fault Mask
 444:Generated_Source\PSoC5/cmsis_gcc.h ****   \details Returns the current value of the Fault Mask register.
 445:Generated_Source\PSoC5/cmsis_gcc.h ****   \return               Fault Mask register value
 446:Generated_Source\PSoC5/cmsis_gcc.h ****  */
 447:Generated_Source\PSoC5/cmsis_gcc.h **** __attribute__((always_inline)) __STATIC_INLINE uint32_t __get_FAULTMASK(void)
ARM GAS  C:\Users\mgnocco\AppData\Local\Temp\cc5vWZGV.s 			page 19


 448:Generated_Source\PSoC5/cmsis_gcc.h **** {
 449:Generated_Source\PSoC5/cmsis_gcc.h ****   uint32_t result;
 450:Generated_Source\PSoC5/cmsis_gcc.h **** 
 451:Generated_Source\PSoC5/cmsis_gcc.h ****   __ASM volatile ("MRS %0, faultmask" : "=r" (result) );
 452:Generated_Source\PSoC5/cmsis_gcc.h ****   return(result);
 453:Generated_Source\PSoC5/cmsis_gcc.h **** }
 454:Generated_Source\PSoC5/cmsis_gcc.h **** 
 455:Generated_Source\PSoC5/cmsis_gcc.h **** 
 456:Generated_Source\PSoC5/cmsis_gcc.h **** #if (defined (__ARM_FEATURE_CMSE ) && (__ARM_FEATURE_CMSE == 3))
 457:Generated_Source\PSoC5/cmsis_gcc.h **** /**
 458:Generated_Source\PSoC5/cmsis_gcc.h ****   \brief   Get Fault Mask (non-secure)
 459:Generated_Source\PSoC5/cmsis_gcc.h ****   \details Returns the current value of the non-secure Fault Mask register when in secure state.
 460:Generated_Source\PSoC5/cmsis_gcc.h ****   \return               Fault Mask register value
 461:Generated_Source\PSoC5/cmsis_gcc.h ****  */
 462:Generated_Source\PSoC5/cmsis_gcc.h **** __attribute__((always_inline)) __STATIC_INLINE uint32_t __TZ_get_FAULTMASK_NS(void)
 463:Generated_Source\PSoC5/cmsis_gcc.h **** {
 464:Generated_Source\PSoC5/cmsis_gcc.h ****   uint32_t result;
 465:Generated_Source\PSoC5/cmsis_gcc.h **** 
 466:Generated_Source\PSoC5/cmsis_gcc.h ****   __ASM volatile ("MRS %0, faultmask_ns" : "=r" (result) );
 467:Generated_Source\PSoC5/cmsis_gcc.h ****   return(result);
 468:Generated_Source\PSoC5/cmsis_gcc.h **** }
 469:Generated_Source\PSoC5/cmsis_gcc.h **** #endif
 470:Generated_Source\PSoC5/cmsis_gcc.h **** 
 471:Generated_Source\PSoC5/cmsis_gcc.h **** 
 472:Generated_Source\PSoC5/cmsis_gcc.h **** /**
 473:Generated_Source\PSoC5/cmsis_gcc.h ****   \brief   Set Fault Mask
 474:Generated_Source\PSoC5/cmsis_gcc.h ****   \details Assigns the given value to the Fault Mask register.
 475:Generated_Source\PSoC5/cmsis_gcc.h ****   \param [in]    faultMask  Fault Mask value to set
 476:Generated_Source\PSoC5/cmsis_gcc.h ****  */
 477:Generated_Source\PSoC5/cmsis_gcc.h **** __attribute__((always_inline)) __STATIC_INLINE void __set_FAULTMASK(uint32_t faultMask)
 478:Generated_Source\PSoC5/cmsis_gcc.h **** {
 479:Generated_Source\PSoC5/cmsis_gcc.h ****   __ASM volatile ("MSR faultmask, %0" : : "r" (faultMask) : "memory");
 480:Generated_Source\PSoC5/cmsis_gcc.h **** }
 481:Generated_Source\PSoC5/cmsis_gcc.h **** 
 482:Generated_Source\PSoC5/cmsis_gcc.h **** 
 483:Generated_Source\PSoC5/cmsis_gcc.h **** #if (defined (__ARM_FEATURE_CMSE ) && (__ARM_FEATURE_CMSE == 3))
 484:Generated_Source\PSoC5/cmsis_gcc.h **** /**
 485:Generated_Source\PSoC5/cmsis_gcc.h ****   \brief   Set Fault Mask (non-secure)
 486:Generated_Source\PSoC5/cmsis_gcc.h ****   \details Assigns the given value to the non-secure Fault Mask register when in secure state.
 487:Generated_Source\PSoC5/cmsis_gcc.h ****   \param [in]    faultMask  Fault Mask value to set
 488:Generated_Source\PSoC5/cmsis_gcc.h ****  */
 489:Generated_Source\PSoC5/cmsis_gcc.h **** __attribute__((always_inline)) __STATIC_INLINE void __TZ_set_FAULTMASK_NS(uint32_t faultMask)
 490:Generated_Source\PSoC5/cmsis_gcc.h **** {
 491:Generated_Source\PSoC5/cmsis_gcc.h ****   __ASM volatile ("MSR faultmask_ns, %0" : : "r" (faultMask) : "memory");
 492:Generated_Source\PSoC5/cmsis_gcc.h **** }
 493:Generated_Source\PSoC5/cmsis_gcc.h **** #endif
 494:Generated_Source\PSoC5/cmsis_gcc.h **** 
 495:Generated_Source\PSoC5/cmsis_gcc.h **** #endif /* ((defined (__ARM_ARCH_7M__      ) && (__ARM_ARCH_7M__      == 1)) || \
 496:Generated_Source\PSoC5/cmsis_gcc.h ****            (defined (__ARM_ARCH_7EM__     ) && (__ARM_ARCH_7EM__     == 1)) || \
 497:Generated_Source\PSoC5/cmsis_gcc.h ****            (defined (__ARM_ARCH_8M_MAIN__ ) && (__ARM_ARCH_8M_MAIN__ == 1))    ) */
 498:Generated_Source\PSoC5/cmsis_gcc.h **** 
 499:Generated_Source\PSoC5/cmsis_gcc.h **** 
 500:Generated_Source\PSoC5/cmsis_gcc.h **** #if ((defined (__ARM_ARCH_8M_MAIN__ ) && (__ARM_ARCH_8M_MAIN__ == 1U)) || \
 501:Generated_Source\PSoC5/cmsis_gcc.h ****      (defined (__ARM_ARCH_8M_BASE__ ) && (__ARM_ARCH_8M_BASE__ == 1U))    )
 502:Generated_Source\PSoC5/cmsis_gcc.h **** 
 503:Generated_Source\PSoC5/cmsis_gcc.h **** /**
 504:Generated_Source\PSoC5/cmsis_gcc.h ****   \brief   Get Process Stack Pointer Limit
ARM GAS  C:\Users\mgnocco\AppData\Local\Temp\cc5vWZGV.s 			page 20


 505:Generated_Source\PSoC5/cmsis_gcc.h ****   \details Returns the current value of the Process Stack Pointer Limit (PSPLIM).
 506:Generated_Source\PSoC5/cmsis_gcc.h ****   \return               PSPLIM Register value
 507:Generated_Source\PSoC5/cmsis_gcc.h ****  */
 508:Generated_Source\PSoC5/cmsis_gcc.h **** __attribute__((always_inline)) __STATIC_INLINE uint32_t __get_PSPLIM(void)
 509:Generated_Source\PSoC5/cmsis_gcc.h **** {
 510:Generated_Source\PSoC5/cmsis_gcc.h ****   register uint32_t result;
 511:Generated_Source\PSoC5/cmsis_gcc.h **** 
 512:Generated_Source\PSoC5/cmsis_gcc.h ****   __ASM volatile ("MRS %0, psplim"  : "=r" (result) );
 513:Generated_Source\PSoC5/cmsis_gcc.h ****   return(result);
 514:Generated_Source\PSoC5/cmsis_gcc.h **** }
 515:Generated_Source\PSoC5/cmsis_gcc.h **** 
 516:Generated_Source\PSoC5/cmsis_gcc.h **** 
 517:Generated_Source\PSoC5/cmsis_gcc.h **** #if ((defined (__ARM_FEATURE_CMSE  ) && (__ARM_FEATURE_CMSE   == 3)) && \
 518:Generated_Source\PSoC5/cmsis_gcc.h ****      (defined (__ARM_ARCH_8M_MAIN__) && (__ARM_ARCH_8M_MAIN__ == 1))    )
 519:Generated_Source\PSoC5/cmsis_gcc.h **** /**
 520:Generated_Source\PSoC5/cmsis_gcc.h ****   \brief   Get Process Stack Pointer Limit (non-secure)
 521:Generated_Source\PSoC5/cmsis_gcc.h ****   \details Returns the current value of the non-secure Process Stack Pointer Limit (PSPLIM) when in
 522:Generated_Source\PSoC5/cmsis_gcc.h ****   \return               PSPLIM Register value
 523:Generated_Source\PSoC5/cmsis_gcc.h ****  */
 524:Generated_Source\PSoC5/cmsis_gcc.h **** __attribute__((always_inline)) __STATIC_INLINE uint32_t __TZ_get_PSPLIM_NS(void)
 525:Generated_Source\PSoC5/cmsis_gcc.h **** {
 526:Generated_Source\PSoC5/cmsis_gcc.h ****   register uint32_t result;
 527:Generated_Source\PSoC5/cmsis_gcc.h **** 
 528:Generated_Source\PSoC5/cmsis_gcc.h ****   __ASM volatile ("MRS %0, psplim_ns"  : "=r" (result) );
 529:Generated_Source\PSoC5/cmsis_gcc.h ****   return(result);
 530:Generated_Source\PSoC5/cmsis_gcc.h **** }
 531:Generated_Source\PSoC5/cmsis_gcc.h **** #endif
 532:Generated_Source\PSoC5/cmsis_gcc.h **** 
 533:Generated_Source\PSoC5/cmsis_gcc.h **** 
 534:Generated_Source\PSoC5/cmsis_gcc.h **** /**
 535:Generated_Source\PSoC5/cmsis_gcc.h ****   \brief   Set Process Stack Pointer Limit
 536:Generated_Source\PSoC5/cmsis_gcc.h ****   \details Assigns the given value to the Process Stack Pointer Limit (PSPLIM).
 537:Generated_Source\PSoC5/cmsis_gcc.h ****   \param [in]    ProcStackPtrLimit  Process Stack Pointer Limit value to set
 538:Generated_Source\PSoC5/cmsis_gcc.h ****  */
 539:Generated_Source\PSoC5/cmsis_gcc.h **** __attribute__((always_inline)) __STATIC_INLINE void __set_PSPLIM(uint32_t ProcStackPtrLimit)
 540:Generated_Source\PSoC5/cmsis_gcc.h **** {
 541:Generated_Source\PSoC5/cmsis_gcc.h ****   __ASM volatile ("MSR psplim, %0" : : "r" (ProcStackPtrLimit));
 542:Generated_Source\PSoC5/cmsis_gcc.h **** }
 543:Generated_Source\PSoC5/cmsis_gcc.h **** 
 544:Generated_Source\PSoC5/cmsis_gcc.h **** 
 545:Generated_Source\PSoC5/cmsis_gcc.h **** #if ((defined (__ARM_FEATURE_CMSE  ) && (__ARM_FEATURE_CMSE   == 3)) && \
 546:Generated_Source\PSoC5/cmsis_gcc.h ****      (defined (__ARM_ARCH_8M_MAIN__) && (__ARM_ARCH_8M_MAIN__ == 1))    )
 547:Generated_Source\PSoC5/cmsis_gcc.h **** /**
 548:Generated_Source\PSoC5/cmsis_gcc.h ****   \brief   Set Process Stack Pointer (non-secure)
 549:Generated_Source\PSoC5/cmsis_gcc.h ****   \details Assigns the given value to the non-secure Process Stack Pointer Limit (PSPLIM) when in s
 550:Generated_Source\PSoC5/cmsis_gcc.h ****   \param [in]    ProcStackPtrLimit  Process Stack Pointer Limit value to set
 551:Generated_Source\PSoC5/cmsis_gcc.h ****  */
 552:Generated_Source\PSoC5/cmsis_gcc.h **** __attribute__((always_inline)) __STATIC_INLINE void __TZ_set_PSPLIM_NS(uint32_t ProcStackPtrLimit)
 553:Generated_Source\PSoC5/cmsis_gcc.h **** {
 554:Generated_Source\PSoC5/cmsis_gcc.h ****   __ASM volatile ("MSR psplim_ns, %0\n" : : "r" (ProcStackPtrLimit));
 555:Generated_Source\PSoC5/cmsis_gcc.h **** }
 556:Generated_Source\PSoC5/cmsis_gcc.h **** #endif
 557:Generated_Source\PSoC5/cmsis_gcc.h **** 
 558:Generated_Source\PSoC5/cmsis_gcc.h **** 
 559:Generated_Source\PSoC5/cmsis_gcc.h **** /**
 560:Generated_Source\PSoC5/cmsis_gcc.h ****   \brief   Get Main Stack Pointer Limit
 561:Generated_Source\PSoC5/cmsis_gcc.h ****   \details Returns the current value of the Main Stack Pointer Limit (MSPLIM).
ARM GAS  C:\Users\mgnocco\AppData\Local\Temp\cc5vWZGV.s 			page 21


 562:Generated_Source\PSoC5/cmsis_gcc.h ****   \return               MSPLIM Register value
 563:Generated_Source\PSoC5/cmsis_gcc.h ****  */
 564:Generated_Source\PSoC5/cmsis_gcc.h **** __attribute__((always_inline)) __STATIC_INLINE uint32_t __get_MSPLIM(void)
 565:Generated_Source\PSoC5/cmsis_gcc.h **** {
 566:Generated_Source\PSoC5/cmsis_gcc.h ****   register uint32_t result;
 567:Generated_Source\PSoC5/cmsis_gcc.h **** 
 568:Generated_Source\PSoC5/cmsis_gcc.h ****   __ASM volatile ("MRS %0, msplim" : "=r" (result) );
 569:Generated_Source\PSoC5/cmsis_gcc.h **** 
 570:Generated_Source\PSoC5/cmsis_gcc.h ****   return(result);
 571:Generated_Source\PSoC5/cmsis_gcc.h **** }
 572:Generated_Source\PSoC5/cmsis_gcc.h **** 
 573:Generated_Source\PSoC5/cmsis_gcc.h **** 
 574:Generated_Source\PSoC5/cmsis_gcc.h **** #if ((defined (__ARM_FEATURE_CMSE  ) && (__ARM_FEATURE_CMSE   == 3)) && \
 575:Generated_Source\PSoC5/cmsis_gcc.h ****      (defined (__ARM_ARCH_8M_MAIN__) && (__ARM_ARCH_8M_MAIN__ == 1))    )
 576:Generated_Source\PSoC5/cmsis_gcc.h **** /**
 577:Generated_Source\PSoC5/cmsis_gcc.h ****   \brief   Get Main Stack Pointer Limit (non-secure)
 578:Generated_Source\PSoC5/cmsis_gcc.h ****   \details Returns the current value of the non-secure Main Stack Pointer Limit(MSPLIM) when in sec
 579:Generated_Source\PSoC5/cmsis_gcc.h ****   \return               MSPLIM Register value
 580:Generated_Source\PSoC5/cmsis_gcc.h ****  */
 581:Generated_Source\PSoC5/cmsis_gcc.h **** __attribute__((always_inline)) __STATIC_INLINE uint32_t __TZ_get_MSPLIM_NS(void)
 582:Generated_Source\PSoC5/cmsis_gcc.h **** {
 583:Generated_Source\PSoC5/cmsis_gcc.h ****   register uint32_t result;
 584:Generated_Source\PSoC5/cmsis_gcc.h **** 
 585:Generated_Source\PSoC5/cmsis_gcc.h ****   __ASM volatile ("MRS %0, msplim_ns" : "=r" (result) );
 586:Generated_Source\PSoC5/cmsis_gcc.h ****   return(result);
 587:Generated_Source\PSoC5/cmsis_gcc.h **** }
 588:Generated_Source\PSoC5/cmsis_gcc.h **** #endif
 589:Generated_Source\PSoC5/cmsis_gcc.h **** 
 590:Generated_Source\PSoC5/cmsis_gcc.h **** 
 591:Generated_Source\PSoC5/cmsis_gcc.h **** /**
 592:Generated_Source\PSoC5/cmsis_gcc.h ****   \brief   Set Main Stack Pointer Limit
 593:Generated_Source\PSoC5/cmsis_gcc.h ****   \details Assigns the given value to the Main Stack Pointer Limit (MSPLIM).
 594:Generated_Source\PSoC5/cmsis_gcc.h ****   \param [in]    MainStackPtrLimit  Main Stack Pointer Limit value to set
 595:Generated_Source\PSoC5/cmsis_gcc.h ****  */
 596:Generated_Source\PSoC5/cmsis_gcc.h **** __attribute__((always_inline)) __STATIC_INLINE void __set_MSPLIM(uint32_t MainStackPtrLimit)
 597:Generated_Source\PSoC5/cmsis_gcc.h **** {
 598:Generated_Source\PSoC5/cmsis_gcc.h ****   __ASM volatile ("MSR msplim, %0" : : "r" (MainStackPtrLimit));
 599:Generated_Source\PSoC5/cmsis_gcc.h **** }
 600:Generated_Source\PSoC5/cmsis_gcc.h **** 
 601:Generated_Source\PSoC5/cmsis_gcc.h **** 
 602:Generated_Source\PSoC5/cmsis_gcc.h **** #if ((defined (__ARM_FEATURE_CMSE  ) && (__ARM_FEATURE_CMSE   == 3)) && \
 603:Generated_Source\PSoC5/cmsis_gcc.h ****      (defined (__ARM_ARCH_8M_MAIN__) && (__ARM_ARCH_8M_MAIN__ == 1))    )
 604:Generated_Source\PSoC5/cmsis_gcc.h **** /**
 605:Generated_Source\PSoC5/cmsis_gcc.h ****   \brief   Set Main Stack Pointer Limit (non-secure)
 606:Generated_Source\PSoC5/cmsis_gcc.h ****   \details Assigns the given value to the non-secure Main Stack Pointer Limit (MSPLIM) when in secu
 607:Generated_Source\PSoC5/cmsis_gcc.h ****   \param [in]    MainStackPtrLimit  Main Stack Pointer value to set
 608:Generated_Source\PSoC5/cmsis_gcc.h ****  */
 609:Generated_Source\PSoC5/cmsis_gcc.h **** __attribute__((always_inline)) __STATIC_INLINE void __TZ_set_MSPLIM_NS(uint32_t MainStackPtrLimit)
 610:Generated_Source\PSoC5/cmsis_gcc.h **** {
 611:Generated_Source\PSoC5/cmsis_gcc.h ****   __ASM volatile ("MSR msplim_ns, %0" : : "r" (MainStackPtrLimit));
 612:Generated_Source\PSoC5/cmsis_gcc.h **** }
 613:Generated_Source\PSoC5/cmsis_gcc.h **** #endif
 614:Generated_Source\PSoC5/cmsis_gcc.h **** 
 615:Generated_Source\PSoC5/cmsis_gcc.h **** #endif /* ((defined (__ARM_ARCH_8M_MAIN__ ) && (__ARM_ARCH_8M_MAIN__ == 1U)) || \
 616:Generated_Source\PSoC5/cmsis_gcc.h ****            (defined (__ARM_ARCH_8M_BASE__ ) && (__ARM_ARCH_8M_BASE__ == 1U))    ) */
 617:Generated_Source\PSoC5/cmsis_gcc.h **** 
 618:Generated_Source\PSoC5/cmsis_gcc.h **** 
ARM GAS  C:\Users\mgnocco\AppData\Local\Temp\cc5vWZGV.s 			page 22


 619:Generated_Source\PSoC5/cmsis_gcc.h **** #if ((defined (__ARM_ARCH_7EM__     ) && (__ARM_ARCH_7EM__     == 1)) || \
 620:Generated_Source\PSoC5/cmsis_gcc.h ****      (defined (__ARM_ARCH_8M_MAIN__ ) && (__ARM_ARCH_8M_MAIN__ == 1))    )
 621:Generated_Source\PSoC5/cmsis_gcc.h **** 
 622:Generated_Source\PSoC5/cmsis_gcc.h **** /**
 623:Generated_Source\PSoC5/cmsis_gcc.h ****   \brief   Get FPSCR
 624:Generated_Source\PSoC5/cmsis_gcc.h ****   \details Returns the current value of the Floating Point Status/Control register.
 625:Generated_Source\PSoC5/cmsis_gcc.h ****   \return               Floating Point Status/Control register value
 626:Generated_Source\PSoC5/cmsis_gcc.h ****  */
 627:Generated_Source\PSoC5/cmsis_gcc.h **** __attribute__((always_inline)) __STATIC_INLINE uint32_t __get_FPSCR(void)
 628:Generated_Source\PSoC5/cmsis_gcc.h **** {
 629:Generated_Source\PSoC5/cmsis_gcc.h **** #if ((defined (__FPU_PRESENT) && (__FPU_PRESENT == 1U)) && \
 630:Generated_Source\PSoC5/cmsis_gcc.h ****      (defined (__FPU_USED   ) && (__FPU_USED    == 1U))     )
 631:Generated_Source\PSoC5/cmsis_gcc.h ****   uint32_t result;
 632:Generated_Source\PSoC5/cmsis_gcc.h **** 
 633:Generated_Source\PSoC5/cmsis_gcc.h ****   __ASM volatile ("");                                 /* Empty asm statement works as a scheduling
 634:Generated_Source\PSoC5/cmsis_gcc.h ****   __ASM volatile ("VMRS %0, fpscr" : "=r" (result) );
 635:Generated_Source\PSoC5/cmsis_gcc.h ****   __ASM volatile ("");
 636:Generated_Source\PSoC5/cmsis_gcc.h ****   return(result);
 637:Generated_Source\PSoC5/cmsis_gcc.h **** #else
 638:Generated_Source\PSoC5/cmsis_gcc.h ****    return(0U);
 639:Generated_Source\PSoC5/cmsis_gcc.h **** #endif
 640:Generated_Source\PSoC5/cmsis_gcc.h **** }
 641:Generated_Source\PSoC5/cmsis_gcc.h **** 
 642:Generated_Source\PSoC5/cmsis_gcc.h **** 
 643:Generated_Source\PSoC5/cmsis_gcc.h **** /**
 644:Generated_Source\PSoC5/cmsis_gcc.h ****   \brief   Set FPSCR
 645:Generated_Source\PSoC5/cmsis_gcc.h ****   \details Assigns the given value to the Floating Point Status/Control register.
 646:Generated_Source\PSoC5/cmsis_gcc.h ****   \param [in]    fpscr  Floating Point Status/Control value to set
 647:Generated_Source\PSoC5/cmsis_gcc.h ****  */
 648:Generated_Source\PSoC5/cmsis_gcc.h **** __attribute__((always_inline)) __STATIC_INLINE void __set_FPSCR(uint32_t fpscr)
 649:Generated_Source\PSoC5/cmsis_gcc.h **** {
 650:Generated_Source\PSoC5/cmsis_gcc.h **** #if ((defined (__FPU_PRESENT) && (__FPU_PRESENT == 1U)) && \
 651:Generated_Source\PSoC5/cmsis_gcc.h ****      (defined (__FPU_USED   ) && (__FPU_USED    == 1U))     )
 652:Generated_Source\PSoC5/cmsis_gcc.h ****   __ASM volatile ("");                                           /* Empty asm statement works as a 
 653:Generated_Source\PSoC5/cmsis_gcc.h ****   __ASM volatile ("VMSR fpscr, %0" : : "r" (fpscr) : "vfpcc");
 654:Generated_Source\PSoC5/cmsis_gcc.h ****   __ASM volatile ("");
 655:Generated_Source\PSoC5/cmsis_gcc.h **** #endif
 656:Generated_Source\PSoC5/cmsis_gcc.h **** }
 657:Generated_Source\PSoC5/cmsis_gcc.h **** 
 658:Generated_Source\PSoC5/cmsis_gcc.h **** #endif /* ((defined (__ARM_ARCH_7EM__     ) && (__ARM_ARCH_7EM__     == 1)) || \
 659:Generated_Source\PSoC5/cmsis_gcc.h ****            (defined (__ARM_ARCH_8M_MAIN__ ) && (__ARM_ARCH_8M_MAIN__ == 1))    ) */
 660:Generated_Source\PSoC5/cmsis_gcc.h **** 
 661:Generated_Source\PSoC5/cmsis_gcc.h **** 
 662:Generated_Source\PSoC5/cmsis_gcc.h **** 
 663:Generated_Source\PSoC5/cmsis_gcc.h **** /*@} end of CMSIS_Core_RegAccFunctions */
 664:Generated_Source\PSoC5/cmsis_gcc.h **** 
 665:Generated_Source\PSoC5/cmsis_gcc.h **** 
 666:Generated_Source\PSoC5/cmsis_gcc.h **** /* ##########################  Core Instruction Access  ######################### */
 667:Generated_Source\PSoC5/cmsis_gcc.h **** /** \defgroup CMSIS_Core_InstructionInterface CMSIS Core Instruction Interface
 668:Generated_Source\PSoC5/cmsis_gcc.h ****   Access to dedicated instructions
 669:Generated_Source\PSoC5/cmsis_gcc.h ****   @{
 670:Generated_Source\PSoC5/cmsis_gcc.h **** */
 671:Generated_Source\PSoC5/cmsis_gcc.h **** 
 672:Generated_Source\PSoC5/cmsis_gcc.h **** /* Define macros for porting to both thumb1 and thumb2.
 673:Generated_Source\PSoC5/cmsis_gcc.h ****  * For thumb1, use low register (r0-r7), specified by constraint "l"
 674:Generated_Source\PSoC5/cmsis_gcc.h ****  * Otherwise, use general registers, specified by constraint "r" */
 675:Generated_Source\PSoC5/cmsis_gcc.h **** #if defined (__thumb__) && !defined (__thumb2__)
ARM GAS  C:\Users\mgnocco\AppData\Local\Temp\cc5vWZGV.s 			page 23


 676:Generated_Source\PSoC5/cmsis_gcc.h **** #define __CMSIS_GCC_OUT_REG(r) "=l" (r)
 677:Generated_Source\PSoC5/cmsis_gcc.h **** #define __CMSIS_GCC_RW_REG(r) "+l" (r)
 678:Generated_Source\PSoC5/cmsis_gcc.h **** #define __CMSIS_GCC_USE_REG(r) "l" (r)
 679:Generated_Source\PSoC5/cmsis_gcc.h **** #else
 680:Generated_Source\PSoC5/cmsis_gcc.h **** #define __CMSIS_GCC_OUT_REG(r) "=r" (r)
 681:Generated_Source\PSoC5/cmsis_gcc.h **** #define __CMSIS_GCC_RW_REG(r) "+r" (r)
 682:Generated_Source\PSoC5/cmsis_gcc.h **** #define __CMSIS_GCC_USE_REG(r) "r" (r)
 683:Generated_Source\PSoC5/cmsis_gcc.h **** #endif
 684:Generated_Source\PSoC5/cmsis_gcc.h **** 
 685:Generated_Source\PSoC5/cmsis_gcc.h **** /**
 686:Generated_Source\PSoC5/cmsis_gcc.h ****   \brief   No Operation
 687:Generated_Source\PSoC5/cmsis_gcc.h ****   \details No Operation does nothing. This instruction can be used for code alignment purposes.
 688:Generated_Source\PSoC5/cmsis_gcc.h ****  */
 689:Generated_Source\PSoC5/cmsis_gcc.h **** //__attribute__((always_inline)) __STATIC_INLINE void __NOP(void)
 690:Generated_Source\PSoC5/cmsis_gcc.h **** //{
 691:Generated_Source\PSoC5/cmsis_gcc.h **** //  __ASM volatile ("nop");
 692:Generated_Source\PSoC5/cmsis_gcc.h **** //}
 693:Generated_Source\PSoC5/cmsis_gcc.h **** #define __NOP()                             __ASM volatile ("nop")       /* This implementation gen
 694:Generated_Source\PSoC5/cmsis_gcc.h **** 
 695:Generated_Source\PSoC5/cmsis_gcc.h **** /**
 696:Generated_Source\PSoC5/cmsis_gcc.h ****   \brief   Wait For Interrupt
 697:Generated_Source\PSoC5/cmsis_gcc.h ****   \details Wait For Interrupt is a hint instruction that suspends execution until one of a number o
 698:Generated_Source\PSoC5/cmsis_gcc.h ****  */
 699:Generated_Source\PSoC5/cmsis_gcc.h **** //__attribute__((always_inline)) __STATIC_INLINE void __WFI(void)
 700:Generated_Source\PSoC5/cmsis_gcc.h **** //{
 701:Generated_Source\PSoC5/cmsis_gcc.h **** //  __ASM volatile ("wfi");
 702:Generated_Source\PSoC5/cmsis_gcc.h **** //}
 703:Generated_Source\PSoC5/cmsis_gcc.h **** #define __WFI()                             __ASM volatile ("wfi")       /* This implementation gen
 704:Generated_Source\PSoC5/cmsis_gcc.h **** 
 705:Generated_Source\PSoC5/cmsis_gcc.h **** 
 706:Generated_Source\PSoC5/cmsis_gcc.h **** /**
 707:Generated_Source\PSoC5/cmsis_gcc.h ****   \brief   Wait For Event
 708:Generated_Source\PSoC5/cmsis_gcc.h ****   \details Wait For Event is a hint instruction that permits the processor to enter
 709:Generated_Source\PSoC5/cmsis_gcc.h ****            a low-power state until one of a number of events occurs.
 710:Generated_Source\PSoC5/cmsis_gcc.h ****  */
 711:Generated_Source\PSoC5/cmsis_gcc.h **** //__attribute__((always_inline)) __STATIC_INLINE void __WFE(void)
 712:Generated_Source\PSoC5/cmsis_gcc.h **** //{
 713:Generated_Source\PSoC5/cmsis_gcc.h **** //  __ASM volatile ("wfe");
 714:Generated_Source\PSoC5/cmsis_gcc.h **** //}
 715:Generated_Source\PSoC5/cmsis_gcc.h **** #define __WFE()                             __ASM volatile ("wfe")       /* This implementation gen
 716:Generated_Source\PSoC5/cmsis_gcc.h **** 
 717:Generated_Source\PSoC5/cmsis_gcc.h **** 
 718:Generated_Source\PSoC5/cmsis_gcc.h **** /**
 719:Generated_Source\PSoC5/cmsis_gcc.h ****   \brief   Send Event
 720:Generated_Source\PSoC5/cmsis_gcc.h ****   \details Send Event is a hint instruction. It causes an event to be signaled to the CPU.
 721:Generated_Source\PSoC5/cmsis_gcc.h ****  */
 722:Generated_Source\PSoC5/cmsis_gcc.h **** //__attribute__((always_inline)) __STATIC_INLINE void __SEV(void)
 723:Generated_Source\PSoC5/cmsis_gcc.h **** //{
 724:Generated_Source\PSoC5/cmsis_gcc.h **** //  __ASM volatile ("sev");
 725:Generated_Source\PSoC5/cmsis_gcc.h **** //}
 726:Generated_Source\PSoC5/cmsis_gcc.h **** #define __SEV()                             __ASM volatile ("sev")       /* This implementation gen
 727:Generated_Source\PSoC5/cmsis_gcc.h **** 
 728:Generated_Source\PSoC5/cmsis_gcc.h **** 
 729:Generated_Source\PSoC5/cmsis_gcc.h **** /**
 730:Generated_Source\PSoC5/cmsis_gcc.h ****   \brief   Instruction Synchronization Barrier
 731:Generated_Source\PSoC5/cmsis_gcc.h ****   \details Instruction Synchronization Barrier flushes the pipeline in the processor,
 732:Generated_Source\PSoC5/cmsis_gcc.h ****            so that all instructions following the ISB are fetched from cache or memory,
ARM GAS  C:\Users\mgnocco\AppData\Local\Temp\cc5vWZGV.s 			page 24


 733:Generated_Source\PSoC5/cmsis_gcc.h ****            after the instruction has been completed.
 734:Generated_Source\PSoC5/cmsis_gcc.h ****  */
 735:Generated_Source\PSoC5/cmsis_gcc.h **** __attribute__((always_inline)) __STATIC_INLINE void __ISB(void)
 736:Generated_Source\PSoC5/cmsis_gcc.h **** {
 737:Generated_Source\PSoC5/cmsis_gcc.h ****   __ASM volatile ("isb 0xF":::"memory");
 738:Generated_Source\PSoC5/cmsis_gcc.h **** }
 739:Generated_Source\PSoC5/cmsis_gcc.h **** 
 740:Generated_Source\PSoC5/cmsis_gcc.h **** 
 741:Generated_Source\PSoC5/cmsis_gcc.h **** /**
 742:Generated_Source\PSoC5/cmsis_gcc.h ****   \brief   Data Synchronization Barrier
 743:Generated_Source\PSoC5/cmsis_gcc.h ****   \details Acts as a special kind of Data Memory Barrier.
 744:Generated_Source\PSoC5/cmsis_gcc.h ****            It completes when all explicit memory accesses before this instruction complete.
 745:Generated_Source\PSoC5/cmsis_gcc.h ****  */
 746:Generated_Source\PSoC5/cmsis_gcc.h **** __attribute__((always_inline)) __STATIC_INLINE void __DSB(void)
 747:Generated_Source\PSoC5/cmsis_gcc.h **** {
 748:Generated_Source\PSoC5/cmsis_gcc.h ****   __ASM volatile ("dsb 0xF":::"memory");
 749:Generated_Source\PSoC5/cmsis_gcc.h **** }
 750:Generated_Source\PSoC5/cmsis_gcc.h **** 
 751:Generated_Source\PSoC5/cmsis_gcc.h **** 
 752:Generated_Source\PSoC5/cmsis_gcc.h **** /**
 753:Generated_Source\PSoC5/cmsis_gcc.h ****   \brief   Data Memory Barrier
 754:Generated_Source\PSoC5/cmsis_gcc.h ****   \details Ensures the apparent order of the explicit memory operations before
 755:Generated_Source\PSoC5/cmsis_gcc.h ****            and after the instruction, without ensuring their completion.
 756:Generated_Source\PSoC5/cmsis_gcc.h ****  */
 757:Generated_Source\PSoC5/cmsis_gcc.h **** __attribute__((always_inline)) __STATIC_INLINE void __DMB(void)
 758:Generated_Source\PSoC5/cmsis_gcc.h **** {
 759:Generated_Source\PSoC5/cmsis_gcc.h ****   __ASM volatile ("dmb 0xF":::"memory");
 760:Generated_Source\PSoC5/cmsis_gcc.h **** }
 761:Generated_Source\PSoC5/cmsis_gcc.h **** 
 762:Generated_Source\PSoC5/cmsis_gcc.h **** 
 763:Generated_Source\PSoC5/cmsis_gcc.h **** /**
 764:Generated_Source\PSoC5/cmsis_gcc.h ****   \brief   Reverse byte order (32 bit)
 765:Generated_Source\PSoC5/cmsis_gcc.h ****   \details Reverses the byte order in integer value.
 766:Generated_Source\PSoC5/cmsis_gcc.h ****   \param [in]    value  Value to reverse
 767:Generated_Source\PSoC5/cmsis_gcc.h ****   \return               Reversed value
 768:Generated_Source\PSoC5/cmsis_gcc.h ****  */
 769:Generated_Source\PSoC5/cmsis_gcc.h **** __attribute__((always_inline)) __STATIC_INLINE uint32_t __REV(uint32_t value)
 770:Generated_Source\PSoC5/cmsis_gcc.h **** {
 771:Generated_Source\PSoC5/cmsis_gcc.h **** #if (__GNUC__ > 4) || (__GNUC__ == 4 && __GNUC_MINOR__ >= 5)
 772:Generated_Source\PSoC5/cmsis_gcc.h ****   return __builtin_bswap32(value);
 773:Generated_Source\PSoC5/cmsis_gcc.h **** #else
 774:Generated_Source\PSoC5/cmsis_gcc.h ****   uint32_t result;
 775:Generated_Source\PSoC5/cmsis_gcc.h **** 
 776:Generated_Source\PSoC5/cmsis_gcc.h ****   __ASM volatile ("rev %0, %1" : __CMSIS_GCC_OUT_REG (result) : __CMSIS_GCC_USE_REG (value) );
 777:Generated_Source\PSoC5/cmsis_gcc.h ****   return(result);
 778:Generated_Source\PSoC5/cmsis_gcc.h **** #endif
 779:Generated_Source\PSoC5/cmsis_gcc.h **** }
 780:Generated_Source\PSoC5/cmsis_gcc.h **** 
 781:Generated_Source\PSoC5/cmsis_gcc.h **** 
 782:Generated_Source\PSoC5/cmsis_gcc.h **** /**
 783:Generated_Source\PSoC5/cmsis_gcc.h ****   \brief   Reverse byte order (16 bit)
 784:Generated_Source\PSoC5/cmsis_gcc.h ****   \details Reverses the byte order in two unsigned short values.
 785:Generated_Source\PSoC5/cmsis_gcc.h ****   \param [in]    value  Value to reverse
 786:Generated_Source\PSoC5/cmsis_gcc.h ****   \return               Reversed value
 787:Generated_Source\PSoC5/cmsis_gcc.h ****  */
 788:Generated_Source\PSoC5/cmsis_gcc.h **** __attribute__((always_inline)) __STATIC_INLINE uint32_t __REV16(uint32_t value)
 789:Generated_Source\PSoC5/cmsis_gcc.h **** {
ARM GAS  C:\Users\mgnocco\AppData\Local\Temp\cc5vWZGV.s 			page 25


 790:Generated_Source\PSoC5/cmsis_gcc.h ****   uint32_t result;
 791:Generated_Source\PSoC5/cmsis_gcc.h **** 
 792:Generated_Source\PSoC5/cmsis_gcc.h ****   __ASM volatile ("rev16 %0, %1" : __CMSIS_GCC_OUT_REG (result) : __CMSIS_GCC_USE_REG (value) );
 418              		.loc 2 792 0
 419 049a BB69     		ldr	r3, [r7, #24]
 420              		.syntax unified
 421              	@ 792 "Generated_Source\PSoC5/cmsis_gcc.h" 1
 422 049c 5BBA     		rev16 r3, r3
 423              	@ 0 "" 2
 424              		.thumb
 425              		.syntax unified
 426 049e 7B61     		str	r3, [r7, #20]
 793:Generated_Source\PSoC5/cmsis_gcc.h ****   return(result);
 427              		.loc 2 793 0
 428 04a0 7B69     		ldr	r3, [r7, #20]
 429              	.LBE13:
 430              	.LBE12:
 431              		.loc 1 162 0
 432 04a2 9BB2     		uxth	r3, r3
 433 04a4 1846     		mov	r0, r3
 434 04a6 FFF7FEFF 		bl	infoGet
 163:..\src/command_processing.c ****             break;
 435              		.loc 1 163 0
 436 04aa D0E0     		b	.L1
 437              	.L7:
 164:..\src/command_processing.c **** 
 165:..\src/command_processing.c **** //============================================================     CMD_SET_PARAM
 166:..\src/command_processing.c **** 
 167:..\src/command_processing.c ****         case CMD_SET_ZEROS:
 168:..\src/command_processing.c ****             setZeros();
 438              		.loc 1 168 0
 439 04ac FFF7FEFF 		bl	setZeros
 169:..\src/command_processing.c ****             break;
 440              		.loc 1 169 0
 441 04b0 CDE0     		b	.L1
 442              	.L14:
 170:..\src/command_processing.c **** 
 171:..\src/command_processing.c **** //============================================================     CMD_GET_PARAM
 172:..\src/command_processing.c **** 
 173:..\src/command_processing.c ****         case CMD_GET_PARAM_LIST:
 174:..\src/command_processing.c ****             manage_param_list( __REV16(*((uint16 *) &g_rx.buffer[1])) );
 443              		.loc 1 174 0
 444 04b2 684B     		ldr	r3, .L56
 445 04b4 1B88     		ldrh	r3, [r3]
 446 04b6 BB62     		str	r3, [r7, #40]
 447              	.LBB14:
 448              	.LBB15:
 792:Generated_Source\PSoC5/cmsis_gcc.h ****   return(result);
 449              		.loc 2 792 0
 450 04b8 BB6A     		ldr	r3, [r7, #40]
 451              		.syntax unified
 452              	@ 792 "Generated_Source\PSoC5/cmsis_gcc.h" 1
 453 04ba 5BBA     		rev16 r3, r3
 454              	@ 0 "" 2
 455              		.thumb
 456              		.syntax unified
 457 04bc 3B61     		str	r3, [r7, #16]
ARM GAS  C:\Users\mgnocco\AppData\Local\Temp\cc5vWZGV.s 			page 26


 458              		.loc 2 793 0
 459 04be 3B69     		ldr	r3, [r7, #16]
 460              	.LBE15:
 461              	.LBE14:
 462              		.loc 1 174 0
 463 04c0 9BB2     		uxth	r3, r3
 464 04c2 1846     		mov	r0, r3
 465 04c4 FFF7FEFF 		bl	manage_param_list
 175:..\src/command_processing.c ****             break;
 466              		.loc 1 175 0
 467 04c8 C1E0     		b	.L1
 468              	.L5:
 176:..\src/command_processing.c **** 
 177:..\src/command_processing.c **** //=================================================================     CMD_PING
 178:..\src/command_processing.c ****             
 179:..\src/command_processing.c ****         case CMD_PING:
 180:..\src/command_processing.c ****             cmd_ping();
 469              		.loc 1 180 0
 470 04ca FFF7FEFF 		bl	cmd_ping
 181:..\src/command_processing.c ****             break;
 471              		.loc 1 181 0
 472 04ce BEE0     		b	.L1
 473              	.L8:
 182:..\src/command_processing.c **** 
 183:..\src/command_processing.c **** //=========================================================     CMD_STORE_PARAMS
 184:..\src/command_processing.c ****             
 185:..\src/command_processing.c ****         case CMD_STORE_PARAMS:
 186:..\src/command_processing.c ****             cmd_store_params();
 474              		.loc 1 186 0
 475 04d0 FFF7FEFF 		bl	cmd_store_params
 187:..\src/command_processing.c ****             break;
 476              		.loc 1 187 0
 477 04d4 BBE0     		b	.L1
 478              	.L9:
 188:..\src/command_processing.c **** 
 189:..\src/command_processing.c **** //=================================================     CMD_STORE_DEFAULT_PARAMS
 190:..\src/command_processing.c **** 
 191:..\src/command_processing.c ****         case CMD_STORE_DEFAULT_PARAMS:
 192:..\src/command_processing.c ****             if(memStore(DEFAULT_EEPROM_DISPLACEMENT))
 479              		.loc 1 192 0
 480 04d6 3220     		movs	r0, #50
 481 04d8 FFF7FEFF 		bl	memStore
 482 04dc 0346     		mov	r3, r0
 483 04de 002B     		cmp	r3, #0
 484 04e0 03D0     		beq	.L40
 193:..\src/command_processing.c ****                 sendAcknowledgment(ACK_OK);
 485              		.loc 1 193 0
 486 04e2 0120     		movs	r0, #1
 487 04e4 FFF7FEFF 		bl	sendAcknowledgment
 194:..\src/command_processing.c ****             else
 195:..\src/command_processing.c ****                 sendAcknowledgment(ACK_ERROR);
 196:..\src/command_processing.c ****             break;
 488              		.loc 1 196 0
 489 04e8 B1E0     		b	.L1
 490              	.L40:
 195:..\src/command_processing.c ****             break;
 491              		.loc 1 195 0
ARM GAS  C:\Users\mgnocco\AppData\Local\Temp\cc5vWZGV.s 			page 27


 492 04ea 0020     		movs	r0, #0
 493 04ec FFF7FEFF 		bl	sendAcknowledgment
 494              		.loc 1 196 0
 495 04f0 ADE0     		b	.L1
 496              	.L10:
 197:..\src/command_processing.c **** 
 198:..\src/command_processing.c **** //=======================================================     CMD_RESTORE_PARAMS
 199:..\src/command_processing.c **** 
 200:..\src/command_processing.c ****         case CMD_RESTORE_PARAMS:
 201:..\src/command_processing.c ****             if(memRestore())
 497              		.loc 1 201 0
 498 04f2 FFF7FEFF 		bl	memRestore
 499 04f6 0346     		mov	r3, r0
 500 04f8 002B     		cmp	r3, #0
 501 04fa 03D0     		beq	.L42
 202:..\src/command_processing.c ****                 sendAcknowledgment(ACK_OK);
 502              		.loc 1 202 0
 503 04fc 0120     		movs	r0, #1
 504 04fe FFF7FEFF 		bl	sendAcknowledgment
 203:..\src/command_processing.c ****             else
 204:..\src/command_processing.c ****                 sendAcknowledgment(ACK_ERROR);
 205:..\src/command_processing.c ****             break;
 505              		.loc 1 205 0
 506 0502 A4E0     		b	.L1
 507              	.L42:
 204:..\src/command_processing.c ****             break;
 508              		.loc 1 204 0
 509 0504 0020     		movs	r0, #0
 510 0506 FFF7FEFF 		bl	sendAcknowledgment
 511              		.loc 1 205 0
 512 050a A0E0     		b	.L1
 513              	.L13:
 206:..\src/command_processing.c **** 
 207:..\src/command_processing.c **** //=============================================================     CMD_INIT_MEM
 208:..\src/command_processing.c **** 
 209:..\src/command_processing.c ****         case CMD_INIT_MEM:            
 210:..\src/command_processing.c ****             if(memInit())
 514              		.loc 1 210 0
 515 050c FFF7FEFF 		bl	memInit
 516 0510 0346     		mov	r3, r0
 517 0512 002B     		cmp	r3, #0
 518 0514 03D0     		beq	.L44
 211:..\src/command_processing.c ****                 sendAcknowledgment(ACK_OK);
 519              		.loc 1 211 0
 520 0516 0120     		movs	r0, #1
 521 0518 FFF7FEFF 		bl	sendAcknowledgment
 212:..\src/command_processing.c ****             else
 213:..\src/command_processing.c ****                 sendAcknowledgment(ACK_ERROR);
 214:..\src/command_processing.c ****             break;
 522              		.loc 1 214 0
 523 051c 97E0     		b	.L1
 524              	.L44:
 213:..\src/command_processing.c ****             break;
 525              		.loc 1 213 0
 526 051e 0020     		movs	r0, #0
 527 0520 FFF7FEFF 		bl	sendAcknowledgment
 528              		.loc 1 214 0
ARM GAS  C:\Users\mgnocco\AppData\Local\Temp\cc5vWZGV.s 			page 28


 529 0524 93E0     		b	.L1
 530              	.L12:
 215:..\src/command_processing.c **** 
 216:..\src/command_processing.c **** //===========================================================     CMD_BOOTLOADER
 217:..\src/command_processing.c **** 
 218:..\src/command_processing.c ****         case CMD_BOOTLOADER:
 219:..\src/command_processing.c ****             //Not sure if ACK_OK is correct, should check
 220:..\src/command_processing.c ****             sendAcknowledgment(ACK_OK);
 531              		.loc 1 220 0
 532 0526 0120     		movs	r0, #1
 533 0528 FFF7FEFF 		bl	sendAcknowledgment
 221:..\src/command_processing.c ****             CyDelay(1000);
 534              		.loc 1 221 0
 535 052c 4FF47A70 		mov	r0, #1000
 536 0530 FFF7FEFF 		bl	CyDelay
 222:..\src/command_processing.c ****             FTDI_ENABLE_Write(0x00);
 537              		.loc 1 222 0
 538 0534 0020     		movs	r0, #0
 539 0536 FFF7FEFF 		bl	FTDI_ENABLE_Write
 223:..\src/command_processing.c ****             CyDelay(1000);
 540              		.loc 1 223 0
 541 053a 4FF47A70 		mov	r0, #1000
 542 053e FFF7FEFF 		bl	CyDelay
 224:..\src/command_processing.c ****             Bootloadable_Load();
 543              		.loc 1 224 0
 544 0542 FFF7FEFF 		bl	Bootloadable_Load
 225:..\src/command_processing.c ****             break;
 545              		.loc 1 225 0
 546 0546 82E0     		b	.L1
 547              	.L15:
 226:..\src/command_processing.c **** 
 227:..\src/command_processing.c **** //============================================================     CMD_HAND_CALIBRATE
 228:..\src/command_processing.c **** 
 229:..\src/command_processing.c ****         case CMD_HAND_CALIBRATE:
 230:..\src/command_processing.c ****             calib.speed = (int16)(g_rx.buffer[1]<<8 | g_rx.buffer[2]);
 548              		.loc 1 230 0
 549 0548 434B     		ldr	r3, .L56+4
 550 054a 5B78     		ldrb	r3, [r3, #1]	@ zero_extendqisi2
 551 054c 1B02     		lsls	r3, r3, #8
 552 054e 1AB2     		sxth	r2, r3
 553 0550 414B     		ldr	r3, .L56+4
 554 0552 9B78     		ldrb	r3, [r3, #2]	@ zero_extendqisi2
 555 0554 1BB2     		sxth	r3, r3
 556 0556 1343     		orrs	r3, r3, r2
 557 0558 1AB2     		sxth	r2, r3
 558 055a 404B     		ldr	r3, .L56+8
 559 055c 5A80     		strh	r2, [r3, #2]	@ movhi
 231:..\src/command_processing.c ****             calib.repetitions = (int16)(g_rx.buffer[3]<<8 | g_rx.buffer[4]);
 560              		.loc 1 231 0
 561 055e 3E4B     		ldr	r3, .L56+4
 562 0560 DB78     		ldrb	r3, [r3, #3]	@ zero_extendqisi2
 563 0562 1B02     		lsls	r3, r3, #8
 564 0564 1AB2     		sxth	r2, r3
 565 0566 3C4B     		ldr	r3, .L56+4
 566 0568 1B79     		ldrb	r3, [r3, #4]	@ zero_extendqisi2
 567 056a 1BB2     		sxth	r3, r3
 568 056c 1343     		orrs	r3, r3, r2
ARM GAS  C:\Users\mgnocco\AppData\Local\Temp\cc5vWZGV.s 			page 29


 569 056e 1AB2     		sxth	r2, r3
 570 0570 3A4B     		ldr	r3, .L56+8
 571 0572 9A80     		strh	r2, [r3, #4]	@ movhi
 232:..\src/command_processing.c ****             
 233:..\src/command_processing.c ****             if(calib.speed == -1 && calib.repetitions == -1) {
 572              		.loc 1 233 0
 573 0574 394B     		ldr	r3, .L56+8
 574 0576 B3F90230 		ldrsh	r3, [r3, #2]
 575 057a B3F1FF3F 		cmp	r3, #-1
 576 057e 0FD1     		bne	.L46
 577              		.loc 1 233 0 is_stmt 0 discriminator 1
 578 0580 364B     		ldr	r3, .L56+8
 579 0582 B3F90430 		ldrsh	r3, [r3, #4]
 580 0586 B3F1FF3F 		cmp	r3, #-1
 581 058a 09D1     		bne	.L46
 234:..\src/command_processing.c ****                 calib.enabled = FALSE;
 582              		.loc 1 234 0 is_stmt 1
 583 058c 334B     		ldr	r3, .L56+8
 584 058e 0022     		movs	r2, #0
 585 0590 1A70     		strb	r2, [r3]
 235:..\src/command_processing.c ****                 calib.speed = 0;
 586              		.loc 1 235 0
 587 0592 324B     		ldr	r3, .L56+8
 588 0594 0022     		movs	r2, #0
 589 0596 5A80     		strh	r2, [r3, #2]	@ movhi
 236:..\src/command_processing.c ****                 calib.repetitions = 0;
 590              		.loc 1 236 0
 591 0598 304B     		ldr	r3, .L56+8
 592 059a 0022     		movs	r2, #0
 593 059c 9A80     		strh	r2, [r3, #4]	@ movhi
 237:..\src/command_processing.c ****                 break;
 594              		.loc 1 237 0
 595 059e 56E0     		b	.L1
 596              	.L46:
 238:..\src/command_processing.c ****             }
 239:..\src/command_processing.c ****             // Speed & repetitions saturations
 240:..\src/command_processing.c ****             if (calib.speed < 0) {
 597              		.loc 1 240 0
 598 05a0 2E4B     		ldr	r3, .L56+8
 599 05a2 B3F90230 		ldrsh	r3, [r3, #2]
 600 05a6 002B     		cmp	r3, #0
 601 05a8 03DA     		bge	.L47
 241:..\src/command_processing.c ****                 calib.speed = 0;
 602              		.loc 1 241 0
 603 05aa 2C4B     		ldr	r3, .L56+8
 604 05ac 0022     		movs	r2, #0
 605 05ae 5A80     		strh	r2, [r3, #2]	@ movhi
 606 05b0 07E0     		b	.L48
 607              	.L47:
 242:..\src/command_processing.c ****             } else if (calib.speed > 200) {
 608              		.loc 1 242 0
 609 05b2 2A4B     		ldr	r3, .L56+8
 610 05b4 B3F90230 		ldrsh	r3, [r3, #2]
 611 05b8 C82B     		cmp	r3, #200
 612 05ba 02DD     		ble	.L48
 243:..\src/command_processing.c ****                 calib.speed = 200;
 613              		.loc 1 243 0
ARM GAS  C:\Users\mgnocco\AppData\Local\Temp\cc5vWZGV.s 			page 30


 614 05bc 274B     		ldr	r3, .L56+8
 615 05be C822     		movs	r2, #200
 616 05c0 5A80     		strh	r2, [r3, #2]	@ movhi
 617              	.L48:
 244:..\src/command_processing.c ****             }
 245:..\src/command_processing.c ****             if (calib.repetitions < 0) {
 618              		.loc 1 245 0
 619 05c2 264B     		ldr	r3, .L56+8
 620 05c4 B3F90430 		ldrsh	r3, [r3, #4]
 621 05c8 002B     		cmp	r3, #0
 622 05ca 02DA     		bge	.L49
 246:..\src/command_processing.c ****                 calib.repetitions = 0;
 623              		.loc 1 246 0
 624 05cc 234B     		ldr	r3, .L56+8
 625 05ce 0022     		movs	r2, #0
 626 05d0 9A80     		strh	r2, [r3, #4]	@ movhi
 627              	.L49:
 247:..\src/command_processing.c ****             } else if (calib.repetitions > 32767) {
 248:..\src/command_processing.c ****                 calib.repetitions = 32767;
 249:..\src/command_processing.c ****             }
 250:..\src/command_processing.c ****             
 251:..\src/command_processing.c ****             g_refNew[0].pos = 0;                    // SoftHand is on motor 1
 628              		.loc 1 251 0
 629 05d2 234B     		ldr	r3, .L56+12
 630 05d4 0022     		movs	r2, #0
 631 05d6 1A60     		str	r2, [r3]
 252:..\src/command_processing.c ****             calib.enabled = TRUE;
 632              		.loc 1 252 0
 633 05d8 204B     		ldr	r3, .L56+8
 634 05da 0122     		movs	r2, #1
 635 05dc 1A70     		strb	r2, [r3]
 253:..\src/command_processing.c ****          
 254:..\src/command_processing.c ****             sendAcknowledgment(ACK_OK);
 636              		.loc 1 254 0
 637 05de 0120     		movs	r0, #1
 638 05e0 FFF7FEFF 		bl	sendAcknowledgment
 255:..\src/command_processing.c ****             break;
 639              		.loc 1 255 0
 640 05e4 33E0     		b	.L1
 641              	.L29:
 256:..\src/command_processing.c ****             
 257:..\src/command_processing.c **** //=====================================================     CMD_GET_IMU_READINGS
 258:..\src/command_processing.c **** 
 259:..\src/command_processing.c ****         case CMD_GET_IMU_READINGS:
 260:..\src/command_processing.c ****             cmd_get_imu_readings();
 642              		.loc 1 260 0
 643 05e6 FFF7FEFF 		bl	cmd_get_imu_readings
 261:..\src/command_processing.c ****             break; 
 644              		.loc 1 261 0
 645 05ea 30E0     		b	.L1
 646              	.L30:
 262:..\src/command_processing.c ****             
 263:..\src/command_processing.c **** //=====================================================     CMD_GET_IMU_PARAM
 264:..\src/command_processing.c **** 
 265:..\src/command_processing.c ****         case CMD_GET_IMU_PARAM:
 266:..\src/command_processing.c ****             get_IMU_param_list( __REV16(*((uint16 *) &g_rx.buffer[1])) );
 647              		.loc 1 266 0
ARM GAS  C:\Users\mgnocco\AppData\Local\Temp\cc5vWZGV.s 			page 31


 648 05ec 194B     		ldr	r3, .L56
 649 05ee 1B88     		ldrh	r3, [r3]
 650 05f0 7B62     		str	r3, [r7, #36]
 651              	.LBB16:
 652              	.LBB17:
 792:Generated_Source\PSoC5/cmsis_gcc.h ****   return(result);
 653              		.loc 2 792 0
 654 05f2 7B6A     		ldr	r3, [r7, #36]
 655              		.syntax unified
 656              	@ 792 "Generated_Source\PSoC5/cmsis_gcc.h" 1
 657 05f4 5BBA     		rev16 r3, r3
 658              	@ 0 "" 2
 659              		.thumb
 660              		.syntax unified
 661 05f6 FB60     		str	r3, [r7, #12]
 662              		.loc 2 793 0
 663 05f8 FB68     		ldr	r3, [r7, #12]
 664              	.LBE17:
 665              	.LBE16:
 666              		.loc 1 266 0
 667 05fa 9BB2     		uxth	r3, r3
 668 05fc 1846     		mov	r0, r3
 669 05fe FFF7FEFF 		bl	get_IMU_param_list
 267:..\src/command_processing.c ****             break;             
 670              		.loc 1 267 0
 671 0602 24E0     		b	.L1
 672              	.L31:
 268:..\src/command_processing.c ****             
 269:..\src/command_processing.c **** //=====================================================     CMD_GET_ENCODER_CONF
 270:..\src/command_processing.c **** 
 271:..\src/command_processing.c ****         case CMD_GET_ENCODER_CONF:
 272:..\src/command_processing.c ****             cmd_get_encoder_map();
 673              		.loc 1 272 0
 674 0604 FFF7FEFF 		bl	cmd_get_encoder_map
 273:..\src/command_processing.c ****             break; 
 675              		.loc 1 273 0
 676 0608 21E0     		b	.L1
 677              	.L32:
 274:..\src/command_processing.c **** 
 275:..\src/command_processing.c **** //=====================================================     CMD_GET_ENCODER_RAW
 276:..\src/command_processing.c **** 
 277:..\src/command_processing.c ****         case CMD_GET_ENCODER_RAW:
 278:..\src/command_processing.c ****             cmd_get_encoder_raw();
 678              		.loc 1 278 0
 679 060a FFF7FEFF 		bl	cmd_get_encoder_raw
 279:..\src/command_processing.c ****             break; 
 680              		.loc 1 279 0
 681 060e 1EE0     		b	.L1
 682              	.L33:
 280:..\src/command_processing.c **** 
 281:..\src/command_processing.c **** //=====================================================     CMD_GET_ADC_CONF
 282:..\src/command_processing.c **** 
 283:..\src/command_processing.c ****         case CMD_GET_ADC_CONF:
 284:..\src/command_processing.c ****             cmd_get_ADC_map();
 683              		.loc 1 284 0
 684 0610 FFF7FEFF 		bl	cmd_get_ADC_map
 285:..\src/command_processing.c ****             break; 
ARM GAS  C:\Users\mgnocco\AppData\Local\Temp\cc5vWZGV.s 			page 32


 685              		.loc 1 285 0
 686 0614 1BE0     		b	.L1
 687              	.L34:
 286:..\src/command_processing.c ****             
 287:..\src/command_processing.c **** //=====================================================     CMD_GET_ADC_RAW
 288:..\src/command_processing.c **** 
 289:..\src/command_processing.c ****         case CMD_GET_ADC_RAW:
 290:..\src/command_processing.c ****             cmd_get_ADC_raw();
 688              		.loc 1 290 0
 689 0616 FFF7FEFF 		bl	cmd_get_ADC_raw
 291:..\src/command_processing.c ****             break; 
 690              		.loc 1 291 0
 691 061a 18E0     		b	.L1
 692              	.L35:
 292:..\src/command_processing.c ****             
 293:..\src/command_processing.c **** //=====================================================     CMD_GET_SD_SINGLE_FILE
 294:..\src/command_processing.c **** 
 295:..\src/command_processing.c ****         case CMD_GET_SD_SINGLE_FILE:
 296:..\src/command_processing.c ****             cmd_get_SD_file( __REV16(*((uint16 *) &g_rx.buffer[1])) );
 693              		.loc 1 296 0
 694 061c 0D4B     		ldr	r3, .L56
 695 061e 1B88     		ldrh	r3, [r3]
 696 0620 3B62     		str	r3, [r7, #32]
 697              	.LBB18:
 698              	.LBB19:
 792:Generated_Source\PSoC5/cmsis_gcc.h ****   return(result);
 699              		.loc 2 792 0
 700 0622 3B6A     		ldr	r3, [r7, #32]
 701              		.syntax unified
 702              	@ 792 "Generated_Source\PSoC5/cmsis_gcc.h" 1
 703 0624 5BBA     		rev16 r3, r3
 704              	@ 0 "" 2
 705              		.thumb
 706              		.syntax unified
 707 0626 BB60     		str	r3, [r7, #8]
 708              		.loc 2 793 0
 709 0628 BB68     		ldr	r3, [r7, #8]
 710              	.LBE19:
 711              	.LBE18:
 712              		.loc 1 296 0
 713 062a 9BB2     		uxth	r3, r3
 714 062c 1846     		mov	r0, r3
 715 062e FFF7FEFF 		bl	cmd_get_SD_file
 297:..\src/command_processing.c ****             break;   
 716              		.loc 1 297 0
 717 0632 0CE0     		b	.L1
 718              	.L36:
 298:..\src/command_processing.c ****             
 299:..\src/command_processing.c **** //=====================================================     CMD_REMOVE_SD_SINGLE_FILE
 300:..\src/command_processing.c **** 
 301:..\src/command_processing.c ****         case CMD_REMOVE_SD_SINGLE_FILE:
 302:..\src/command_processing.c ****             cmd_remove_SD_file( __REV16(*((uint16 *) &g_rx.buffer[1])) );
 719              		.loc 1 302 0
 720 0634 074B     		ldr	r3, .L56
 721 0636 1B88     		ldrh	r3, [r3]
 722 0638 FB61     		str	r3, [r7, #28]
 723              	.LBB20:
ARM GAS  C:\Users\mgnocco\AppData\Local\Temp\cc5vWZGV.s 			page 33


 724              	.LBB21:
 792:Generated_Source\PSoC5/cmsis_gcc.h ****   return(result);
 725              		.loc 2 792 0
 726 063a FB69     		ldr	r3, [r7, #28]
 727              		.syntax unified
 728              	@ 792 "Generated_Source\PSoC5/cmsis_gcc.h" 1
 729 063c 5BBA     		rev16 r3, r3
 730              	@ 0 "" 2
 731              		.thumb
 732              		.syntax unified
 733 063e 7B60     		str	r3, [r7, #4]
 734              		.loc 2 793 0
 735 0640 7B68     		ldr	r3, [r7, #4]
 736              	.LBE21:
 737              	.LBE20:
 738              		.loc 1 302 0
 739 0642 9BB2     		uxth	r3, r3
 740 0644 1846     		mov	r0, r3
 741 0646 FFF7FEFF 		bl	cmd_remove_SD_file
 303:..\src/command_processing.c ****             break;               
 742              		.loc 1 303 0
 743 064a 00E0     		b	.L1
 744              	.L53:
 304:..\src/command_processing.c ****             
 305:..\src/command_processing.c **** //=========================================================== ALL OTHER COMMANDS
 306:..\src/command_processing.c ****         default:
 307:..\src/command_processing.c ****             break;
 745              		.loc 1 307 0
 746 064c 00BF     		nop
 747              	.L1:
 308:..\src/command_processing.c **** 
 309:..\src/command_processing.c ****     }
 310:..\src/command_processing.c **** }  
 748              		.loc 1 310 0
 749 064e 3037     		adds	r7, r7, #48
 750              		.cfi_def_cfa_offset 8
 751 0650 BD46     		mov	sp, r7
 752              		.cfi_def_cfa_register 13
 753              		@ sp needed
 754 0652 80BD     		pop	{r7, pc}
 755              	.L57:
 756              		.align	2
 757              	.L56:
 758 0654 01000000 		.word	g_rx+1
 759 0658 00000000 		.word	g_rx
 760 065c 00000000 		.word	calib
 761 0660 00000000 		.word	g_refNew
 762              		.cfi_endproc
 763              	.LFE64:
 764              		.size	commProcess, .-commProcess
 765              		.section	.text.infoSend,"ax",%progbits
 766              		.align	2
 767              		.global	infoSend
 768              		.thumb
 769              		.thumb_func
 770              		.type	infoSend, %function
 771              	infoSend:
ARM GAS  C:\Users\mgnocco\AppData\Local\Temp\cc5vWZGV.s 			page 34


 772              	.LFB65:
 311:..\src/command_processing.c **** 
 312:..\src/command_processing.c **** //==============================================================================
 313:..\src/command_processing.c **** //                                                                     INFO SEND
 314:..\src/command_processing.c **** //==============================================================================
 315:..\src/command_processing.c **** 
 316:..\src/command_processing.c **** void infoSend(void){
 773              		.loc 1 316 0
 774              		.cfi_startproc
 775              		@ args = 0, pretend = 0, frame = 1504
 776              		@ frame_needed = 1, uses_anonymous_args = 0
 777 0000 80B5     		push	{r7, lr}
 778              		.cfi_def_cfa_offset 8
 779              		.cfi_offset 7, -8
 780              		.cfi_offset 14, -4
 781 0002 ADF5BC6D 		sub	sp, sp, #1504
 782              		.cfi_def_cfa_offset 1512
 783 0006 00AF     		add	r7, sp, #0
 784              		.cfi_def_cfa_register 7
 317:..\src/command_processing.c ****     char packet_string[1500];
 318:..\src/command_processing.c ****     
 319:..\src/command_processing.c ****     prepare_generic_info(packet_string);
 785              		.loc 1 319 0
 786 0008 3B1D     		adds	r3, r7, #4
 787 000a 1846     		mov	r0, r3
 788 000c FFF7FEFF 		bl	prepare_generic_info
 320:..\src/command_processing.c ****     UART_RS485_PutString(packet_string);
 789              		.loc 1 320 0
 790 0010 3B1D     		adds	r3, r7, #4
 791 0012 1846     		mov	r0, r3
 792 0014 FFF7FEFF 		bl	UART_RS485_PutString
 321:..\src/command_processing.c **** }
 793              		.loc 1 321 0
 794 0018 00BF     		nop
 795 001a 07F5BC67 		add	r7, r7, #1504
 796              		.cfi_def_cfa_offset 8
 797 001e BD46     		mov	sp, r7
 798              		.cfi_def_cfa_register 13
 799              		@ sp needed
 800 0020 80BD     		pop	{r7, pc}
 801              		.cfi_endproc
 802              	.LFE65:
 803              		.size	infoSend, .-infoSend
 804 0022 00BF     		.section	.text.infoGet,"ax",%progbits
 805              		.align	2
 806              		.global	infoGet
 807              		.thumb
 808              		.thumb_func
 809              		.type	infoGet, %function
 810              	infoGet:
 811              	.LFB66:
 322:..\src/command_processing.c **** 
 323:..\src/command_processing.c **** 
 324:..\src/command_processing.c **** //==============================================================================
 325:..\src/command_processing.c **** //                                                              COMMAND GET INFO
 326:..\src/command_processing.c **** //==============================================================================
 327:..\src/command_processing.c **** 
ARM GAS  C:\Users\mgnocco\AppData\Local\Temp\cc5vWZGV.s 			page 35


 328:..\src/command_processing.c **** void infoGet(uint16 info_type) {
 812              		.loc 1 328 0
 813              		.cfi_startproc
 814              		@ args = 0, pretend = 0, frame = 24008
 815              		@ frame_needed = 1, uses_anonymous_args = 0
 816 0000 80B5     		push	{r7, lr}
 817              		.cfi_def_cfa_offset 8
 818              		.cfi_offset 7, -8
 819              		.cfi_offset 14, -4
 820 0002 ADF5BB4D 		sub	sp, sp, #23936
 821              		.cfi_def_cfa_offset 23944
 822 0006 92B0     		sub	sp, sp, #72
 823              		.cfi_def_cfa_offset 24016
 824 0008 00AF     		add	r7, sp, #0
 825              		.cfi_def_cfa_register 7
 826 000a 0246     		mov	r2, r0
 827 000c 07F14803 		add	r3, r7, #72
 828 0010 423B     		subs	r3, r3, #66
 829 0012 1A80     		strh	r2, [r3]	@ movhi
 329:..\src/command_processing.c ****     char CYDATA packet_string[4000] = "";
 830              		.loc 1 329 0
 831 0014 07F59C43 		add	r3, r7, #19968
 832 0018 03F12803 		add	r3, r3, #40
 833 001c 0022     		movs	r2, #0
 834 001e 1A60     		str	r2, [r3]
 835 0020 0433     		adds	r3, r3, #4
 836 0022 40F69C72 		movw	r2, #3996
 837 0026 0021     		movs	r1, #0
 838 0028 1846     		mov	r0, r3
 839 002a FFF7FEFF 		bl	memset
 330:..\src/command_processing.c ****     char CYDATA str_sd_data[20000] = "";
 840              		.loc 1 330 0
 841 002e 07F14803 		add	r3, r7, #72
 842 0032 403B     		subs	r3, r3, #64
 843 0034 0022     		movs	r2, #0
 844 0036 1A60     		str	r2, [r3]
 845 0038 0433     		adds	r3, r3, #4
 846 003a 44F61C62 		movw	r2, #19996
 847 003e 0021     		movs	r1, #0
 848 0040 1846     		mov	r0, r3
 849 0042 FFF7FEFF 		bl	memset
 331:..\src/command_processing.c ****     //==================================     choose info type and prepare string
 332:..\src/command_processing.c **** 
 333:..\src/command_processing.c ****     switch (info_type) {
 850              		.loc 1 333 0
 851 0046 07F14803 		add	r3, r7, #72
 852 004a 423B     		subs	r3, r3, #66
 853 004c 1B88     		ldrh	r3, [r3]
 854 004e 062B     		cmp	r3, #6
 855 0050 7DD8     		bhi	.L70
 856 0052 01A2     		adr	r2, .L62
 857 0054 52F823F0 		ldr	pc, [r2, r3, lsl #2]
 858              		.p2align 2
 859              	.L62:
 860 0058 75000000 		.word	.L61+1
 861 005c 97000000 		.word	.L63+1
 862 0060 B9000000 		.word	.L64+1
ARM GAS  C:\Users\mgnocco\AppData\Local\Temp\cc5vWZGV.s 			page 36


 863 0064 E1000000 		.word	.L65+1
 864 0068 03010000 		.word	.L66+1
 865 006c 21010000 		.word	.L67+1
 866 0070 27010000 		.word	.L68+1
 867              		.p2align 1
 868              	.L61:
 334:..\src/command_processing.c ****         case INFO_ALL:
 335:..\src/command_processing.c ****             prepare_generic_info(packet_string);
 869              		.loc 1 335 0
 870 0074 07F59C43 		add	r3, r7, #19968
 871 0078 03F12803 		add	r3, r3, #40
 872 007c 1846     		mov	r0, r3
 873 007e FFF7FEFF 		bl	prepare_generic_info
 336:..\src/command_processing.c ****             UART_RS485_ClearTxBuffer(); 
 874              		.loc 1 336 0
 875 0082 FFF7FEFF 		bl	UART_RS485_ClearTxBuffer
 337:..\src/command_processing.c ****             UART_RS485_PutString(packet_string);
 876              		.loc 1 337 0
 877 0086 07F59C43 		add	r3, r7, #19968
 878 008a 03F12803 		add	r3, r3, #40
 879 008e 1846     		mov	r0, r3
 880 0090 FFF7FEFF 		bl	UART_RS485_PutString
 338:..\src/command_processing.c ****             break;
 881              		.loc 1 338 0
 882 0094 5CE0     		b	.L69
 883              	.L63:
 339:..\src/command_processing.c ****         case CYCLES_INFO:
 340:..\src/command_processing.c ****             prepare_counter_info(packet_string);
 884              		.loc 1 340 0
 885 0096 07F59C43 		add	r3, r7, #19968
 886 009a 03F12803 		add	r3, r3, #40
 887 009e 1846     		mov	r0, r3
 888 00a0 FFF7FEFF 		bl	prepare_counter_info
 341:..\src/command_processing.c ****             UART_RS485_ClearTxBuffer();
 889              		.loc 1 341 0
 890 00a4 FFF7FEFF 		bl	UART_RS485_ClearTxBuffer
 342:..\src/command_processing.c ****             UART_RS485_PutString(packet_string);
 891              		.loc 1 342 0
 892 00a8 07F59C43 		add	r3, r7, #19968
 893 00ac 03F12803 		add	r3, r3, #40
 894 00b0 1846     		mov	r0, r3
 895 00b2 FFF7FEFF 		bl	UART_RS485_PutString
 343:..\src/command_processing.c ****             break;
 896              		.loc 1 343 0
 897 00b6 4BE0     		b	.L69
 898              	.L64:
 344:..\src/command_processing.c ****         case GET_SD_PARAM:
 345:..\src/command_processing.c ****             Read_SD_Closed_File(sdParam, packet_string, sizeof(packet_string));
 899              		.loc 1 345 0
 900 00b8 07F59C43 		add	r3, r7, #19968
 901 00bc 03F12803 		add	r3, r3, #40
 902 00c0 4FF47A62 		mov	r2, #4000
 903 00c4 1946     		mov	r1, r3
 904 00c6 2548     		ldr	r0, .L71
 905 00c8 FFF7FEFF 		bl	Read_SD_Closed_File
 346:..\src/command_processing.c ****             UART_RS485_ClearTxBuffer();
 906              		.loc 1 346 0
ARM GAS  C:\Users\mgnocco\AppData\Local\Temp\cc5vWZGV.s 			page 37


 907 00cc FFF7FEFF 		bl	UART_RS485_ClearTxBuffer
 347:..\src/command_processing.c ****             UART_RS485_PutString(packet_string);
 908              		.loc 1 347 0
 909 00d0 07F59C43 		add	r3, r7, #19968
 910 00d4 03F12803 		add	r3, r3, #40
 911 00d8 1846     		mov	r0, r3
 912 00da FFF7FEFF 		bl	UART_RS485_PutString
 348:..\src/command_processing.c ****             break;
 913              		.loc 1 348 0
 914 00de 37E0     		b	.L69
 915              	.L65:
 349:..\src/command_processing.c ****         case GET_SD_DATA:
 350:..\src/command_processing.c ****             Read_SD_Current_Data(str_sd_data, sizeof(str_sd_data));
 916              		.loc 1 350 0
 917 00e0 07F14803 		add	r3, r7, #72
 918 00e4 403B     		subs	r3, r3, #64
 919 00e6 44F62061 		movw	r1, #20000
 920 00ea 1846     		mov	r0, r3
 921 00ec FFF7FEFF 		bl	Read_SD_Current_Data
 351:..\src/command_processing.c ****             UART_RS485_ClearTxBuffer();
 922              		.loc 1 351 0
 923 00f0 FFF7FEFF 		bl	UART_RS485_ClearTxBuffer
 352:..\src/command_processing.c ****             UART_RS485_PutString(str_sd_data);
 924              		.loc 1 352 0
 925 00f4 07F14803 		add	r3, r7, #72
 926 00f8 403B     		subs	r3, r3, #64
 927 00fa 1846     		mov	r0, r3
 928 00fc FFF7FEFF 		bl	UART_RS485_PutString
 353:..\src/command_processing.c ****             break;
 929              		.loc 1 353 0
 930 0100 26E0     		b	.L69
 931              	.L66:
 354:..\src/command_processing.c ****         case GET_SD_FS_TREE:
 355:..\src/command_processing.c ****             Get_SD_FS(str_sd_data);
 932              		.loc 1 355 0
 933 0102 07F14803 		add	r3, r7, #72
 934 0106 403B     		subs	r3, r3, #64
 935 0108 1846     		mov	r0, r3
 936 010a FFF7FEFF 		bl	Get_SD_FS
 356:..\src/command_processing.c ****             UART_RS485_ClearTxBuffer();
 937              		.loc 1 356 0
 938 010e FFF7FEFF 		bl	UART_RS485_ClearTxBuffer
 357:..\src/command_processing.c ****             UART_RS485_PutString(str_sd_data);
 939              		.loc 1 357 0
 940 0112 07F14803 		add	r3, r7, #72
 941 0116 403B     		subs	r3, r3, #64
 942 0118 1846     		mov	r0, r3
 943 011a FFF7FEFF 		bl	UART_RS485_PutString
 358:..\src/command_processing.c ****             break;
 944              		.loc 1 358 0
 945 011e 17E0     		b	.L69
 946              	.L67:
 359:..\src/command_processing.c ****         case GET_SD_EMG_HIST:
 360:..\src/command_processing.c ****             // Send every single byte inside the function, since it could be a large file to send
 361:..\src/command_processing.c ****             Read_SD_EMG_History_Data();
 947              		.loc 1 361 0
 948 0120 FFF7FEFF 		bl	Read_SD_EMG_History_Data
ARM GAS  C:\Users\mgnocco\AppData\Local\Temp\cc5vWZGV.s 			page 38


 362:..\src/command_processing.c ****             break;
 949              		.loc 1 362 0
 950 0124 14E0     		b	.L69
 951              	.L68:
 363:..\src/command_processing.c ****         case GET_SD_R01_SUMM:
 364:..\src/command_processing.c ****             Read_SD_Closed_File(sdR01File, packet_string, sizeof(packet_string));
 952              		.loc 1 364 0
 953 0126 07F59C43 		add	r3, r7, #19968
 954 012a 03F12803 		add	r3, r3, #40
 955 012e 4FF47A62 		mov	r2, #4000
 956 0132 1946     		mov	r1, r3
 957 0134 0A48     		ldr	r0, .L71+4
 958 0136 FFF7FEFF 		bl	Read_SD_Closed_File
 365:..\src/command_processing.c ****             UART_RS485_ClearTxBuffer();
 959              		.loc 1 365 0
 960 013a FFF7FEFF 		bl	UART_RS485_ClearTxBuffer
 366:..\src/command_processing.c ****             UART_RS485_PutString(packet_string);
 961              		.loc 1 366 0
 962 013e 07F59C43 		add	r3, r7, #19968
 963 0142 03F12803 		add	r3, r3, #40
 964 0146 1846     		mov	r0, r3
 965 0148 FFF7FEFF 		bl	UART_RS485_PutString
 367:..\src/command_processing.c ****             break;            
 966              		.loc 1 367 0
 967 014c 00E0     		b	.L69
 968              	.L70:
 368:..\src/command_processing.c ****         default:
 369:..\src/command_processing.c ****             break;
 969              		.loc 1 369 0
 970 014e 00BF     		nop
 971              	.L69:
 370:..\src/command_processing.c ****     }
 371:..\src/command_processing.c **** }
 972              		.loc 1 371 0 discriminator 1
 973 0150 00BF     		nop
 974 0152 07F5BB47 		add	r7, r7, #23936
 975 0156 4837     		adds	r7, r7, #72
 976              		.cfi_def_cfa_offset 8
 977 0158 BD46     		mov	sp, r7
 978              		.cfi_def_cfa_register 13
 979              		@ sp needed
 980 015a 80BD     		pop	{r7, pc}
 981              	.L72:
 982              		.align	2
 983              	.L71:
 984 015c 00000000 		.word	sdParam
 985 0160 00000000 		.word	sdR01File
 986              		.cfi_endproc
 987              	.LFE66:
 988              		.size	infoGet, .-infoGet
 989              		.global	__aeabi_i2f
 990              		.global	__aeabi_fdiv
 991              		.section	.rodata
 992              		.align	2
 993              	.LC88:
 994 0000 20557362 		.ascii	" Usb\000"
 994      00
ARM GAS  C:\Users\mgnocco\AppData\Local\Temp\cc5vWZGV.s 			page 39


 995 0005 000000   		.align	2
 996              	.LC89:
 997 0008 2048616E 		.ascii	" Handle\000"
 997      646C6500 
 998              		.align	2
 999              	.LC90:
 1000 0010 20454D47 		.ascii	" EMG proportional\000"
 1000      2070726F 
 1000      706F7274 
 1000      696F6E61 
 1000      6C00
 1001 0022 0000     		.align	2
 1002              	.LC91:
 1003 0024 20454D47 		.ascii	" EMG integral\000"
 1003      20696E74 
 1003      65677261 
 1003      6C00
 1004 0032 0000     		.align	2
 1005              	.LC92:
 1006 0034 20454D47 		.ascii	" EMG FCFS\000"
 1006      20464346 
 1006      5300
 1007 003e 0000     		.align	2
 1008              	.LC93:
 1009 0040 20454D47 		.ascii	" EMG FCFS Advanced\000"
 1009      20464346 
 1009      53204164 
 1009      76616E63 
 1009      656400
 1010 0053 00       		.align	2
 1011              	.LC94:
 1012 0054 204A6F79 		.ascii	" Joystick\000"
 1012      73746963 
 1012      6B00
 1013 005e 0000     		.align	2
 1014              	.LC95:
 1015 0060 20454D47 		.ascii	" EMG proportional Normally Closed\000"
 1015      2070726F 
 1015      706F7274 
 1015      696F6E61 
 1015      6C204E6F 
 1016 0082 0000     		.align	2
 1017              	.LC96:
 1018 0084 20506F73 		.ascii	" Position\000"
 1018      6974696F 
 1018      6E00
 1019 008e 0000     		.align	2
 1020              	.LC97:
 1021 0090 2050574D 		.ascii	" PWM\000"
 1021      00
 1022 0095 000000   		.align	2
 1023              	.LC98:
 1024 0098 20437572 		.ascii	" Current\000"
 1024      72656E74 
 1024      00
 1025 00a1 000000   		.align	2
 1026              	.LC99:
ARM GAS  C:\Users\mgnocco\AppData\Local\Temp\cc5vWZGV.s 			page 40


 1027 00a4 20506F73 		.ascii	" Position and Current\000"
 1027      6974696F 
 1027      6E20616E 
 1027      64204375 
 1027      7272656E 
 1028 00ba 0000     		.align	2
 1029              	.LC100:
 1030 00bc 20594553 		.ascii	" YES\000\000"
 1030      0000
 1031 00c2 0000     		.align	2
 1032              	.LC101:
 1033 00c4 204E4F00 		.ascii	" NO\000\000"
 1033      00
 1034 00c9 000000   		.align	2
 1035              	.LC102:
 1036 00cc 20526967 		.ascii	" Right\000\000"
 1036      68740000 
 1037              		.align	2
 1038              	.LC103:
 1039 00d4 204C6566 		.ascii	" Left\000\000"
 1039      740000
 1040 00db 00       		.align	2
 1041              	.LC104:
 1042 00dc 204F4646 		.ascii	" OFF\000\000"
 1042      0000
 1043 00e2 0000     		.align	2
 1044              	.LC105:
 1045 00e4 204F4E00 		.ascii	" ON\000\000"
 1045      00
 1046 00e9 000000   		.align	2
 1047              	.LC106:
 1048 00ec 204E6F6E 		.ascii	" None\000\000"
 1048      650000
 1049 00f3 00       		.align	2
 1050              	.LC107:
 1051 00f4 2053442F 		.ascii	" SD/RTC board\000\000"
 1051      52544320 
 1051      626F6172 
 1051      640000
 1052 0103 00       		.align	2
 1053              	.LC108:
 1054 0104 20576946 		.ascii	" WiFi board [N/A]\000\000"
 1054      6920626F 
 1054      61726420 
 1054      5B4E2F41 
 1054      5D0000
 1055 0117 00       		.align	2
 1056              	.LC109:
 1057 0118 204F7468 		.ascii	" Other [N/A]\000\000"
 1057      6572205B 
 1057      4E2F415D 
 1057      0000
 1058 0126 0000     		.align	2
 1059              	.LC110:
 1060 0128 204C6F77 		.ascii	" Low\000\000"
 1060      0000
 1061 012e 0000     		.align	2
ARM GAS  C:\Users\mgnocco\AppData\Local\Temp\cc5vWZGV.s 			page 41


 1062              	.LC111:
 1063 0130 20486967 		.ascii	" High\000\000"
 1063      680000
 1064 0137 00       		.align	2
 1065              	.LC112:
 1066 0138 2047454E 		.ascii	" GENERIC USER\000\000"
 1066      45524943 
 1066      20555345 
 1066      520000
 1067 0147 00       		.align	2
 1068              	.LC113:
 1069 0148 204D4152 		.ascii	" MARIA\000\000"
 1069      49410000 
 1070              		.align	2
 1071              	.LC114:
 1072 0150 20523031 		.ascii	" R01\000\000"
 1072      0000
 1073 0156 0000     		.align	2
 1074              	.LC115:
 1075 0158 204D4333 		.ascii	" MC33887 (Standard)\000\000"
 1075      33383837 
 1075      20285374 
 1075      616E6461 
 1075      72642900 
 1076 016d 000000   		.align	2
 1077              	.LC116:
 1078 0170 20564E48 		.ascii	" VNH5019 (High power)\000\000"
 1078      35303139 
 1078      20284869 
 1078      67682070 
 1078      6F776572 
 1079 0187 00       		.align	2
 1080              	.LC117:
 1081 0188 20455343 		.ascii	" ESC (Brushless)\000\000"
 1081      20284272 
 1081      7573686C 
 1081      65737329 
 1081      0000
 1082 019a 0000     		.align	2
 1083              	.LC118:
 1084 019c 20534F46 		.ascii	" SOFTHAND PRO\000\000"
 1084      5448414E 
 1084      44205052 
 1084      4F0000
 1085 01ab 00       		.align	2
 1086              	.LC119:
 1087 01ac 2047454E 		.ascii	" GENERIC 2 MOTORS\000\000"
 1087      45524943 
 1087      2032204D 
 1087      4F544F52 
 1087      530000
 1088 01bf 00       		.align	2
 1089              	.LC120:
 1090 01c0 20414952 		.ascii	" AIR CHAMBERS\000\000"
 1090      20434841 
 1090      4D424552 
 1090      530000
ARM GAS  C:\Users\mgnocco\AppData\Local\Temp\cc5vWZGV.s 			page 42


 1091 01cf 00       		.align	2
 1092              	.LC121:
 1093 01d0 204F5454 		.ascii	" OTTOBOCK WRIST\000\000"
 1093      4F424F43 
 1093      4B205752 
 1093      49535400 
 1093      00
 1094 01e1 000000   		.align	2
 1095              	.LC122:
 1096 01e4 20534F46 		.ascii	" SOFTHAND 2 MOTORS\000\000"
 1096      5448414E 
 1096      44203220 
 1096      4D4F544F 
 1096      52530000 
 1097              		.align	2
 1098              	.LC123:
 1099 01f8 20466173 		.ascii	" Fast:syn2, Slow:syn1\000\000"
 1099      743A7379 
 1099      6E322C20 
 1099      536C6F77 
 1099      3A73796E 
 1100 020f 00       		.align	2
 1101              	.LC124:
 1102 0210 20466173 		.ascii	" Fast:wrist,Slow:hand\000\000"
 1102      743A7772 
 1102      6973742C 
 1102      536C6F77 
 1102      3A68616E 
 1103 0227 00       		.align	2
 1104              	.LC125:
 1105 0228 20536C6F 		.ascii	" Slow:syn2, Fast:syn1\000\000"
 1105      773A7379 
 1105      6E322C20 
 1105      46617374 
 1105      3A73796E 
 1106 023f 00       		.align	2
 1107              	.LC126:
 1108 0240 20536C6F 		.ascii	" Slow:wrist,Fast:hand\000\000"
 1108      773A7772 
 1108      6973742C 
 1108      46617374 
 1108      3A68616E 
 1109 0257 00       		.align	2
 1110              	.LC127:
 1111 0258 20436C6F 		.ascii	" Close:CW, Open:CCW\000\000"
 1111      73653A43 
 1111      572C204F 
 1111      70656E3A 
 1111      43435700 
 1112 026d 000000   		.align	2
 1113              	.LC128:
 1114 0270 20436C6F 		.ascii	" Close:CCW, Open:CW\000\000"
 1114      73653A43 
 1114      43572C20 
 1114      4F70656E 
 1114      3A435700 
 1115              		.section	.text.get_param_list,"ax",%progbits
ARM GAS  C:\Users\mgnocco\AppData\Local\Temp\cc5vWZGV.s 			page 43


 1116              		.align	2
 1117              		.global	get_param_list
 1118              		.thumb
 1119              		.thumb_func
 1120              		.type	get_param_list, %function
 1121              	get_param_list:
 1122              	.LFB67:
 372:..\src/command_processing.c **** 
 373:..\src/command_processing.c **** 
 374:..\src/command_processing.c **** //==============================================================================
 375:..\src/command_processing.c **** //                                                                GET PARAM LIST
 376:..\src/command_processing.c **** //==============================================================================
 377:..\src/command_processing.c **** 
 378:..\src/command_processing.c **** void get_param_list (uint8* VAR_P[NUM_OF_PARAMS], uint8 TYPES[NUM_OF_PARAMS], 
 379:..\src/command_processing.c ****                      uint8 NUM_ITEMS[NUM_OF_PARAMS], uint8 NUM_STRUCT[NUM_OF_PARAMS],
 380:..\src/command_processing.c ****                      uint8* NUM_MENU, const char* PARAMS_STR[NUM_OF_PARAMS], 
 381:..\src/command_processing.c ****                      uint8 CUSTOM_PARAM_GET[NUM_OF_PARAMS], const char* MENU_STR[NUM_OF_PARAMS_MENU
 1123              		.loc 1 381 0
 1124              		.cfi_startproc
 1125              		@ args = 16, pretend = 0, frame = 6104
 1126              		@ frame_needed = 1, uses_anonymous_args = 0
 1127 0000 F0B5     		push	{r4, r5, r6, r7, lr}
 1128              		.cfi_def_cfa_offset 20
 1129              		.cfi_offset 4, -20
 1130              		.cfi_offset 5, -16
 1131              		.cfi_offset 6, -12
 1132              		.cfi_offset 7, -8
 1133              		.cfi_offset 14, -4
 1134 0002 ADF5BE5D 		sub	sp, sp, #6080
 1135              		.cfi_def_cfa_offset 6100
 1136 0006 87B0     		sub	sp, sp, #28
 1137              		.cfi_def_cfa_offset 6128
 1138 0008 00AF     		add	r7, sp, #0
 1139              		.cfi_def_cfa_register 7
 1140 000a 07F11804 		add	r4, r7, #24
 1141 000e 0C3C     		subs	r4, r4, #12
 1142 0010 2060     		str	r0, [r4]
 1143 0012 07F11800 		add	r0, r7, #24
 1144 0016 1038     		subs	r0, r0, #16
 1145 0018 0160     		str	r1, [r0]
 1146 001a 07F11801 		add	r1, r7, #24
 1147 001e 1439     		subs	r1, r1, #20
 1148 0020 0A60     		str	r2, [r1]
 1149 0022 07F11802 		add	r2, r7, #24
 1150 0026 183A     		subs	r2, r2, #24
 1151 0028 1360     		str	r3, [r2]
 382:..\src/command_processing.c ****     
 383:..\src/command_processing.c ****     //Package to be sent variables
 384:..\src/command_processing.c ****     uint8 packet_data[PARAM_BYTE_SLOT*NUM_OF_DEV_PARAMS + PARAM_MENU_SLOT*NUM_OF_DEV_PARAM_MENUS + 
 1152              		.loc 1 384 0
 1153 002a 07F15803 		add	r3, r7, #88
 1154 002e 043B     		subs	r3, r3, #4
 1155 0030 0022     		movs	r2, #0
 1156 0032 1A60     		str	r2, [r3]
 1157 0034 0433     		adds	r3, r3, #4
 1158 0036 41F26C72 		movw	r2, #5996
 1159 003a 0021     		movs	r1, #0
ARM GAS  C:\Users\mgnocco\AppData\Local\Temp\cc5vWZGV.s 			page 44


 1160 003c 1846     		mov	r0, r3
 1161 003e FFF7FEFF 		bl	memset
 385:..\src/command_processing.c ****     uint16 packet_length = PARAM_BYTE_SLOT*NUM_OF_DEV_PARAMS + PARAM_MENU_SLOT*NUM_OF_DEV_PARAM_MEN
 1162              		.loc 1 385 0
 1163 0042 41F27073 		movw	r3, #6000
 1164 0046 07F5BE52 		add	r2, r7, #6080
 1165 004a 02F11002 		add	r2, r2, #16
 1166 004e 1380     		strh	r3, [r2]	@ movhi
 386:..\src/command_processing.c **** 
 387:..\src/command_processing.c ****     //Auxiliary variables
 388:..\src/command_processing.c ****     uint8 CYDATA i, j;
 389:..\src/command_processing.c ****     uint8 CYDATA idx = 0;       //Parameter number
 1167              		.loc 1 389 0
 1168 0050 0023     		movs	r3, #0
 1169 0052 07F5BE52 		add	r2, r7, #6080
 1170 0056 02F11502 		add	r2, r2, #21
 1171 005a 1370     		strb	r3, [r2]
 390:..\src/command_processing.c ****     uint8 CYDATA idx_menu = 0;
 1172              		.loc 1 390 0
 1173 005c 0023     		movs	r3, #0
 1174 005e 07F5BE52 		add	r2, r7, #6080
 1175 0062 02F11402 		add	r2, r2, #20
 1176 0066 1370     		strb	r3, [r2]
 391:..\src/command_processing.c ****     uint8 CYDATA sod = 0;       //sizeof data
 1177              		.loc 1 391 0
 1178 0068 0023     		movs	r3, #0
 1179 006a 07F5BE52 		add	r2, r7, #6080
 1180 006e 02F11302 		add	r2, r2, #19
 1181 0072 1370     		strb	r3, [r2]
 392:..\src/command_processing.c ****     uint8 CYDATA string_length;
 393:..\src/command_processing.c ****     char CYDATA aux_str[50] = "";
 1182              		.loc 1 393 0
 1183 0074 07F13803 		add	r3, r7, #56
 1184 0078 183B     		subs	r3, r3, #24
 1185 007a 0022     		movs	r2, #0
 1186 007c 1A60     		str	r2, [r3]
 1187 007e 0433     		adds	r3, r3, #4
 1188 0080 2E22     		movs	r2, #46
 1189 0082 0021     		movs	r1, #0
 1190 0084 1846     		mov	r0, r3
 1191 0086 FFF7FEFF 		bl	memset
 394:..\src/command_processing.c ****     float aux_float;
 395:..\src/command_processing.c ****     int16 aux_int16;
 396:..\src/command_processing.c ****     uint16 aux_uint16;
 397:..\src/command_processing.c ****     int32 aux_int32;
 398:..\src/command_processing.c ****     uint32 aux_uint32;
 399:..\src/command_processing.c **** 
 400:..\src/command_processing.c ****     uint8 MOTOR_IDX = 0;
 1192              		.loc 1 400 0
 1193 008a 0023     		movs	r3, #0
 1194 008c 07F5BE52 		add	r2, r7, #6080
 1195 0090 02F10F02 		add	r2, r2, #15
 1196 0094 1370     		strb	r3, [r2]
 401:..\src/command_processing.c ****     uint8 SECOND_MOTOR_IDX = 1;
 1197              		.loc 1 401 0
 1198 0096 0123     		movs	r3, #1
 1199 0098 07F5BE52 		add	r2, r7, #6080
ARM GAS  C:\Users\mgnocco\AppData\Local\Temp\cc5vWZGV.s 			page 45


 1200 009c 02F10E02 		add	r2, r2, #14
 1201 00a0 1370     		strb	r3, [r2]
 402:..\src/command_processing.c ****   
 403:..\src/command_processing.c ****     uint8* m_addr = (uint8*)VAR_P[0];
 1202              		.loc 1 403 0
 1203 00a2 07F11803 		add	r3, r7, #24
 1204 00a6 0C3B     		subs	r3, r3, #12
 1205 00a8 1B68     		ldr	r3, [r3]
 1206 00aa 1B68     		ldr	r3, [r3]
 1207 00ac 07F5BE52 		add	r2, r7, #6080
 1208 00b0 02F10802 		add	r2, r2, #8
 1209 00b4 1360     		str	r3, [r2]
 404:..\src/command_processing.c ****     uint8* m_tmp = m_addr;
 1210              		.loc 1 404 0
 1211 00b6 07F5BE53 		add	r3, r7, #6080
 1212 00ba 03F10803 		add	r3, r3, #8
 1213 00be 1B68     		ldr	r3, [r3]
 1214 00c0 07F5BE52 		add	r2, r7, #6080
 1215 00c4 02F10402 		add	r2, r2, #4
 1216 00c8 1360     		str	r3, [r2]
 405:..\src/command_processing.c ****         
 406:..\src/command_processing.c ****     packet_data[0] = CMD_GET_PARAM_LIST;
 1217              		.loc 1 406 0
 1218 00ca 07F15803 		add	r3, r7, #88
 1219 00ce 043B     		subs	r3, r3, #4
 1220 00d0 0C22     		movs	r2, #12
 1221 00d2 1A70     		strb	r2, [r3]
 407:..\src/command_processing.c ****     packet_data[1] = NUM_OF_DEV_PARAMS;
 1222              		.loc 1 407 0
 1223 00d4 07F15803 		add	r3, r7, #88
 1224 00d8 043B     		subs	r3, r3, #4
 1225 00da 5322     		movs	r2, #83
 1226 00dc 5A70     		strb	r2, [r3, #1]
 408:..\src/command_processing.c ****     
 409:..\src/command_processing.c ****     for (idx = 0; idx < NUM_OF_DEV_PARAMS; idx++) {
 1227              		.loc 1 409 0
 1228 00de 0023     		movs	r3, #0
 1229 00e0 07F5BE52 		add	r2, r7, #6080
 1230 00e4 02F11502 		add	r2, r2, #21
 1231 00e8 1370     		strb	r3, [r2]
 1232 00ea 03F025B8 		b	.L74
 1233              	.L279:
 410:..\src/command_processing.c ****         
 411:..\src/command_processing.c ****         // Assign m_addr memory address
 412:..\src/command_processing.c ****         m_addr = (uint8*)VAR_P[idx];
 1234              		.loc 1 412 0
 1235 00ee 07F5BE53 		add	r3, r7, #6080
 1236 00f2 03F11503 		add	r3, r3, #21
 1237 00f6 1B78     		ldrb	r3, [r3]	@ zero_extendqisi2
 1238 00f8 9A00     		lsls	r2, r3, #2
 1239 00fa 07F11803 		add	r3, r7, #24
 1240 00fe 0C3B     		subs	r3, r3, #12
 1241 0100 1B68     		ldr	r3, [r3]
 1242 0102 1344     		add	r3, r3, r2
 1243 0104 1B68     		ldr	r3, [r3]
 1244 0106 07F5BE52 		add	r2, r7, #6080
 1245 010a 02F10802 		add	r2, r2, #8
ARM GAS  C:\Users\mgnocco\AppData\Local\Temp\cc5vWZGV.s 			page 46


 1246 010e 1360     		str	r3, [r2]
 413:..\src/command_processing.c ****         
 414:..\src/command_processing.c ****         // Add parameter type and size to packet
 415:..\src/command_processing.c ****         packet_data[2 + PARAM_BYTE_SLOT*idx] = TYPES[idx];
 1247              		.loc 1 415 0
 1248 0110 07F5BE53 		add	r3, r7, #6080
 1249 0114 03F11503 		add	r3, r3, #21
 1250 0118 1B78     		ldrb	r3, [r3]	@ zero_extendqisi2
 1251 011a 3222     		movs	r2, #50
 1252 011c 02FB03F3 		mul	r3, r2, r3
 1253 0120 9A1C     		adds	r2, r3, #2
 1254 0122 07F5BE53 		add	r3, r7, #6080
 1255 0126 03F11503 		add	r3, r3, #21
 1256 012a 1978     		ldrb	r1, [r3]	@ zero_extendqisi2
 1257 012c 07F11803 		add	r3, r7, #24
 1258 0130 103B     		subs	r3, r3, #16
 1259 0132 1B68     		ldr	r3, [r3]
 1260 0134 0B44     		add	r3, r3, r1
 1261 0136 1978     		ldrb	r1, [r3]	@ zero_extendqisi2
 1262 0138 07F15803 		add	r3, r7, #88
 1263 013c 043B     		subs	r3, r3, #4
 1264 013e 9954     		strb	r1, [r3, r2]
 416:..\src/command_processing.c ****         packet_data[3 + PARAM_BYTE_SLOT*idx] = NUM_ITEMS[idx];
 1265              		.loc 1 416 0
 1266 0140 07F5BE53 		add	r3, r7, #6080
 1267 0144 03F11503 		add	r3, r3, #21
 1268 0148 1B78     		ldrb	r3, [r3]	@ zero_extendqisi2
 1269 014a 3222     		movs	r2, #50
 1270 014c 02FB03F3 		mul	r3, r2, r3
 1271 0150 DA1C     		adds	r2, r3, #3
 1272 0152 07F5BE53 		add	r3, r7, #6080
 1273 0156 03F11503 		add	r3, r3, #21
 1274 015a 1978     		ldrb	r1, [r3]	@ zero_extendqisi2
 1275 015c 07F11803 		add	r3, r7, #24
 1276 0160 143B     		subs	r3, r3, #20
 1277 0162 1B68     		ldr	r3, [r3]
 1278 0164 0B44     		add	r3, r3, r1
 1279 0166 1978     		ldrb	r1, [r3]	@ zero_extendqisi2
 1280 0168 07F15803 		add	r3, r7, #88
 1281 016c 043B     		subs	r3, r3, #4
 1282 016e 9954     		strb	r1, [r3, r2]
 417:..\src/command_processing.c ****         
 418:..\src/command_processing.c ****         // Find size of data
 419:..\src/command_processing.c ****         switch (TYPES[idx]) {
 1283              		.loc 1 419 0
 1284 0170 07F5BE53 		add	r3, r7, #6080
 1285 0174 03F11503 		add	r3, r3, #21
 1286 0178 1A78     		ldrb	r2, [r3]	@ zero_extendqisi2
 1287 017a 07F11803 		add	r3, r7, #24
 1288 017e 103B     		subs	r3, r3, #16
 1289 0180 1B68     		ldr	r3, [r3]
 1290 0182 1344     		add	r3, r3, r2
 1291 0184 1B78     		ldrb	r3, [r3]	@ zero_extendqisi2
 1292 0186 092B     		cmp	r3, #9
 1293 0188 2BD8     		bhi	.L75
 1294 018a 01A2     		adr	r2, .L77
 1295 018c 52F823F0 		ldr	pc, [r2, r3, lsl #2]
ARM GAS  C:\Users\mgnocco\AppData\Local\Temp\cc5vWZGV.s 			page 47


 1296              		.p2align 2
 1297              	.L77:
 1298 0190 B9010000 		.word	.L76+1
 1299 0194 B9010000 		.word	.L76+1
 1300 0198 B9010000 		.word	.L76+1
 1301 019c C7010000 		.word	.L78+1
 1302 01a0 C7010000 		.word	.L78+1
 1303 01a4 D5010000 		.word	.L79+1
 1304 01a8 D5010000 		.word	.L79+1
 1305 01ac D5010000 		.word	.L79+1
 1306 01b0 E3010000 		.word	.L75+1
 1307 01b4 B9010000 		.word	.L76+1
 1308              		.p2align 1
 1309              	.L76:
 420:..\src/command_processing.c ****             case TYPE_FLAG: case TYPE_INT8: case TYPE_UINT8: case TYPE_STRING:
 421:..\src/command_processing.c ****                 sod = 1; break;
 1310              		.loc 1 421 0
 1311 01b8 0123     		movs	r3, #1
 1312 01ba 07F5BE52 		add	r2, r7, #6080
 1313 01be 02F11302 		add	r2, r2, #19
 1314 01c2 1370     		strb	r3, [r2]
 1315 01c4 0DE0     		b	.L75
 1316              	.L78:
 422:..\src/command_processing.c ****             case TYPE_INT16: case TYPE_UINT16:
 423:..\src/command_processing.c ****                 sod = 2; break;
 1317              		.loc 1 423 0
 1318 01c6 0223     		movs	r3, #2
 1319 01c8 07F5BE52 		add	r2, r7, #6080
 1320 01cc 02F11302 		add	r2, r2, #19
 1321 01d0 1370     		strb	r3, [r2]
 1322 01d2 06E0     		b	.L75
 1323              	.L79:
 424:..\src/command_processing.c ****             case TYPE_INT32: case TYPE_UINT32: case TYPE_FLOAT:
 425:..\src/command_processing.c ****                 sod = 4; break;
 1324              		.loc 1 425 0
 1325 01d4 0423     		movs	r3, #4
 1326 01d6 07F5BE52 		add	r2, r7, #6080
 1327 01da 02F11302 		add	r2, r2, #19
 1328 01de 1370     		strb	r3, [r2]
 1329 01e0 00BF     		nop
 1330              	.L75:
 426:..\src/command_processing.c ****         }
 427:..\src/command_processing.c ****             
 428:..\src/command_processing.c ****         if (!CUSTOM_PARAM_GET[idx]) {       // Default param get
 1331              		.loc 1 428 0
 1332 01e2 07F5BE53 		add	r3, r7, #6080
 1333 01e6 03F11503 		add	r3, r3, #21
 1334 01ea 1B78     		ldrb	r3, [r3]	@ zero_extendqisi2
 1335 01ec 07F5BF52 		add	r2, r7, #6112
 1336 01f0 02F11802 		add	r2, r2, #24
 1337 01f4 1268     		ldr	r2, [r2]
 1338 01f6 1344     		add	r3, r3, r2
 1339 01f8 1B78     		ldrb	r3, [r3]	@ zero_extendqisi2
 1340 01fa 002B     		cmp	r3, #0
 1341 01fc 40F0DA83 		bne	.L80
 429:..\src/command_processing.c ****             
 430:..\src/command_processing.c ****             // Add parameter data to packet
ARM GAS  C:\Users\mgnocco\AppData\Local\Temp\cc5vWZGV.s 			page 48


 431:..\src/command_processing.c ****             switch (TYPES[idx]) {
 1342              		.loc 1 431 0
 1343 0200 07F5BE53 		add	r3, r7, #6080
 1344 0204 03F11503 		add	r3, r3, #21
 1345 0208 1A78     		ldrb	r2, [r3]	@ zero_extendqisi2
 1346 020a 07F11803 		add	r3, r7, #24
 1347 020e 103B     		subs	r3, r3, #16
 1348 0210 1B68     		ldr	r3, [r3]
 1349 0212 1344     		add	r3, r3, r2
 1350 0214 1B78     		ldrb	r3, [r3]	@ zero_extendqisi2
 1351 0216 092B     		cmp	r3, #9
 1352 0218 02F25781 		bhi	.L114
 1353 021c 01A2     		adr	r2, .L83
 1354 021e 52F823F0 		ldr	pc, [r2, r3, lsl #2]
 1355 0222 00BF     		.p2align 2
 1356              	.L83:
 1357 0224 4D020000 		.word	.L82+1
 1358 0228 09030000 		.word	.L84+1
 1359 022c 4D020000 		.word	.L82+1
 1360 0230 C5030000 		.word	.L85+1
 1361 0234 F7040000 		.word	.L86+1
 1362 0238 23060000 		.word	.L87+1
 1363 023c 53070000 		.word	.L88+1
 1364 0240 83080000 		.word	.L89+1
 1365 0244 CB240000 		.word	.L114+1
 1366 0248 4D020000 		.word	.L82+1
 1367              		.p2align 1
 1368              	.L82:
 432:..\src/command_processing.c ****                 case TYPE_FLAG: case TYPE_UINT8: case TYPE_STRING:
 433:..\src/command_processing.c ****                     for (i=0; i<NUM_ITEMS[idx]; i++){
 1369              		.loc 1 433 0
 1370 024c 0023     		movs	r3, #0
 1371 024e 07F5BE52 		add	r2, r7, #6080
 1372 0252 02F11702 		add	r2, r2, #23
 1373 0256 1370     		strb	r3, [r2]
 1374 0258 42E0     		b	.L90
 1375              	.L91:
 434:..\src/command_processing.c ****                         m_tmp = m_addr + i*sod;
 1376              		.loc 1 434 0 discriminator 3
 1377 025a 07F5BE53 		add	r3, r7, #6080
 1378 025e 03F11703 		add	r3, r3, #23
 1379 0262 1B78     		ldrb	r3, [r3]	@ zero_extendqisi2
 1380 0264 07F5BE52 		add	r2, r7, #6080
 1381 0268 02F11302 		add	r2, r2, #19
 1382 026c 1278     		ldrb	r2, [r2]	@ zero_extendqisi2
 1383 026e 02FB03F3 		mul	r3, r2, r3
 1384 0272 1A46     		mov	r2, r3
 1385 0274 07F5BE53 		add	r3, r7, #6080
 1386 0278 03F10803 		add	r3, r3, #8
 1387 027c 1B68     		ldr	r3, [r3]
 1388 027e 1344     		add	r3, r3, r2
 1389 0280 07F5BE52 		add	r2, r7, #6080
 1390 0284 02F10402 		add	r2, r2, #4
 1391 0288 1360     		str	r3, [r2]
 435:..\src/command_processing.c ****                         packet_data[4 + PARAM_BYTE_SLOT*idx + i*sod] = *m_tmp;
 1392              		.loc 1 435 0 discriminator 3
 1393 028a 07F5BE53 		add	r3, r7, #6080
ARM GAS  C:\Users\mgnocco\AppData\Local\Temp\cc5vWZGV.s 			page 49


 1394 028e 03F11503 		add	r3, r3, #21
 1395 0292 1B78     		ldrb	r3, [r3]	@ zero_extendqisi2
 1396 0294 3222     		movs	r2, #50
 1397 0296 02FB03F3 		mul	r3, r2, r3
 1398 029a 1A1D     		adds	r2, r3, #4
 1399 029c 07F5BE53 		add	r3, r7, #6080
 1400 02a0 03F11703 		add	r3, r3, #23
 1401 02a4 1B78     		ldrb	r3, [r3]	@ zero_extendqisi2
 1402 02a6 07F5BE51 		add	r1, r7, #6080
 1403 02aa 01F11301 		add	r1, r1, #19
 1404 02ae 0978     		ldrb	r1, [r1]	@ zero_extendqisi2
 1405 02b0 01FB03F3 		mul	r3, r1, r3
 1406 02b4 1A44     		add	r2, r2, r3
 1407 02b6 07F5BE53 		add	r3, r7, #6080
 1408 02ba 03F10403 		add	r3, r3, #4
 1409 02be 1B68     		ldr	r3, [r3]
 1410 02c0 1978     		ldrb	r1, [r3]	@ zero_extendqisi2
 1411 02c2 07F15803 		add	r3, r7, #88
 1412 02c6 043B     		subs	r3, r3, #4
 1413 02c8 9954     		strb	r1, [r3, r2]
 433:..\src/command_processing.c ****                         m_tmp = m_addr + i*sod;
 1414              		.loc 1 433 0 discriminator 3
 1415 02ca 07F5BE53 		add	r3, r7, #6080
 1416 02ce 03F11703 		add	r3, r3, #23
 1417 02d2 1B78     		ldrb	r3, [r3]	@ zero_extendqisi2
 1418 02d4 0133     		adds	r3, r3, #1
 1419 02d6 07F5BE52 		add	r2, r7, #6080
 1420 02da 02F11702 		add	r2, r2, #23
 1421 02de 1370     		strb	r3, [r2]
 1422              	.L90:
 433:..\src/command_processing.c ****                         m_tmp = m_addr + i*sod;
 1423              		.loc 1 433 0 is_stmt 0 discriminator 1
 1424 02e0 07F5BE53 		add	r3, r7, #6080
 1425 02e4 03F11503 		add	r3, r3, #21
 1426 02e8 1A78     		ldrb	r2, [r3]	@ zero_extendqisi2
 1427 02ea 07F11803 		add	r3, r7, #24
 1428 02ee 143B     		subs	r3, r3, #20
 1429 02f0 1B68     		ldr	r3, [r3]
 1430 02f2 1344     		add	r3, r3, r2
 1431 02f4 1B78     		ldrb	r3, [r3]	@ zero_extendqisi2
 1432 02f6 07F5BE52 		add	r2, r7, #6080
 1433 02fa 02F11702 		add	r2, r2, #23
 1434 02fe 1278     		ldrb	r2, [r2]	@ zero_extendqisi2
 1435 0300 9A42     		cmp	r2, r3
 1436 0302 AAD3     		bcc	.L91
 436:..\src/command_processing.c ****                     }
 437:..\src/command_processing.c ****                     break;                
 1437              		.loc 1 437 0 is_stmt 1
 1438 0304 02F0E1B8 		b	.L114
 1439              	.L84:
 438:..\src/command_processing.c ****                 case TYPE_INT8:
 439:..\src/command_processing.c ****                     for (i=0; i<NUM_ITEMS[idx]; i++){
 1440              		.loc 1 439 0
 1441 0308 0023     		movs	r3, #0
 1442 030a 07F5BE52 		add	r2, r7, #6080
 1443 030e 02F11702 		add	r2, r2, #23
 1444 0312 1370     		strb	r3, [r2]
ARM GAS  C:\Users\mgnocco\AppData\Local\Temp\cc5vWZGV.s 			page 50


 1445 0314 42E0     		b	.L92
 1446              	.L93:
 440:..\src/command_processing.c ****                         m_tmp = m_addr + i*sod;
 1447              		.loc 1 440 0 discriminator 3
 1448 0316 07F5BE53 		add	r3, r7, #6080
 1449 031a 03F11703 		add	r3, r3, #23
 1450 031e 1B78     		ldrb	r3, [r3]	@ zero_extendqisi2
 1451 0320 07F5BE52 		add	r2, r7, #6080
 1452 0324 02F11302 		add	r2, r2, #19
 1453 0328 1278     		ldrb	r2, [r2]	@ zero_extendqisi2
 1454 032a 02FB03F3 		mul	r3, r2, r3
 1455 032e 1A46     		mov	r2, r3
 1456 0330 07F5BE53 		add	r3, r7, #6080
 1457 0334 03F10803 		add	r3, r3, #8
 1458 0338 1B68     		ldr	r3, [r3]
 1459 033a 1344     		add	r3, r3, r2
 1460 033c 07F5BE52 		add	r2, r7, #6080
 1461 0340 02F10402 		add	r2, r2, #4
 1462 0344 1360     		str	r3, [r2]
 441:..\src/command_processing.c ****                         packet_data[4 + PARAM_BYTE_SLOT*idx + i*sod] = *m_tmp;
 1463              		.loc 1 441 0 discriminator 3
 1464 0346 07F5BE53 		add	r3, r7, #6080
 1465 034a 03F11503 		add	r3, r3, #21
 1466 034e 1B78     		ldrb	r3, [r3]	@ zero_extendqisi2
 1467 0350 3222     		movs	r2, #50
 1468 0352 02FB03F3 		mul	r3, r2, r3
 1469 0356 1A1D     		adds	r2, r3, #4
 1470 0358 07F5BE53 		add	r3, r7, #6080
 1471 035c 03F11703 		add	r3, r3, #23
 1472 0360 1B78     		ldrb	r3, [r3]	@ zero_extendqisi2
 1473 0362 07F5BE51 		add	r1, r7, #6080
 1474 0366 01F11301 		add	r1, r1, #19
 1475 036a 0978     		ldrb	r1, [r1]	@ zero_extendqisi2
 1476 036c 01FB03F3 		mul	r3, r1, r3
 1477 0370 1A44     		add	r2, r2, r3
 1478 0372 07F5BE53 		add	r3, r7, #6080
 1479 0376 03F10403 		add	r3, r3, #4
 1480 037a 1B68     		ldr	r3, [r3]
 1481 037c 1978     		ldrb	r1, [r3]	@ zero_extendqisi2
 1482 037e 07F15803 		add	r3, r7, #88
 1483 0382 043B     		subs	r3, r3, #4
 1484 0384 9954     		strb	r1, [r3, r2]
 439:..\src/command_processing.c ****                         m_tmp = m_addr + i*sod;
 1485              		.loc 1 439 0 discriminator 3
 1486 0386 07F5BE53 		add	r3, r7, #6080
 1487 038a 03F11703 		add	r3, r3, #23
 1488 038e 1B78     		ldrb	r3, [r3]	@ zero_extendqisi2
 1489 0390 0133     		adds	r3, r3, #1
 1490 0392 07F5BE52 		add	r2, r7, #6080
 1491 0396 02F11702 		add	r2, r2, #23
 1492 039a 1370     		strb	r3, [r2]
 1493              	.L92:
 439:..\src/command_processing.c ****                         m_tmp = m_addr + i*sod;
 1494              		.loc 1 439 0 is_stmt 0 discriminator 1
 1495 039c 07F5BE53 		add	r3, r7, #6080
 1496 03a0 03F11503 		add	r3, r3, #21
 1497 03a4 1A78     		ldrb	r2, [r3]	@ zero_extendqisi2
ARM GAS  C:\Users\mgnocco\AppData\Local\Temp\cc5vWZGV.s 			page 51


 1498 03a6 07F11803 		add	r3, r7, #24
 1499 03aa 143B     		subs	r3, r3, #20
 1500 03ac 1B68     		ldr	r3, [r3]
 1501 03ae 1344     		add	r3, r3, r2
 1502 03b0 1B78     		ldrb	r3, [r3]	@ zero_extendqisi2
 1503 03b2 07F5BE52 		add	r2, r7, #6080
 1504 03b6 02F11702 		add	r2, r2, #23
 1505 03ba 1278     		ldrb	r2, [r2]	@ zero_extendqisi2
 1506 03bc 9A42     		cmp	r2, r3
 1507 03be AAD3     		bcc	.L93
 442:..\src/command_processing.c ****                     }
 443:..\src/command_processing.c ****                     break;
 1508              		.loc 1 443 0 is_stmt 1
 1509 03c0 02F083B8 		b	.L114
 1510              	.L85:
 444:..\src/command_processing.c ****                 case TYPE_INT16:
 445:..\src/command_processing.c ****                     for (i=0; i<NUM_ITEMS[idx]; i++){
 1511              		.loc 1 445 0
 1512 03c4 0023     		movs	r3, #0
 1513 03c6 07F5BE52 		add	r2, r7, #6080
 1514 03ca 02F11702 		add	r2, r2, #23
 1515 03ce 1370     		strb	r3, [r2]
 1516 03d0 7CE0     		b	.L94
 1517              	.L97:
 446:..\src/command_processing.c ****                         m_tmp = m_addr + i*sod;
 1518              		.loc 1 446 0
 1519 03d2 07F5BE53 		add	r3, r7, #6080
 1520 03d6 03F11703 		add	r3, r3, #23
 1521 03da 1B78     		ldrb	r3, [r3]	@ zero_extendqisi2
 1522 03dc 07F5BE52 		add	r2, r7, #6080
 1523 03e0 02F11302 		add	r2, r2, #19
 1524 03e4 1278     		ldrb	r2, [r2]	@ zero_extendqisi2
 1525 03e6 02FB03F3 		mul	r3, r2, r3
 1526 03ea 1A46     		mov	r2, r3
 1527 03ec 07F5BE53 		add	r3, r7, #6080
 1528 03f0 03F10803 		add	r3, r3, #8
 1529 03f4 1B68     		ldr	r3, [r3]
 1530 03f6 1344     		add	r3, r3, r2
 1531 03f8 07F5BE52 		add	r2, r7, #6080
 1532 03fc 02F10402 		add	r2, r2, #4
 1533 0400 1360     		str	r3, [r2]
 447:..\src/command_processing.c ****                         aux_int16 = *((int16*)m_tmp);
 1534              		.loc 1 447 0
 1535 0402 07F5BE53 		add	r3, r7, #6080
 1536 0406 03F10403 		add	r3, r3, #4
 1537 040a 1B68     		ldr	r3, [r3]
 1538 040c B3F90020 		ldrsh	r2, [r3]
 1539 0410 07F13803 		add	r3, r7, #56
 1540 0414 1E3B     		subs	r3, r3, #30
 1541 0416 1A80     		strh	r2, [r3]	@ movhi
 448:..\src/command_processing.c ****                         for(j = 0; j < sod; j++) {
 1542              		.loc 1 448 0
 1543 0418 0023     		movs	r3, #0
 1544 041a 07F5BE52 		add	r2, r7, #6080
 1545 041e 02F11602 		add	r2, r2, #22
 1546 0422 1370     		strb	r3, [r2]
 1547 0424 3BE0     		b	.L95
ARM GAS  C:\Users\mgnocco\AppData\Local\Temp\cc5vWZGV.s 			page 52


 1548              	.L96:
 449:..\src/command_processing.c ****                             packet_data[(4 + PARAM_BYTE_SLOT*idx + i*sod) + sod - j -1] = ((char*)(
 1549              		.loc 1 449 0 discriminator 3
 1550 0426 07F5BE53 		add	r3, r7, #6080
 1551 042a 03F11503 		add	r3, r3, #21
 1552 042e 1B78     		ldrb	r3, [r3]	@ zero_extendqisi2
 1553 0430 3222     		movs	r2, #50
 1554 0432 02FB03F3 		mul	r3, r2, r3
 1555 0436 1A1D     		adds	r2, r3, #4
 1556 0438 07F5BE53 		add	r3, r7, #6080
 1557 043c 03F11703 		add	r3, r3, #23
 1558 0440 1B78     		ldrb	r3, [r3]	@ zero_extendqisi2
 1559 0442 07F5BE51 		add	r1, r7, #6080
 1560 0446 01F11301 		add	r1, r1, #19
 1561 044a 0978     		ldrb	r1, [r1]	@ zero_extendqisi2
 1562 044c 01FB03F3 		mul	r3, r1, r3
 1563 0450 1A44     		add	r2, r2, r3
 1564 0452 07F5BE53 		add	r3, r7, #6080
 1565 0456 03F11303 		add	r3, r3, #19
 1566 045a 1B78     		ldrb	r3, [r3]	@ zero_extendqisi2
 1567 045c 1A44     		add	r2, r2, r3
 1568 045e 07F5BE53 		add	r3, r7, #6080
 1569 0462 03F11603 		add	r3, r3, #22
 1570 0466 1B78     		ldrb	r3, [r3]	@ zero_extendqisi2
 1571 0468 D31A     		subs	r3, r2, r3
 1572 046a 5A1E     		subs	r2, r3, #1
 1573 046c 07F5BE53 		add	r3, r7, #6080
 1574 0470 03F11603 		add	r3, r3, #22
 1575 0474 1978     		ldrb	r1, [r3]	@ zero_extendqisi2
 1576 0476 07F13803 		add	r3, r7, #56
 1577 047a 1E3B     		subs	r3, r3, #30
 1578 047c 0B44     		add	r3, r3, r1
 1579 047e 1978     		ldrb	r1, [r3]	@ zero_extendqisi2
 1580 0480 07F15803 		add	r3, r7, #88
 1581 0484 043B     		subs	r3, r3, #4
 1582 0486 9954     		strb	r1, [r3, r2]
 448:..\src/command_processing.c ****                         for(j = 0; j < sod; j++) {
 1583              		.loc 1 448 0 discriminator 3
 1584 0488 07F5BE53 		add	r3, r7, #6080
 1585 048c 03F11603 		add	r3, r3, #22
 1586 0490 1B78     		ldrb	r3, [r3]	@ zero_extendqisi2
 1587 0492 0133     		adds	r3, r3, #1
 1588 0494 07F5BE52 		add	r2, r7, #6080
 1589 0498 02F11602 		add	r2, r2, #22
 1590 049c 1370     		strb	r3, [r2]
 1591              	.L95:
 448:..\src/command_processing.c ****                         for(j = 0; j < sod; j++) {
 1592              		.loc 1 448 0 is_stmt 0 discriminator 1
 1593 049e 07F5BE53 		add	r3, r7, #6080
 1594 04a2 03F11603 		add	r3, r3, #22
 1595 04a6 1A78     		ldrb	r2, [r3]	@ zero_extendqisi2
 1596 04a8 07F5BE53 		add	r3, r7, #6080
 1597 04ac 03F11303 		add	r3, r3, #19
 1598 04b0 1B78     		ldrb	r3, [r3]	@ zero_extendqisi2
 1599 04b2 9A42     		cmp	r2, r3
 1600 04b4 B7D3     		bcc	.L96
 445:..\src/command_processing.c ****                         m_tmp = m_addr + i*sod;
ARM GAS  C:\Users\mgnocco\AppData\Local\Temp\cc5vWZGV.s 			page 53


 1601              		.loc 1 445 0 is_stmt 1 discriminator 2
 1602 04b6 07F5BE53 		add	r3, r7, #6080
 1603 04ba 03F11703 		add	r3, r3, #23
 1604 04be 1B78     		ldrb	r3, [r3]	@ zero_extendqisi2
 1605 04c0 0133     		adds	r3, r3, #1
 1606 04c2 07F5BE52 		add	r2, r7, #6080
 1607 04c6 02F11702 		add	r2, r2, #23
 1608 04ca 1370     		strb	r3, [r2]
 1609              	.L94:
 445:..\src/command_processing.c ****                         m_tmp = m_addr + i*sod;
 1610              		.loc 1 445 0 is_stmt 0 discriminator 1
 1611 04cc 07F5BE53 		add	r3, r7, #6080
 1612 04d0 03F11503 		add	r3, r3, #21
 1613 04d4 1A78     		ldrb	r2, [r3]	@ zero_extendqisi2
 1614 04d6 07F11803 		add	r3, r7, #24
 1615 04da 143B     		subs	r3, r3, #20
 1616 04dc 1B68     		ldr	r3, [r3]
 1617 04de 1344     		add	r3, r3, r2
 1618 04e0 1B78     		ldrb	r3, [r3]	@ zero_extendqisi2
 1619 04e2 07F5BE52 		add	r2, r7, #6080
 1620 04e6 02F11702 		add	r2, r2, #23
 1621 04ea 1278     		ldrb	r2, [r2]	@ zero_extendqisi2
 1622 04ec 9A42     		cmp	r2, r3
 1623 04ee FFF470AF 		bcc	.L97
 450:..\src/command_processing.c ****                         }
 451:..\src/command_processing.c ****                     }
 452:..\src/command_processing.c ****                     break;
 1624              		.loc 1 452 0 is_stmt 1
 1625 04f2 01F0EABF 		b	.L114
 1626              	.L86:
 453:..\src/command_processing.c ****                 case TYPE_UINT16:
 454:..\src/command_processing.c ****                     for (i=0; i<NUM_ITEMS[idx]; i++){
 1627              		.loc 1 454 0
 1628 04f6 0023     		movs	r3, #0
 1629 04f8 07F5BE52 		add	r2, r7, #6080
 1630 04fc 02F11702 		add	r2, r2, #23
 1631 0500 1370     		strb	r3, [r2]
 1632 0502 79E0     		b	.L98
 1633              	.L101:
 455:..\src/command_processing.c ****                         m_tmp = m_addr + i*sod;
 1634              		.loc 1 455 0
 1635 0504 07F5BE53 		add	r3, r7, #6080
 1636 0508 03F11703 		add	r3, r3, #23
 1637 050c 1B78     		ldrb	r3, [r3]	@ zero_extendqisi2
 1638 050e 07F5BE52 		add	r2, r7, #6080
 1639 0512 02F11302 		add	r2, r2, #19
 1640 0516 1278     		ldrb	r2, [r2]	@ zero_extendqisi2
 1641 0518 02FB03F3 		mul	r3, r2, r3
 1642 051c 1A46     		mov	r2, r3
 1643 051e 07F5BE53 		add	r3, r7, #6080
 1644 0522 03F10803 		add	r3, r3, #8
 1645 0526 1B68     		ldr	r3, [r3]
 1646 0528 1344     		add	r3, r3, r2
 1647 052a 07F5BE52 		add	r2, r7, #6080
 1648 052e 02F10402 		add	r2, r2, #4
 1649 0532 1360     		str	r3, [r2]
 456:..\src/command_processing.c ****                         aux_uint16 = *((uint16*)m_tmp);
ARM GAS  C:\Users\mgnocco\AppData\Local\Temp\cc5vWZGV.s 			page 54


 1650              		.loc 1 456 0
 1651 0534 07F5BE53 		add	r3, r7, #6080
 1652 0538 03F10403 		add	r3, r3, #4
 1653 053c 1B68     		ldr	r3, [r3]
 1654 053e 1A88     		ldrh	r2, [r3]
 1655 0540 07F11803 		add	r3, r7, #24
 1656 0544 1A80     		strh	r2, [r3]	@ movhi
 457:..\src/command_processing.c ****                         for(j = 0; j < sod; j++) {
 1657              		.loc 1 457 0
 1658 0546 0023     		movs	r3, #0
 1659 0548 07F5BE52 		add	r2, r7, #6080
 1660 054c 02F11602 		add	r2, r2, #22
 1661 0550 1370     		strb	r3, [r2]
 1662 0552 3AE0     		b	.L99
 1663              	.L100:
 458:..\src/command_processing.c ****                             packet_data[(4 + PARAM_BYTE_SLOT*idx + i*sod) + sod - j -1] = ((char*)(
 1664              		.loc 1 458 0 discriminator 3
 1665 0554 07F5BE53 		add	r3, r7, #6080
 1666 0558 03F11503 		add	r3, r3, #21
 1667 055c 1B78     		ldrb	r3, [r3]	@ zero_extendqisi2
 1668 055e 3222     		movs	r2, #50
 1669 0560 02FB03F3 		mul	r3, r2, r3
 1670 0564 1A1D     		adds	r2, r3, #4
 1671 0566 07F5BE53 		add	r3, r7, #6080
 1672 056a 03F11703 		add	r3, r3, #23
 1673 056e 1B78     		ldrb	r3, [r3]	@ zero_extendqisi2
 1674 0570 07F5BE51 		add	r1, r7, #6080
 1675 0574 01F11301 		add	r1, r1, #19
 1676 0578 0978     		ldrb	r1, [r1]	@ zero_extendqisi2
 1677 057a 01FB03F3 		mul	r3, r1, r3
 1678 057e 1A44     		add	r2, r2, r3
 1679 0580 07F5BE53 		add	r3, r7, #6080
 1680 0584 03F11303 		add	r3, r3, #19
 1681 0588 1B78     		ldrb	r3, [r3]	@ zero_extendqisi2
 1682 058a 1A44     		add	r2, r2, r3
 1683 058c 07F5BE53 		add	r3, r7, #6080
 1684 0590 03F11603 		add	r3, r3, #22
 1685 0594 1B78     		ldrb	r3, [r3]	@ zero_extendqisi2
 1686 0596 D31A     		subs	r3, r2, r3
 1687 0598 5A1E     		subs	r2, r3, #1
 1688 059a 07F5BE53 		add	r3, r7, #6080
 1689 059e 03F11603 		add	r3, r3, #22
 1690 05a2 1B78     		ldrb	r3, [r3]	@ zero_extendqisi2
 1691 05a4 07F11801 		add	r1, r7, #24
 1692 05a8 0B44     		add	r3, r3, r1
 1693 05aa 1978     		ldrb	r1, [r3]	@ zero_extendqisi2
 1694 05ac 07F15803 		add	r3, r7, #88
 1695 05b0 043B     		subs	r3, r3, #4
 1696 05b2 9954     		strb	r1, [r3, r2]
 457:..\src/command_processing.c ****                         for(j = 0; j < sod; j++) {
 1697              		.loc 1 457 0 discriminator 3
 1698 05b4 07F5BE53 		add	r3, r7, #6080
 1699 05b8 03F11603 		add	r3, r3, #22
 1700 05bc 1B78     		ldrb	r3, [r3]	@ zero_extendqisi2
 1701 05be 0133     		adds	r3, r3, #1
 1702 05c0 07F5BE52 		add	r2, r7, #6080
 1703 05c4 02F11602 		add	r2, r2, #22
ARM GAS  C:\Users\mgnocco\AppData\Local\Temp\cc5vWZGV.s 			page 55


 1704 05c8 1370     		strb	r3, [r2]
 1705              	.L99:
 457:..\src/command_processing.c ****                         for(j = 0; j < sod; j++) {
 1706              		.loc 1 457 0 is_stmt 0 discriminator 1
 1707 05ca 07F5BE53 		add	r3, r7, #6080
 1708 05ce 03F11603 		add	r3, r3, #22
 1709 05d2 1A78     		ldrb	r2, [r3]	@ zero_extendqisi2
 1710 05d4 07F5BE53 		add	r3, r7, #6080
 1711 05d8 03F11303 		add	r3, r3, #19
 1712 05dc 1B78     		ldrb	r3, [r3]	@ zero_extendqisi2
 1713 05de 9A42     		cmp	r2, r3
 1714 05e0 B8D3     		bcc	.L100
 454:..\src/command_processing.c ****                         m_tmp = m_addr + i*sod;
 1715              		.loc 1 454 0 is_stmt 1 discriminator 2
 1716 05e2 07F5BE53 		add	r3, r7, #6080
 1717 05e6 03F11703 		add	r3, r3, #23
 1718 05ea 1B78     		ldrb	r3, [r3]	@ zero_extendqisi2
 1719 05ec 0133     		adds	r3, r3, #1
 1720 05ee 07F5BE52 		add	r2, r7, #6080
 1721 05f2 02F11702 		add	r2, r2, #23
 1722 05f6 1370     		strb	r3, [r2]
 1723              	.L98:
 454:..\src/command_processing.c ****                         m_tmp = m_addr + i*sod;
 1724              		.loc 1 454 0 is_stmt 0 discriminator 1
 1725 05f8 07F5BE53 		add	r3, r7, #6080
 1726 05fc 03F11503 		add	r3, r3, #21
 1727 0600 1A78     		ldrb	r2, [r3]	@ zero_extendqisi2
 1728 0602 07F11803 		add	r3, r7, #24
 1729 0606 143B     		subs	r3, r3, #20
 1730 0608 1B68     		ldr	r3, [r3]
 1731 060a 1344     		add	r3, r3, r2
 1732 060c 1B78     		ldrb	r3, [r3]	@ zero_extendqisi2
 1733 060e 07F5BE52 		add	r2, r7, #6080
 1734 0612 02F11702 		add	r2, r2, #23
 1735 0616 1278     		ldrb	r2, [r2]	@ zero_extendqisi2
 1736 0618 9A42     		cmp	r2, r3
 1737 061a FFF473AF 		bcc	.L101
 459:..\src/command_processing.c ****                         }
 460:..\src/command_processing.c ****                     }
 461:..\src/command_processing.c ****                     break;
 1738              		.loc 1 461 0 is_stmt 1
 1739 061e 01F054BF 		b	.L114
 1740              	.L87:
 462:..\src/command_processing.c ****                 case TYPE_INT32: 
 463:..\src/command_processing.c ****                     for (i=0; i<NUM_ITEMS[idx]; i++){
 1741              		.loc 1 463 0
 1742 0622 0023     		movs	r3, #0
 1743 0624 07F5BE52 		add	r2, r7, #6080
 1744 0628 02F11702 		add	r2, r2, #23
 1745 062c 1370     		strb	r3, [r2]
 1746 062e 7BE0     		b	.L102
 1747              	.L105:
 464:..\src/command_processing.c ****                         m_tmp = m_addr + i*sod;
 1748              		.loc 1 464 0
 1749 0630 07F5BE53 		add	r3, r7, #6080
 1750 0634 03F11703 		add	r3, r3, #23
 1751 0638 1B78     		ldrb	r3, [r3]	@ zero_extendqisi2
ARM GAS  C:\Users\mgnocco\AppData\Local\Temp\cc5vWZGV.s 			page 56


 1752 063a 07F5BE52 		add	r2, r7, #6080
 1753 063e 02F11302 		add	r2, r2, #19
 1754 0642 1278     		ldrb	r2, [r2]	@ zero_extendqisi2
 1755 0644 02FB03F3 		mul	r3, r2, r3
 1756 0648 1A46     		mov	r2, r3
 1757 064a 07F5BE53 		add	r3, r7, #6080
 1758 064e 03F10803 		add	r3, r3, #8
 1759 0652 1B68     		ldr	r3, [r3]
 1760 0654 1344     		add	r3, r3, r2
 1761 0656 07F5BE52 		add	r2, r7, #6080
 1762 065a 02F10402 		add	r2, r2, #4
 1763 065e 1360     		str	r3, [r2]
 465:..\src/command_processing.c ****                         aux_int32 = *((int32*)m_tmp);
 1764              		.loc 1 465 0
 1765 0660 07F5BE53 		add	r3, r7, #6080
 1766 0664 03F10403 		add	r3, r3, #4
 1767 0668 1B68     		ldr	r3, [r3]
 1768 066a 1A68     		ldr	r2, [r3]
 1769 066c 07F11803 		add	r3, r7, #24
 1770 0670 043B     		subs	r3, r3, #4
 1771 0672 1A60     		str	r2, [r3]
 466:..\src/command_processing.c ****                         for(j = 0; j < sod; j++) {
 1772              		.loc 1 466 0
 1773 0674 0023     		movs	r3, #0
 1774 0676 07F5BE52 		add	r2, r7, #6080
 1775 067a 02F11602 		add	r2, r2, #22
 1776 067e 1370     		strb	r3, [r2]
 1777 0680 3BE0     		b	.L103
 1778              	.L104:
 467:..\src/command_processing.c ****                             packet_data[(4 + PARAM_BYTE_SLOT*idx + i*sod) + sod - j -1] = ((char*)(
 1779              		.loc 1 467 0 discriminator 3
 1780 0682 07F5BE53 		add	r3, r7, #6080
 1781 0686 03F11503 		add	r3, r3, #21
 1782 068a 1B78     		ldrb	r3, [r3]	@ zero_extendqisi2
 1783 068c 3222     		movs	r2, #50
 1784 068e 02FB03F3 		mul	r3, r2, r3
 1785 0692 1A1D     		adds	r2, r3, #4
 1786 0694 07F5BE53 		add	r3, r7, #6080
 1787 0698 03F11703 		add	r3, r3, #23
 1788 069c 1B78     		ldrb	r3, [r3]	@ zero_extendqisi2
 1789 069e 07F5BE51 		add	r1, r7, #6080
 1790 06a2 01F11301 		add	r1, r1, #19
 1791 06a6 0978     		ldrb	r1, [r1]	@ zero_extendqisi2
 1792 06a8 01FB03F3 		mul	r3, r1, r3
 1793 06ac 1A44     		add	r2, r2, r3
 1794 06ae 07F5BE53 		add	r3, r7, #6080
 1795 06b2 03F11303 		add	r3, r3, #19
 1796 06b6 1B78     		ldrb	r3, [r3]	@ zero_extendqisi2
 1797 06b8 1A44     		add	r2, r2, r3
 1798 06ba 07F5BE53 		add	r3, r7, #6080
 1799 06be 03F11603 		add	r3, r3, #22
 1800 06c2 1B78     		ldrb	r3, [r3]	@ zero_extendqisi2
 1801 06c4 D31A     		subs	r3, r2, r3
 1802 06c6 5A1E     		subs	r2, r3, #1
 1803 06c8 07F5BE53 		add	r3, r7, #6080
 1804 06cc 03F11603 		add	r3, r3, #22
 1805 06d0 1978     		ldrb	r1, [r3]	@ zero_extendqisi2
ARM GAS  C:\Users\mgnocco\AppData\Local\Temp\cc5vWZGV.s 			page 57


 1806 06d2 07F11803 		add	r3, r7, #24
 1807 06d6 043B     		subs	r3, r3, #4
 1808 06d8 0B44     		add	r3, r3, r1
 1809 06da 1978     		ldrb	r1, [r3]	@ zero_extendqisi2
 1810 06dc 07F15803 		add	r3, r7, #88
 1811 06e0 043B     		subs	r3, r3, #4
 1812 06e2 9954     		strb	r1, [r3, r2]
 466:..\src/command_processing.c ****                         for(j = 0; j < sod; j++) {
 1813              		.loc 1 466 0 discriminator 3
 1814 06e4 07F5BE53 		add	r3, r7, #6080
 1815 06e8 03F11603 		add	r3, r3, #22
 1816 06ec 1B78     		ldrb	r3, [r3]	@ zero_extendqisi2
 1817 06ee 0133     		adds	r3, r3, #1
 1818 06f0 07F5BE52 		add	r2, r7, #6080
 1819 06f4 02F11602 		add	r2, r2, #22
 1820 06f8 1370     		strb	r3, [r2]
 1821              	.L103:
 466:..\src/command_processing.c ****                         for(j = 0; j < sod; j++) {
 1822              		.loc 1 466 0 is_stmt 0 discriminator 1
 1823 06fa 07F5BE53 		add	r3, r7, #6080
 1824 06fe 03F11603 		add	r3, r3, #22
 1825 0702 1A78     		ldrb	r2, [r3]	@ zero_extendqisi2
 1826 0704 07F5BE53 		add	r3, r7, #6080
 1827 0708 03F11303 		add	r3, r3, #19
 1828 070c 1B78     		ldrb	r3, [r3]	@ zero_extendqisi2
 1829 070e 9A42     		cmp	r2, r3
 1830 0710 B7D3     		bcc	.L104
 463:..\src/command_processing.c ****                         m_tmp = m_addr + i*sod;
 1831              		.loc 1 463 0 is_stmt 1 discriminator 2
 1832 0712 07F5BE53 		add	r3, r7, #6080
 1833 0716 03F11703 		add	r3, r3, #23
 1834 071a 1B78     		ldrb	r3, [r3]	@ zero_extendqisi2
 1835 071c 0133     		adds	r3, r3, #1
 1836 071e 07F5BE52 		add	r2, r7, #6080
 1837 0722 02F11702 		add	r2, r2, #23
 1838 0726 1370     		strb	r3, [r2]
 1839              	.L102:
 463:..\src/command_processing.c ****                         m_tmp = m_addr + i*sod;
 1840              		.loc 1 463 0 is_stmt 0 discriminator 1
 1841 0728 07F5BE53 		add	r3, r7, #6080
 1842 072c 03F11503 		add	r3, r3, #21
 1843 0730 1A78     		ldrb	r2, [r3]	@ zero_extendqisi2
 1844 0732 07F11803 		add	r3, r7, #24
 1845 0736 143B     		subs	r3, r3, #20
 1846 0738 1B68     		ldr	r3, [r3]
 1847 073a 1344     		add	r3, r3, r2
 1848 073c 1B78     		ldrb	r3, [r3]	@ zero_extendqisi2
 1849 073e 07F5BE52 		add	r2, r7, #6080
 1850 0742 02F11702 		add	r2, r2, #23
 1851 0746 1278     		ldrb	r2, [r2]	@ zero_extendqisi2
 1852 0748 9A42     		cmp	r2, r3
 1853 074a FFF471AF 		bcc	.L105
 468:..\src/command_processing.c ****                         }
 469:..\src/command_processing.c ****                     }
 470:..\src/command_processing.c ****                     break;
 1854              		.loc 1 470 0 is_stmt 1
 1855 074e 01F0BCBE 		b	.L114
ARM GAS  C:\Users\mgnocco\AppData\Local\Temp\cc5vWZGV.s 			page 58


 1856              	.L88:
 471:..\src/command_processing.c ****                 case TYPE_UINT32: 
 472:..\src/command_processing.c ****                     for (i=0; i<NUM_ITEMS[idx]; i++){
 1857              		.loc 1 472 0
 1858 0752 0023     		movs	r3, #0
 1859 0754 07F5BE52 		add	r2, r7, #6080
 1860 0758 02F11702 		add	r2, r2, #23
 1861 075c 1370     		strb	r3, [r2]
 1862 075e 7BE0     		b	.L106
 1863              	.L109:
 473:..\src/command_processing.c ****                         m_tmp = m_addr + i*sod;
 1864              		.loc 1 473 0
 1865 0760 07F5BE53 		add	r3, r7, #6080
 1866 0764 03F11703 		add	r3, r3, #23
 1867 0768 1B78     		ldrb	r3, [r3]	@ zero_extendqisi2
 1868 076a 07F5BE52 		add	r2, r7, #6080
 1869 076e 02F11302 		add	r2, r2, #19
 1870 0772 1278     		ldrb	r2, [r2]	@ zero_extendqisi2
 1871 0774 02FB03F3 		mul	r3, r2, r3
 1872 0778 1A46     		mov	r2, r3
 1873 077a 07F5BE53 		add	r3, r7, #6080
 1874 077e 03F10803 		add	r3, r3, #8
 1875 0782 1B68     		ldr	r3, [r3]
 1876 0784 1344     		add	r3, r3, r2
 1877 0786 07F5BE52 		add	r2, r7, #6080
 1878 078a 02F10402 		add	r2, r2, #4
 1879 078e 1360     		str	r3, [r2]
 474:..\src/command_processing.c ****                         aux_uint32 = *((uint32*)m_tmp);
 1880              		.loc 1 474 0
 1881 0790 07F5BE53 		add	r3, r7, #6080
 1882 0794 03F10403 		add	r3, r3, #4
 1883 0798 1B68     		ldr	r3, [r3]
 1884 079a 1A68     		ldr	r2, [r3]
 1885 079c 07F11803 		add	r3, r7, #24
 1886 07a0 083B     		subs	r3, r3, #8
 1887 07a2 1A60     		str	r2, [r3]
 475:..\src/command_processing.c ****                         for(j = 0; j < sod; j++) {
 1888              		.loc 1 475 0
 1889 07a4 0023     		movs	r3, #0
 1890 07a6 07F5BE52 		add	r2, r7, #6080
 1891 07aa 02F11602 		add	r2, r2, #22
 1892 07ae 1370     		strb	r3, [r2]
 1893 07b0 3BE0     		b	.L107
 1894              	.L108:
 476:..\src/command_processing.c ****                             packet_data[(4 + PARAM_BYTE_SLOT*idx + i*sod) + sod - j -1] = ((char*)(
 1895              		.loc 1 476 0 discriminator 3
 1896 07b2 07F5BE53 		add	r3, r7, #6080
 1897 07b6 03F11503 		add	r3, r3, #21
 1898 07ba 1B78     		ldrb	r3, [r3]	@ zero_extendqisi2
 1899 07bc 3222     		movs	r2, #50
 1900 07be 02FB03F3 		mul	r3, r2, r3
 1901 07c2 1A1D     		adds	r2, r3, #4
 1902 07c4 07F5BE53 		add	r3, r7, #6080
 1903 07c8 03F11703 		add	r3, r3, #23
 1904 07cc 1B78     		ldrb	r3, [r3]	@ zero_extendqisi2
 1905 07ce 07F5BE51 		add	r1, r7, #6080
 1906 07d2 01F11301 		add	r1, r1, #19
ARM GAS  C:\Users\mgnocco\AppData\Local\Temp\cc5vWZGV.s 			page 59


 1907 07d6 0978     		ldrb	r1, [r1]	@ zero_extendqisi2
 1908 07d8 01FB03F3 		mul	r3, r1, r3
 1909 07dc 1A44     		add	r2, r2, r3
 1910 07de 07F5BE53 		add	r3, r7, #6080
 1911 07e2 03F11303 		add	r3, r3, #19
 1912 07e6 1B78     		ldrb	r3, [r3]	@ zero_extendqisi2
 1913 07e8 1A44     		add	r2, r2, r3
 1914 07ea 07F5BE53 		add	r3, r7, #6080
 1915 07ee 03F11603 		add	r3, r3, #22
 1916 07f2 1B78     		ldrb	r3, [r3]	@ zero_extendqisi2
 1917 07f4 D31A     		subs	r3, r2, r3
 1918 07f6 5A1E     		subs	r2, r3, #1
 1919 07f8 07F5BE53 		add	r3, r7, #6080
 1920 07fc 03F11603 		add	r3, r3, #22
 1921 0800 1978     		ldrb	r1, [r3]	@ zero_extendqisi2
 1922 0802 07F11803 		add	r3, r7, #24
 1923 0806 083B     		subs	r3, r3, #8
 1924 0808 0B44     		add	r3, r3, r1
 1925 080a 1978     		ldrb	r1, [r3]	@ zero_extendqisi2
 1926 080c 07F15803 		add	r3, r7, #88
 1927 0810 043B     		subs	r3, r3, #4
 1928 0812 9954     		strb	r1, [r3, r2]
 475:..\src/command_processing.c ****                         for(j = 0; j < sod; j++) {
 1929              		.loc 1 475 0 discriminator 3
 1930 0814 07F5BE53 		add	r3, r7, #6080
 1931 0818 03F11603 		add	r3, r3, #22
 1932 081c 1B78     		ldrb	r3, [r3]	@ zero_extendqisi2
 1933 081e 0133     		adds	r3, r3, #1
 1934 0820 07F5BE52 		add	r2, r7, #6080
 1935 0824 02F11602 		add	r2, r2, #22
 1936 0828 1370     		strb	r3, [r2]
 1937              	.L107:
 475:..\src/command_processing.c ****                         for(j = 0; j < sod; j++) {
 1938              		.loc 1 475 0 is_stmt 0 discriminator 1
 1939 082a 07F5BE53 		add	r3, r7, #6080
 1940 082e 03F11603 		add	r3, r3, #22
 1941 0832 1A78     		ldrb	r2, [r3]	@ zero_extendqisi2
 1942 0834 07F5BE53 		add	r3, r7, #6080
 1943 0838 03F11303 		add	r3, r3, #19
 1944 083c 1B78     		ldrb	r3, [r3]	@ zero_extendqisi2
 1945 083e 9A42     		cmp	r2, r3
 1946 0840 B7D3     		bcc	.L108
 472:..\src/command_processing.c ****                         m_tmp = m_addr + i*sod;
 1947              		.loc 1 472 0 is_stmt 1 discriminator 2
 1948 0842 07F5BE53 		add	r3, r7, #6080
 1949 0846 03F11703 		add	r3, r3, #23
 1950 084a 1B78     		ldrb	r3, [r3]	@ zero_extendqisi2
 1951 084c 0133     		adds	r3, r3, #1
 1952 084e 07F5BE52 		add	r2, r7, #6080
 1953 0852 02F11702 		add	r2, r2, #23
 1954 0856 1370     		strb	r3, [r2]
 1955              	.L106:
 472:..\src/command_processing.c ****                         m_tmp = m_addr + i*sod;
 1956              		.loc 1 472 0 is_stmt 0 discriminator 1
 1957 0858 07F5BE53 		add	r3, r7, #6080
 1958 085c 03F11503 		add	r3, r3, #21
 1959 0860 1A78     		ldrb	r2, [r3]	@ zero_extendqisi2
ARM GAS  C:\Users\mgnocco\AppData\Local\Temp\cc5vWZGV.s 			page 60


 1960 0862 07F11803 		add	r3, r7, #24
 1961 0866 143B     		subs	r3, r3, #20
 1962 0868 1B68     		ldr	r3, [r3]
 1963 086a 1344     		add	r3, r3, r2
 1964 086c 1B78     		ldrb	r3, [r3]	@ zero_extendqisi2
 1965 086e 07F5BE52 		add	r2, r7, #6080
 1966 0872 02F11702 		add	r2, r2, #23
 1967 0876 1278     		ldrb	r2, [r2]	@ zero_extendqisi2
 1968 0878 9A42     		cmp	r2, r3
 1969 087a FFF471AF 		bcc	.L109
 477:..\src/command_processing.c ****                         }
 478:..\src/command_processing.c ****                     }
 479:..\src/command_processing.c ****                     break;
 1970              		.loc 1 479 0 is_stmt 1
 1971 087e 01F024BE 		b	.L114
 1972              	.L89:
 480:..\src/command_processing.c ****                     
 481:..\src/command_processing.c ****                 case TYPE_FLOAT:
 482:..\src/command_processing.c ****                     for (i=0; i<NUM_ITEMS[idx]; i++){
 1973              		.loc 1 482 0
 1974 0882 0023     		movs	r3, #0
 1975 0884 07F5BE52 		add	r2, r7, #6080
 1976 0888 02F11702 		add	r2, r2, #23
 1977 088c 1370     		strb	r3, [r2]
 1978 088e 7BE0     		b	.L110
 1979              	.L113:
 483:..\src/command_processing.c ****                         m_tmp = m_addr + i*sod;
 1980              		.loc 1 483 0
 1981 0890 07F5BE53 		add	r3, r7, #6080
 1982 0894 03F11703 		add	r3, r3, #23
 1983 0898 1B78     		ldrb	r3, [r3]	@ zero_extendqisi2
 1984 089a 07F5BE52 		add	r2, r7, #6080
 1985 089e 02F11302 		add	r2, r2, #19
 1986 08a2 1278     		ldrb	r2, [r2]	@ zero_extendqisi2
 1987 08a4 02FB03F3 		mul	r3, r2, r3
 1988 08a8 1A46     		mov	r2, r3
 1989 08aa 07F5BE53 		add	r3, r7, #6080
 1990 08ae 03F10803 		add	r3, r3, #8
 1991 08b2 1B68     		ldr	r3, [r3]
 1992 08b4 1344     		add	r3, r3, r2
 1993 08b6 07F5BE52 		add	r2, r7, #6080
 1994 08ba 02F10402 		add	r2, r2, #4
 1995 08be 1360     		str	r3, [r2]
 484:..\src/command_processing.c ****                         aux_float = *((float*)m_tmp);
 1996              		.loc 1 484 0
 1997 08c0 07F5BE53 		add	r3, r7, #6080
 1998 08c4 03F10403 		add	r3, r3, #4
 1999 08c8 1B68     		ldr	r3, [r3]
 2000 08ca 1A68     		ldr	r2, [r3]	@ float
 2001 08cc 07F13803 		add	r3, r7, #56
 2002 08d0 1C3B     		subs	r3, r3, #28
 2003 08d2 1A60     		str	r2, [r3]	@ float
 485:..\src/command_processing.c ****                         for(j = 0; j < sod; j++) {
 2004              		.loc 1 485 0
 2005 08d4 0023     		movs	r3, #0
 2006 08d6 07F5BE52 		add	r2, r7, #6080
 2007 08da 02F11602 		add	r2, r2, #22
ARM GAS  C:\Users\mgnocco\AppData\Local\Temp\cc5vWZGV.s 			page 61


 2008 08de 1370     		strb	r3, [r2]
 2009 08e0 3BE0     		b	.L111
 2010              	.L112:
 486:..\src/command_processing.c ****                             packet_data[(4 + PARAM_BYTE_SLOT*idx + i*sod) + sod - j -1] = ((char*)(
 2011              		.loc 1 486 0 discriminator 3
 2012 08e2 07F5BE53 		add	r3, r7, #6080
 2013 08e6 03F11503 		add	r3, r3, #21
 2014 08ea 1B78     		ldrb	r3, [r3]	@ zero_extendqisi2
 2015 08ec 3222     		movs	r2, #50
 2016 08ee 02FB03F3 		mul	r3, r2, r3
 2017 08f2 1A1D     		adds	r2, r3, #4
 2018 08f4 07F5BE53 		add	r3, r7, #6080
 2019 08f8 03F11703 		add	r3, r3, #23
 2020 08fc 1B78     		ldrb	r3, [r3]	@ zero_extendqisi2
 2021 08fe 07F5BE51 		add	r1, r7, #6080
 2022 0902 01F11301 		add	r1, r1, #19
 2023 0906 0978     		ldrb	r1, [r1]	@ zero_extendqisi2
 2024 0908 01FB03F3 		mul	r3, r1, r3
 2025 090c 1A44     		add	r2, r2, r3
 2026 090e 07F5BE53 		add	r3, r7, #6080
 2027 0912 03F11303 		add	r3, r3, #19
 2028 0916 1B78     		ldrb	r3, [r3]	@ zero_extendqisi2
 2029 0918 1A44     		add	r2, r2, r3
 2030 091a 07F5BE53 		add	r3, r7, #6080
 2031 091e 03F11603 		add	r3, r3, #22
 2032 0922 1B78     		ldrb	r3, [r3]	@ zero_extendqisi2
 2033 0924 D31A     		subs	r3, r2, r3
 2034 0926 5A1E     		subs	r2, r3, #1
 2035 0928 07F5BE53 		add	r3, r7, #6080
 2036 092c 03F11603 		add	r3, r3, #22
 2037 0930 1978     		ldrb	r1, [r3]	@ zero_extendqisi2
 2038 0932 07F13803 		add	r3, r7, #56
 2039 0936 1C3B     		subs	r3, r3, #28
 2040 0938 0B44     		add	r3, r3, r1
 2041 093a 1978     		ldrb	r1, [r3]	@ zero_extendqisi2
 2042 093c 07F15803 		add	r3, r7, #88
 2043 0940 043B     		subs	r3, r3, #4
 2044 0942 9954     		strb	r1, [r3, r2]
 485:..\src/command_processing.c ****                         for(j = 0; j < sod; j++) {
 2045              		.loc 1 485 0 discriminator 3
 2046 0944 07F5BE53 		add	r3, r7, #6080
 2047 0948 03F11603 		add	r3, r3, #22
 2048 094c 1B78     		ldrb	r3, [r3]	@ zero_extendqisi2
 2049 094e 0133     		adds	r3, r3, #1
 2050 0950 07F5BE52 		add	r2, r7, #6080
 2051 0954 02F11602 		add	r2, r2, #22
 2052 0958 1370     		strb	r3, [r2]
 2053              	.L111:
 485:..\src/command_processing.c ****                         for(j = 0; j < sod; j++) {
 2054              		.loc 1 485 0 is_stmt 0 discriminator 1
 2055 095a 07F5BE53 		add	r3, r7, #6080
 2056 095e 03F11603 		add	r3, r3, #22
 2057 0962 1A78     		ldrb	r2, [r3]	@ zero_extendqisi2
 2058 0964 07F5BE53 		add	r3, r7, #6080
 2059 0968 03F11303 		add	r3, r3, #19
 2060 096c 1B78     		ldrb	r3, [r3]	@ zero_extendqisi2
 2061 096e 9A42     		cmp	r2, r3
ARM GAS  C:\Users\mgnocco\AppData\Local\Temp\cc5vWZGV.s 			page 62


 2062 0970 B7D3     		bcc	.L112
 482:..\src/command_processing.c ****                         m_tmp = m_addr + i*sod;
 2063              		.loc 1 482 0 is_stmt 1 discriminator 2
 2064 0972 07F5BE53 		add	r3, r7, #6080
 2065 0976 03F11703 		add	r3, r3, #23
 2066 097a 1B78     		ldrb	r3, [r3]	@ zero_extendqisi2
 2067 097c 0133     		adds	r3, r3, #1
 2068 097e 07F5BE52 		add	r2, r7, #6080
 2069 0982 02F11702 		add	r2, r2, #23
 2070 0986 1370     		strb	r3, [r2]
 2071              	.L110:
 482:..\src/command_processing.c ****                         m_tmp = m_addr + i*sod;
 2072              		.loc 1 482 0 is_stmt 0 discriminator 1
 2073 0988 07F5BE53 		add	r3, r7, #6080
 2074 098c 03F11503 		add	r3, r3, #21
 2075 0990 1A78     		ldrb	r2, [r3]	@ zero_extendqisi2
 2076 0992 07F11803 		add	r3, r7, #24
 2077 0996 143B     		subs	r3, r3, #20
 2078 0998 1B68     		ldr	r3, [r3]
 2079 099a 1344     		add	r3, r3, r2
 2080 099c 1B78     		ldrb	r3, [r3]	@ zero_extendqisi2
 2081 099e 07F5BE52 		add	r2, r7, #6080
 2082 09a2 02F11702 		add	r2, r2, #23
 2083 09a6 1278     		ldrb	r2, [r2]	@ zero_extendqisi2
 2084 09a8 9A42     		cmp	r2, r3
 2085 09aa FFF471AF 		bcc	.L113
 487:..\src/command_processing.c ****                         }
 488:..\src/command_processing.c ****                     }
 489:..\src/command_processing.c ****                     break;   
 2086              		.loc 1 489 0 is_stmt 1 discriminator 7
 2087 09ae 00BF     		nop
 2088 09b0 01F08BBD 		b	.L114
 2089              	.L80:
 490:..\src/command_processing.c ****             }
 491:..\src/command_processing.c ****         }
 492:..\src/command_processing.c ****         else {
 493:..\src/command_processing.c ****             
 494:..\src/command_processing.c **** // DO NOT MODIFY THE FUNCTION BEFORE THIS LINE
 495:..\src/command_processing.c ****             
 496:..\src/command_processing.c **** // MODIFY CUSTOM PARAM            
 497:..\src/command_processing.c ****                 switch(idx+1){
 2090              		.loc 1 497 0
 2091 09b4 07F5BE53 		add	r3, r7, #6080
 2092 09b8 03F11503 		add	r3, r3, #21
 2093 09bc 1B78     		ldrb	r3, [r3]	@ zero_extendqisi2
 2094 09be 0133     		adds	r3, r3, #1
 2095 09c0 023B     		subs	r3, r3, #2
 2096 09c2 332B     		cmp	r3, #51
 2097 09c4 01F28085 		bhi	.L284
 2098 09c8 01A2     		adr	r2, .L117
 2099 09ca 52F823F0 		ldr	pc, [r2, r3, lsl #2]
 2100 09ce 00BF     		.p2align 2
 2101              	.L117:
 2102 09d0 A10A0000 		.word	.L116+1
 2103 09d4 6D0F0000 		.word	.L118+1
 2104 09d8 C9240000 		.word	.L284+1
 2105 09dc C9240000 		.word	.L284+1
ARM GAS  C:\Users\mgnocco\AppData\Local\Temp\cc5vWZGV.s 			page 63


 2106 09e0 C9240000 		.word	.L284+1
 2107 09e4 C9240000 		.word	.L284+1
 2108 09e8 37140000 		.word	.L119+1
 2109 09ec C9240000 		.word	.L284+1
 2110 09f0 C9240000 		.word	.L284+1
 2111 09f4 AB150000 		.word	.L120+1
 2112 09f8 C9240000 		.word	.L284+1
 2113 09fc C9240000 		.word	.L284+1
 2114 0a00 C9240000 		.word	.L284+1
 2115 0a04 C9240000 		.word	.L284+1
 2116 0a08 C9240000 		.word	.L284+1
 2117 0a0c C9240000 		.word	.L284+1
 2118 0a10 C9240000 		.word	.L284+1
 2119 0a14 C9240000 		.word	.L284+1
 2120 0a18 C9240000 		.word	.L284+1
 2121 0a1c C9240000 		.word	.L284+1
 2122 0a20 C9240000 		.word	.L284+1
 2123 0a24 79170000 		.word	.L121+1
 2124 0a28 C9240000 		.word	.L284+1
 2125 0a2c C9240000 		.word	.L284+1
 2126 0a30 C9240000 		.word	.L284+1
 2127 0a34 C9240000 		.word	.L284+1
 2128 0a38 C9240000 		.word	.L284+1
 2129 0a3c C9240000 		.word	.L284+1
 2130 0a40 C9240000 		.word	.L284+1
 2131 0a44 C9240000 		.word	.L284+1
 2132 0a48 C9240000 		.word	.L284+1
 2133 0a4c C9240000 		.word	.L284+1
 2134 0a50 C9240000 		.word	.L284+1
 2135 0a54 C9240000 		.word	.L284+1
 2136 0a58 C9240000 		.word	.L284+1
 2137 0a5c C9240000 		.word	.L284+1
 2138 0a60 C9240000 		.word	.L284+1
 2139 0a64 C9240000 		.word	.L284+1
 2140 0a68 C9240000 		.word	.L284+1
 2141 0a6c C9240000 		.word	.L284+1
 2142 0a70 C9240000 		.word	.L284+1
 2143 0a74 C9240000 		.word	.L284+1
 2144 0a78 43180000 		.word	.L122+1
 2145 0a7c 111D0000 		.word	.L123+1
 2146 0a80 C9240000 		.word	.L284+1
 2147 0a84 C9240000 		.word	.L284+1
 2148 0a88 C9240000 		.word	.L284+1
 2149 0a8c C9240000 		.word	.L284+1
 2150 0a90 DB210000 		.word	.L124+1
 2151 0a94 C9240000 		.word	.L284+1
 2152 0a98 C9240000 		.word	.L284+1
 2153 0a9c FF220000 		.word	.L125+1
 2154              		.p2align 1
 2155              	.L116:
 498:..\src/command_processing.c ****                     case 2:         // Position PID
 499:..\src/command_processing.c ****                         if(c_mem.motor[MOTOR_IDX].control_mode != CURR_AND_POS_CONTROL) {
 2156              		.loc 1 499 0
 2157 0aa0 07F5BE53 		add	r3, r7, #6080
 2158 0aa4 03F10F03 		add	r3, r3, #15
 2159 0aa8 1A78     		ldrb	r2, [r3]	@ zero_extendqisi2
 2160 0aaa AC49     		ldr	r1, .L290
ARM GAS  C:\Users\mgnocco\AppData\Local\Temp\cc5vWZGV.s 			page 64


 2161 0aac 1346     		mov	r3, r2
 2162 0aae DB00     		lsls	r3, r3, #3
 2163 0ab0 9B1A     		subs	r3, r3, r2
 2164 0ab2 1B01     		lsls	r3, r3, #4
 2165 0ab4 0B44     		add	r3, r3, r1
 2166 0ab6 03F20F13 		addw	r3, r3, #271
 2167 0aba 1B78     		ldrb	r3, [r3]	@ zero_extendqisi2
 2168 0abc 032B     		cmp	r3, #3
 2169 0abe 00F02981 		beq	.L126
 500:..\src/command_processing.c ****                             aux_float = (float) c_mem.motor[MOTOR_IDX].k_p / 65536;
 2170              		.loc 1 500 0
 2171 0ac2 07F5BE53 		add	r3, r7, #6080
 2172 0ac6 03F10F03 		add	r3, r3, #15
 2173 0aca 1A78     		ldrb	r2, [r3]	@ zero_extendqisi2
 2174 0acc A349     		ldr	r1, .L290
 2175 0ace 1346     		mov	r3, r2
 2176 0ad0 DB00     		lsls	r3, r3, #3
 2177 0ad2 9B1A     		subs	r3, r3, r2
 2178 0ad4 1B01     		lsls	r3, r3, #4
 2179 0ad6 0B44     		add	r3, r3, r1
 2180 0ad8 B033     		adds	r3, r3, #176
 2181 0ada 1B68     		ldr	r3, [r3]
 2182 0adc 1846     		mov	r0, r3
 2183 0ade FFF7FEFF 		bl	__aeabi_i2f
 2184 0ae2 0346     		mov	r3, r0
 2185 0ae4 4FF08F41 		mov	r1, #1199570944
 2186 0ae8 1846     		mov	r0, r3
 2187 0aea FFF7FEFF 		bl	__aeabi_fdiv
 2188 0aee 0346     		mov	r3, r0
 2189 0af0 1A46     		mov	r2, r3
 2190 0af2 07F13803 		add	r3, r7, #56
 2191 0af6 1C3B     		subs	r3, r3, #28
 2192 0af8 1A60     		str	r2, [r3]	@ float
 501:..\src/command_processing.c ****                             for(i = 0; i < sod; i++) {
 2193              		.loc 1 501 0
 2194 0afa 0023     		movs	r3, #0
 2195 0afc 07F5BE52 		add	r2, r7, #6080
 2196 0b00 02F11702 		add	r2, r2, #23
 2197 0b04 1370     		strb	r3, [r2]
 2198 0b06 2EE0     		b	.L127
 2199              	.L128:
 502:..\src/command_processing.c ****                                 packet_data[(4 + PARAM_BYTE_SLOT*idx) + sod - i -1] = ((char*)(&aux
 2200              		.loc 1 502 0 discriminator 3
 2201 0b08 07F5BE53 		add	r3, r7, #6080
 2202 0b0c 03F11503 		add	r3, r3, #21
 2203 0b10 1B78     		ldrb	r3, [r3]	@ zero_extendqisi2
 2204 0b12 3222     		movs	r2, #50
 2205 0b14 02FB03F3 		mul	r3, r2, r3
 2206 0b18 1A1D     		adds	r2, r3, #4
 2207 0b1a 07F5BE53 		add	r3, r7, #6080
 2208 0b1e 03F11303 		add	r3, r3, #19
 2209 0b22 1B78     		ldrb	r3, [r3]	@ zero_extendqisi2
 2210 0b24 1A44     		add	r2, r2, r3
 2211 0b26 07F5BE53 		add	r3, r7, #6080
 2212 0b2a 03F11703 		add	r3, r3, #23
 2213 0b2e 1B78     		ldrb	r3, [r3]	@ zero_extendqisi2
 2214 0b30 D31A     		subs	r3, r2, r3
ARM GAS  C:\Users\mgnocco\AppData\Local\Temp\cc5vWZGV.s 			page 65


 2215 0b32 5A1E     		subs	r2, r3, #1
 2216 0b34 07F5BE53 		add	r3, r7, #6080
 2217 0b38 03F11703 		add	r3, r3, #23
 2218 0b3c 1978     		ldrb	r1, [r3]	@ zero_extendqisi2
 2219 0b3e 07F13803 		add	r3, r7, #56
 2220 0b42 1C3B     		subs	r3, r3, #28
 2221 0b44 0B44     		add	r3, r3, r1
 2222 0b46 1978     		ldrb	r1, [r3]	@ zero_extendqisi2
 2223 0b48 07F15803 		add	r3, r7, #88
 2224 0b4c 043B     		subs	r3, r3, #4
 2225 0b4e 9954     		strb	r1, [r3, r2]
 501:..\src/command_processing.c ****                             for(i = 0; i < sod; i++) {
 2226              		.loc 1 501 0 discriminator 3
 2227 0b50 07F5BE53 		add	r3, r7, #6080
 2228 0b54 03F11703 		add	r3, r3, #23
 2229 0b58 1B78     		ldrb	r3, [r3]	@ zero_extendqisi2
 2230 0b5a 0133     		adds	r3, r3, #1
 2231 0b5c 07F5BE52 		add	r2, r7, #6080
 2232 0b60 02F11702 		add	r2, r2, #23
 2233 0b64 1370     		strb	r3, [r2]
 2234              	.L127:
 501:..\src/command_processing.c ****                             for(i = 0; i < sod; i++) {
 2235              		.loc 1 501 0 is_stmt 0 discriminator 1
 2236 0b66 07F5BE53 		add	r3, r7, #6080
 2237 0b6a 03F11703 		add	r3, r3, #23
 2238 0b6e 1A78     		ldrb	r2, [r3]	@ zero_extendqisi2
 2239 0b70 07F5BE53 		add	r3, r7, #6080
 2240 0b74 03F11303 		add	r3, r3, #19
 2241 0b78 1B78     		ldrb	r3, [r3]	@ zero_extendqisi2
 2242 0b7a 9A42     		cmp	r2, r3
 2243 0b7c C4D3     		bcc	.L128
 503:..\src/command_processing.c ****                             }
 504:..\src/command_processing.c ****                             aux_float = (float) c_mem.motor[MOTOR_IDX].k_i / 65536;
 2244              		.loc 1 504 0 is_stmt 1
 2245 0b7e 07F5BE53 		add	r3, r7, #6080
 2246 0b82 03F10F03 		add	r3, r3, #15
 2247 0b86 1A78     		ldrb	r2, [r3]	@ zero_extendqisi2
 2248 0b88 7449     		ldr	r1, .L290
 2249 0b8a 1346     		mov	r3, r2
 2250 0b8c DB00     		lsls	r3, r3, #3
 2251 0b8e 9B1A     		subs	r3, r3, r2
 2252 0b90 1B01     		lsls	r3, r3, #4
 2253 0b92 0B44     		add	r3, r3, r1
 2254 0b94 B433     		adds	r3, r3, #180
 2255 0b96 1B68     		ldr	r3, [r3]
 2256 0b98 1846     		mov	r0, r3
 2257 0b9a FFF7FEFF 		bl	__aeabi_i2f
 2258 0b9e 0346     		mov	r3, r0
 2259 0ba0 4FF08F41 		mov	r1, #1199570944
 2260 0ba4 1846     		mov	r0, r3
 2261 0ba6 FFF7FEFF 		bl	__aeabi_fdiv
 2262 0baa 0346     		mov	r3, r0
 2263 0bac 1A46     		mov	r2, r3
 2264 0bae 07F13803 		add	r3, r7, #56
 2265 0bb2 1C3B     		subs	r3, r3, #28
 2266 0bb4 1A60     		str	r2, [r3]	@ float
 505:..\src/command_processing.c ****                             for(i = 0; i < sod; i++) {
ARM GAS  C:\Users\mgnocco\AppData\Local\Temp\cc5vWZGV.s 			page 66


 2267              		.loc 1 505 0
 2268 0bb6 0023     		movs	r3, #0
 2269 0bb8 07F5BE52 		add	r2, r7, #6080
 2270 0bbc 02F11702 		add	r2, r2, #23
 2271 0bc0 1370     		strb	r3, [r2]
 2272 0bc2 34E0     		b	.L129
 2273              	.L130:
 506:..\src/command_processing.c ****                                 packet_data[(4 + PARAM_BYTE_SLOT*idx + sod) + sod - i -1] = ((char*
 2274              		.loc 1 506 0 discriminator 3
 2275 0bc4 07F5BE53 		add	r3, r7, #6080
 2276 0bc8 03F11503 		add	r3, r3, #21
 2277 0bcc 1B78     		ldrb	r3, [r3]	@ zero_extendqisi2
 2278 0bce 3222     		movs	r2, #50
 2279 0bd0 02FB03F3 		mul	r3, r2, r3
 2280 0bd4 1A1D     		adds	r2, r3, #4
 2281 0bd6 07F5BE53 		add	r3, r7, #6080
 2282 0bda 03F11303 		add	r3, r3, #19
 2283 0bde 1B78     		ldrb	r3, [r3]	@ zero_extendqisi2
 2284 0be0 1A44     		add	r2, r2, r3
 2285 0be2 07F5BE53 		add	r3, r7, #6080
 2286 0be6 03F11303 		add	r3, r3, #19
 2287 0bea 1B78     		ldrb	r3, [r3]	@ zero_extendqisi2
 2288 0bec 1A44     		add	r2, r2, r3
 2289 0bee 07F5BE53 		add	r3, r7, #6080
 2290 0bf2 03F11703 		add	r3, r3, #23
 2291 0bf6 1B78     		ldrb	r3, [r3]	@ zero_extendqisi2
 2292 0bf8 D31A     		subs	r3, r2, r3
 2293 0bfa 5A1E     		subs	r2, r3, #1
 2294 0bfc 07F5BE53 		add	r3, r7, #6080
 2295 0c00 03F11703 		add	r3, r3, #23
 2296 0c04 1978     		ldrb	r1, [r3]	@ zero_extendqisi2
 2297 0c06 07F13803 		add	r3, r7, #56
 2298 0c0a 1C3B     		subs	r3, r3, #28
 2299 0c0c 0B44     		add	r3, r3, r1
 2300 0c0e 1978     		ldrb	r1, [r3]	@ zero_extendqisi2
 2301 0c10 07F15803 		add	r3, r7, #88
 2302 0c14 043B     		subs	r3, r3, #4
 2303 0c16 9954     		strb	r1, [r3, r2]
 505:..\src/command_processing.c ****                             for(i = 0; i < sod; i++) {
 2304              		.loc 1 505 0 discriminator 3
 2305 0c18 07F5BE53 		add	r3, r7, #6080
 2306 0c1c 03F11703 		add	r3, r3, #23
 2307 0c20 1B78     		ldrb	r3, [r3]	@ zero_extendqisi2
 2308 0c22 0133     		adds	r3, r3, #1
 2309 0c24 07F5BE52 		add	r2, r7, #6080
 2310 0c28 02F11702 		add	r2, r2, #23
 2311 0c2c 1370     		strb	r3, [r2]
 2312              	.L129:
 505:..\src/command_processing.c ****                             for(i = 0; i < sod; i++) {
 2313              		.loc 1 505 0 is_stmt 0 discriminator 1
 2314 0c2e 07F5BE53 		add	r3, r7, #6080
 2315 0c32 03F11703 		add	r3, r3, #23
 2316 0c36 1A78     		ldrb	r2, [r3]	@ zero_extendqisi2
 2317 0c38 07F5BE53 		add	r3, r7, #6080
 2318 0c3c 03F11303 		add	r3, r3, #19
 2319 0c40 1B78     		ldrb	r3, [r3]	@ zero_extendqisi2
 2320 0c42 9A42     		cmp	r2, r3
ARM GAS  C:\Users\mgnocco\AppData\Local\Temp\cc5vWZGV.s 			page 67


 2321 0c44 BED3     		bcc	.L130
 507:..\src/command_processing.c ****                             }
 508:..\src/command_processing.c ****                             aux_float = (float) c_mem.motor[MOTOR_IDX].k_d / 65536;
 2322              		.loc 1 508 0 is_stmt 1
 2323 0c46 07F5BE53 		add	r3, r7, #6080
 2324 0c4a 03F10F03 		add	r3, r3, #15
 2325 0c4e 1A78     		ldrb	r2, [r3]	@ zero_extendqisi2
 2326 0c50 4249     		ldr	r1, .L290
 2327 0c52 1346     		mov	r3, r2
 2328 0c54 DB00     		lsls	r3, r3, #3
 2329 0c56 9B1A     		subs	r3, r3, r2
 2330 0c58 1B01     		lsls	r3, r3, #4
 2331 0c5a 0B44     		add	r3, r3, r1
 2332 0c5c B833     		adds	r3, r3, #184
 2333 0c5e 1B68     		ldr	r3, [r3]
 2334 0c60 1846     		mov	r0, r3
 2335 0c62 FFF7FEFF 		bl	__aeabi_i2f
 2336 0c66 0346     		mov	r3, r0
 2337 0c68 4FF08F41 		mov	r1, #1199570944
 2338 0c6c 1846     		mov	r0, r3
 2339 0c6e FFF7FEFF 		bl	__aeabi_fdiv
 2340 0c72 0346     		mov	r3, r0
 2341 0c74 1A46     		mov	r2, r3
 2342 0c76 07F13803 		add	r3, r7, #56
 2343 0c7a 1C3B     		subs	r3, r3, #28
 2344 0c7c 1A60     		str	r2, [r3]	@ float
 509:..\src/command_processing.c ****                             for(i = 0; i < sod; i++) {
 2345              		.loc 1 509 0
 2346 0c7e 0023     		movs	r3, #0
 2347 0c80 07F5BE52 		add	r2, r7, #6080
 2348 0c84 02F11702 		add	r2, r2, #23
 2349 0c88 1370     		strb	r3, [r2]
 2350 0c8a 35E0     		b	.L131
 2351              	.L132:
 510:..\src/command_processing.c ****                                 packet_data[(4 + PARAM_BYTE_SLOT*idx + 2*sod) + sod - i -1] = ((cha
 2352              		.loc 1 510 0 discriminator 3
 2353 0c8c 07F5BE53 		add	r3, r7, #6080
 2354 0c90 03F11503 		add	r3, r3, #21
 2355 0c94 1B78     		ldrb	r3, [r3]	@ zero_extendqisi2
 2356 0c96 3222     		movs	r2, #50
 2357 0c98 02FB03F3 		mul	r3, r2, r3
 2358 0c9c 1A1D     		adds	r2, r3, #4
 2359 0c9e 07F5BE53 		add	r3, r7, #6080
 2360 0ca2 03F11303 		add	r3, r3, #19
 2361 0ca6 1B78     		ldrb	r3, [r3]	@ zero_extendqisi2
 2362 0ca8 5B00     		lsls	r3, r3, #1
 2363 0caa 1A44     		add	r2, r2, r3
 2364 0cac 07F5BE53 		add	r3, r7, #6080
 2365 0cb0 03F11303 		add	r3, r3, #19
 2366 0cb4 1B78     		ldrb	r3, [r3]	@ zero_extendqisi2
 2367 0cb6 1A44     		add	r2, r2, r3
 2368 0cb8 07F5BE53 		add	r3, r7, #6080
 2369 0cbc 03F11703 		add	r3, r3, #23
 2370 0cc0 1B78     		ldrb	r3, [r3]	@ zero_extendqisi2
 2371 0cc2 D31A     		subs	r3, r2, r3
 2372 0cc4 5A1E     		subs	r2, r3, #1
 2373 0cc6 07F5BE53 		add	r3, r7, #6080
ARM GAS  C:\Users\mgnocco\AppData\Local\Temp\cc5vWZGV.s 			page 68


 2374 0cca 03F11703 		add	r3, r3, #23
 2375 0cce 1978     		ldrb	r1, [r3]	@ zero_extendqisi2
 2376 0cd0 07F13803 		add	r3, r7, #56
 2377 0cd4 1C3B     		subs	r3, r3, #28
 2378 0cd6 0B44     		add	r3, r3, r1
 2379 0cd8 1978     		ldrb	r1, [r3]	@ zero_extendqisi2
 2380 0cda 07F15803 		add	r3, r7, #88
 2381 0cde 043B     		subs	r3, r3, #4
 2382 0ce0 9954     		strb	r1, [r3, r2]
 509:..\src/command_processing.c ****                             for(i = 0; i < sod; i++) {
 2383              		.loc 1 509 0 discriminator 3
 2384 0ce2 07F5BE53 		add	r3, r7, #6080
 2385 0ce6 03F11703 		add	r3, r3, #23
 2386 0cea 1B78     		ldrb	r3, [r3]	@ zero_extendqisi2
 2387 0cec 0133     		adds	r3, r3, #1
 2388 0cee 07F5BE52 		add	r2, r7, #6080
 2389 0cf2 02F11702 		add	r2, r2, #23
 2390 0cf6 1370     		strb	r3, [r2]
 2391              	.L131:
 509:..\src/command_processing.c ****                             for(i = 0; i < sod; i++) {
 2392              		.loc 1 509 0 is_stmt 0 discriminator 1
 2393 0cf8 07F5BE53 		add	r3, r7, #6080
 2394 0cfc 03F11703 		add	r3, r3, #23
 2395 0d00 1A78     		ldrb	r2, [r3]	@ zero_extendqisi2
 2396 0d02 07F5BE53 		add	r3, r7, #6080
 2397 0d06 03F11303 		add	r3, r3, #19
 2398 0d0a 1B78     		ldrb	r3, [r3]	@ zero_extendqisi2
 2399 0d0c 9A42     		cmp	r2, r3
 2400 0d0e BDD3     		bcc	.L132
 511:..\src/command_processing.c ****                             } 
 512:..\src/command_processing.c ****                         }
 513:..\src/command_processing.c ****                         else {
 514:..\src/command_processing.c ****                             aux_float = (float) c_mem.motor[MOTOR_IDX].k_p_dl / 65536;
 515:..\src/command_processing.c ****                             for(i = 0; i < sod; i++) {
 516:..\src/command_processing.c ****                                 packet_data[(4 + PARAM_BYTE_SLOT*idx) + sod - i -1] = ((char*)(&aux
 517:..\src/command_processing.c ****                             }
 518:..\src/command_processing.c ****                             aux_float = (float) c_mem.motor[MOTOR_IDX].k_i_dl / 65536;
 519:..\src/command_processing.c ****                             for(i = 0; i < sod; i++) {
 520:..\src/command_processing.c ****                                 packet_data[(4 + PARAM_BYTE_SLOT*idx + sod) + sod - i -1] = ((char*
 521:..\src/command_processing.c ****                             }
 522:..\src/command_processing.c ****                             aux_float = (float) c_mem.motor[MOTOR_IDX].k_d_dl / 65536;
 523:..\src/command_processing.c ****                             for(i = 0; i < sod; i++) {
 524:..\src/command_processing.c ****                                 packet_data[(4 + PARAM_BYTE_SLOT*idx + 2*sod) + sod - i -1] = ((cha
 525:..\src/command_processing.c ****                             }
 526:..\src/command_processing.c ****                         }
 527:..\src/command_processing.c ****                         break;
 2401              		.loc 1 527 0 is_stmt 1
 2402 0d10 01F0DBBB 		b	.L114
 2403              	.L126:
 514:..\src/command_processing.c ****                             for(i = 0; i < sod; i++) {
 2404              		.loc 1 514 0
 2405 0d14 07F5BE53 		add	r3, r7, #6080
 2406 0d18 03F10F03 		add	r3, r3, #15
 2407 0d1c 1A78     		ldrb	r2, [r3]	@ zero_extendqisi2
 2408 0d1e 0F49     		ldr	r1, .L290
 2409 0d20 1346     		mov	r3, r2
 2410 0d22 DB00     		lsls	r3, r3, #3
ARM GAS  C:\Users\mgnocco\AppData\Local\Temp\cc5vWZGV.s 			page 69


 2411 0d24 9B1A     		subs	r3, r3, r2
 2412 0d26 1B01     		lsls	r3, r3, #4
 2413 0d28 0B44     		add	r3, r3, r1
 2414 0d2a C833     		adds	r3, r3, #200
 2415 0d2c 1B68     		ldr	r3, [r3]
 2416 0d2e 1846     		mov	r0, r3
 2417 0d30 FFF7FEFF 		bl	__aeabi_i2f
 2418 0d34 0346     		mov	r3, r0
 2419 0d36 4FF08F41 		mov	r1, #1199570944
 2420 0d3a 1846     		mov	r0, r3
 2421 0d3c FFF7FEFF 		bl	__aeabi_fdiv
 2422 0d40 0346     		mov	r3, r0
 2423 0d42 1A46     		mov	r2, r3
 2424 0d44 07F13803 		add	r3, r7, #56
 2425 0d48 1C3B     		subs	r3, r3, #28
 2426 0d4a 1A60     		str	r2, [r3]	@ float
 515:..\src/command_processing.c ****                                 packet_data[(4 + PARAM_BYTE_SLOT*idx) + sod - i -1] = ((char*)(&aux
 2427              		.loc 1 515 0
 2428 0d4c 0023     		movs	r3, #0
 2429 0d4e 07F5BE52 		add	r2, r7, #6080
 2430 0d52 02F11702 		add	r2, r2, #23
 2431 0d56 1370     		strb	r3, [r2]
 2432 0d58 31E0     		b	.L134
 2433              	.L291:
 2434 0d5a 00BF     		.align	2
 2435              	.L290:
 2436 0d5c 00000000 		.word	c_mem
 2437              	.L135:
 516:..\src/command_processing.c ****                             }
 2438              		.loc 1 516 0 discriminator 3
 2439 0d60 07F5BE53 		add	r3, r7, #6080
 2440 0d64 03F11503 		add	r3, r3, #21
 2441 0d68 1B78     		ldrb	r3, [r3]	@ zero_extendqisi2
 2442 0d6a 3222     		movs	r2, #50
 2443 0d6c 02FB03F3 		mul	r3, r2, r3
 2444 0d70 1A1D     		adds	r2, r3, #4
 2445 0d72 07F5BE53 		add	r3, r7, #6080
 2446 0d76 03F11303 		add	r3, r3, #19
 2447 0d7a 1B78     		ldrb	r3, [r3]	@ zero_extendqisi2
 2448 0d7c 1A44     		add	r2, r2, r3
 2449 0d7e 07F5BE53 		add	r3, r7, #6080
 2450 0d82 03F11703 		add	r3, r3, #23
 2451 0d86 1B78     		ldrb	r3, [r3]	@ zero_extendqisi2
 2452 0d88 D31A     		subs	r3, r2, r3
 2453 0d8a 5A1E     		subs	r2, r3, #1
 2454 0d8c 07F5BE53 		add	r3, r7, #6080
 2455 0d90 03F11703 		add	r3, r3, #23
 2456 0d94 1978     		ldrb	r1, [r3]	@ zero_extendqisi2
 2457 0d96 07F13803 		add	r3, r7, #56
 2458 0d9a 1C3B     		subs	r3, r3, #28
 2459 0d9c 0B44     		add	r3, r3, r1
 2460 0d9e 1978     		ldrb	r1, [r3]	@ zero_extendqisi2
 2461 0da0 07F15803 		add	r3, r7, #88
 2462 0da4 043B     		subs	r3, r3, #4
 2463 0da6 9954     		strb	r1, [r3, r2]
 515:..\src/command_processing.c ****                                 packet_data[(4 + PARAM_BYTE_SLOT*idx) + sod - i -1] = ((char*)(&aux
 2464              		.loc 1 515 0 discriminator 3
ARM GAS  C:\Users\mgnocco\AppData\Local\Temp\cc5vWZGV.s 			page 70


 2465 0da8 07F5BE53 		add	r3, r7, #6080
 2466 0dac 03F11703 		add	r3, r3, #23
 2467 0db0 1B78     		ldrb	r3, [r3]	@ zero_extendqisi2
 2468 0db2 0133     		adds	r3, r3, #1
 2469 0db4 07F5BE52 		add	r2, r7, #6080
 2470 0db8 02F11702 		add	r2, r2, #23
 2471 0dbc 1370     		strb	r3, [r2]
 2472              	.L134:
 515:..\src/command_processing.c ****                                 packet_data[(4 + PARAM_BYTE_SLOT*idx) + sod - i -1] = ((char*)(&aux
 2473              		.loc 1 515 0 is_stmt 0 discriminator 1
 2474 0dbe 07F5BE53 		add	r3, r7, #6080
 2475 0dc2 03F11703 		add	r3, r3, #23
 2476 0dc6 1A78     		ldrb	r2, [r3]	@ zero_extendqisi2
 2477 0dc8 07F5BE53 		add	r3, r7, #6080
 2478 0dcc 03F11303 		add	r3, r3, #19
 2479 0dd0 1B78     		ldrb	r3, [r3]	@ zero_extendqisi2
 2480 0dd2 9A42     		cmp	r2, r3
 2481 0dd4 C4D3     		bcc	.L135
 518:..\src/command_processing.c ****                             for(i = 0; i < sod; i++) {
 2482              		.loc 1 518 0 is_stmt 1
 2483 0dd6 07F5BE53 		add	r3, r7, #6080
 2484 0dda 03F10F03 		add	r3, r3, #15
 2485 0dde 1A78     		ldrb	r2, [r3]	@ zero_extendqisi2
 2486 0de0 AB49     		ldr	r1, .L292
 2487 0de2 1346     		mov	r3, r2
 2488 0de4 DB00     		lsls	r3, r3, #3
 2489 0de6 9B1A     		subs	r3, r3, r2
 2490 0de8 1B01     		lsls	r3, r3, #4
 2491 0dea 0B44     		add	r3, r3, r1
 2492 0dec CC33     		adds	r3, r3, #204
 2493 0dee 1B68     		ldr	r3, [r3]
 2494 0df0 1846     		mov	r0, r3
 2495 0df2 FFF7FEFF 		bl	__aeabi_i2f
 2496 0df6 0346     		mov	r3, r0
 2497 0df8 4FF08F41 		mov	r1, #1199570944
 2498 0dfc 1846     		mov	r0, r3
 2499 0dfe FFF7FEFF 		bl	__aeabi_fdiv
 2500 0e02 0346     		mov	r3, r0
 2501 0e04 1A46     		mov	r2, r3
 2502 0e06 07F13803 		add	r3, r7, #56
 2503 0e0a 1C3B     		subs	r3, r3, #28
 2504 0e0c 1A60     		str	r2, [r3]	@ float
 519:..\src/command_processing.c ****                                 packet_data[(4 + PARAM_BYTE_SLOT*idx + sod) + sod - i -1] = ((char*
 2505              		.loc 1 519 0
 2506 0e0e 0023     		movs	r3, #0
 2507 0e10 07F5BE52 		add	r2, r7, #6080
 2508 0e14 02F11702 		add	r2, r2, #23
 2509 0e18 1370     		strb	r3, [r2]
 2510 0e1a 34E0     		b	.L136
 2511              	.L137:
 520:..\src/command_processing.c ****                             }
 2512              		.loc 1 520 0 discriminator 3
 2513 0e1c 07F5BE53 		add	r3, r7, #6080
 2514 0e20 03F11503 		add	r3, r3, #21
 2515 0e24 1B78     		ldrb	r3, [r3]	@ zero_extendqisi2
 2516 0e26 3222     		movs	r2, #50
 2517 0e28 02FB03F3 		mul	r3, r2, r3
ARM GAS  C:\Users\mgnocco\AppData\Local\Temp\cc5vWZGV.s 			page 71


 2518 0e2c 1A1D     		adds	r2, r3, #4
 2519 0e2e 07F5BE53 		add	r3, r7, #6080
 2520 0e32 03F11303 		add	r3, r3, #19
 2521 0e36 1B78     		ldrb	r3, [r3]	@ zero_extendqisi2
 2522 0e38 1A44     		add	r2, r2, r3
 2523 0e3a 07F5BE53 		add	r3, r7, #6080
 2524 0e3e 03F11303 		add	r3, r3, #19
 2525 0e42 1B78     		ldrb	r3, [r3]	@ zero_extendqisi2
 2526 0e44 1A44     		add	r2, r2, r3
 2527 0e46 07F5BE53 		add	r3, r7, #6080
 2528 0e4a 03F11703 		add	r3, r3, #23
 2529 0e4e 1B78     		ldrb	r3, [r3]	@ zero_extendqisi2
 2530 0e50 D31A     		subs	r3, r2, r3
 2531 0e52 5A1E     		subs	r2, r3, #1
 2532 0e54 07F5BE53 		add	r3, r7, #6080
 2533 0e58 03F11703 		add	r3, r3, #23
 2534 0e5c 1978     		ldrb	r1, [r3]	@ zero_extendqisi2
 2535 0e5e 07F13803 		add	r3, r7, #56
 2536 0e62 1C3B     		subs	r3, r3, #28
 2537 0e64 0B44     		add	r3, r3, r1
 2538 0e66 1978     		ldrb	r1, [r3]	@ zero_extendqisi2
 2539 0e68 07F15803 		add	r3, r7, #88
 2540 0e6c 043B     		subs	r3, r3, #4
 2541 0e6e 9954     		strb	r1, [r3, r2]
 519:..\src/command_processing.c ****                                 packet_data[(4 + PARAM_BYTE_SLOT*idx + sod) + sod - i -1] = ((char*
 2542              		.loc 1 519 0 discriminator 3
 2543 0e70 07F5BE53 		add	r3, r7, #6080
 2544 0e74 03F11703 		add	r3, r3, #23
 2545 0e78 1B78     		ldrb	r3, [r3]	@ zero_extendqisi2
 2546 0e7a 0133     		adds	r3, r3, #1
 2547 0e7c 07F5BE52 		add	r2, r7, #6080
 2548 0e80 02F11702 		add	r2, r2, #23
 2549 0e84 1370     		strb	r3, [r2]
 2550              	.L136:
 519:..\src/command_processing.c ****                                 packet_data[(4 + PARAM_BYTE_SLOT*idx + sod) + sod - i -1] = ((char*
 2551              		.loc 1 519 0 is_stmt 0 discriminator 1
 2552 0e86 07F5BE53 		add	r3, r7, #6080
 2553 0e8a 03F11703 		add	r3, r3, #23
 2554 0e8e 1A78     		ldrb	r2, [r3]	@ zero_extendqisi2
 2555 0e90 07F5BE53 		add	r3, r7, #6080
 2556 0e94 03F11303 		add	r3, r3, #19
 2557 0e98 1B78     		ldrb	r3, [r3]	@ zero_extendqisi2
 2558 0e9a 9A42     		cmp	r2, r3
 2559 0e9c BED3     		bcc	.L137
 522:..\src/command_processing.c ****                             for(i = 0; i < sod; i++) {
 2560              		.loc 1 522 0 is_stmt 1
 2561 0e9e 07F5BE53 		add	r3, r7, #6080
 2562 0ea2 03F10F03 		add	r3, r3, #15
 2563 0ea6 1A78     		ldrb	r2, [r3]	@ zero_extendqisi2
 2564 0ea8 7949     		ldr	r1, .L292
 2565 0eaa 1346     		mov	r3, r2
 2566 0eac DB00     		lsls	r3, r3, #3
 2567 0eae 9B1A     		subs	r3, r3, r2
 2568 0eb0 1B01     		lsls	r3, r3, #4
 2569 0eb2 0B44     		add	r3, r3, r1
 2570 0eb4 D033     		adds	r3, r3, #208
 2571 0eb6 1B68     		ldr	r3, [r3]
ARM GAS  C:\Users\mgnocco\AppData\Local\Temp\cc5vWZGV.s 			page 72


 2572 0eb8 1846     		mov	r0, r3
 2573 0eba FFF7FEFF 		bl	__aeabi_i2f
 2574 0ebe 0346     		mov	r3, r0
 2575 0ec0 4FF08F41 		mov	r1, #1199570944
 2576 0ec4 1846     		mov	r0, r3
 2577 0ec6 FFF7FEFF 		bl	__aeabi_fdiv
 2578 0eca 0346     		mov	r3, r0
 2579 0ecc 1A46     		mov	r2, r3
 2580 0ece 07F13803 		add	r3, r7, #56
 2581 0ed2 1C3B     		subs	r3, r3, #28
 2582 0ed4 1A60     		str	r2, [r3]	@ float
 523:..\src/command_processing.c ****                                 packet_data[(4 + PARAM_BYTE_SLOT*idx + 2*sod) + sod - i -1] = ((cha
 2583              		.loc 1 523 0
 2584 0ed6 0023     		movs	r3, #0
 2585 0ed8 07F5BE52 		add	r2, r7, #6080
 2586 0edc 02F11702 		add	r2, r2, #23
 2587 0ee0 1370     		strb	r3, [r2]
 2588 0ee2 35E0     		b	.L138
 2589              	.L139:
 524:..\src/command_processing.c ****                             }
 2590              		.loc 1 524 0 discriminator 3
 2591 0ee4 07F5BE53 		add	r3, r7, #6080
 2592 0ee8 03F11503 		add	r3, r3, #21
 2593 0eec 1B78     		ldrb	r3, [r3]	@ zero_extendqisi2
 2594 0eee 3222     		movs	r2, #50
 2595 0ef0 02FB03F3 		mul	r3, r2, r3
 2596 0ef4 1A1D     		adds	r2, r3, #4
 2597 0ef6 07F5BE53 		add	r3, r7, #6080
 2598 0efa 03F11303 		add	r3, r3, #19
 2599 0efe 1B78     		ldrb	r3, [r3]	@ zero_extendqisi2
 2600 0f00 5B00     		lsls	r3, r3, #1
 2601 0f02 1A44     		add	r2, r2, r3
 2602 0f04 07F5BE53 		add	r3, r7, #6080
 2603 0f08 03F11303 		add	r3, r3, #19
 2604 0f0c 1B78     		ldrb	r3, [r3]	@ zero_extendqisi2
 2605 0f0e 1A44     		add	r2, r2, r3
 2606 0f10 07F5BE53 		add	r3, r7, #6080
 2607 0f14 03F11703 		add	r3, r3, #23
 2608 0f18 1B78     		ldrb	r3, [r3]	@ zero_extendqisi2
 2609 0f1a D31A     		subs	r3, r2, r3
 2610 0f1c 5A1E     		subs	r2, r3, #1
 2611 0f1e 07F5BE53 		add	r3, r7, #6080
 2612 0f22 03F11703 		add	r3, r3, #23
 2613 0f26 1978     		ldrb	r1, [r3]	@ zero_extendqisi2
 2614 0f28 07F13803 		add	r3, r7, #56
 2615 0f2c 1C3B     		subs	r3, r3, #28
 2616 0f2e 0B44     		add	r3, r3, r1
 2617 0f30 1978     		ldrb	r1, [r3]	@ zero_extendqisi2
 2618 0f32 07F15803 		add	r3, r7, #88
 2619 0f36 043B     		subs	r3, r3, #4
 2620 0f38 9954     		strb	r1, [r3, r2]
 523:..\src/command_processing.c ****                                 packet_data[(4 + PARAM_BYTE_SLOT*idx + 2*sod) + sod - i -1] = ((cha
 2621              		.loc 1 523 0 discriminator 3
 2622 0f3a 07F5BE53 		add	r3, r7, #6080
 2623 0f3e 03F11703 		add	r3, r3, #23
 2624 0f42 1B78     		ldrb	r3, [r3]	@ zero_extendqisi2
 2625 0f44 0133     		adds	r3, r3, #1
ARM GAS  C:\Users\mgnocco\AppData\Local\Temp\cc5vWZGV.s 			page 73


 2626 0f46 07F5BE52 		add	r2, r7, #6080
 2627 0f4a 02F11702 		add	r2, r2, #23
 2628 0f4e 1370     		strb	r3, [r2]
 2629              	.L138:
 523:..\src/command_processing.c ****                                 packet_data[(4 + PARAM_BYTE_SLOT*idx + 2*sod) + sod - i -1] = ((cha
 2630              		.loc 1 523 0 is_stmt 0 discriminator 1
 2631 0f50 07F5BE53 		add	r3, r7, #6080
 2632 0f54 03F11703 		add	r3, r3, #23
 2633 0f58 1A78     		ldrb	r2, [r3]	@ zero_extendqisi2
 2634 0f5a 07F5BE53 		add	r3, r7, #6080
 2635 0f5e 03F11303 		add	r3, r3, #19
 2636 0f62 1B78     		ldrb	r3, [r3]	@ zero_extendqisi2
 2637 0f64 9A42     		cmp	r2, r3
 2638 0f66 BDD3     		bcc	.L139
 2639              		.loc 1 527 0 is_stmt 1
 2640 0f68 01F0AFBA 		b	.L114
 2641              	.L118:
 528:..\src/command_processing.c ****                         
 529:..\src/command_processing.c ****                     case 3:         //Current PID
 530:..\src/command_processing.c ****                         if(c_mem.motor[MOTOR_IDX].control_mode != CURR_AND_POS_CONTROL) {
 2642              		.loc 1 530 0
 2643 0f6c 07F5BE53 		add	r3, r7, #6080
 2644 0f70 03F10F03 		add	r3, r3, #15
 2645 0f74 1A78     		ldrb	r2, [r3]	@ zero_extendqisi2
 2646 0f76 4649     		ldr	r1, .L292
 2647 0f78 1346     		mov	r3, r2
 2648 0f7a DB00     		lsls	r3, r3, #3
 2649 0f7c 9B1A     		subs	r3, r3, r2
 2650 0f7e 1B01     		lsls	r3, r3, #4
 2651 0f80 0B44     		add	r3, r3, r1
 2652 0f82 03F20F13 		addw	r3, r3, #271
 2653 0f86 1B78     		ldrb	r3, [r3]	@ zero_extendqisi2
 2654 0f88 032B     		cmp	r3, #3
 2655 0f8a 00F02B81 		beq	.L140
 531:..\src/command_processing.c ****                             aux_float = (float) c_mem.motor[MOTOR_IDX].k_p_c / 65536;
 2656              		.loc 1 531 0
 2657 0f8e 07F5BE53 		add	r3, r7, #6080
 2658 0f92 03F10F03 		add	r3, r3, #15
 2659 0f96 1A78     		ldrb	r2, [r3]	@ zero_extendqisi2
 2660 0f98 3D49     		ldr	r1, .L292
 2661 0f9a 1346     		mov	r3, r2
 2662 0f9c DB00     		lsls	r3, r3, #3
 2663 0f9e 9B1A     		subs	r3, r3, r2
 2664 0fa0 1B01     		lsls	r3, r3, #4
 2665 0fa2 0B44     		add	r3, r3, r1
 2666 0fa4 BC33     		adds	r3, r3, #188
 2667 0fa6 1B68     		ldr	r3, [r3]
 2668 0fa8 1846     		mov	r0, r3
 2669 0faa FFF7FEFF 		bl	__aeabi_i2f
 2670 0fae 0346     		mov	r3, r0
 2671 0fb0 4FF08F41 		mov	r1, #1199570944
 2672 0fb4 1846     		mov	r0, r3
 2673 0fb6 FFF7FEFF 		bl	__aeabi_fdiv
 2674 0fba 0346     		mov	r3, r0
 2675 0fbc 1A46     		mov	r2, r3
 2676 0fbe 07F13803 		add	r3, r7, #56
 2677 0fc2 1C3B     		subs	r3, r3, #28
ARM GAS  C:\Users\mgnocco\AppData\Local\Temp\cc5vWZGV.s 			page 74


 2678 0fc4 1A60     		str	r2, [r3]	@ float
 532:..\src/command_processing.c ****                             for(i = 0; i < sod; i++) {
 2679              		.loc 1 532 0
 2680 0fc6 0023     		movs	r3, #0
 2681 0fc8 07F5BE52 		add	r2, r7, #6080
 2682 0fcc 02F11702 		add	r2, r2, #23
 2683 0fd0 1370     		strb	r3, [r2]
 2684 0fd2 2EE0     		b	.L141
 2685              	.L142:
 533:..\src/command_processing.c ****                                 packet_data[(4 + PARAM_BYTE_SLOT*idx) + sod - i -1] = ((char*)(&aux
 2686              		.loc 1 533 0 discriminator 3
 2687 0fd4 07F5BE53 		add	r3, r7, #6080
 2688 0fd8 03F11503 		add	r3, r3, #21
 2689 0fdc 1B78     		ldrb	r3, [r3]	@ zero_extendqisi2
 2690 0fde 3222     		movs	r2, #50
 2691 0fe0 02FB03F3 		mul	r3, r2, r3
 2692 0fe4 1A1D     		adds	r2, r3, #4
 2693 0fe6 07F5BE53 		add	r3, r7, #6080
 2694 0fea 03F11303 		add	r3, r3, #19
 2695 0fee 1B78     		ldrb	r3, [r3]	@ zero_extendqisi2
 2696 0ff0 1A44     		add	r2, r2, r3
 2697 0ff2 07F5BE53 		add	r3, r7, #6080
 2698 0ff6 03F11703 		add	r3, r3, #23
 2699 0ffa 1B78     		ldrb	r3, [r3]	@ zero_extendqisi2
 2700 0ffc D31A     		subs	r3, r2, r3
 2701 0ffe 5A1E     		subs	r2, r3, #1
 2702 1000 07F5BE53 		add	r3, r7, #6080
 2703 1004 03F11703 		add	r3, r3, #23
 2704 1008 1978     		ldrb	r1, [r3]	@ zero_extendqisi2
 2705 100a 07F13803 		add	r3, r7, #56
 2706 100e 1C3B     		subs	r3, r3, #28
 2707 1010 0B44     		add	r3, r3, r1
 2708 1012 1978     		ldrb	r1, [r3]	@ zero_extendqisi2
 2709 1014 07F15803 		add	r3, r7, #88
 2710 1018 043B     		subs	r3, r3, #4
 2711 101a 9954     		strb	r1, [r3, r2]
 532:..\src/command_processing.c ****                             for(i = 0; i < sod; i++) {
 2712              		.loc 1 532 0 discriminator 3
 2713 101c 07F5BE53 		add	r3, r7, #6080
 2714 1020 03F11703 		add	r3, r3, #23
 2715 1024 1B78     		ldrb	r3, [r3]	@ zero_extendqisi2
 2716 1026 0133     		adds	r3, r3, #1
 2717 1028 07F5BE52 		add	r2, r7, #6080
 2718 102c 02F11702 		add	r2, r2, #23
 2719 1030 1370     		strb	r3, [r2]
 2720              	.L141:
 532:..\src/command_processing.c ****                             for(i = 0; i < sod; i++) {
 2721              		.loc 1 532 0 is_stmt 0 discriminator 1
 2722 1032 07F5BE53 		add	r3, r7, #6080
 2723 1036 03F11703 		add	r3, r3, #23
 2724 103a 1A78     		ldrb	r2, [r3]	@ zero_extendqisi2
 2725 103c 07F5BE53 		add	r3, r7, #6080
 2726 1040 03F11303 		add	r3, r3, #19
 2727 1044 1B78     		ldrb	r3, [r3]	@ zero_extendqisi2
 2728 1046 9A42     		cmp	r2, r3
 2729 1048 C4D3     		bcc	.L142
 534:..\src/command_processing.c ****                             }
ARM GAS  C:\Users\mgnocco\AppData\Local\Temp\cc5vWZGV.s 			page 75


 535:..\src/command_processing.c ****                             aux_float = (float) c_mem.motor[MOTOR_IDX].k_i_c / 65536;
 2730              		.loc 1 535 0 is_stmt 1
 2731 104a 07F5BE53 		add	r3, r7, #6080
 2732 104e 03F10F03 		add	r3, r3, #15
 2733 1052 1A78     		ldrb	r2, [r3]	@ zero_extendqisi2
 2734 1054 0E49     		ldr	r1, .L292
 2735 1056 1346     		mov	r3, r2
 2736 1058 DB00     		lsls	r3, r3, #3
 2737 105a 9B1A     		subs	r3, r3, r2
 2738 105c 1B01     		lsls	r3, r3, #4
 2739 105e 0B44     		add	r3, r3, r1
 2740 1060 C033     		adds	r3, r3, #192
 2741 1062 1B68     		ldr	r3, [r3]
 2742 1064 1846     		mov	r0, r3
 2743 1066 FFF7FEFF 		bl	__aeabi_i2f
 2744 106a 0346     		mov	r3, r0
 2745 106c 4FF08F41 		mov	r1, #1199570944
 2746 1070 1846     		mov	r0, r3
 2747 1072 FFF7FEFF 		bl	__aeabi_fdiv
 2748 1076 0346     		mov	r3, r0
 2749 1078 1A46     		mov	r2, r3
 2750 107a 07F13803 		add	r3, r7, #56
 2751 107e 1C3B     		subs	r3, r3, #28
 2752 1080 1A60     		str	r2, [r3]	@ float
 536:..\src/command_processing.c ****                             for(i = 0; i < sod; i++) {
 2753              		.loc 1 536 0
 2754 1082 0023     		movs	r3, #0
 2755 1084 07F5BE52 		add	r2, r7, #6080
 2756 1088 02F11702 		add	r2, r2, #23
 2757 108c 1370     		strb	r3, [r2]
 2758 108e 36E0     		b	.L143
 2759              	.L293:
 2760              		.align	2
 2761              	.L292:
 2762 1090 00000000 		.word	c_mem
 2763              	.L144:
 537:..\src/command_processing.c ****                                 packet_data[(4 + PARAM_BYTE_SLOT*idx + sod) + sod - i -1] = ((char*
 2764              		.loc 1 537 0 discriminator 3
 2765 1094 07F5BE53 		add	r3, r7, #6080
 2766 1098 03F11503 		add	r3, r3, #21
 2767 109c 1B78     		ldrb	r3, [r3]	@ zero_extendqisi2
 2768 109e 3222     		movs	r2, #50
 2769 10a0 02FB03F3 		mul	r3, r2, r3
 2770 10a4 1A1D     		adds	r2, r3, #4
 2771 10a6 07F5BE53 		add	r3, r7, #6080
 2772 10aa 03F11303 		add	r3, r3, #19
 2773 10ae 1B78     		ldrb	r3, [r3]	@ zero_extendqisi2
 2774 10b0 1A44     		add	r2, r2, r3
 2775 10b2 07F5BE53 		add	r3, r7, #6080
 2776 10b6 03F11303 		add	r3, r3, #19
 2777 10ba 1B78     		ldrb	r3, [r3]	@ zero_extendqisi2
 2778 10bc 1A44     		add	r2, r2, r3
 2779 10be 07F5BE53 		add	r3, r7, #6080
 2780 10c2 03F11703 		add	r3, r3, #23
 2781 10c6 1B78     		ldrb	r3, [r3]	@ zero_extendqisi2
 2782 10c8 D31A     		subs	r3, r2, r3
 2783 10ca 5A1E     		subs	r2, r3, #1
ARM GAS  C:\Users\mgnocco\AppData\Local\Temp\cc5vWZGV.s 			page 76


 2784 10cc 07F5BE53 		add	r3, r7, #6080
 2785 10d0 03F11703 		add	r3, r3, #23
 2786 10d4 1978     		ldrb	r1, [r3]	@ zero_extendqisi2
 2787 10d6 07F13803 		add	r3, r7, #56
 2788 10da 1C3B     		subs	r3, r3, #28
 2789 10dc 0B44     		add	r3, r3, r1
 2790 10de 1978     		ldrb	r1, [r3]	@ zero_extendqisi2
 2791 10e0 07F15803 		add	r3, r7, #88
 2792 10e4 043B     		subs	r3, r3, #4
 2793 10e6 9954     		strb	r1, [r3, r2]
 536:..\src/command_processing.c ****                             for(i = 0; i < sod; i++) {
 2794              		.loc 1 536 0 discriminator 3
 2795 10e8 07F5BE53 		add	r3, r7, #6080
 2796 10ec 03F11703 		add	r3, r3, #23
 2797 10f0 1B78     		ldrb	r3, [r3]	@ zero_extendqisi2
 2798 10f2 0133     		adds	r3, r3, #1
 2799 10f4 07F5BE52 		add	r2, r7, #6080
 2800 10f8 02F11702 		add	r2, r2, #23
 2801 10fc 1370     		strb	r3, [r2]
 2802              	.L143:
 536:..\src/command_processing.c ****                             for(i = 0; i < sod; i++) {
 2803              		.loc 1 536 0 is_stmt 0 discriminator 1
 2804 10fe 07F5BE53 		add	r3, r7, #6080
 2805 1102 03F11703 		add	r3, r3, #23
 2806 1106 1A78     		ldrb	r2, [r3]	@ zero_extendqisi2
 2807 1108 07F5BE53 		add	r3, r7, #6080
 2808 110c 03F11303 		add	r3, r3, #19
 2809 1110 1B78     		ldrb	r3, [r3]	@ zero_extendqisi2
 2810 1112 9A42     		cmp	r2, r3
 2811 1114 BED3     		bcc	.L144
 538:..\src/command_processing.c ****                             }
 539:..\src/command_processing.c ****                             aux_float = (float) c_mem.motor[MOTOR_IDX].k_d_c / 65536;
 2812              		.loc 1 539 0 is_stmt 1
 2813 1116 07F5BE53 		add	r3, r7, #6080
 2814 111a 03F10F03 		add	r3, r3, #15
 2815 111e 1A78     		ldrb	r2, [r3]	@ zero_extendqisi2
 2816 1120 C849     		ldr	r1, .L294
 2817 1122 1346     		mov	r3, r2
 2818 1124 DB00     		lsls	r3, r3, #3
 2819 1126 9B1A     		subs	r3, r3, r2
 2820 1128 1B01     		lsls	r3, r3, #4
 2821 112a 0B44     		add	r3, r3, r1
 2822 112c C433     		adds	r3, r3, #196
 2823 112e 1B68     		ldr	r3, [r3]
 2824 1130 1846     		mov	r0, r3
 2825 1132 FFF7FEFF 		bl	__aeabi_i2f
 2826 1136 0346     		mov	r3, r0
 2827 1138 4FF08F41 		mov	r1, #1199570944
 2828 113c 1846     		mov	r0, r3
 2829 113e FFF7FEFF 		bl	__aeabi_fdiv
 2830 1142 0346     		mov	r3, r0
 2831 1144 1A46     		mov	r2, r3
 2832 1146 07F13803 		add	r3, r7, #56
 2833 114a 1C3B     		subs	r3, r3, #28
 2834 114c 1A60     		str	r2, [r3]	@ float
 540:..\src/command_processing.c ****                             for(i = 0; i < sod; i++) {
 2835              		.loc 1 540 0
ARM GAS  C:\Users\mgnocco\AppData\Local\Temp\cc5vWZGV.s 			page 77


 2836 114e 0023     		movs	r3, #0
 2837 1150 07F5BE52 		add	r2, r7, #6080
 2838 1154 02F11702 		add	r2, r2, #23
 2839 1158 1370     		strb	r3, [r2]
 2840 115a 35E0     		b	.L145
 2841              	.L146:
 541:..\src/command_processing.c ****                                 packet_data[(4 + PARAM_BYTE_SLOT*idx + 2*sod) + sod - i -1] = ((cha
 2842              		.loc 1 541 0 discriminator 3
 2843 115c 07F5BE53 		add	r3, r7, #6080
 2844 1160 03F11503 		add	r3, r3, #21
 2845 1164 1B78     		ldrb	r3, [r3]	@ zero_extendqisi2
 2846 1166 3222     		movs	r2, #50
 2847 1168 02FB03F3 		mul	r3, r2, r3
 2848 116c 1A1D     		adds	r2, r3, #4
 2849 116e 07F5BE53 		add	r3, r7, #6080
 2850 1172 03F11303 		add	r3, r3, #19
 2851 1176 1B78     		ldrb	r3, [r3]	@ zero_extendqisi2
 2852 1178 5B00     		lsls	r3, r3, #1
 2853 117a 1A44     		add	r2, r2, r3
 2854 117c 07F5BE53 		add	r3, r7, #6080
 2855 1180 03F11303 		add	r3, r3, #19
 2856 1184 1B78     		ldrb	r3, [r3]	@ zero_extendqisi2
 2857 1186 1A44     		add	r2, r2, r3
 2858 1188 07F5BE53 		add	r3, r7, #6080
 2859 118c 03F11703 		add	r3, r3, #23
 2860 1190 1B78     		ldrb	r3, [r3]	@ zero_extendqisi2
 2861 1192 D31A     		subs	r3, r2, r3
 2862 1194 5A1E     		subs	r2, r3, #1
 2863 1196 07F5BE53 		add	r3, r7, #6080
 2864 119a 03F11703 		add	r3, r3, #23
 2865 119e 1978     		ldrb	r1, [r3]	@ zero_extendqisi2
 2866 11a0 07F13803 		add	r3, r7, #56
 2867 11a4 1C3B     		subs	r3, r3, #28
 2868 11a6 0B44     		add	r3, r3, r1
 2869 11a8 1978     		ldrb	r1, [r3]	@ zero_extendqisi2
 2870 11aa 07F15803 		add	r3, r7, #88
 2871 11ae 043B     		subs	r3, r3, #4
 2872 11b0 9954     		strb	r1, [r3, r2]
 540:..\src/command_processing.c ****                             for(i = 0; i < sod; i++) {
 2873              		.loc 1 540 0 discriminator 3
 2874 11b2 07F5BE53 		add	r3, r7, #6080
 2875 11b6 03F11703 		add	r3, r3, #23
 2876 11ba 1B78     		ldrb	r3, [r3]	@ zero_extendqisi2
 2877 11bc 0133     		adds	r3, r3, #1
 2878 11be 07F5BE52 		add	r2, r7, #6080
 2879 11c2 02F11702 		add	r2, r2, #23
 2880 11c6 1370     		strb	r3, [r2]
 2881              	.L145:
 540:..\src/command_processing.c ****                             for(i = 0; i < sod; i++) {
 2882              		.loc 1 540 0 is_stmt 0 discriminator 1
 2883 11c8 07F5BE53 		add	r3, r7, #6080
 2884 11cc 03F11703 		add	r3, r3, #23
 2885 11d0 1A78     		ldrb	r2, [r3]	@ zero_extendqisi2
 2886 11d2 07F5BE53 		add	r3, r7, #6080
 2887 11d6 03F11303 		add	r3, r3, #19
 2888 11da 1B78     		ldrb	r3, [r3]	@ zero_extendqisi2
 2889 11dc 9A42     		cmp	r2, r3
ARM GAS  C:\Users\mgnocco\AppData\Local\Temp\cc5vWZGV.s 			page 78


 2890 11de BDD3     		bcc	.L146
 542:..\src/command_processing.c ****                             }
 543:..\src/command_processing.c ****                         }
 544:..\src/command_processing.c ****                         else {
 545:..\src/command_processing.c ****                             aux_float = (float) c_mem.motor[MOTOR_IDX].k_p_c_dl / 65536;
 546:..\src/command_processing.c ****                             for(i = 0; i < sod; i++) {
 547:..\src/command_processing.c ****                                 packet_data[(4 + PARAM_BYTE_SLOT*idx) + sod - i -1] = ((char*)(&aux
 548:..\src/command_processing.c ****                             }
 549:..\src/command_processing.c ****                             aux_float = (float) c_mem.motor[MOTOR_IDX].k_i_c_dl / 65536;
 550:..\src/command_processing.c ****                             for(i = 0; i < sod; i++) {
 551:..\src/command_processing.c ****                                 packet_data[(4 + PARAM_BYTE_SLOT*idx + sod) + sod - i -1] = ((char*
 552:..\src/command_processing.c ****                             }
 553:..\src/command_processing.c ****                             aux_float = (float) c_mem.motor[MOTOR_IDX].k_d_c_dl / 65536;
 554:..\src/command_processing.c ****                             for(i = 0; i < sod; i++) {
 555:..\src/command_processing.c ****                                 packet_data[(4 + PARAM_BYTE_SLOT*idx + 2*sod) + sod - i -1] = ((cha
 556:..\src/command_processing.c ****                             }
 557:..\src/command_processing.c ****                         }            
 558:..\src/command_processing.c ****                         break;  
 2891              		.loc 1 558 0 is_stmt 1
 2892 11e0 01F073B9 		b	.L114
 2893              	.L140:
 545:..\src/command_processing.c ****                             for(i = 0; i < sod; i++) {
 2894              		.loc 1 545 0
 2895 11e4 07F5BE53 		add	r3, r7, #6080
 2896 11e8 03F10F03 		add	r3, r3, #15
 2897 11ec 1A78     		ldrb	r2, [r3]	@ zero_extendqisi2
 2898 11ee 9549     		ldr	r1, .L294
 2899 11f0 1346     		mov	r3, r2
 2900 11f2 DB00     		lsls	r3, r3, #3
 2901 11f4 9B1A     		subs	r3, r3, r2
 2902 11f6 1B01     		lsls	r3, r3, #4
 2903 11f8 0B44     		add	r3, r3, r1
 2904 11fa D433     		adds	r3, r3, #212
 2905 11fc 1B68     		ldr	r3, [r3]
 2906 11fe 1846     		mov	r0, r3
 2907 1200 FFF7FEFF 		bl	__aeabi_i2f
 2908 1204 0346     		mov	r3, r0
 2909 1206 4FF08F41 		mov	r1, #1199570944
 2910 120a 1846     		mov	r0, r3
 2911 120c FFF7FEFF 		bl	__aeabi_fdiv
 2912 1210 0346     		mov	r3, r0
 2913 1212 1A46     		mov	r2, r3
 2914 1214 07F13803 		add	r3, r7, #56
 2915 1218 1C3B     		subs	r3, r3, #28
 2916 121a 1A60     		str	r2, [r3]	@ float
 546:..\src/command_processing.c ****                                 packet_data[(4 + PARAM_BYTE_SLOT*idx) + sod - i -1] = ((char*)(&aux
 2917              		.loc 1 546 0
 2918 121c 0023     		movs	r3, #0
 2919 121e 07F5BE52 		add	r2, r7, #6080
 2920 1222 02F11702 		add	r2, r2, #23
 2921 1226 1370     		strb	r3, [r2]
 2922 1228 2EE0     		b	.L148
 2923              	.L149:
 547:..\src/command_processing.c ****                             }
 2924              		.loc 1 547 0 discriminator 3
 2925 122a 07F5BE53 		add	r3, r7, #6080
 2926 122e 03F11503 		add	r3, r3, #21
ARM GAS  C:\Users\mgnocco\AppData\Local\Temp\cc5vWZGV.s 			page 79


 2927 1232 1B78     		ldrb	r3, [r3]	@ zero_extendqisi2
 2928 1234 3222     		movs	r2, #50
 2929 1236 02FB03F3 		mul	r3, r2, r3
 2930 123a 1A1D     		adds	r2, r3, #4
 2931 123c 07F5BE53 		add	r3, r7, #6080
 2932 1240 03F11303 		add	r3, r3, #19
 2933 1244 1B78     		ldrb	r3, [r3]	@ zero_extendqisi2
 2934 1246 1A44     		add	r2, r2, r3
 2935 1248 07F5BE53 		add	r3, r7, #6080
 2936 124c 03F11703 		add	r3, r3, #23
 2937 1250 1B78     		ldrb	r3, [r3]	@ zero_extendqisi2
 2938 1252 D31A     		subs	r3, r2, r3
 2939 1254 5A1E     		subs	r2, r3, #1
 2940 1256 07F5BE53 		add	r3, r7, #6080
 2941 125a 03F11703 		add	r3, r3, #23
 2942 125e 1978     		ldrb	r1, [r3]	@ zero_extendqisi2
 2943 1260 07F13803 		add	r3, r7, #56
 2944 1264 1C3B     		subs	r3, r3, #28
 2945 1266 0B44     		add	r3, r3, r1
 2946 1268 1978     		ldrb	r1, [r3]	@ zero_extendqisi2
 2947 126a 07F15803 		add	r3, r7, #88
 2948 126e 043B     		subs	r3, r3, #4
 2949 1270 9954     		strb	r1, [r3, r2]
 546:..\src/command_processing.c ****                                 packet_data[(4 + PARAM_BYTE_SLOT*idx) + sod - i -1] = ((char*)(&aux
 2950              		.loc 1 546 0 discriminator 3
 2951 1272 07F5BE53 		add	r3, r7, #6080
 2952 1276 03F11703 		add	r3, r3, #23
 2953 127a 1B78     		ldrb	r3, [r3]	@ zero_extendqisi2
 2954 127c 0133     		adds	r3, r3, #1
 2955 127e 07F5BE52 		add	r2, r7, #6080
 2956 1282 02F11702 		add	r2, r2, #23
 2957 1286 1370     		strb	r3, [r2]
 2958              	.L148:
 546:..\src/command_processing.c ****                                 packet_data[(4 + PARAM_BYTE_SLOT*idx) + sod - i -1] = ((char*)(&aux
 2959              		.loc 1 546 0 is_stmt 0 discriminator 1
 2960 1288 07F5BE53 		add	r3, r7, #6080
 2961 128c 03F11703 		add	r3, r3, #23
 2962 1290 1A78     		ldrb	r2, [r3]	@ zero_extendqisi2
 2963 1292 07F5BE53 		add	r3, r7, #6080
 2964 1296 03F11303 		add	r3, r3, #19
 2965 129a 1B78     		ldrb	r3, [r3]	@ zero_extendqisi2
 2966 129c 9A42     		cmp	r2, r3
 2967 129e C4D3     		bcc	.L149
 549:..\src/command_processing.c ****                             for(i = 0; i < sod; i++) {
 2968              		.loc 1 549 0 is_stmt 1
 2969 12a0 07F5BE53 		add	r3, r7, #6080
 2970 12a4 03F10F03 		add	r3, r3, #15
 2971 12a8 1A78     		ldrb	r2, [r3]	@ zero_extendqisi2
 2972 12aa 6649     		ldr	r1, .L294
 2973 12ac 1346     		mov	r3, r2
 2974 12ae DB00     		lsls	r3, r3, #3
 2975 12b0 9B1A     		subs	r3, r3, r2
 2976 12b2 1B01     		lsls	r3, r3, #4
 2977 12b4 0B44     		add	r3, r3, r1
 2978 12b6 D833     		adds	r3, r3, #216
 2979 12b8 1B68     		ldr	r3, [r3]
 2980 12ba 1846     		mov	r0, r3
ARM GAS  C:\Users\mgnocco\AppData\Local\Temp\cc5vWZGV.s 			page 80


 2981 12bc FFF7FEFF 		bl	__aeabi_i2f
 2982 12c0 0346     		mov	r3, r0
 2983 12c2 4FF08F41 		mov	r1, #1199570944
 2984 12c6 1846     		mov	r0, r3
 2985 12c8 FFF7FEFF 		bl	__aeabi_fdiv
 2986 12cc 0346     		mov	r3, r0
 2987 12ce 1A46     		mov	r2, r3
 2988 12d0 07F13803 		add	r3, r7, #56
 2989 12d4 1C3B     		subs	r3, r3, #28
 2990 12d6 1A60     		str	r2, [r3]	@ float
 550:..\src/command_processing.c ****                                 packet_data[(4 + PARAM_BYTE_SLOT*idx + sod) + sod - i -1] = ((char*
 2991              		.loc 1 550 0
 2992 12d8 0023     		movs	r3, #0
 2993 12da 07F5BE52 		add	r2, r7, #6080
 2994 12de 02F11702 		add	r2, r2, #23
 2995 12e2 1370     		strb	r3, [r2]
 2996 12e4 34E0     		b	.L150
 2997              	.L151:
 551:..\src/command_processing.c ****                             }
 2998              		.loc 1 551 0 discriminator 3
 2999 12e6 07F5BE53 		add	r3, r7, #6080
 3000 12ea 03F11503 		add	r3, r3, #21
 3001 12ee 1B78     		ldrb	r3, [r3]	@ zero_extendqisi2
 3002 12f0 3222     		movs	r2, #50
 3003 12f2 02FB03F3 		mul	r3, r2, r3
 3004 12f6 1A1D     		adds	r2, r3, #4
 3005 12f8 07F5BE53 		add	r3, r7, #6080
 3006 12fc 03F11303 		add	r3, r3, #19
 3007 1300 1B78     		ldrb	r3, [r3]	@ zero_extendqisi2
 3008 1302 1A44     		add	r2, r2, r3
 3009 1304 07F5BE53 		add	r3, r7, #6080
 3010 1308 03F11303 		add	r3, r3, #19
 3011 130c 1B78     		ldrb	r3, [r3]	@ zero_extendqisi2
 3012 130e 1A44     		add	r2, r2, r3
 3013 1310 07F5BE53 		add	r3, r7, #6080
 3014 1314 03F11703 		add	r3, r3, #23
 3015 1318 1B78     		ldrb	r3, [r3]	@ zero_extendqisi2
 3016 131a D31A     		subs	r3, r2, r3
 3017 131c 5A1E     		subs	r2, r3, #1
 3018 131e 07F5BE53 		add	r3, r7, #6080
 3019 1322 03F11703 		add	r3, r3, #23
 3020 1326 1978     		ldrb	r1, [r3]	@ zero_extendqisi2
 3021 1328 07F13803 		add	r3, r7, #56
 3022 132c 1C3B     		subs	r3, r3, #28
 3023 132e 0B44     		add	r3, r3, r1
 3024 1330 1978     		ldrb	r1, [r3]	@ zero_extendqisi2
 3025 1332 07F15803 		add	r3, r7, #88
 3026 1336 043B     		subs	r3, r3, #4
 3027 1338 9954     		strb	r1, [r3, r2]
 550:..\src/command_processing.c ****                                 packet_data[(4 + PARAM_BYTE_SLOT*idx + sod) + sod - i -1] = ((char*
 3028              		.loc 1 550 0 discriminator 3
 3029 133a 07F5BE53 		add	r3, r7, #6080
 3030 133e 03F11703 		add	r3, r3, #23
 3031 1342 1B78     		ldrb	r3, [r3]	@ zero_extendqisi2
 3032 1344 0133     		adds	r3, r3, #1
 3033 1346 07F5BE52 		add	r2, r7, #6080
 3034 134a 02F11702 		add	r2, r2, #23
ARM GAS  C:\Users\mgnocco\AppData\Local\Temp\cc5vWZGV.s 			page 81


 3035 134e 1370     		strb	r3, [r2]
 3036              	.L150:
 550:..\src/command_processing.c ****                                 packet_data[(4 + PARAM_BYTE_SLOT*idx + sod) + sod - i -1] = ((char*
 3037              		.loc 1 550 0 is_stmt 0 discriminator 1
 3038 1350 07F5BE53 		add	r3, r7, #6080
 3039 1354 03F11703 		add	r3, r3, #23
 3040 1358 1A78     		ldrb	r2, [r3]	@ zero_extendqisi2
 3041 135a 07F5BE53 		add	r3, r7, #6080
 3042 135e 03F11303 		add	r3, r3, #19
 3043 1362 1B78     		ldrb	r3, [r3]	@ zero_extendqisi2
 3044 1364 9A42     		cmp	r2, r3
 3045 1366 BED3     		bcc	.L151
 553:..\src/command_processing.c ****                             for(i = 0; i < sod; i++) {
 3046              		.loc 1 553 0 is_stmt 1
 3047 1368 07F5BE53 		add	r3, r7, #6080
 3048 136c 03F10F03 		add	r3, r3, #15
 3049 1370 1A78     		ldrb	r2, [r3]	@ zero_extendqisi2
 3050 1372 3449     		ldr	r1, .L294
 3051 1374 1346     		mov	r3, r2
 3052 1376 DB00     		lsls	r3, r3, #3
 3053 1378 9B1A     		subs	r3, r3, r2
 3054 137a 1B01     		lsls	r3, r3, #4
 3055 137c 0B44     		add	r3, r3, r1
 3056 137e DC33     		adds	r3, r3, #220
 3057 1380 1B68     		ldr	r3, [r3]
 3058 1382 1846     		mov	r0, r3
 3059 1384 FFF7FEFF 		bl	__aeabi_i2f
 3060 1388 0346     		mov	r3, r0
 3061 138a 4FF08F41 		mov	r1, #1199570944
 3062 138e 1846     		mov	r0, r3
 3063 1390 FFF7FEFF 		bl	__aeabi_fdiv
 3064 1394 0346     		mov	r3, r0
 3065 1396 1A46     		mov	r2, r3
 3066 1398 07F13803 		add	r3, r7, #56
 3067 139c 1C3B     		subs	r3, r3, #28
 3068 139e 1A60     		str	r2, [r3]	@ float
 554:..\src/command_processing.c ****                                 packet_data[(4 + PARAM_BYTE_SLOT*idx + 2*sod) + sod - i -1] = ((cha
 3069              		.loc 1 554 0
 3070 13a0 0023     		movs	r3, #0
 3071 13a2 07F5BE52 		add	r2, r7, #6080
 3072 13a6 02F11702 		add	r2, r2, #23
 3073 13aa 1370     		strb	r3, [r2]
 3074 13ac 35E0     		b	.L152
 3075              	.L153:
 555:..\src/command_processing.c ****                             }
 3076              		.loc 1 555 0 discriminator 3
 3077 13ae 07F5BE53 		add	r3, r7, #6080
 3078 13b2 03F11503 		add	r3, r3, #21
 3079 13b6 1B78     		ldrb	r3, [r3]	@ zero_extendqisi2
 3080 13b8 3222     		movs	r2, #50
 3081 13ba 02FB03F3 		mul	r3, r2, r3
 3082 13be 1A1D     		adds	r2, r3, #4
 3083 13c0 07F5BE53 		add	r3, r7, #6080
 3084 13c4 03F11303 		add	r3, r3, #19
 3085 13c8 1B78     		ldrb	r3, [r3]	@ zero_extendqisi2
 3086 13ca 5B00     		lsls	r3, r3, #1
 3087 13cc 1A44     		add	r2, r2, r3
ARM GAS  C:\Users\mgnocco\AppData\Local\Temp\cc5vWZGV.s 			page 82


 3088 13ce 07F5BE53 		add	r3, r7, #6080
 3089 13d2 03F11303 		add	r3, r3, #19
 3090 13d6 1B78     		ldrb	r3, [r3]	@ zero_extendqisi2
 3091 13d8 1A44     		add	r2, r2, r3
 3092 13da 07F5BE53 		add	r3, r7, #6080
 3093 13de 03F11703 		add	r3, r3, #23
 3094 13e2 1B78     		ldrb	r3, [r3]	@ zero_extendqisi2
 3095 13e4 D31A     		subs	r3, r2, r3
 3096 13e6 5A1E     		subs	r2, r3, #1
 3097 13e8 07F5BE53 		add	r3, r7, #6080
 3098 13ec 03F11703 		add	r3, r3, #23
 3099 13f0 1978     		ldrb	r1, [r3]	@ zero_extendqisi2
 3100 13f2 07F13803 		add	r3, r7, #56
 3101 13f6 1C3B     		subs	r3, r3, #28
 3102 13f8 0B44     		add	r3, r3, r1
 3103 13fa 1978     		ldrb	r1, [r3]	@ zero_extendqisi2
 3104 13fc 07F15803 		add	r3, r7, #88
 3105 1400 043B     		subs	r3, r3, #4
 3106 1402 9954     		strb	r1, [r3, r2]
 554:..\src/command_processing.c ****                                 packet_data[(4 + PARAM_BYTE_SLOT*idx + 2*sod) + sod - i -1] = ((cha
 3107              		.loc 1 554 0 discriminator 3
 3108 1404 07F5BE53 		add	r3, r7, #6080
 3109 1408 03F11703 		add	r3, r3, #23
 3110 140c 1B78     		ldrb	r3, [r3]	@ zero_extendqisi2
 3111 140e 0133     		adds	r3, r3, #1
 3112 1410 07F5BE52 		add	r2, r7, #6080
 3113 1414 02F11702 		add	r2, r2, #23
 3114 1418 1370     		strb	r3, [r2]
 3115              	.L152:
 554:..\src/command_processing.c ****                                 packet_data[(4 + PARAM_BYTE_SLOT*idx + 2*sod) + sod - i -1] = ((cha
 3116              		.loc 1 554 0 is_stmt 0 discriminator 1
 3117 141a 07F5BE53 		add	r3, r7, #6080
 3118 141e 03F11703 		add	r3, r3, #23
 3119 1422 1A78     		ldrb	r2, [r3]	@ zero_extendqisi2
 3120 1424 07F5BE53 		add	r3, r7, #6080
 3121 1428 03F11303 		add	r3, r3, #19
 3122 142c 1B78     		ldrb	r3, [r3]	@ zero_extendqisi2
 3123 142e 9A42     		cmp	r2, r3
 3124 1430 BDD3     		bcc	.L153
 3125              		.loc 1 558 0 is_stmt 1
 3126 1432 01F04AB8 		b	.L114
 3127              	.L119:
 559:..\src/command_processing.c **** 
 560:..\src/command_processing.c ****                     case 8:         //Measurement Offset
 561:..\src/command_processing.c ****                         for (i=0; i<NUM_ITEMS[idx]; i++){
 3128              		.loc 1 561 0
 3129 1436 0023     		movs	r3, #0
 3130 1438 07F5BE52 		add	r2, r7, #6080
 3131 143c 02F11702 		add	r2, r2, #23
 3132 1440 1370     		strb	r3, [r2]
 3133 1442 9DE0     		b	.L154
 3134              	.L295:
 3135              		.align	2
 3136              	.L294:
 3137 1444 00000000 		.word	c_mem
 3138              	.L157:
 562:..\src/command_processing.c ****                             aux_int16 = (c_mem.enc[g_mem.motor[MOTOR_IDX].encoder_line].m_off[i] >>
ARM GAS  C:\Users\mgnocco\AppData\Local\Temp\cc5vWZGV.s 			page 83


 3139              		.loc 1 562 0
 3140 1448 07F5BE53 		add	r3, r7, #6080
 3141 144c 03F10F03 		add	r3, r3, #15
 3142 1450 1A78     		ldrb	r2, [r3]	@ zero_extendqisi2
 3143 1452 C749     		ldr	r1, .L296
 3144 1454 1346     		mov	r3, r2
 3145 1456 DB00     		lsls	r3, r3, #3
 3146 1458 9B1A     		subs	r3, r3, r2
 3147 145a 1B01     		lsls	r3, r3, #4
 3148 145c 0B44     		add	r3, r3, r1
 3149 145e 03F58873 		add	r3, r3, #272
 3150 1462 1B78     		ldrb	r3, [r3]	@ zero_extendqisi2
 3151 1464 1846     		mov	r0, r3
 3152 1466 07F5BE53 		add	r3, r7, #6080
 3153 146a 03F11703 		add	r3, r3, #23
 3154 146e 1A78     		ldrb	r2, [r3]	@ zero_extendqisi2
 3155 1470 C049     		ldr	r1, .L296+4
 3156 1472 0346     		mov	r3, r0
 3157 1474 5B00     		lsls	r3, r3, #1
 3158 1476 0344     		add	r3, r3, r0
 3159 1478 9B00     		lsls	r3, r3, #2
 3160 147a 1344     		add	r3, r3, r2
 3161 147c 6633     		adds	r3, r3, #102
 3162 147e 51F82310 		ldr	r1, [r1, r3, lsl #2]
 3163 1482 07F5BE53 		add	r3, r7, #6080
 3164 1486 03F10F03 		add	r3, r3, #15
 3165 148a 1A78     		ldrb	r2, [r3]	@ zero_extendqisi2
 3166 148c B848     		ldr	r0, .L296
 3167 148e 1346     		mov	r3, r2
 3168 1490 DB00     		lsls	r3, r3, #3
 3169 1492 9B1A     		subs	r3, r3, r2
 3170 1494 1B01     		lsls	r3, r3, #4
 3171 1496 0344     		add	r3, r3, r0
 3172 1498 03F58873 		add	r3, r3, #272
 3173 149c 1B78     		ldrb	r3, [r3]	@ zero_extendqisi2
 3174 149e 1C46     		mov	r4, r3
 3175 14a0 07F5BE53 		add	r3, r7, #6080
 3176 14a4 03F11703 		add	r3, r3, #23
 3177 14a8 1A78     		ldrb	r2, [r3]	@ zero_extendqisi2
 3178 14aa B248     		ldr	r0, .L296+4
 3179 14ac 2346     		mov	r3, r4
 3180 14ae 5B00     		lsls	r3, r3, #1
 3181 14b0 2344     		add	r3, r3, r4
 3182 14b2 1B01     		lsls	r3, r3, #4
 3183 14b4 0344     		add	r3, r3, r0
 3184 14b6 1344     		add	r3, r3, r2
 3185 14b8 03F29513 		addw	r3, r3, #405
 3186 14bc 1B78     		ldrb	r3, [r3]	@ zero_extendqisi2
 3187 14be 41FA03F3 		asr	r3, r1, r3
 3188 14c2 1AB2     		sxth	r2, r3
 3189 14c4 07F13803 		add	r3, r7, #56
 3190 14c8 1E3B     		subs	r3, r3, #30
 3191 14ca 1A80     		strh	r2, [r3]	@ movhi
 563:..\src/command_processing.c ****                             for(j = 0; j < sod; j++) {
 3192              		.loc 1 563 0
 3193 14cc 0023     		movs	r3, #0
 3194 14ce 07F5BE52 		add	r2, r7, #6080
ARM GAS  C:\Users\mgnocco\AppData\Local\Temp\cc5vWZGV.s 			page 84


 3195 14d2 02F11602 		add	r2, r2, #22
 3196 14d6 1370     		strb	r3, [r2]
 3197 14d8 3BE0     		b	.L155
 3198              	.L156:
 564:..\src/command_processing.c ****                                 packet_data[(4 + PARAM_BYTE_SLOT*idx + i*sod) + sod - j -1] = ((cha
 3199              		.loc 1 564 0 discriminator 3
 3200 14da 07F5BE53 		add	r3, r7, #6080
 3201 14de 03F11503 		add	r3, r3, #21
 3202 14e2 1B78     		ldrb	r3, [r3]	@ zero_extendqisi2
 3203 14e4 3222     		movs	r2, #50
 3204 14e6 02FB03F3 		mul	r3, r2, r3
 3205 14ea 1A1D     		adds	r2, r3, #4
 3206 14ec 07F5BE53 		add	r3, r7, #6080
 3207 14f0 03F11703 		add	r3, r3, #23
 3208 14f4 1B78     		ldrb	r3, [r3]	@ zero_extendqisi2
 3209 14f6 07F5BE51 		add	r1, r7, #6080
 3210 14fa 01F11301 		add	r1, r1, #19
 3211 14fe 0978     		ldrb	r1, [r1]	@ zero_extendqisi2
 3212 1500 01FB03F3 		mul	r3, r1, r3
 3213 1504 1A44     		add	r2, r2, r3
 3214 1506 07F5BE53 		add	r3, r7, #6080
 3215 150a 03F11303 		add	r3, r3, #19
 3216 150e 1B78     		ldrb	r3, [r3]	@ zero_extendqisi2
 3217 1510 1A44     		add	r2, r2, r3
 3218 1512 07F5BE53 		add	r3, r7, #6080
 3219 1516 03F11603 		add	r3, r3, #22
 3220 151a 1B78     		ldrb	r3, [r3]	@ zero_extendqisi2
 3221 151c D31A     		subs	r3, r2, r3
 3222 151e 5A1E     		subs	r2, r3, #1
 3223 1520 07F5BE53 		add	r3, r7, #6080
 3224 1524 03F11603 		add	r3, r3, #22
 3225 1528 1978     		ldrb	r1, [r3]	@ zero_extendqisi2
 3226 152a 07F13803 		add	r3, r7, #56
 3227 152e 1E3B     		subs	r3, r3, #30
 3228 1530 0B44     		add	r3, r3, r1
 3229 1532 1978     		ldrb	r1, [r3]	@ zero_extendqisi2
 3230 1534 07F15803 		add	r3, r7, #88
 3231 1538 043B     		subs	r3, r3, #4
 3232 153a 9954     		strb	r1, [r3, r2]
 563:..\src/command_processing.c ****                             for(j = 0; j < sod; j++) {
 3233              		.loc 1 563 0 discriminator 3
 3234 153c 07F5BE53 		add	r3, r7, #6080
 3235 1540 03F11603 		add	r3, r3, #22
 3236 1544 1B78     		ldrb	r3, [r3]	@ zero_extendqisi2
 3237 1546 0133     		adds	r3, r3, #1
 3238 1548 07F5BE52 		add	r2, r7, #6080
 3239 154c 02F11602 		add	r2, r2, #22
 3240 1550 1370     		strb	r3, [r2]
 3241              	.L155:
 563:..\src/command_processing.c ****                             for(j = 0; j < sod; j++) {
 3242              		.loc 1 563 0 is_stmt 0 discriminator 1
 3243 1552 07F5BE53 		add	r3, r7, #6080
 3244 1556 03F11603 		add	r3, r3, #22
 3245 155a 1A78     		ldrb	r2, [r3]	@ zero_extendqisi2
 3246 155c 07F5BE53 		add	r3, r7, #6080
 3247 1560 03F11303 		add	r3, r3, #19
 3248 1564 1B78     		ldrb	r3, [r3]	@ zero_extendqisi2
ARM GAS  C:\Users\mgnocco\AppData\Local\Temp\cc5vWZGV.s 			page 85


 3249 1566 9A42     		cmp	r2, r3
 3250 1568 B7D3     		bcc	.L156
 561:..\src/command_processing.c ****                             aux_int16 = (c_mem.enc[g_mem.motor[MOTOR_IDX].encoder_line].m_off[i] >>
 3251              		.loc 1 561 0 is_stmt 1 discriminator 2
 3252 156a 07F5BE53 		add	r3, r7, #6080
 3253 156e 03F11703 		add	r3, r3, #23
 3254 1572 1B78     		ldrb	r3, [r3]	@ zero_extendqisi2
 3255 1574 0133     		adds	r3, r3, #1
 3256 1576 07F5BE52 		add	r2, r7, #6080
 3257 157a 02F11702 		add	r2, r2, #23
 3258 157e 1370     		strb	r3, [r2]
 3259              	.L154:
 561:..\src/command_processing.c ****                             aux_int16 = (c_mem.enc[g_mem.motor[MOTOR_IDX].encoder_line].m_off[i] >>
 3260              		.loc 1 561 0 is_stmt 0 discriminator 1
 3261 1580 07F5BE53 		add	r3, r7, #6080
 3262 1584 03F11503 		add	r3, r3, #21
 3263 1588 1A78     		ldrb	r2, [r3]	@ zero_extendqisi2
 3264 158a 07F11803 		add	r3, r7, #24
 3265 158e 143B     		subs	r3, r3, #20
 3266 1590 1B68     		ldr	r3, [r3]
 3267 1592 1344     		add	r3, r3, r2
 3268 1594 1B78     		ldrb	r3, [r3]	@ zero_extendqisi2
 3269 1596 07F5BE52 		add	r2, r7, #6080
 3270 159a 02F11702 		add	r2, r2, #23
 3271 159e 1278     		ldrb	r2, [r2]	@ zero_extendqisi2
 3272 15a0 9A42     		cmp	r2, r3
 3273 15a2 FFF451AF 		bcc	.L157
 565:..\src/command_processing.c ****                             }
 566:..\src/command_processing.c ****                         }
 567:..\src/command_processing.c ****                         break;
 3274              		.loc 1 567 0 is_stmt 1
 3275 15a6 00F090BF 		b	.L114
 3276              	.L120:
 568:..\src/command_processing.c ****                 
 569:..\src/command_processing.c ****                     case 11:        //Position limits
 570:..\src/command_processing.c ****                         aux_int32 = (c_mem.motor[MOTOR_IDX].pos_lim_inf >> c_mem.enc[g_mem.motor[MO
 3277              		.loc 1 570 0
 3278 15aa 07F5BE53 		add	r3, r7, #6080
 3279 15ae 03F10F03 		add	r3, r3, #15
 3280 15b2 1A78     		ldrb	r2, [r3]	@ zero_extendqisi2
 3281 15b4 6F49     		ldr	r1, .L296+4
 3282 15b6 1346     		mov	r3, r2
 3283 15b8 DB00     		lsls	r3, r3, #3
 3284 15ba 9B1A     		subs	r3, r3, r2
 3285 15bc 1B01     		lsls	r3, r3, #4
 3286 15be 0B44     		add	r3, r3, r1
 3287 15c0 E433     		adds	r3, r3, #228
 3288 15c2 1968     		ldr	r1, [r3]
 3289 15c4 07F5BE53 		add	r3, r7, #6080
 3290 15c8 03F10F03 		add	r3, r3, #15
 3291 15cc 1A78     		ldrb	r2, [r3]	@ zero_extendqisi2
 3292 15ce 6848     		ldr	r0, .L296
 3293 15d0 1346     		mov	r3, r2
 3294 15d2 DB00     		lsls	r3, r3, #3
 3295 15d4 9B1A     		subs	r3, r3, r2
 3296 15d6 1B01     		lsls	r3, r3, #4
 3297 15d8 0344     		add	r3, r3, r0
ARM GAS  C:\Users\mgnocco\AppData\Local\Temp\cc5vWZGV.s 			page 86


 3298 15da 03F58873 		add	r3, r3, #272
 3299 15de 1B78     		ldrb	r3, [r3]	@ zero_extendqisi2
 3300 15e0 1846     		mov	r0, r3
 3301 15e2 644A     		ldr	r2, .L296+4
 3302 15e4 0346     		mov	r3, r0
 3303 15e6 5B00     		lsls	r3, r3, #1
 3304 15e8 0344     		add	r3, r3, r0
 3305 15ea 1B01     		lsls	r3, r3, #4
 3306 15ec 1344     		add	r3, r3, r2
 3307 15ee 03F29513 		addw	r3, r3, #405
 3308 15f2 1B78     		ldrb	r3, [r3]	@ zero_extendqisi2
 3309 15f4 41FA03F2 		asr	r2, r1, r3
 3310 15f8 07F11803 		add	r3, r7, #24
 3311 15fc 043B     		subs	r3, r3, #4
 3312 15fe 1A60     		str	r2, [r3]
 571:..\src/command_processing.c ****                         for(j = 0; j < sod; j++) {
 3313              		.loc 1 571 0
 3314 1600 0023     		movs	r3, #0
 3315 1602 07F5BE52 		add	r2, r7, #6080
 3316 1606 02F11602 		add	r2, r2, #22
 3317 160a 1370     		strb	r3, [r2]
 3318 160c 2EE0     		b	.L158
 3319              	.L159:
 572:..\src/command_processing.c ****                             packet_data[(4 + PARAM_BYTE_SLOT*idx) + sod - j -1] = ((char*)(&aux_int
 3320              		.loc 1 572 0 discriminator 3
 3321 160e 07F5BE53 		add	r3, r7, #6080
 3322 1612 03F11503 		add	r3, r3, #21
 3323 1616 1B78     		ldrb	r3, [r3]	@ zero_extendqisi2
 3324 1618 3222     		movs	r2, #50
 3325 161a 02FB03F3 		mul	r3, r2, r3
 3326 161e 1A1D     		adds	r2, r3, #4
 3327 1620 07F5BE53 		add	r3, r7, #6080
 3328 1624 03F11303 		add	r3, r3, #19
 3329 1628 1B78     		ldrb	r3, [r3]	@ zero_extendqisi2
 3330 162a 1A44     		add	r2, r2, r3
 3331 162c 07F5BE53 		add	r3, r7, #6080
 3332 1630 03F11603 		add	r3, r3, #22
 3333 1634 1B78     		ldrb	r3, [r3]	@ zero_extendqisi2
 3334 1636 D31A     		subs	r3, r2, r3
 3335 1638 5A1E     		subs	r2, r3, #1
 3336 163a 07F5BE53 		add	r3, r7, #6080
 3337 163e 03F11603 		add	r3, r3, #22
 3338 1642 1978     		ldrb	r1, [r3]	@ zero_extendqisi2
 3339 1644 07F11803 		add	r3, r7, #24
 3340 1648 043B     		subs	r3, r3, #4
 3341 164a 0B44     		add	r3, r3, r1
 3342 164c 1978     		ldrb	r1, [r3]	@ zero_extendqisi2
 3343 164e 07F15803 		add	r3, r7, #88
 3344 1652 043B     		subs	r3, r3, #4
 3345 1654 9954     		strb	r1, [r3, r2]
 571:..\src/command_processing.c ****                         for(j = 0; j < sod; j++) {
 3346              		.loc 1 571 0 discriminator 3
 3347 1656 07F5BE53 		add	r3, r7, #6080
 3348 165a 03F11603 		add	r3, r3, #22
 3349 165e 1B78     		ldrb	r3, [r3]	@ zero_extendqisi2
 3350 1660 0133     		adds	r3, r3, #1
 3351 1662 07F5BE52 		add	r2, r7, #6080
ARM GAS  C:\Users\mgnocco\AppData\Local\Temp\cc5vWZGV.s 			page 87


 3352 1666 02F11602 		add	r2, r2, #22
 3353 166a 1370     		strb	r3, [r2]
 3354              	.L158:
 571:..\src/command_processing.c ****                         for(j = 0; j < sod; j++) {
 3355              		.loc 1 571 0 is_stmt 0 discriminator 1
 3356 166c 07F5BE53 		add	r3, r7, #6080
 3357 1670 03F11603 		add	r3, r3, #22
 3358 1674 1A78     		ldrb	r2, [r3]	@ zero_extendqisi2
 3359 1676 07F5BE53 		add	r3, r7, #6080
 3360 167a 03F11303 		add	r3, r3, #19
 3361 167e 1B78     		ldrb	r3, [r3]	@ zero_extendqisi2
 3362 1680 9A42     		cmp	r2, r3
 3363 1682 C4D3     		bcc	.L159
 573:..\src/command_processing.c ****                         }
 574:..\src/command_processing.c ****                         aux_int32 = (c_mem.motor[MOTOR_IDX].pos_lim_sup >> c_mem.enc[g_mem.motor[MO
 3364              		.loc 1 574 0 is_stmt 1
 3365 1684 07F5BE53 		add	r3, r7, #6080
 3366 1688 03F10F03 		add	r3, r3, #15
 3367 168c 1A78     		ldrb	r2, [r3]	@ zero_extendqisi2
 3368 168e 3949     		ldr	r1, .L296+4
 3369 1690 1346     		mov	r3, r2
 3370 1692 DB00     		lsls	r3, r3, #3
 3371 1694 9B1A     		subs	r3, r3, r2
 3372 1696 1B01     		lsls	r3, r3, #4
 3373 1698 0B44     		add	r3, r3, r1
 3374 169a E833     		adds	r3, r3, #232
 3375 169c 1968     		ldr	r1, [r3]
 3376 169e 07F5BE53 		add	r3, r7, #6080
 3377 16a2 03F10F03 		add	r3, r3, #15
 3378 16a6 1A78     		ldrb	r2, [r3]	@ zero_extendqisi2
 3379 16a8 3148     		ldr	r0, .L296
 3380 16aa 1346     		mov	r3, r2
 3381 16ac DB00     		lsls	r3, r3, #3
 3382 16ae 9B1A     		subs	r3, r3, r2
 3383 16b0 1B01     		lsls	r3, r3, #4
 3384 16b2 0344     		add	r3, r3, r0
 3385 16b4 03F58873 		add	r3, r3, #272
 3386 16b8 1B78     		ldrb	r3, [r3]	@ zero_extendqisi2
 3387 16ba 1846     		mov	r0, r3
 3388 16bc 2D4A     		ldr	r2, .L296+4
 3389 16be 0346     		mov	r3, r0
 3390 16c0 5B00     		lsls	r3, r3, #1
 3391 16c2 0344     		add	r3, r3, r0
 3392 16c4 1B01     		lsls	r3, r3, #4
 3393 16c6 1344     		add	r3, r3, r2
 3394 16c8 03F29513 		addw	r3, r3, #405
 3395 16cc 1B78     		ldrb	r3, [r3]	@ zero_extendqisi2
 3396 16ce 41FA03F2 		asr	r2, r1, r3
 3397 16d2 07F11803 		add	r3, r7, #24
 3398 16d6 043B     		subs	r3, r3, #4
 3399 16d8 1A60     		str	r2, [r3]
 575:..\src/command_processing.c ****                         for(j = 0; j < sod; j++) {
 3400              		.loc 1 575 0
 3401 16da 0023     		movs	r3, #0
 3402 16dc 07F5BE52 		add	r2, r7, #6080
 3403 16e0 02F11602 		add	r2, r2, #22
 3404 16e4 1370     		strb	r3, [r2]
ARM GAS  C:\Users\mgnocco\AppData\Local\Temp\cc5vWZGV.s 			page 88


 3405 16e6 34E0     		b	.L160
 3406              	.L161:
 576:..\src/command_processing.c ****                             packet_data[(4 + PARAM_BYTE_SLOT*idx + sod) + sod - j -1] = ((char*)(&a
