ARM GAS  C:\Users\mgnocco\AppData\Local\Temp\ccQexeeb.s 			page 1


   1              		.syntax unified
   2              		.cpu cortex-m3
   3              		.fpu softvfp
   4              		.eabi_attribute 20, 1
   5              		.eabi_attribute 21, 1
   6              		.eabi_attribute 23, 3
   7              		.eabi_attribute 24, 1
   8              		.eabi_attribute 25, 1
   9              		.eabi_attribute 26, 1
  10              		.eabi_attribute 30, 1
  11              		.eabi_attribute 34, 1
  12              		.eabi_attribute 18, 4
  13              		.thumb
  14              		.syntax unified
  15              		.file	"cyfitter_cfg.c"
  16              		.text
  17              	.Ltext0:
  18              		.cfi_sections	.debug_frame
  19              		.section	.text.CyClockStartupError,"ax",%progbits
  20              		.align	2
  21              		.thumb
  22              		.thumb_func
  23              		.type	CyClockStartupError, %function
  24              	CyClockStartupError:
  25              	.LFB3:
  26              		.file 1 "Generated_Source\\PSoC5\\cyfitter_cfg.c"
   1:Generated_Source\PSoC5/cyfitter_cfg.c **** 
   2:Generated_Source\PSoC5/cyfitter_cfg.c **** /*******************************************************************************
   3:Generated_Source\PSoC5/cyfitter_cfg.c **** * File Name: cyfitter_cfg.c
   4:Generated_Source\PSoC5/cyfitter_cfg.c **** * 
   5:Generated_Source\PSoC5/cyfitter_cfg.c **** * PSoC Creator  4.4
   6:Generated_Source\PSoC5/cyfitter_cfg.c **** *
   7:Generated_Source\PSoC5/cyfitter_cfg.c **** * Description:
   8:Generated_Source\PSoC5/cyfitter_cfg.c **** * This file contains device initialization code.
   9:Generated_Source\PSoC5/cyfitter_cfg.c **** * Except for the user defined sections in CyClockStartupError(), this file should not be modified.
  10:Generated_Source\PSoC5/cyfitter_cfg.c **** * This file is automatically generated by PSoC Creator.
  11:Generated_Source\PSoC5/cyfitter_cfg.c **** *
  12:Generated_Source\PSoC5/cyfitter_cfg.c **** ********************************************************************************
  13:Generated_Source\PSoC5/cyfitter_cfg.c **** * Copyright (c) 2007-2020 Cypress Semiconductor.  All rights reserved.
  14:Generated_Source\PSoC5/cyfitter_cfg.c **** * You may use this file only in accordance with the license, terms, conditions, 
  15:Generated_Source\PSoC5/cyfitter_cfg.c **** * disclaimers, and limitations in the end user license agreement accompanying 
  16:Generated_Source\PSoC5/cyfitter_cfg.c **** * the software package with which this file was provided.
  17:Generated_Source\PSoC5/cyfitter_cfg.c **** ********************************************************************************/
  18:Generated_Source\PSoC5/cyfitter_cfg.c **** 
  19:Generated_Source\PSoC5/cyfitter_cfg.c **** #include <string.h>
  20:Generated_Source\PSoC5/cyfitter_cfg.c **** #include "cytypes.h"
  21:Generated_Source\PSoC5/cyfitter_cfg.c **** #include "cydevice_trm.h"
  22:Generated_Source\PSoC5/cyfitter_cfg.c **** #include "cyfitter.h"
  23:Generated_Source\PSoC5/cyfitter_cfg.c **** #include "CyLib.h"
  24:Generated_Source\PSoC5/cyfitter_cfg.c **** #include "cyfitter_cfg.h"
  25:Generated_Source\PSoC5/cyfitter_cfg.c **** #include "cyapicallbacks.h"
  26:Generated_Source\PSoC5/cyfitter_cfg.c **** 
  27:Generated_Source\PSoC5/cyfitter_cfg.c **** #define CY_NEED_CYCLOCKSTARTUPERROR 1
  28:Generated_Source\PSoC5/cyfitter_cfg.c **** 
  29:Generated_Source\PSoC5/cyfitter_cfg.c **** 
  30:Generated_Source\PSoC5/cyfitter_cfg.c **** #if defined(__GNUC__) || defined(__ARMCC_VERSION)
  31:Generated_Source\PSoC5/cyfitter_cfg.c ****     #define CYPACKED 
ARM GAS  C:\Users\mgnocco\AppData\Local\Temp\ccQexeeb.s 			page 2


  32:Generated_Source\PSoC5/cyfitter_cfg.c ****     #define CYPACKED_ATTR __attribute__ ((packed))
  33:Generated_Source\PSoC5/cyfitter_cfg.c ****     #define CYALIGNED __attribute__ ((aligned))
  34:Generated_Source\PSoC5/cyfitter_cfg.c ****     #define CY_CFG_UNUSED __attribute__ ((unused))
  35:Generated_Source\PSoC5/cyfitter_cfg.c ****     #ifndef CY_CFG_SECTION
  36:Generated_Source\PSoC5/cyfitter_cfg.c ****         #define CY_CFG_SECTION __attribute__ ((section(".psocinit")))
  37:Generated_Source\PSoC5/cyfitter_cfg.c ****     #endif
  38:Generated_Source\PSoC5/cyfitter_cfg.c ****     
  39:Generated_Source\PSoC5/cyfitter_cfg.c ****     #if defined(__ARMCC_VERSION)
  40:Generated_Source\PSoC5/cyfitter_cfg.c ****         #define CY_CFG_MEMORY_BARRIER() __memory_changed()
  41:Generated_Source\PSoC5/cyfitter_cfg.c ****     #else
  42:Generated_Source\PSoC5/cyfitter_cfg.c ****         #define CY_CFG_MEMORY_BARRIER() __sync_synchronize()
  43:Generated_Source\PSoC5/cyfitter_cfg.c ****     #endif
  44:Generated_Source\PSoC5/cyfitter_cfg.c ****     
  45:Generated_Source\PSoC5/cyfitter_cfg.c **** #elif defined(__ICCARM__)
  46:Generated_Source\PSoC5/cyfitter_cfg.c ****     #include <intrinsics.h>
  47:Generated_Source\PSoC5/cyfitter_cfg.c **** 
  48:Generated_Source\PSoC5/cyfitter_cfg.c ****     #define CYPACKED __packed
  49:Generated_Source\PSoC5/cyfitter_cfg.c ****     #define CYPACKED_ATTR 
  50:Generated_Source\PSoC5/cyfitter_cfg.c ****     #define CYALIGNED _Pragma("data_alignment=4")
  51:Generated_Source\PSoC5/cyfitter_cfg.c ****     #define CY_CFG_UNUSED _Pragma("diag_suppress=Pe177")
  52:Generated_Source\PSoC5/cyfitter_cfg.c ****     #define CY_CFG_SECTION _Pragma("location=\".psocinit\"")
  53:Generated_Source\PSoC5/cyfitter_cfg.c ****     
  54:Generated_Source\PSoC5/cyfitter_cfg.c ****     #define CY_CFG_MEMORY_BARRIER() __DMB()
  55:Generated_Source\PSoC5/cyfitter_cfg.c ****     
  56:Generated_Source\PSoC5/cyfitter_cfg.c **** #else
  57:Generated_Source\PSoC5/cyfitter_cfg.c ****     #error Unsupported toolchain
  58:Generated_Source\PSoC5/cyfitter_cfg.c **** #endif
  59:Generated_Source\PSoC5/cyfitter_cfg.c **** 
  60:Generated_Source\PSoC5/cyfitter_cfg.c **** #ifndef CYCODE
  61:Generated_Source\PSoC5/cyfitter_cfg.c ****     #define CYCODE
  62:Generated_Source\PSoC5/cyfitter_cfg.c **** #endif
  63:Generated_Source\PSoC5/cyfitter_cfg.c **** #ifndef CYDATA
  64:Generated_Source\PSoC5/cyfitter_cfg.c ****     #define CYDATA
  65:Generated_Source\PSoC5/cyfitter_cfg.c **** #endif
  66:Generated_Source\PSoC5/cyfitter_cfg.c **** #ifndef CYFAR
  67:Generated_Source\PSoC5/cyfitter_cfg.c ****     #define CYFAR
  68:Generated_Source\PSoC5/cyfitter_cfg.c **** #endif
  69:Generated_Source\PSoC5/cyfitter_cfg.c **** #ifndef CYXDATA
  70:Generated_Source\PSoC5/cyfitter_cfg.c ****     #define CYXDATA
  71:Generated_Source\PSoC5/cyfitter_cfg.c **** #endif
  72:Generated_Source\PSoC5/cyfitter_cfg.c **** 
  73:Generated_Source\PSoC5/cyfitter_cfg.c **** 
  74:Generated_Source\PSoC5/cyfitter_cfg.c **** CY_CFG_UNUSED
  75:Generated_Source\PSoC5/cyfitter_cfg.c **** static void CYMEMZERO(void *s, size_t n);
  76:Generated_Source\PSoC5/cyfitter_cfg.c **** CY_CFG_UNUSED
  77:Generated_Source\PSoC5/cyfitter_cfg.c **** static void CYMEMZERO(void *s, size_t n)
  78:Generated_Source\PSoC5/cyfitter_cfg.c **** {
  79:Generated_Source\PSoC5/cyfitter_cfg.c **** 	(void)memset(s, 0, n);
  80:Generated_Source\PSoC5/cyfitter_cfg.c **** }
  81:Generated_Source\PSoC5/cyfitter_cfg.c **** CY_CFG_UNUSED
  82:Generated_Source\PSoC5/cyfitter_cfg.c **** static void CYCONFIGCPY(void *dest, const void *src, size_t n);
  83:Generated_Source\PSoC5/cyfitter_cfg.c **** CY_CFG_UNUSED
  84:Generated_Source\PSoC5/cyfitter_cfg.c **** static void CYCONFIGCPY(void *dest, const void *src, size_t n)
  85:Generated_Source\PSoC5/cyfitter_cfg.c **** {
  86:Generated_Source\PSoC5/cyfitter_cfg.c **** 	(void)memcpy(dest, src, n);
  87:Generated_Source\PSoC5/cyfitter_cfg.c **** }
  88:Generated_Source\PSoC5/cyfitter_cfg.c **** CY_CFG_UNUSED
ARM GAS  C:\Users\mgnocco\AppData\Local\Temp\ccQexeeb.s 			page 3


  89:Generated_Source\PSoC5/cyfitter_cfg.c **** static void CYCONFIGCPYCODE(void *dest, const void *src, size_t n);
  90:Generated_Source\PSoC5/cyfitter_cfg.c **** CY_CFG_UNUSED
  91:Generated_Source\PSoC5/cyfitter_cfg.c **** static void CYCONFIGCPYCODE(void *dest, const void *src, size_t n)
  92:Generated_Source\PSoC5/cyfitter_cfg.c **** {
  93:Generated_Source\PSoC5/cyfitter_cfg.c **** 	(void)memcpy(dest, src, n);
  94:Generated_Source\PSoC5/cyfitter_cfg.c **** }
  95:Generated_Source\PSoC5/cyfitter_cfg.c **** 
  96:Generated_Source\PSoC5/cyfitter_cfg.c **** 
  97:Generated_Source\PSoC5/cyfitter_cfg.c **** 
  98:Generated_Source\PSoC5/cyfitter_cfg.c **** 
  99:Generated_Source\PSoC5/cyfitter_cfg.c **** /* Clock startup error codes                                                   */
 100:Generated_Source\PSoC5/cyfitter_cfg.c **** #define CYCLOCKSTART_NO_ERROR    0u
 101:Generated_Source\PSoC5/cyfitter_cfg.c **** #define CYCLOCKSTART_XTAL_ERROR  1u
 102:Generated_Source\PSoC5/cyfitter_cfg.c **** #define CYCLOCKSTART_32KHZ_ERROR 2u
 103:Generated_Source\PSoC5/cyfitter_cfg.c **** #define CYCLOCKSTART_PLL_ERROR   3u
 104:Generated_Source\PSoC5/cyfitter_cfg.c **** #define CYCLOCKSTART_FLL_ERROR   4u
 105:Generated_Source\PSoC5/cyfitter_cfg.c **** #define CYCLOCKSTART_WCO_ERROR   5u
 106:Generated_Source\PSoC5/cyfitter_cfg.c **** 
 107:Generated_Source\PSoC5/cyfitter_cfg.c **** 
 108:Generated_Source\PSoC5/cyfitter_cfg.c **** #ifdef CY_NEED_CYCLOCKSTARTUPERROR
 109:Generated_Source\PSoC5/cyfitter_cfg.c **** /*******************************************************************************
 110:Generated_Source\PSoC5/cyfitter_cfg.c **** * Function Name: CyClockStartupError
 111:Generated_Source\PSoC5/cyfitter_cfg.c **** ********************************************************************************
 112:Generated_Source\PSoC5/cyfitter_cfg.c **** * Summary:
 113:Generated_Source\PSoC5/cyfitter_cfg.c **** *  If an error is encountered during clock configuration (crystal startup error,
 114:Generated_Source\PSoC5/cyfitter_cfg.c **** *  PLL lock error, etc.), the system will end up here.  Unless reimplemented by
 115:Generated_Source\PSoC5/cyfitter_cfg.c **** *  the customer, this function will stop in an infinite loop.
 116:Generated_Source\PSoC5/cyfitter_cfg.c **** *
 117:Generated_Source\PSoC5/cyfitter_cfg.c **** * Parameters:
 118:Generated_Source\PSoC5/cyfitter_cfg.c **** *   void
 119:Generated_Source\PSoC5/cyfitter_cfg.c **** *
 120:Generated_Source\PSoC5/cyfitter_cfg.c **** * Return:
 121:Generated_Source\PSoC5/cyfitter_cfg.c **** *   void
 122:Generated_Source\PSoC5/cyfitter_cfg.c **** *
 123:Generated_Source\PSoC5/cyfitter_cfg.c **** *******************************************************************************/
 124:Generated_Source\PSoC5/cyfitter_cfg.c **** CY_CFG_UNUSED
 125:Generated_Source\PSoC5/cyfitter_cfg.c **** static void CyClockStartupError(uint8 errorCode);
 126:Generated_Source\PSoC5/cyfitter_cfg.c **** CY_CFG_UNUSED
 127:Generated_Source\PSoC5/cyfitter_cfg.c **** static void CyClockStartupError(uint8 errorCode)
 128:Generated_Source\PSoC5/cyfitter_cfg.c **** {
  27              		.loc 1 128 0
  28              		.cfi_startproc
  29              		@ Volatile: function does not return.
  30              		@ args = 0, pretend = 0, frame = 0
  31              		@ frame_needed = 0, uses_anonymous_args = 0
  32              		@ link register save eliminated.
  33              	.LVL0:
  34              	.L2:
  35 0000 FEE7     		b	.L2
  36              		.cfi_endproc
  37              	.LFE3:
  38              		.size	CyClockStartupError, .-CyClockStartupError
  39 0002 00BF     		.section	.text.cfg_write_bytes32,"ax",%progbits
  40              		.align	2
  41              		.thumb
  42              		.thumb_func
  43              		.type	cfg_write_bytes32, %function
ARM GAS  C:\Users\mgnocco\AppData\Local\Temp\ccQexeeb.s 			page 4


  44              	cfg_write_bytes32:
  45              	.LFB4:
 129:Generated_Source\PSoC5/cyfitter_cfg.c ****     /* To remove the compiler warning if errorCode not used.                */
 130:Generated_Source\PSoC5/cyfitter_cfg.c ****     errorCode = errorCode;
 131:Generated_Source\PSoC5/cyfitter_cfg.c **** 
 132:Generated_Source\PSoC5/cyfitter_cfg.c ****     /* If we have a clock startup error (bad MHz crystal, PLL lock, etc.),  */
 133:Generated_Source\PSoC5/cyfitter_cfg.c ****     /* we will end up here to allow the customer to implement something to  */
 134:Generated_Source\PSoC5/cyfitter_cfg.c ****     /* deal with the clock condition.                                       */
 135:Generated_Source\PSoC5/cyfitter_cfg.c **** 
 136:Generated_Source\PSoC5/cyfitter_cfg.c **** #ifdef CY_CFG_CLOCK_STARTUP_ERROR_CALLBACK
 137:Generated_Source\PSoC5/cyfitter_cfg.c ****     CY_CFG_Clock_Startup_ErrorCallback();
 138:Generated_Source\PSoC5/cyfitter_cfg.c **** #else
 139:Generated_Source\PSoC5/cyfitter_cfg.c ****     /*  If not using CY_CFG_CLOCK_STARTUP_ERROR_CALLBACK, place your clock startup code here. */
 140:Generated_Source\PSoC5/cyfitter_cfg.c ****     /* `#START CyClockStartupError` */
 141:Generated_Source\PSoC5/cyfitter_cfg.c **** 
 142:Generated_Source\PSoC5/cyfitter_cfg.c **** 
 143:Generated_Source\PSoC5/cyfitter_cfg.c **** 
 144:Generated_Source\PSoC5/cyfitter_cfg.c ****     /* `#END` */
 145:Generated_Source\PSoC5/cyfitter_cfg.c **** 
 146:Generated_Source\PSoC5/cyfitter_cfg.c ****     while(1) {}
 147:Generated_Source\PSoC5/cyfitter_cfg.c **** #endif /* CY_CFG_CLOCK_STARTUP_ERROR_CALLBACK */
 148:Generated_Source\PSoC5/cyfitter_cfg.c **** }
 149:Generated_Source\PSoC5/cyfitter_cfg.c **** #endif
 150:Generated_Source\PSoC5/cyfitter_cfg.c **** 
 151:Generated_Source\PSoC5/cyfitter_cfg.c **** #define CY_CFG_BASE_ADDR_COUNT 23u
 152:Generated_Source\PSoC5/cyfitter_cfg.c **** CYPACKED typedef struct
 153:Generated_Source\PSoC5/cyfitter_cfg.c **** {
 154:Generated_Source\PSoC5/cyfitter_cfg.c **** 	uint8 offset;
 155:Generated_Source\PSoC5/cyfitter_cfg.c **** 	uint8 value;
 156:Generated_Source\PSoC5/cyfitter_cfg.c **** } CYPACKED_ATTR cy_cfg_addrvalue_t;
 157:Generated_Source\PSoC5/cyfitter_cfg.c **** 
 158:Generated_Source\PSoC5/cyfitter_cfg.c **** 
 159:Generated_Source\PSoC5/cyfitter_cfg.c **** 
 160:Generated_Source\PSoC5/cyfitter_cfg.c **** /*******************************************************************************
 161:Generated_Source\PSoC5/cyfitter_cfg.c **** * Function Name: cfg_write_bytes32
 162:Generated_Source\PSoC5/cyfitter_cfg.c **** ********************************************************************************
 163:Generated_Source\PSoC5/cyfitter_cfg.c **** * Summary:
 164:Generated_Source\PSoC5/cyfitter_cfg.c **** *  This function is used for setting up the chip configuration areas that
 165:Generated_Source\PSoC5/cyfitter_cfg.c **** *  contain relatively sparse data.
 166:Generated_Source\PSoC5/cyfitter_cfg.c **** *
 167:Generated_Source\PSoC5/cyfitter_cfg.c **** * Parameters:
 168:Generated_Source\PSoC5/cyfitter_cfg.c **** *   void
 169:Generated_Source\PSoC5/cyfitter_cfg.c **** *
 170:Generated_Source\PSoC5/cyfitter_cfg.c **** * Return:
 171:Generated_Source\PSoC5/cyfitter_cfg.c **** *   void
 172:Generated_Source\PSoC5/cyfitter_cfg.c **** *
 173:Generated_Source\PSoC5/cyfitter_cfg.c **** *******************************************************************************/
 174:Generated_Source\PSoC5/cyfitter_cfg.c **** static void cfg_write_bytes32(const uint32 addr_table[], const cy_cfg_addrvalue_t data_table[]);
 175:Generated_Source\PSoC5/cyfitter_cfg.c **** static void cfg_write_bytes32(const uint32 addr_table[], const cy_cfg_addrvalue_t data_table[])
 176:Generated_Source\PSoC5/cyfitter_cfg.c **** {
  46              		.loc 1 176 0
  47              		.cfi_startproc
  48              		@ args = 0, pretend = 0, frame = 0
  49              		@ frame_needed = 0, uses_anonymous_args = 0
  50              		@ link register save eliminated.
  51              	.LVL1:
  52              		.loc 1 176 0
ARM GAS  C:\Users\mgnocco\AppData\Local\Temp\ccQexeeb.s 			page 5


  53 0000 F0B4     		push	{r4, r5, r6, r7}
  54              		.cfi_def_cfa_offset 16
  55              		.cfi_offset 4, -16
  56              		.cfi_offset 5, -12
  57              		.cfi_offset 6, -8
  58              		.cfi_offset 7, -4
  59              	.LVL2:
 177:Generated_Source\PSoC5/cyfitter_cfg.c **** 	/* For 32-bit little-endian architectures */
 178:Generated_Source\PSoC5/cyfitter_cfg.c **** 	uint32 i, j = 0u;
  60              		.loc 1 178 0
  61 0002 0022     		movs	r2, #0
 179:Generated_Source\PSoC5/cyfitter_cfg.c **** 	for (i = 0u; i < CY_CFG_BASE_ADDR_COUNT; i++)
  62              		.loc 1 179 0
  63 0004 1746     		mov	r7, r2
  64 0006 11E0     		b	.L4
  65              	.LVL3:
  66              	.L7:
  67              	.LBB2:
 180:Generated_Source\PSoC5/cyfitter_cfg.c **** 	{
 181:Generated_Source\PSoC5/cyfitter_cfg.c **** 		uint32 baseAddr = addr_table[i];
  68              		.loc 1 181 0
  69 0008 50F82760 		ldr	r6, [r0, r7, lsl #2]
  70              	.LVL4:
 182:Generated_Source\PSoC5/cyfitter_cfg.c **** 		uint8 count = (uint8)baseAddr;
  71              		.loc 1 182 0
  72 000c F3B2     		uxtb	r3, r6
  73              	.LVL5:
 183:Generated_Source\PSoC5/cyfitter_cfg.c **** 		baseAddr &= 0xFFFFFF00u;
  74              		.loc 1 183 0
  75 000e 26F0FF06 		bic	r6, r6, #255
  76              	.LVL6:
 184:Generated_Source\PSoC5/cyfitter_cfg.c **** 		while (count != 0u)
  77              		.loc 1 184 0
  78 0012 08E0     		b	.L5
  79              	.L6:
 185:Generated_Source\PSoC5/cyfitter_cfg.c **** 		{
 186:Generated_Source\PSoC5/cyfitter_cfg.c **** 			CY_SET_REG8((void *)(baseAddr + data_table[j].offset), data_table[j].value);
  80              		.loc 1 186 0
  81 0014 01EB4205 		add	r5, r1, r2, lsl #1
  82 0018 11F81240 		ldrb	r4, [r1, r2, lsl #1]	@ zero_extendqisi2
  83 001c 6D78     		ldrb	r5, [r5, #1]	@ zero_extendqisi2
  84 001e A555     		strb	r5, [r4, r6]
 187:Generated_Source\PSoC5/cyfitter_cfg.c **** 			j++;
  85              		.loc 1 187 0
  86 0020 0132     		adds	r2, r2, #1
  87              	.LVL7:
 188:Generated_Source\PSoC5/cyfitter_cfg.c **** 			count--;
  88              		.loc 1 188 0
  89 0022 013B     		subs	r3, r3, #1
  90              	.LVL8:
  91 0024 DBB2     		uxtb	r3, r3
  92              	.LVL9:
  93              	.L5:
 184:Generated_Source\PSoC5/cyfitter_cfg.c **** 		{
  94              		.loc 1 184 0
  95 0026 002B     		cmp	r3, #0
  96 0028 F4D1     		bne	.L6
ARM GAS  C:\Users\mgnocco\AppData\Local\Temp\ccQexeeb.s 			page 6


  97              	.LBE2:
 179:Generated_Source\PSoC5/cyfitter_cfg.c **** 	{
  98              		.loc 1 179 0 discriminator 2
  99 002a 0137     		adds	r7, r7, #1
 100              	.LVL10:
 101              	.L4:
 179:Generated_Source\PSoC5/cyfitter_cfg.c **** 	{
 102              		.loc 1 179 0 is_stmt 0 discriminator 1
 103 002c 162F     		cmp	r7, #22
 104 002e EBD9     		bls	.L7
 189:Generated_Source\PSoC5/cyfitter_cfg.c **** 		}
 190:Generated_Source\PSoC5/cyfitter_cfg.c **** 	}
 191:Generated_Source\PSoC5/cyfitter_cfg.c **** }
 105              		.loc 1 191 0 is_stmt 1
 106 0030 F0BC     		pop	{r4, r5, r6, r7}
 107              		.cfi_restore 7
 108              		.cfi_restore 6
 109              		.cfi_restore 5
 110              		.cfi_restore 4
 111              		.cfi_def_cfa_offset 0
 112              	.LVL11:
 113 0032 7047     		bx	lr
 114              		.cfi_endproc
 115              	.LFE4:
 116              		.size	cfg_write_bytes32, .-cfg_write_bytes32
 117              		.section	.text.AnalogSetDefault,"ax",%progbits
 118              		.align	2
 119              		.thumb
 120              		.thumb_func
 121              		.type	AnalogSetDefault, %function
 122              	AnalogSetDefault:
 123              	.LFB6:
 192:Generated_Source\PSoC5/cyfitter_cfg.c **** 
 193:Generated_Source\PSoC5/cyfitter_cfg.c **** /*******************************************************************************
 194:Generated_Source\PSoC5/cyfitter_cfg.c **** * Function Name: ClockSetup
 195:Generated_Source\PSoC5/cyfitter_cfg.c **** ********************************************************************************
 196:Generated_Source\PSoC5/cyfitter_cfg.c **** *
 197:Generated_Source\PSoC5/cyfitter_cfg.c **** * Summary:
 198:Generated_Source\PSoC5/cyfitter_cfg.c **** *  Performs the initialization of all of the clocks in the device based on the
 199:Generated_Source\PSoC5/cyfitter_cfg.c **** *  settings in the Clock tab of the DWR.  This includes enabling the requested
 200:Generated_Source\PSoC5/cyfitter_cfg.c **** *  clocks and setting the necessary dividers to produce the desired frequency. 
 201:Generated_Source\PSoC5/cyfitter_cfg.c **** *
 202:Generated_Source\PSoC5/cyfitter_cfg.c **** * Parameters:
 203:Generated_Source\PSoC5/cyfitter_cfg.c **** *  void
 204:Generated_Source\PSoC5/cyfitter_cfg.c **** *
 205:Generated_Source\PSoC5/cyfitter_cfg.c **** * Return:
 206:Generated_Source\PSoC5/cyfitter_cfg.c **** *  void
 207:Generated_Source\PSoC5/cyfitter_cfg.c **** *
 208:Generated_Source\PSoC5/cyfitter_cfg.c **** *******************************************************************************/
 209:Generated_Source\PSoC5/cyfitter_cfg.c **** static void ClockSetup(void);
 210:Generated_Source\PSoC5/cyfitter_cfg.c **** static void ClockSetup(void)
 211:Generated_Source\PSoC5/cyfitter_cfg.c **** {
 212:Generated_Source\PSoC5/cyfitter_cfg.c **** 	uint32 timeout;
 213:Generated_Source\PSoC5/cyfitter_cfg.c **** 	uint8 pllLock;
 214:Generated_Source\PSoC5/cyfitter_cfg.c **** 
 215:Generated_Source\PSoC5/cyfitter_cfg.c **** 
 216:Generated_Source\PSoC5/cyfitter_cfg.c **** 	/* Configure Digital Clocks based on settings from Clock DWR */
ARM GAS  C:\Users\mgnocco\AppData\Local\Temp\ccQexeeb.s 			page 7


 217:Generated_Source\PSoC5/cyfitter_cfg.c **** 	CY_SET_XTND_REG16((void CYFAR *)(CYREG_CLKDIST_DCFG0_CFG0), 0x0033u);
 218:Generated_Source\PSoC5/cyfitter_cfg.c **** 	CY_SET_XTND_REG8((void CYFAR *)(CYREG_CLKDIST_DCFG0_CFG0 + 0x2u), 0x18u);
 219:Generated_Source\PSoC5/cyfitter_cfg.c **** 
 220:Generated_Source\PSoC5/cyfitter_cfg.c **** 	/* Configure ILO based on settings from Clock DWR */
 221:Generated_Source\PSoC5/cyfitter_cfg.c **** 	CY_SET_XTND_REG8((void CYFAR *)(CYREG_SLOWCLK_ILO_CR0), 0x02u);
 222:Generated_Source\PSoC5/cyfitter_cfg.c **** 	CY_SET_XTND_REG8((void CYFAR *)(CYREG_CLKDIST_CR), 0x08u);
 223:Generated_Source\PSoC5/cyfitter_cfg.c **** 
 224:Generated_Source\PSoC5/cyfitter_cfg.c **** 	/* Configure IMO based on settings from Clock DWR */
 225:Generated_Source\PSoC5/cyfitter_cfg.c **** 	CY_SET_XTND_REG8((void CYFAR *)(CYREG_FASTCLK_IMO_CR), 0x03u);
 226:Generated_Source\PSoC5/cyfitter_cfg.c **** 	CY_SET_XTND_REG8((void CYFAR *)(CYREG_IMO_TR1), (CY_GET_XTND_REG8((void CYFAR *)CYREG_FLSHID_CUST_
 227:Generated_Source\PSoC5/cyfitter_cfg.c **** 
 228:Generated_Source\PSoC5/cyfitter_cfg.c **** 	/* Configure PLL based on settings from Clock DWR */
 229:Generated_Source\PSoC5/cyfitter_cfg.c **** 	CY_SET_XTND_REG16((void CYFAR *)(CYREG_FASTCLK_PLL_P), 0x0008u);
 230:Generated_Source\PSoC5/cyfitter_cfg.c **** 	CY_SET_XTND_REG16((void CYFAR *)(CYREG_FASTCLK_PLL_CFG0), 0x1251u);
 231:Generated_Source\PSoC5/cyfitter_cfg.c **** 	/* Wait up to 250us for the PLL to lock */
 232:Generated_Source\PSoC5/cyfitter_cfg.c **** 	pllLock = 0u;
 233:Generated_Source\PSoC5/cyfitter_cfg.c **** 	for (timeout = 250u / 10u; (timeout > 0u) && (pllLock != 0x03u); timeout--)
 234:Generated_Source\PSoC5/cyfitter_cfg.c **** 	{ 
 235:Generated_Source\PSoC5/cyfitter_cfg.c **** 		pllLock = 0x03u & ((uint8)((uint8)pllLock << 1) | ((CY_GET_XTND_REG8((void CYFAR *)CYREG_FASTCLK_
 236:Generated_Source\PSoC5/cyfitter_cfg.c **** 		CyDelayCycles(10u * 48u); /* Delay 10us based on 48MHz clock */
 237:Generated_Source\PSoC5/cyfitter_cfg.c **** 	}
 238:Generated_Source\PSoC5/cyfitter_cfg.c **** 	/* If we ran out of time the PLL didn't lock so go to the error function */
 239:Generated_Source\PSoC5/cyfitter_cfg.c **** 	if (timeout == 0u)
 240:Generated_Source\PSoC5/cyfitter_cfg.c **** 	{
 241:Generated_Source\PSoC5/cyfitter_cfg.c **** 		CyClockStartupError(CYCLOCKSTART_PLL_ERROR);
 242:Generated_Source\PSoC5/cyfitter_cfg.c **** 	}
 243:Generated_Source\PSoC5/cyfitter_cfg.c **** 
 244:Generated_Source\PSoC5/cyfitter_cfg.c **** 	/* Configure Bus/Master Clock based on settings from Clock DWR */
 245:Generated_Source\PSoC5/cyfitter_cfg.c **** 	CY_SET_XTND_REG16((void CYFAR *)(CYREG_CLKDIST_MSTR0), 0x0100u);
 246:Generated_Source\PSoC5/cyfitter_cfg.c **** 	CY_SET_XTND_REG8((void CYFAR *)(CYREG_CLKDIST_MSTR0), 0x07u);
 247:Generated_Source\PSoC5/cyfitter_cfg.c **** 	CY_SET_XTND_REG8((void CYFAR *)(CYREG_CLKDIST_BCFG0), 0x00u);
 248:Generated_Source\PSoC5/cyfitter_cfg.c **** 	CY_SET_XTND_REG8((void CYFAR *)(CYREG_CLKDIST_BCFG2), 0x48u);
 249:Generated_Source\PSoC5/cyfitter_cfg.c **** 	CY_SET_XTND_REG8((void CYFAR *)(CYREG_CLKDIST_MSTR0), 0x00u);
 250:Generated_Source\PSoC5/cyfitter_cfg.c **** 	CY_SET_XTND_REG8((void CYFAR *)(CYREG_CLKDIST_LD), 0x02u);
 251:Generated_Source\PSoC5/cyfitter_cfg.c **** 
 252:Generated_Source\PSoC5/cyfitter_cfg.c **** 	CY_SET_XTND_REG8((void CYFAR *)(CYREG_PM_ACT_CFG2), ((CY_GET_XTND_REG8((void CYFAR *)CYREG_PM_ACT_
 253:Generated_Source\PSoC5/cyfitter_cfg.c **** }
 254:Generated_Source\PSoC5/cyfitter_cfg.c **** 
 255:Generated_Source\PSoC5/cyfitter_cfg.c **** 
 256:Generated_Source\PSoC5/cyfitter_cfg.c **** /* Analog API Functions */
 257:Generated_Source\PSoC5/cyfitter_cfg.c **** 
 258:Generated_Source\PSoC5/cyfitter_cfg.c **** 
 259:Generated_Source\PSoC5/cyfitter_cfg.c **** /*******************************************************************************
 260:Generated_Source\PSoC5/cyfitter_cfg.c **** * Function Name: AnalogSetDefault
 261:Generated_Source\PSoC5/cyfitter_cfg.c **** ********************************************************************************
 262:Generated_Source\PSoC5/cyfitter_cfg.c **** *
 263:Generated_Source\PSoC5/cyfitter_cfg.c **** * Summary:
 264:Generated_Source\PSoC5/cyfitter_cfg.c **** *  Sets up the analog portions of the chip to default values based on chip
 265:Generated_Source\PSoC5/cyfitter_cfg.c **** *  configuration options from the project.
 266:Generated_Source\PSoC5/cyfitter_cfg.c **** *
 267:Generated_Source\PSoC5/cyfitter_cfg.c **** * Parameters:
 268:Generated_Source\PSoC5/cyfitter_cfg.c **** *  void
 269:Generated_Source\PSoC5/cyfitter_cfg.c **** *
 270:Generated_Source\PSoC5/cyfitter_cfg.c **** * Return:
 271:Generated_Source\PSoC5/cyfitter_cfg.c **** *  void
 272:Generated_Source\PSoC5/cyfitter_cfg.c **** *
 273:Generated_Source\PSoC5/cyfitter_cfg.c **** *******************************************************************************/
ARM GAS  C:\Users\mgnocco\AppData\Local\Temp\ccQexeeb.s 			page 8


 274:Generated_Source\PSoC5/cyfitter_cfg.c **** static void AnalogSetDefault(void);
 275:Generated_Source\PSoC5/cyfitter_cfg.c **** static void AnalogSetDefault(void)
 276:Generated_Source\PSoC5/cyfitter_cfg.c **** {
 124              		.loc 1 276 0
 125              		.cfi_startproc
 126              		@ args = 0, pretend = 0, frame = 0
 127              		@ frame_needed = 0, uses_anonymous_args = 0
 128              		@ link register save eliminated.
 277:Generated_Source\PSoC5/cyfitter_cfg.c **** 	uint8 bg_xover_inl_trim = CY_GET_XTND_REG8((void CYFAR *)(CYREG_FLSHID_MFG_CFG_BG_XOVER_INL_TRIM +
 129              		.loc 1 277 0
 130 0000 064B     		ldr	r3, .L10
 131 0002 1B78     		ldrb	r3, [r3]	@ zero_extendqisi2
 132 0004 DBB2     		uxtb	r3, r3
 133              	.LVL12:
 278:Generated_Source\PSoC5/cyfitter_cfg.c **** 	CY_SET_XTND_REG8((void CYFAR *)(CYREG_BG_DFT0), (bg_xover_inl_trim & 0x07u));
 134              		.loc 1 278 0
 135 0006 03F00701 		and	r1, r3, #7
 136 000a 054A     		ldr	r2, .L10+4
 137 000c 1170     		strb	r1, [r2]
 279:Generated_Source\PSoC5/cyfitter_cfg.c **** 	CY_SET_XTND_REG8((void CYFAR *)(CYREG_BG_DFT1), ((bg_xover_inl_trim >> 4) & 0x0Fu));
 138              		.loc 1 279 0
 139 000e 1B09     		lsrs	r3, r3, #4
 140              	.LVL13:
 141 0010 0132     		adds	r2, r2, #1
 142 0012 1370     		strb	r3, [r2]
 280:Generated_Source\PSoC5/cyfitter_cfg.c **** 	CY_SET_XTND_REG8((void CYFAR *)CYREG_PUMP_CR0, 0x44u);
 143              		.loc 1 280 0
 144 0014 4422     		movs	r2, #68
 145 0016 034B     		ldr	r3, .L10+8
 146 0018 1A70     		strb	r2, [r3]
 147 001a 7047     		bx	lr
 148              	.L11:
 149              		.align	2
 150              	.L10:
 151 001c CF010049 		.word	1224737231
 152 0020 6E580040 		.word	1073764462
 153 0024 76580040 		.word	1073764470
 154              		.cfi_endproc
 155              	.LFE6:
 156              		.size	AnalogSetDefault, .-AnalogSetDefault
 157              		.section	.text.CYMEMZERO,"ax",%progbits
 158              		.align	2
 159              		.thumb
 160              		.thumb_func
 161              		.type	CYMEMZERO, %function
 162              	CYMEMZERO:
 163              	.LFB0:
  78:Generated_Source\PSoC5/cyfitter_cfg.c **** 	(void)memset(s, 0, n);
 164              		.loc 1 78 0
 165              		.cfi_startproc
 166              		@ args = 0, pretend = 0, frame = 0
 167              		@ frame_needed = 0, uses_anonymous_args = 0
 168              	.LVL14:
 169 0000 08B5     		push	{r3, lr}
 170              		.cfi_def_cfa_offset 8
 171              		.cfi_offset 3, -8
 172              		.cfi_offset 14, -4
ARM GAS  C:\Users\mgnocco\AppData\Local\Temp\ccQexeeb.s 			page 9


  79:Generated_Source\PSoC5/cyfitter_cfg.c **** }
 173              		.loc 1 79 0
 174 0002 0A46     		mov	r2, r1
 175 0004 0021     		movs	r1, #0
 176              	.LVL15:
 177 0006 FFF7FEFF 		bl	memset
 178              	.LVL16:
 179 000a 08BD     		pop	{r3, pc}
 180              		.cfi_endproc
 181              	.LFE0:
 182              		.size	CYMEMZERO, .-CYMEMZERO
 183              		.section	.text.CYCONFIGCPYCODE,"ax",%progbits
 184              		.align	2
 185              		.thumb
 186              		.thumb_func
 187              		.type	CYCONFIGCPYCODE, %function
 188              	CYCONFIGCPYCODE:
 189              	.LFB2:
  92:Generated_Source\PSoC5/cyfitter_cfg.c **** 	(void)memcpy(dest, src, n);
 190              		.loc 1 92 0
 191              		.cfi_startproc
 192              		@ args = 0, pretend = 0, frame = 0
 193              		@ frame_needed = 0, uses_anonymous_args = 0
 194              	.LVL17:
 195 0000 08B5     		push	{r3, lr}
 196              		.cfi_def_cfa_offset 8
 197              		.cfi_offset 3, -8
 198              		.cfi_offset 14, -4
  93:Generated_Source\PSoC5/cyfitter_cfg.c **** }
 199              		.loc 1 93 0
 200 0002 FFF7FEFF 		bl	memcpy
 201              	.LVL18:
 202 0006 08BD     		pop	{r3, pc}
 203              		.cfi_endproc
 204              	.LFE2:
 205              		.size	CYCONFIGCPYCODE, .-CYCONFIGCPYCODE
 206              		.section	.text.CYCONFIGCPY,"ax",%progbits
 207              		.align	2
 208              		.thumb
 209              		.thumb_func
 210              		.type	CYCONFIGCPY, %function
 211              	CYCONFIGCPY:
 212              	.LFB1:
  85:Generated_Source\PSoC5/cyfitter_cfg.c **** 	(void)memcpy(dest, src, n);
 213              		.loc 1 85 0
 214              		.cfi_startproc
 215              		@ args = 0, pretend = 0, frame = 0
 216              		@ frame_needed = 0, uses_anonymous_args = 0
 217              	.LVL19:
 218 0000 08B5     		push	{r3, lr}
 219              		.cfi_def_cfa_offset 8
 220              		.cfi_offset 3, -8
 221              		.cfi_offset 14, -4
  86:Generated_Source\PSoC5/cyfitter_cfg.c **** }
 222              		.loc 1 86 0
 223 0002 FFF7FEFF 		bl	memcpy
 224              	.LVL20:
ARM GAS  C:\Users\mgnocco\AppData\Local\Temp\ccQexeeb.s 			page 10


 225 0006 08BD     		pop	{r3, pc}
 226              		.cfi_endproc
 227              	.LFE1:
 228              		.size	CYCONFIGCPY, .-CYCONFIGCPY
 229              		.section	.text.ClockSetup,"ax",%progbits
 230              		.align	2
 231              		.thumb
 232              		.thumb_func
 233              		.type	ClockSetup, %function
 234              	ClockSetup:
 235              	.LFB5:
 211:Generated_Source\PSoC5/cyfitter_cfg.c **** 	uint32 timeout;
 236              		.loc 1 211 0
 237              		.cfi_startproc
 238              		@ args = 0, pretend = 0, frame = 0
 239              		@ frame_needed = 0, uses_anonymous_args = 0
 240 0000 38B5     		push	{r3, r4, r5, lr}
 241              		.cfi_def_cfa_offset 16
 242              		.cfi_offset 3, -16
 243              		.cfi_offset 4, -12
 244              		.cfi_offset 5, -8
 245              		.cfi_offset 14, -4
 217:Generated_Source\PSoC5/cyfitter_cfg.c **** 	CY_SET_XTND_REG8((void CYFAR *)(CYREG_CLKDIST_DCFG0_CFG0 + 0x2u), 0x18u);
 246              		.loc 1 217 0
 247 0002 3322     		movs	r2, #51
 248 0004 244B     		ldr	r3, .L24
 249 0006 1A80     		strh	r2, [r3]	@ movhi
 218:Generated_Source\PSoC5/cyfitter_cfg.c **** 
 250              		.loc 1 218 0
 251 0008 1822     		movs	r2, #24
 252 000a 0233     		adds	r3, r3, #2
 253 000c 1A70     		strb	r2, [r3]
 221:Generated_Source\PSoC5/cyfitter_cfg.c **** 	CY_SET_XTND_REG8((void CYFAR *)(CYREG_CLKDIST_CR), 0x08u);
 254              		.loc 1 221 0
 255 000e 0222     		movs	r2, #2
 256 0010 03F27E23 		addw	r3, r3, #638
 257 0014 1A70     		strb	r2, [r3]
 222:Generated_Source\PSoC5/cyfitter_cfg.c **** 
 258              		.loc 1 222 0
 259 0016 0822     		movs	r2, #8
 260 0018 4FF04023 		mov	r3, #1073758208
 261 001c 1A70     		strb	r2, [r3]
 225:Generated_Source\PSoC5/cyfitter_cfg.c **** 	CY_SET_XTND_REG8((void CYFAR *)(CYREG_IMO_TR1), (CY_GET_XTND_REG8((void CYFAR *)CYREG_FLSHID_CUST_
 262              		.loc 1 225 0
 263 001e 0321     		movs	r1, #3
 264 0020 03F50073 		add	r3, r3, #512
 265 0024 1970     		strb	r1, [r3]
 226:Generated_Source\PSoC5/cyfitter_cfg.c **** 
 266              		.loc 1 226 0
 267 0026 1D4B     		ldr	r3, .L24+4
 268 0028 1B78     		ldrb	r3, [r3]	@ zero_extendqisi2
 269 002a DBB2     		uxtb	r3, r3
 270 002c 1C49     		ldr	r1, .L24+8
 271 002e 0B70     		strb	r3, [r1]
 229:Generated_Source\PSoC5/cyfitter_cfg.c **** 	CY_SET_XTND_REG16((void CYFAR *)(CYREG_FASTCLK_PLL_CFG0), 0x1251u);
 272              		.loc 1 229 0
 273 0030 1C4B     		ldr	r3, .L24+12
ARM GAS  C:\Users\mgnocco\AppData\Local\Temp\ccQexeeb.s 			page 11


 274 0032 1A80     		strh	r2, [r3]	@ movhi
 230:Generated_Source\PSoC5/cyfitter_cfg.c **** 	/* Wait up to 250us for the PLL to lock */
 275              		.loc 1 230 0
 276 0034 41F25122 		movw	r2, #4689
 277 0038 023B     		subs	r3, r3, #2
 278 003a 1A80     		strh	r2, [r3]	@ movhi
 279              	.LVL21:
 232:Generated_Source\PSoC5/cyfitter_cfg.c **** 	for (timeout = 250u / 10u; (timeout > 0u) && (pllLock != 0x03u); timeout--)
 280              		.loc 1 232 0
 281 003c 0024     		movs	r4, #0
 233:Generated_Source\PSoC5/cyfitter_cfg.c **** 	{ 
 282              		.loc 1 233 0
 283 003e 1925     		movs	r5, #25
 284 0040 0CE0     		b	.L19
 285              	.LVL22:
 286              	.L21:
 235:Generated_Source\PSoC5/cyfitter_cfg.c **** 		CyDelayCycles(10u * 48u); /* Delay 10us based on 48MHz clock */
 287              		.loc 1 235 0 discriminator 4
 288 0042 194B     		ldr	r3, .L24+16
 289 0044 1B78     		ldrb	r3, [r3]	@ zero_extendqisi2
 290 0046 03F00103 		and	r3, r3, #1
 291 004a 43EA4404 		orr	r4, r3, r4, lsl #1
 292              	.LVL23:
 293 004e 04F00304 		and	r4, r4, #3
 294              	.LVL24:
 236:Generated_Source\PSoC5/cyfitter_cfg.c **** 	}
 295              		.loc 1 236 0 discriminator 4
 296 0052 4FF4F070 		mov	r0, #480
 297 0056 FFF7FEFF 		bl	CyDelayCycles
 298              	.LVL25:
 233:Generated_Source\PSoC5/cyfitter_cfg.c **** 	{ 
 299              		.loc 1 233 0 discriminator 4
 300 005a 013D     		subs	r5, r5, #1
 301              	.LVL26:
 302              	.L19:
 233:Generated_Source\PSoC5/cyfitter_cfg.c **** 	{ 
 303              		.loc 1 233 0 is_stmt 0 discriminator 1
 304 005c 0DB1     		cbz	r5, .L20
 233:Generated_Source\PSoC5/cyfitter_cfg.c **** 	{ 
 305              		.loc 1 233 0 discriminator 3
 306 005e 032C     		cmp	r4, #3
 307 0060 EFD1     		bne	.L21
 308              	.L20:
 239:Generated_Source\PSoC5/cyfitter_cfg.c **** 	{
 309              		.loc 1 239 0 is_stmt 1
 310 0062 15B9     		cbnz	r5, .L22
 241:Generated_Source\PSoC5/cyfitter_cfg.c **** 	}
 311              		.loc 1 241 0
 312 0064 0320     		movs	r0, #3
 313 0066 FFF7FEFF 		bl	CyClockStartupError
 314              	.LVL27:
 315              	.L22:
 245:Generated_Source\PSoC5/cyfitter_cfg.c **** 	CY_SET_XTND_REG8((void CYFAR *)(CYREG_CLKDIST_MSTR0), 0x07u);
 316              		.loc 1 245 0
 317 006a 104B     		ldr	r3, .L24+20
 318 006c 4FF48072 		mov	r2, #256
 319 0070 1A80     		strh	r2, [r3]	@ movhi
ARM GAS  C:\Users\mgnocco\AppData\Local\Temp\ccQexeeb.s 			page 12


 246:Generated_Source\PSoC5/cyfitter_cfg.c **** 	CY_SET_XTND_REG8((void CYFAR *)(CYREG_CLKDIST_BCFG0), 0x00u);
 320              		.loc 1 246 0
 321 0072 0722     		movs	r2, #7
 322 0074 1A70     		strb	r2, [r3]
 247:Generated_Source\PSoC5/cyfitter_cfg.c **** 	CY_SET_XTND_REG8((void CYFAR *)(CYREG_CLKDIST_BCFG2), 0x48u);
 323              		.loc 1 247 0
 324 0076 0022     		movs	r2, #0
 325 0078 0D49     		ldr	r1, .L24+24
 326 007a 0A70     		strb	r2, [r1]
 248:Generated_Source\PSoC5/cyfitter_cfg.c **** 	CY_SET_XTND_REG8((void CYFAR *)(CYREG_CLKDIST_MSTR0), 0x00u);
 327              		.loc 1 248 0
 328 007c 4820     		movs	r0, #72
 329 007e 0231     		adds	r1, r1, #2
 330 0080 0870     		strb	r0, [r1]
 249:Generated_Source\PSoC5/cyfitter_cfg.c **** 	CY_SET_XTND_REG8((void CYFAR *)(CYREG_CLKDIST_LD), 0x02u);
 331              		.loc 1 249 0
 332 0082 1A70     		strb	r2, [r3]
 250:Generated_Source\PSoC5/cyfitter_cfg.c **** 
 333              		.loc 1 250 0
 334 0084 0222     		movs	r2, #2
 335 0086 033B     		subs	r3, r3, #3
 336 0088 1A70     		strb	r2, [r3]
 252:Generated_Source\PSoC5/cyfitter_cfg.c **** }
 337              		.loc 1 252 0
 338 008a 0A4A     		ldr	r2, .L24+28
 339 008c 1378     		ldrb	r3, [r2]	@ zero_extendqisi2
 340 008e 43F00103 		orr	r3, r3, #1
 341 0092 1370     		strb	r3, [r2]
 342 0094 38BD     		pop	{r3, r4, r5, pc}
 343              	.LVL28:
 344              	.L25:
 345 0096 00BF     		.align	2
 346              	.L24:
 347 0098 80400040 		.word	1073758336
 348 009c 08010049 		.word	1224737032
 349 00a0 A1460040 		.word	1073759905
 350 00a4 22420040 		.word	1073758754
 351 00a8 25420040 		.word	1073758757
 352 00ac 04400040 		.word	1073758212
 353 00b0 06400040 		.word	1073758214
 354 00b4 A2430040 		.word	1073759138
 355              		.cfi_endproc
 356              	.LFE5:
 357              		.size	ClockSetup, .-ClockSetup
 358              		.section	.text.SetAnalogRoutingPumps,"ax",%progbits
 359              		.align	2
 360              		.global	SetAnalogRoutingPumps
 361              		.thumb
 362              		.thumb_func
 363              		.type	SetAnalogRoutingPumps, %function
 364              	SetAnalogRoutingPumps:
 365              	.LFB7:
 281:Generated_Source\PSoC5/cyfitter_cfg.c **** }
 282:Generated_Source\PSoC5/cyfitter_cfg.c **** 
 283:Generated_Source\PSoC5/cyfitter_cfg.c **** 
 284:Generated_Source\PSoC5/cyfitter_cfg.c **** /*******************************************************************************
 285:Generated_Source\PSoC5/cyfitter_cfg.c **** * Function Name: SetAnalogRoutingPumps
ARM GAS  C:\Users\mgnocco\AppData\Local\Temp\ccQexeeb.s 			page 13


 286:Generated_Source\PSoC5/cyfitter_cfg.c **** ********************************************************************************
 287:Generated_Source\PSoC5/cyfitter_cfg.c **** *
 288:Generated_Source\PSoC5/cyfitter_cfg.c **** * Summary:
 289:Generated_Source\PSoC5/cyfitter_cfg.c **** * Enables or disables the analog pumps feeding analog routing switches.
 290:Generated_Source\PSoC5/cyfitter_cfg.c **** * Intended to be called at startup, based on the Vdda system configuration;
 291:Generated_Source\PSoC5/cyfitter_cfg.c **** * may be called during operation when the user informs us that the Vdda voltage
 292:Generated_Source\PSoC5/cyfitter_cfg.c **** * crossed the pump threshold.
 293:Generated_Source\PSoC5/cyfitter_cfg.c **** *
 294:Generated_Source\PSoC5/cyfitter_cfg.c **** * Parameters:
 295:Generated_Source\PSoC5/cyfitter_cfg.c **** *  enabled - 1 to enable the pumps, 0 to disable the pumps
 296:Generated_Source\PSoC5/cyfitter_cfg.c **** *
 297:Generated_Source\PSoC5/cyfitter_cfg.c **** * Return:
 298:Generated_Source\PSoC5/cyfitter_cfg.c **** *  void
 299:Generated_Source\PSoC5/cyfitter_cfg.c **** *
 300:Generated_Source\PSoC5/cyfitter_cfg.c **** *******************************************************************************/
 301:Generated_Source\PSoC5/cyfitter_cfg.c **** void SetAnalogRoutingPumps(uint8 enabled)
 302:Generated_Source\PSoC5/cyfitter_cfg.c **** {
 366              		.loc 1 302 0
 367              		.cfi_startproc
 368              		@ args = 0, pretend = 0, frame = 0
 369              		@ frame_needed = 0, uses_anonymous_args = 0
 370              		@ link register save eliminated.
 371              	.LVL29:
 303:Generated_Source\PSoC5/cyfitter_cfg.c **** 	uint8 regValue = CY_GET_XTND_REG8((void CYFAR *)CYREG_PUMP_CR0);
 372              		.loc 1 303 0
 373 0000 024A     		ldr	r2, .L27
 374 0002 1378     		ldrb	r3, [r2]	@ zero_extendqisi2
 375 0004 DBB2     		uxtb	r3, r3
 376              	.LVL30:
 304:Generated_Source\PSoC5/cyfitter_cfg.c **** 	if (enabled != 0u)
 305:Generated_Source\PSoC5/cyfitter_cfg.c **** 	{
 306:Generated_Source\PSoC5/cyfitter_cfg.c **** 		regValue |= 0x00u;
 307:Generated_Source\PSoC5/cyfitter_cfg.c **** 	}
 308:Generated_Source\PSoC5/cyfitter_cfg.c **** 	else
 309:Generated_Source\PSoC5/cyfitter_cfg.c **** 	{
 310:Generated_Source\PSoC5/cyfitter_cfg.c **** 		regValue &= (uint8)~0x00u;
 311:Generated_Source\PSoC5/cyfitter_cfg.c **** 	}
 312:Generated_Source\PSoC5/cyfitter_cfg.c **** 	CY_SET_XTND_REG8((void CYFAR *)CYREG_PUMP_CR0, regValue);
 377              		.loc 1 312 0
 378 0006 1370     		strb	r3, [r2]
 379 0008 7047     		bx	lr
 380              	.L28:
 381 000a 00BF     		.align	2
 382              	.L27:
 383 000c 76580040 		.word	1073764470
 384              		.cfi_endproc
 385              	.LFE7:
 386              		.size	SetAnalogRoutingPumps, .-SetAnalogRoutingPumps
 387              		.section	.text.cyfitter_cfg,"ax",%progbits
 388              		.align	2
 389              		.global	cyfitter_cfg
 390              		.thumb
 391              		.thumb_func
 392              		.type	cyfitter_cfg, %function
 393              	cyfitter_cfg:
 394              	.LFB8:
 313:Generated_Source\PSoC5/cyfitter_cfg.c **** }
ARM GAS  C:\Users\mgnocco\AppData\Local\Temp\ccQexeeb.s 			page 14


 314:Generated_Source\PSoC5/cyfitter_cfg.c **** 
 315:Generated_Source\PSoC5/cyfitter_cfg.c **** 
 316:Generated_Source\PSoC5/cyfitter_cfg.c **** 
 317:Generated_Source\PSoC5/cyfitter_cfg.c **** 
 318:Generated_Source\PSoC5/cyfitter_cfg.c **** /*******************************************************************************
 319:Generated_Source\PSoC5/cyfitter_cfg.c **** * Function Name: cyfitter_cfg
 320:Generated_Source\PSoC5/cyfitter_cfg.c **** ********************************************************************************
 321:Generated_Source\PSoC5/cyfitter_cfg.c **** * Summary:
 322:Generated_Source\PSoC5/cyfitter_cfg.c **** *  This function is called by the start-up code for the selected device. It
 323:Generated_Source\PSoC5/cyfitter_cfg.c **** *  performs all of the necessary device configuration based on the design
 324:Generated_Source\PSoC5/cyfitter_cfg.c **** *  settings.  This includes settings from the Design Wide Resources (DWR) such
 325:Generated_Source\PSoC5/cyfitter_cfg.c **** *  as Clocks and Pins as well as any component configuration that is necessary.
 326:Generated_Source\PSoC5/cyfitter_cfg.c **** *
 327:Generated_Source\PSoC5/cyfitter_cfg.c **** * Parameters:
 328:Generated_Source\PSoC5/cyfitter_cfg.c **** *   void
 329:Generated_Source\PSoC5/cyfitter_cfg.c **** *
 330:Generated_Source\PSoC5/cyfitter_cfg.c **** * Return:
 331:Generated_Source\PSoC5/cyfitter_cfg.c **** *   void
 332:Generated_Source\PSoC5/cyfitter_cfg.c **** *
 333:Generated_Source\PSoC5/cyfitter_cfg.c **** *******************************************************************************/
 334:Generated_Source\PSoC5/cyfitter_cfg.c **** 
 335:Generated_Source\PSoC5/cyfitter_cfg.c **** void cyfitter_cfg(void)
 336:Generated_Source\PSoC5/cyfitter_cfg.c **** {
 395              		.loc 1 336 0
 396              		.cfi_startproc
 397              		@ args = 0, pretend = 0, frame = 0
 398              		@ frame_needed = 0, uses_anonymous_args = 0
 399 0000 38B5     		push	{r3, r4, r5, lr}
 400              		.cfi_def_cfa_offset 16
 401              		.cfi_offset 3, -16
 402              		.cfi_offset 4, -12
 403              		.cfi_offset 5, -8
 404              		.cfi_offset 14, -4
 337:Generated_Source\PSoC5/cyfitter_cfg.c **** 	/* IOPINS0_7 Address: CYREG_PRT12_DM0 Size (bytes): 8 */
 338:Generated_Source\PSoC5/cyfitter_cfg.c **** 	static const uint8 CYCODE BS_IOPINS0_7_VAL[] = {
 339:Generated_Source\PSoC5/cyfitter_cfg.c **** 		0x40u, 0x90u, 0x90u, 0x00u, 0x90u, 0x00u, 0x00u, 0x00u};
 340:Generated_Source\PSoC5/cyfitter_cfg.c **** 
 341:Generated_Source\PSoC5/cyfitter_cfg.c **** 	/* IOPINS0_1 Address: CYREG_PRT1_DM0 Size (bytes): 8 */
 342:Generated_Source\PSoC5/cyfitter_cfg.c **** 	static const uint8 CYCODE BS_IOPINS0_1_VAL[] = {
 343:Generated_Source\PSoC5/cyfitter_cfg.c **** 		0x10u, 0x14u, 0x04u, 0x00u, 0x14u, 0x00u, 0x00u, 0x00u};
 344:Generated_Source\PSoC5/cyfitter_cfg.c **** 
 345:Generated_Source\PSoC5/cyfitter_cfg.c **** 	/* IOPINS0_3 Address: CYREG_PRT3_DR Size (bytes): 10 */
 346:Generated_Source\PSoC5/cyfitter_cfg.c **** 	static const uint8 CYCODE BS_IOPINS0_3_VAL[] = {
 347:Generated_Source\PSoC5/cyfitter_cfg.c **** 		0x00u, 0x00u, 0x00u, 0x01u, 0x01u, 0x00u, 0x00u, 0x00u, 0x00u, 0x00u};
 348:Generated_Source\PSoC5/cyfitter_cfg.c **** 
 349:Generated_Source\PSoC5/cyfitter_cfg.c **** #ifdef CYGlobalIntDisable
 350:Generated_Source\PSoC5/cyfitter_cfg.c **** 	/* Disable interrupts by default. Let user enable if/when they want. */
 351:Generated_Source\PSoC5/cyfitter_cfg.c **** 	CYGlobalIntDisable
 405              		.loc 1 351 0
 406              		.syntax unified
 407              	@ 351 "Generated_Source\PSoC5\cyfitter_cfg.c" 1
 408 0002 72B6     		CPSID   i
 409              	@ 0 "" 2
 410              	.LVL31:
 411              		.thumb
 412              		.syntax unified
 413              	.LBB3:
ARM GAS  C:\Users\mgnocco\AppData\Local\Temp\ccQexeeb.s 			page 15


 352:Generated_Source\PSoC5/cyfitter_cfg.c **** #endif
 353:Generated_Source\PSoC5/cyfitter_cfg.c **** 
 354:Generated_Source\PSoC5/cyfitter_cfg.c **** 	{
 355:Generated_Source\PSoC5/cyfitter_cfg.c **** 		static const uint32 CYCODE cy_cfg_addr_table[] = {
 356:Generated_Source\PSoC5/cyfitter_cfg.c **** 			0x40005201u, /* Base address: 0x40005200 Count: 1 */
 357:Generated_Source\PSoC5/cyfitter_cfg.c **** 			0x40006401u, /* Base address: 0x40006400 Count: 1 */
 358:Generated_Source\PSoC5/cyfitter_cfg.c **** 			0x40006502u, /* Base address: 0x40006500 Count: 2 */
 359:Generated_Source\PSoC5/cyfitter_cfg.c **** 			0x40010701u, /* Base address: 0x40010700 Count: 1 */
 360:Generated_Source\PSoC5/cyfitter_cfg.c **** 			0x40010854u, /* Base address: 0x40010800 Count: 84 */
 361:Generated_Source\PSoC5/cyfitter_cfg.c **** 			0x40010937u, /* Base address: 0x40010900 Count: 55 */
 362:Generated_Source\PSoC5/cyfitter_cfg.c **** 			0x40011404u, /* Base address: 0x40011400 Count: 4 */
 363:Generated_Source\PSoC5/cyfitter_cfg.c **** 			0x40011503u, /* Base address: 0x40011500 Count: 3 */
 364:Generated_Source\PSoC5/cyfitter_cfg.c **** 			0x40011701u, /* Base address: 0x40011700 Count: 1 */
 365:Generated_Source\PSoC5/cyfitter_cfg.c **** 			0x4001184Du, /* Base address: 0x40011800 Count: 77 */
 366:Generated_Source\PSoC5/cyfitter_cfg.c **** 			0x40011941u, /* Base address: 0x40011900 Count: 65 */
 367:Generated_Source\PSoC5/cyfitter_cfg.c **** 			0x40011A0Du, /* Base address: 0x40011A00 Count: 13 */
 368:Generated_Source\PSoC5/cyfitter_cfg.c **** 			0x40011B41u, /* Base address: 0x40011B00 Count: 65 */
 369:Generated_Source\PSoC5/cyfitter_cfg.c **** 			0x40014003u, /* Base address: 0x40014000 Count: 3 */
 370:Generated_Source\PSoC5/cyfitter_cfg.c **** 			0x40014102u, /* Base address: 0x40014100 Count: 2 */
 371:Generated_Source\PSoC5/cyfitter_cfg.c **** 			0x40014202u, /* Base address: 0x40014200 Count: 2 */
 372:Generated_Source\PSoC5/cyfitter_cfg.c **** 			0x40014304u, /* Base address: 0x40014300 Count: 4 */
 373:Generated_Source\PSoC5/cyfitter_cfg.c **** 			0x40014701u, /* Base address: 0x40014700 Count: 1 */
 374:Generated_Source\PSoC5/cyfitter_cfg.c **** 			0x40014802u, /* Base address: 0x40014800 Count: 2 */
 375:Generated_Source\PSoC5/cyfitter_cfg.c **** 			0x40014C08u, /* Base address: 0x40014C00 Count: 8 */
 376:Generated_Source\PSoC5/cyfitter_cfg.c **** 			0x40014D0Eu, /* Base address: 0x40014D00 Count: 14 */
 377:Generated_Source\PSoC5/cyfitter_cfg.c **** 			0x40015004u, /* Base address: 0x40015000 Count: 4 */
 378:Generated_Source\PSoC5/cyfitter_cfg.c **** 			0x40015101u, /* Base address: 0x40015100 Count: 1 */
 379:Generated_Source\PSoC5/cyfitter_cfg.c **** 		};
 380:Generated_Source\PSoC5/cyfitter_cfg.c **** 
 381:Generated_Source\PSoC5/cyfitter_cfg.c **** 		static const cy_cfg_addrvalue_t CYCODE cy_cfg_data_table[] = {
 382:Generated_Source\PSoC5/cyfitter_cfg.c **** 			{0x09u, 0x14u},
 383:Generated_Source\PSoC5/cyfitter_cfg.c **** 			{0x89u, 0x3Au},
 384:Generated_Source\PSoC5/cyfitter_cfg.c **** 			{0x89u, 0x69u},
 385:Generated_Source\PSoC5/cyfitter_cfg.c **** 			{0x8Bu, 0x0Fu},
 386:Generated_Source\PSoC5/cyfitter_cfg.c **** 			{0xE6u, 0x02u},
 387:Generated_Source\PSoC5/cyfitter_cfg.c **** 			{0x03u, 0x01u},
 388:Generated_Source\PSoC5/cyfitter_cfg.c **** 			{0x04u, 0x61u},
 389:Generated_Source\PSoC5/cyfitter_cfg.c **** 			{0x06u, 0x0Eu},
 390:Generated_Source\PSoC5/cyfitter_cfg.c **** 			{0x07u, 0x18u},
 391:Generated_Source\PSoC5/cyfitter_cfg.c **** 			{0x09u, 0x48u},
 392:Generated_Source\PSoC5/cyfitter_cfg.c **** 			{0x0Au, 0x40u},
 393:Generated_Source\PSoC5/cyfitter_cfg.c **** 			{0x0Bu, 0x86u},
 394:Generated_Source\PSoC5/cyfitter_cfg.c **** 			{0x0Eu, 0x08u},
 395:Generated_Source\PSoC5/cyfitter_cfg.c **** 			{0x11u, 0x80u},
 396:Generated_Source\PSoC5/cyfitter_cfg.c **** 			{0x13u, 0x65u},
 397:Generated_Source\PSoC5/cyfitter_cfg.c **** 			{0x14u, 0x2Cu},
 398:Generated_Source\PSoC5/cyfitter_cfg.c **** 			{0x15u, 0xE6u},
 399:Generated_Source\PSoC5/cyfitter_cfg.c **** 			{0x16u, 0x43u},
 400:Generated_Source\PSoC5/cyfitter_cfg.c **** 			{0x17u, 0x11u},
 401:Generated_Source\PSoC5/cyfitter_cfg.c **** 			{0x19u, 0x60u},
 402:Generated_Source\PSoC5/cyfitter_cfg.c **** 			{0x1Bu, 0x8Bu},
 403:Generated_Source\PSoC5/cyfitter_cfg.c **** 			{0x1Eu, 0x43u},
 404:Generated_Source\PSoC5/cyfitter_cfg.c **** 			{0x20u, 0x61u},
 405:Generated_Source\PSoC5/cyfitter_cfg.c **** 			{0x21u, 0xA0u},
 406:Generated_Source\PSoC5/cyfitter_cfg.c **** 			{0x22u, 0x06u},
 407:Generated_Source\PSoC5/cyfitter_cfg.c **** 			{0x26u, 0x0Cu},
 408:Generated_Source\PSoC5/cyfitter_cfg.c **** 			{0x28u, 0x10u},
ARM GAS  C:\Users\mgnocco\AppData\Local\Temp\ccQexeeb.s 			page 16


 409:Generated_Source\PSoC5/cyfitter_cfg.c **** 			{0x2Du, 0x80u},
 410:Generated_Source\PSoC5/cyfitter_cfg.c **** 			{0x2Fu, 0x02u},
 411:Generated_Source\PSoC5/cyfitter_cfg.c **** 			{0x30u, 0x20u},
 412:Generated_Source\PSoC5/cyfitter_cfg.c **** 			{0x32u, 0x0Fu},
 413:Generated_Source\PSoC5/cyfitter_cfg.c **** 			{0x33u, 0x07u},
 414:Generated_Source\PSoC5/cyfitter_cfg.c **** 			{0x34u, 0x10u},
 415:Generated_Source\PSoC5/cyfitter_cfg.c **** 			{0x35u, 0xF8u},
 416:Generated_Source\PSoC5/cyfitter_cfg.c **** 			{0x36u, 0x40u},
 417:Generated_Source\PSoC5/cyfitter_cfg.c **** 			{0x38u, 0x02u},
 418:Generated_Source\PSoC5/cyfitter_cfg.c **** 			{0x3Au, 0x08u},
 419:Generated_Source\PSoC5/cyfitter_cfg.c **** 			{0x3Bu, 0x08u},
 420:Generated_Source\PSoC5/cyfitter_cfg.c **** 			{0x3Eu, 0x50u},
 421:Generated_Source\PSoC5/cyfitter_cfg.c **** 			{0x40u, 0x03u},
 422:Generated_Source\PSoC5/cyfitter_cfg.c **** 			{0x47u, 0x40u},
 423:Generated_Source\PSoC5/cyfitter_cfg.c **** 			{0x49u, 0xFFu},
 424:Generated_Source\PSoC5/cyfitter_cfg.c **** 			{0x4Au, 0x07u},
 425:Generated_Source\PSoC5/cyfitter_cfg.c **** 			{0x4Bu, 0xFFu},
 426:Generated_Source\PSoC5/cyfitter_cfg.c **** 			{0x4Cu, 0x40u},
 427:Generated_Source\PSoC5/cyfitter_cfg.c **** 			{0x4Du, 0x20u},
 428:Generated_Source\PSoC5/cyfitter_cfg.c **** 			{0x4Eu, 0xF0u},
 429:Generated_Source\PSoC5/cyfitter_cfg.c **** 			{0x4Fu, 0x05u},
 430:Generated_Source\PSoC5/cyfitter_cfg.c **** 			{0x50u, 0x08u},
 431:Generated_Source\PSoC5/cyfitter_cfg.c **** 			{0x58u, 0x04u},
 432:Generated_Source\PSoC5/cyfitter_cfg.c **** 			{0x59u, 0x04u},
 433:Generated_Source\PSoC5/cyfitter_cfg.c **** 			{0x5Au, 0x04u},
 434:Generated_Source\PSoC5/cyfitter_cfg.c **** 			{0x5Fu, 0x01u},
 435:Generated_Source\PSoC5/cyfitter_cfg.c **** 			{0x60u, 0x40u},
 436:Generated_Source\PSoC5/cyfitter_cfg.c **** 			{0x61u, 0xA8u},
 437:Generated_Source\PSoC5/cyfitter_cfg.c **** 			{0x62u, 0x40u},
 438:Generated_Source\PSoC5/cyfitter_cfg.c **** 			{0x63u, 0x20u},
 439:Generated_Source\PSoC5/cyfitter_cfg.c **** 			{0x83u, 0x20u},
 440:Generated_Source\PSoC5/cyfitter_cfg.c **** 			{0x85u, 0x03u},
 441:Generated_Source\PSoC5/cyfitter_cfg.c **** 			{0x87u, 0x04u},
 442:Generated_Source\PSoC5/cyfitter_cfg.c **** 			{0x8Au, 0x02u},
 443:Generated_Source\PSoC5/cyfitter_cfg.c **** 			{0x8Bu, 0x08u},
 444:Generated_Source\PSoC5/cyfitter_cfg.c **** 			{0x8Du, 0x03u},
 445:Generated_Source\PSoC5/cyfitter_cfg.c **** 			{0x8Eu, 0x02u},
 446:Generated_Source\PSoC5/cyfitter_cfg.c **** 			{0x8Fu, 0x0Cu},
 447:Generated_Source\PSoC5/cyfitter_cfg.c **** 			{0x90u, 0x01u},
 448:Generated_Source\PSoC5/cyfitter_cfg.c **** 			{0x95u, 0x0Au},
 449:Generated_Source\PSoC5/cyfitter_cfg.c **** 			{0x97u, 0x04u},
 450:Generated_Source\PSoC5/cyfitter_cfg.c **** 			{0x98u, 0x01u},
 451:Generated_Source\PSoC5/cyfitter_cfg.c **** 			{0x99u, 0x03u},
 452:Generated_Source\PSoC5/cyfitter_cfg.c **** 			{0x9Bu, 0x04u},
 453:Generated_Source\PSoC5/cyfitter_cfg.c **** 			{0xA3u, 0x10u},
 454:Generated_Source\PSoC5/cyfitter_cfg.c **** 			{0xA7u, 0x10u},
 455:Generated_Source\PSoC5/cyfitter_cfg.c **** 			{0xA8u, 0x01u},
 456:Generated_Source\PSoC5/cyfitter_cfg.c **** 			{0xAFu, 0x05u},
 457:Generated_Source\PSoC5/cyfitter_cfg.c **** 			{0xB0u, 0x01u},
 458:Generated_Source\PSoC5/cyfitter_cfg.c **** 			{0xB1u, 0x0Fu},
 459:Generated_Source\PSoC5/cyfitter_cfg.c **** 			{0xB3u, 0x20u},
 460:Generated_Source\PSoC5/cyfitter_cfg.c **** 			{0xB5u, 0x10u},
 461:Generated_Source\PSoC5/cyfitter_cfg.c **** 			{0xB6u, 0x02u},
 462:Generated_Source\PSoC5/cyfitter_cfg.c **** 			{0xBBu, 0x02u},
 463:Generated_Source\PSoC5/cyfitter_cfg.c **** 			{0xBEu, 0x40u},
 464:Generated_Source\PSoC5/cyfitter_cfg.c **** 			{0xBFu, 0x10u},
 465:Generated_Source\PSoC5/cyfitter_cfg.c **** 			{0xD4u, 0x1Au},
ARM GAS  C:\Users\mgnocco\AppData\Local\Temp\ccQexeeb.s 			page 17


 466:Generated_Source\PSoC5/cyfitter_cfg.c **** 			{0xD6u, 0x04u},
 467:Generated_Source\PSoC5/cyfitter_cfg.c **** 			{0xD8u, 0x04u},
 468:Generated_Source\PSoC5/cyfitter_cfg.c **** 			{0xD9u, 0x04u},
 469:Generated_Source\PSoC5/cyfitter_cfg.c **** 			{0xDBu, 0x04u},
 470:Generated_Source\PSoC5/cyfitter_cfg.c **** 			{0xDFu, 0x01u},
 471:Generated_Source\PSoC5/cyfitter_cfg.c **** 			{0x00u, 0xA0u},
 472:Generated_Source\PSoC5/cyfitter_cfg.c **** 			{0x05u, 0x80u},
 473:Generated_Source\PSoC5/cyfitter_cfg.c **** 			{0x06u, 0x05u},
 474:Generated_Source\PSoC5/cyfitter_cfg.c **** 			{0x07u, 0x10u},
 475:Generated_Source\PSoC5/cyfitter_cfg.c **** 			{0x08u, 0x80u},
 476:Generated_Source\PSoC5/cyfitter_cfg.c **** 			{0x0Au, 0x45u},
 477:Generated_Source\PSoC5/cyfitter_cfg.c **** 			{0x0Eu, 0x20u},
 478:Generated_Source\PSoC5/cyfitter_cfg.c **** 			{0x0Fu, 0x02u},
 479:Generated_Source\PSoC5/cyfitter_cfg.c **** 			{0x11u, 0x10u},
 480:Generated_Source\PSoC5/cyfitter_cfg.c **** 			{0x15u, 0x02u},
 481:Generated_Source\PSoC5/cyfitter_cfg.c **** 			{0x16u, 0x18u},
 482:Generated_Source\PSoC5/cyfitter_cfg.c **** 			{0x19u, 0x40u},
 483:Generated_Source\PSoC5/cyfitter_cfg.c **** 			{0x1Bu, 0x02u},
 484:Generated_Source\PSoC5/cyfitter_cfg.c **** 			{0x1Du, 0x24u},
 485:Generated_Source\PSoC5/cyfitter_cfg.c **** 			{0x1Eu, 0x21u},
 486:Generated_Source\PSoC5/cyfitter_cfg.c **** 			{0x1Fu, 0x01u},
 487:Generated_Source\PSoC5/cyfitter_cfg.c **** 			{0x20u, 0x40u},
 488:Generated_Source\PSoC5/cyfitter_cfg.c **** 			{0x21u, 0x05u},
 489:Generated_Source\PSoC5/cyfitter_cfg.c **** 			{0x22u, 0x02u},
 490:Generated_Source\PSoC5/cyfitter_cfg.c **** 			{0x23u, 0x04u},
 491:Generated_Source\PSoC5/cyfitter_cfg.c **** 			{0x24u, 0x04u},
 492:Generated_Source\PSoC5/cyfitter_cfg.c **** 			{0x27u, 0x10u},
 493:Generated_Source\PSoC5/cyfitter_cfg.c **** 			{0x29u, 0x01u},
 494:Generated_Source\PSoC5/cyfitter_cfg.c **** 			{0x2Bu, 0x21u},
 495:Generated_Source\PSoC5/cyfitter_cfg.c **** 			{0x2Du, 0x80u},
 496:Generated_Source\PSoC5/cyfitter_cfg.c **** 			{0x2Eu, 0x02u},
 497:Generated_Source\PSoC5/cyfitter_cfg.c **** 			{0x31u, 0x04u},
 498:Generated_Source\PSoC5/cyfitter_cfg.c **** 			{0x33u, 0x10u},
 499:Generated_Source\PSoC5/cyfitter_cfg.c **** 			{0x35u, 0x04u},
 500:Generated_Source\PSoC5/cyfitter_cfg.c **** 			{0x36u, 0x02u},
 501:Generated_Source\PSoC5/cyfitter_cfg.c **** 			{0x37u, 0x10u},
 502:Generated_Source\PSoC5/cyfitter_cfg.c **** 			{0x38u, 0x52u},
 503:Generated_Source\PSoC5/cyfitter_cfg.c **** 			{0x3Au, 0x14u},
 504:Generated_Source\PSoC5/cyfitter_cfg.c **** 			{0x3Cu, 0x14u},
 505:Generated_Source\PSoC5/cyfitter_cfg.c **** 			{0x3Eu, 0x08u},
 506:Generated_Source\PSoC5/cyfitter_cfg.c **** 			{0x3Fu, 0x02u},
 507:Generated_Source\PSoC5/cyfitter_cfg.c **** 			{0x45u, 0x08u},
 508:Generated_Source\PSoC5/cyfitter_cfg.c **** 			{0x4Fu, 0x02u},
 509:Generated_Source\PSoC5/cyfitter_cfg.c **** 			{0x56u, 0x01u},
 510:Generated_Source\PSoC5/cyfitter_cfg.c **** 			{0x59u, 0x02u},
 511:Generated_Source\PSoC5/cyfitter_cfg.c **** 			{0x5Au, 0x20u},
 512:Generated_Source\PSoC5/cyfitter_cfg.c **** 			{0x61u, 0x40u},
 513:Generated_Source\PSoC5/cyfitter_cfg.c **** 			{0x63u, 0x44u},
 514:Generated_Source\PSoC5/cyfitter_cfg.c **** 			{0x85u, 0x20u},
 515:Generated_Source\PSoC5/cyfitter_cfg.c **** 			{0x87u, 0x40u},
 516:Generated_Source\PSoC5/cyfitter_cfg.c **** 			{0xC0u, 0xE3u},
 517:Generated_Source\PSoC5/cyfitter_cfg.c **** 			{0xC2u, 0xAAu},
 518:Generated_Source\PSoC5/cyfitter_cfg.c **** 			{0xC4u, 0x72u},
 519:Generated_Source\PSoC5/cyfitter_cfg.c **** 			{0xCAu, 0x9Bu},
 520:Generated_Source\PSoC5/cyfitter_cfg.c **** 			{0xCCu, 0xE6u},
 521:Generated_Source\PSoC5/cyfitter_cfg.c **** 			{0xCEu, 0xEFu},
 522:Generated_Source\PSoC5/cyfitter_cfg.c **** 			{0xD0u, 0x40u},
ARM GAS  C:\Users\mgnocco\AppData\Local\Temp\ccQexeeb.s 			page 18


 523:Generated_Source\PSoC5/cyfitter_cfg.c **** 			{0xD6u, 0x05u},
 524:Generated_Source\PSoC5/cyfitter_cfg.c **** 			{0xD8u, 0x0Du},
 525:Generated_Source\PSoC5/cyfitter_cfg.c **** 			{0xE0u, 0x08u},
 526:Generated_Source\PSoC5/cyfitter_cfg.c **** 			{0xB9u, 0x80u},
 527:Generated_Source\PSoC5/cyfitter_cfg.c **** 			{0xBFu, 0x40u},
 528:Generated_Source\PSoC5/cyfitter_cfg.c **** 			{0xD9u, 0x04u},
 529:Generated_Source\PSoC5/cyfitter_cfg.c **** 			{0xDFu, 0x01u},
 530:Generated_Source\PSoC5/cyfitter_cfg.c **** 			{0x26u, 0x80u},
 531:Generated_Source\PSoC5/cyfitter_cfg.c **** 			{0xA6u, 0x80u},
 532:Generated_Source\PSoC5/cyfitter_cfg.c **** 			{0xB2u, 0x80u},
 533:Generated_Source\PSoC5/cyfitter_cfg.c **** 			{0xEAu, 0x08u},
 534:Generated_Source\PSoC5/cyfitter_cfg.c **** 			{0x01u, 0x02u},
 535:Generated_Source\PSoC5/cyfitter_cfg.c **** 			{0x0Bu, 0x01u},
 536:Generated_Source\PSoC5/cyfitter_cfg.c **** 			{0x10u, 0x01u},
 537:Generated_Source\PSoC5/cyfitter_cfg.c **** 			{0x14u, 0x04u},
 538:Generated_Source\PSoC5/cyfitter_cfg.c **** 			{0x19u, 0x01u},
 539:Generated_Source\PSoC5/cyfitter_cfg.c **** 			{0x1Eu, 0x02u},
 540:Generated_Source\PSoC5/cyfitter_cfg.c **** 			{0x20u, 0x06u},
 541:Generated_Source\PSoC5/cyfitter_cfg.c **** 			{0x28u, 0x06u},
 542:Generated_Source\PSoC5/cyfitter_cfg.c **** 			{0x2Du, 0x01u},
 543:Generated_Source\PSoC5/cyfitter_cfg.c **** 			{0x32u, 0x06u},
 544:Generated_Source\PSoC5/cyfitter_cfg.c **** 			{0x33u, 0x03u},
 545:Generated_Source\PSoC5/cyfitter_cfg.c **** 			{0x34u, 0x01u},
 546:Generated_Source\PSoC5/cyfitter_cfg.c **** 			{0x38u, 0x08u},
 547:Generated_Source\PSoC5/cyfitter_cfg.c **** 			{0x39u, 0x08u},
 548:Generated_Source\PSoC5/cyfitter_cfg.c **** 			{0x3Eu, 0x14u},
 549:Generated_Source\PSoC5/cyfitter_cfg.c **** 			{0x40u, 0x45u},
 550:Generated_Source\PSoC5/cyfitter_cfg.c **** 			{0x41u, 0x02u},
 551:Generated_Source\PSoC5/cyfitter_cfg.c **** 			{0x46u, 0x0Eu},
 552:Generated_Source\PSoC5/cyfitter_cfg.c **** 			{0x47u, 0xBCu},
 553:Generated_Source\PSoC5/cyfitter_cfg.c **** 			{0x48u, 0x34u},
 554:Generated_Source\PSoC5/cyfitter_cfg.c **** 			{0x49u, 0xFFu},
 555:Generated_Source\PSoC5/cyfitter_cfg.c **** 			{0x4Au, 0xFFu},
 556:Generated_Source\PSoC5/cyfitter_cfg.c **** 			{0x4Bu, 0xFFu},
 557:Generated_Source\PSoC5/cyfitter_cfg.c **** 			{0x4Eu, 0xF0u},
 558:Generated_Source\PSoC5/cyfitter_cfg.c **** 			{0x4Fu, 0x44u},
 559:Generated_Source\PSoC5/cyfitter_cfg.c **** 			{0x50u, 0x0Cu},
 560:Generated_Source\PSoC5/cyfitter_cfg.c **** 			{0x58u, 0x04u},
 561:Generated_Source\PSoC5/cyfitter_cfg.c **** 			{0x59u, 0x04u},
 562:Generated_Source\PSoC5/cyfitter_cfg.c **** 			{0x5Au, 0x04u},
 563:Generated_Source\PSoC5/cyfitter_cfg.c **** 			{0x5Fu, 0x01u},
 564:Generated_Source\PSoC5/cyfitter_cfg.c **** 			{0x66u, 0xC0u},
 565:Generated_Source\PSoC5/cyfitter_cfg.c **** 			{0x6Au, 0x40u},
 566:Generated_Source\PSoC5/cyfitter_cfg.c **** 			{0x6Bu, 0x02u},
 567:Generated_Source\PSoC5/cyfitter_cfg.c **** 			{0x84u, 0x03u},
 568:Generated_Source\PSoC5/cyfitter_cfg.c **** 			{0x85u, 0x08u},
 569:Generated_Source\PSoC5/cyfitter_cfg.c **** 			{0x86u, 0x0Cu},
 570:Generated_Source\PSoC5/cyfitter_cfg.c **** 			{0x89u, 0x08u},
 571:Generated_Source\PSoC5/cyfitter_cfg.c **** 			{0x8Du, 0x08u},
 572:Generated_Source\PSoC5/cyfitter_cfg.c **** 			{0x8Eu, 0x0Eu},
 573:Generated_Source\PSoC5/cyfitter_cfg.c **** 			{0x90u, 0x02u},
 574:Generated_Source\PSoC5/cyfitter_cfg.c **** 			{0x91u, 0x08u},
 575:Generated_Source\PSoC5/cyfitter_cfg.c **** 			{0x92u, 0x08u},
 576:Generated_Source\PSoC5/cyfitter_cfg.c **** 			{0x95u, 0x3Du},
 577:Generated_Source\PSoC5/cyfitter_cfg.c **** 			{0x96u, 0x0Fu},
 578:Generated_Source\PSoC5/cyfitter_cfg.c **** 			{0x97u, 0x02u},
 579:Generated_Source\PSoC5/cyfitter_cfg.c **** 			{0x98u, 0x02u},
ARM GAS  C:\Users\mgnocco\AppData\Local\Temp\ccQexeeb.s 			page 19


 580:Generated_Source\PSoC5/cyfitter_cfg.c **** 			{0x99u, 0x23u},
 581:Generated_Source\PSoC5/cyfitter_cfg.c **** 			{0x9Au, 0x04u},
 582:Generated_Source\PSoC5/cyfitter_cfg.c **** 			{0x9Bu, 0x1Cu},
 583:Generated_Source\PSoC5/cyfitter_cfg.c **** 			{0x9Du, 0x1Eu},
 584:Generated_Source\PSoC5/cyfitter_cfg.c **** 			{0x9Fu, 0x01u},
 585:Generated_Source\PSoC5/cyfitter_cfg.c **** 			{0xA1u, 0x27u},
 586:Generated_Source\PSoC5/cyfitter_cfg.c **** 			{0xA3u, 0x18u},
 587:Generated_Source\PSoC5/cyfitter_cfg.c **** 			{0xA5u, 0x01u},
 588:Generated_Source\PSoC5/cyfitter_cfg.c **** 			{0xA7u, 0x16u},
 589:Generated_Source\PSoC5/cyfitter_cfg.c **** 			{0xA8u, 0x0Cu},
 590:Generated_Source\PSoC5/cyfitter_cfg.c **** 			{0xA9u, 0x26u},
 591:Generated_Source\PSoC5/cyfitter_cfg.c **** 			{0xAAu, 0x03u},
 592:Generated_Source\PSoC5/cyfitter_cfg.c **** 			{0xABu, 0x19u},
 593:Generated_Source\PSoC5/cyfitter_cfg.c **** 			{0xACu, 0x03u},
 594:Generated_Source\PSoC5/cyfitter_cfg.c **** 			{0xAEu, 0x0Cu},
 595:Generated_Source\PSoC5/cyfitter_cfg.c **** 			{0xAFu, 0x1Fu},
 596:Generated_Source\PSoC5/cyfitter_cfg.c **** 			{0xB3u, 0x20u},
 597:Generated_Source\PSoC5/cyfitter_cfg.c **** 			{0xB4u, 0x01u},
 598:Generated_Source\PSoC5/cyfitter_cfg.c **** 			{0xB5u, 0x08u},
 599:Generated_Source\PSoC5/cyfitter_cfg.c **** 			{0xB6u, 0x0Eu},
 600:Generated_Source\PSoC5/cyfitter_cfg.c **** 			{0xB7u, 0x1Fu},
 601:Generated_Source\PSoC5/cyfitter_cfg.c **** 			{0xB8u, 0x20u},
 602:Generated_Source\PSoC5/cyfitter_cfg.c **** 			{0xBAu, 0x80u},
 603:Generated_Source\PSoC5/cyfitter_cfg.c **** 			{0xBBu, 0x80u},
 604:Generated_Source\PSoC5/cyfitter_cfg.c **** 			{0xBFu, 0x04u},
 605:Generated_Source\PSoC5/cyfitter_cfg.c **** 			{0xD6u, 0x02u},
 606:Generated_Source\PSoC5/cyfitter_cfg.c **** 			{0xD7u, 0x12u},
 607:Generated_Source\PSoC5/cyfitter_cfg.c **** 			{0xD8u, 0x04u},
 608:Generated_Source\PSoC5/cyfitter_cfg.c **** 			{0xD9u, 0x04u},
 609:Generated_Source\PSoC5/cyfitter_cfg.c **** 			{0xDBu, 0x04u},
 610:Generated_Source\PSoC5/cyfitter_cfg.c **** 			{0xDFu, 0x01u},
 611:Generated_Source\PSoC5/cyfitter_cfg.c **** 			{0x00u, 0x04u},
 612:Generated_Source\PSoC5/cyfitter_cfg.c **** 			{0x03u, 0x02u},
 613:Generated_Source\PSoC5/cyfitter_cfg.c **** 			{0x05u, 0x20u},
 614:Generated_Source\PSoC5/cyfitter_cfg.c **** 			{0x06u, 0x04u},
 615:Generated_Source\PSoC5/cyfitter_cfg.c **** 			{0x08u, 0x28u},
 616:Generated_Source\PSoC5/cyfitter_cfg.c **** 			{0x0Au, 0x80u},
 617:Generated_Source\PSoC5/cyfitter_cfg.c **** 			{0x0Eu, 0x30u},
 618:Generated_Source\PSoC5/cyfitter_cfg.c **** 			{0x0Fu, 0x82u},
 619:Generated_Source\PSoC5/cyfitter_cfg.c **** 			{0x12u, 0x09u},
 620:Generated_Source\PSoC5/cyfitter_cfg.c **** 			{0x15u, 0x02u},
 621:Generated_Source\PSoC5/cyfitter_cfg.c **** 			{0x16u, 0xC0u},
 622:Generated_Source\PSoC5/cyfitter_cfg.c **** 			{0x17u, 0x10u},
 623:Generated_Source\PSoC5/cyfitter_cfg.c **** 			{0x19u, 0x80u},
 624:Generated_Source\PSoC5/cyfitter_cfg.c **** 			{0x1Bu, 0xA0u},
 625:Generated_Source\PSoC5/cyfitter_cfg.c **** 			{0x1Du, 0x08u},
 626:Generated_Source\PSoC5/cyfitter_cfg.c **** 			{0x1Eu, 0x08u},
 627:Generated_Source\PSoC5/cyfitter_cfg.c **** 			{0x22u, 0x54u},
 628:Generated_Source\PSoC5/cyfitter_cfg.c **** 			{0x24u, 0x10u},
 629:Generated_Source\PSoC5/cyfitter_cfg.c **** 			{0x28u, 0x28u},
 630:Generated_Source\PSoC5/cyfitter_cfg.c **** 			{0x2Au, 0x01u},
 631:Generated_Source\PSoC5/cyfitter_cfg.c **** 			{0x2Bu, 0x8Au},
 632:Generated_Source\PSoC5/cyfitter_cfg.c **** 			{0x2Eu, 0x80u},
 633:Generated_Source\PSoC5/cyfitter_cfg.c **** 			{0x31u, 0x14u},
 634:Generated_Source\PSoC5/cyfitter_cfg.c **** 			{0x32u, 0x49u},
 635:Generated_Source\PSoC5/cyfitter_cfg.c **** 			{0x37u, 0x10u},
 636:Generated_Source\PSoC5/cyfitter_cfg.c **** 			{0x38u, 0xA8u},
ARM GAS  C:\Users\mgnocco\AppData\Local\Temp\ccQexeeb.s 			page 20


 637:Generated_Source\PSoC5/cyfitter_cfg.c **** 			{0x3Eu, 0x10u},
 638:Generated_Source\PSoC5/cyfitter_cfg.c **** 			{0x3Fu, 0x02u},
 639:Generated_Source\PSoC5/cyfitter_cfg.c **** 			{0x46u, 0x40u},
 640:Generated_Source\PSoC5/cyfitter_cfg.c **** 			{0x47u, 0x10u},
 641:Generated_Source\PSoC5/cyfitter_cfg.c **** 			{0x4Eu, 0x02u},
 642:Generated_Source\PSoC5/cyfitter_cfg.c **** 			{0x56u, 0x06u},
 643:Generated_Source\PSoC5/cyfitter_cfg.c **** 			{0x57u, 0x40u},
 644:Generated_Source\PSoC5/cyfitter_cfg.c **** 			{0x5Au, 0x08u},
 645:Generated_Source\PSoC5/cyfitter_cfg.c **** 			{0x69u, 0x10u},
 646:Generated_Source\PSoC5/cyfitter_cfg.c **** 			{0x6Au, 0x46u},
 647:Generated_Source\PSoC5/cyfitter_cfg.c **** 			{0x70u, 0x5Cu},
 648:Generated_Source\PSoC5/cyfitter_cfg.c **** 			{0x79u, 0x01u},
 649:Generated_Source\PSoC5/cyfitter_cfg.c **** 			{0x7Au, 0x02u},
 650:Generated_Source\PSoC5/cyfitter_cfg.c **** 			{0x7Bu, 0x41u},
 651:Generated_Source\PSoC5/cyfitter_cfg.c **** 			{0x91u, 0x0Au},
 652:Generated_Source\PSoC5/cyfitter_cfg.c **** 			{0x94u, 0x12u},
 653:Generated_Source\PSoC5/cyfitter_cfg.c **** 			{0x95u, 0x10u},
 654:Generated_Source\PSoC5/cyfitter_cfg.c **** 			{0x96u, 0x64u},
 655:Generated_Source\PSoC5/cyfitter_cfg.c **** 			{0x97u, 0x80u},
 656:Generated_Source\PSoC5/cyfitter_cfg.c **** 			{0x98u, 0x80u},
 657:Generated_Source\PSoC5/cyfitter_cfg.c **** 			{0x9Bu, 0x10u},
 658:Generated_Source\PSoC5/cyfitter_cfg.c **** 			{0x9Du, 0x03u},
 659:Generated_Source\PSoC5/cyfitter_cfg.c **** 			{0x9Eu, 0x06u},
 660:Generated_Source\PSoC5/cyfitter_cfg.c **** 			{0xA2u, 0x10u},
 661:Generated_Source\PSoC5/cyfitter_cfg.c **** 			{0xA3u, 0x03u},
 662:Generated_Source\PSoC5/cyfitter_cfg.c **** 			{0xA4u, 0x50u},
 663:Generated_Source\PSoC5/cyfitter_cfg.c **** 			{0xA5u, 0x08u},
 664:Generated_Source\PSoC5/cyfitter_cfg.c **** 			{0xA7u, 0x20u},
 665:Generated_Source\PSoC5/cyfitter_cfg.c **** 			{0xAFu, 0x40u},
 666:Generated_Source\PSoC5/cyfitter_cfg.c **** 			{0xB7u, 0x01u},
 667:Generated_Source\PSoC5/cyfitter_cfg.c **** 			{0xC0u, 0x05u},
 668:Generated_Source\PSoC5/cyfitter_cfg.c **** 			{0xC2u, 0xBEu},
 669:Generated_Source\PSoC5/cyfitter_cfg.c **** 			{0xC4u, 0x53u},
 670:Generated_Source\PSoC5/cyfitter_cfg.c **** 			{0xCAu, 0x1Fu},
 671:Generated_Source\PSoC5/cyfitter_cfg.c **** 			{0xCCu, 0x2Fu},
 672:Generated_Source\PSoC5/cyfitter_cfg.c **** 			{0xCEu, 0xAEu},
 673:Generated_Source\PSoC5/cyfitter_cfg.c **** 			{0xD0u, 0xA0u},
 674:Generated_Source\PSoC5/cyfitter_cfg.c **** 			{0xD2u, 0x10u},
 675:Generated_Source\PSoC5/cyfitter_cfg.c **** 			{0xD6u, 0x02u},
 676:Generated_Source\PSoC5/cyfitter_cfg.c **** 			{0x84u, 0x01u},
 677:Generated_Source\PSoC5/cyfitter_cfg.c **** 			{0x88u, 0x01u},
 678:Generated_Source\PSoC5/cyfitter_cfg.c **** 			{0x8Cu, 0x01u},
 679:Generated_Source\PSoC5/cyfitter_cfg.c **** 			{0x96u, 0x01u},
 680:Generated_Source\PSoC5/cyfitter_cfg.c **** 			{0xA2u, 0x01u},
 681:Generated_Source\PSoC5/cyfitter_cfg.c **** 			{0xAEu, 0x02u},
 682:Generated_Source\PSoC5/cyfitter_cfg.c **** 			{0xB2u, 0x03u},
 683:Generated_Source\PSoC5/cyfitter_cfg.c **** 			{0xBAu, 0x08u},
 684:Generated_Source\PSoC5/cyfitter_cfg.c **** 			{0xD4u, 0x01u},
 685:Generated_Source\PSoC5/cyfitter_cfg.c **** 			{0xD6u, 0x04u},
 686:Generated_Source\PSoC5/cyfitter_cfg.c **** 			{0xD8u, 0x04u},
 687:Generated_Source\PSoC5/cyfitter_cfg.c **** 			{0xDBu, 0x04u},
 688:Generated_Source\PSoC5/cyfitter_cfg.c **** 			{0xDFu, 0x01u},
 689:Generated_Source\PSoC5/cyfitter_cfg.c **** 			{0x00u, 0x44u},
 690:Generated_Source\PSoC5/cyfitter_cfg.c **** 			{0x03u, 0x80u},
 691:Generated_Source\PSoC5/cyfitter_cfg.c **** 			{0x05u, 0x94u},
 692:Generated_Source\PSoC5/cyfitter_cfg.c **** 			{0x08u, 0x12u},
 693:Generated_Source\PSoC5/cyfitter_cfg.c **** 			{0x0Au, 0x12u},
ARM GAS  C:\Users\mgnocco\AppData\Local\Temp\ccQexeeb.s 			page 21


 694:Generated_Source\PSoC5/cyfitter_cfg.c **** 			{0x0Eu, 0x10u},
 695:Generated_Source\PSoC5/cyfitter_cfg.c **** 			{0x10u, 0x48u},
 696:Generated_Source\PSoC5/cyfitter_cfg.c **** 			{0x11u, 0x40u},
 697:Generated_Source\PSoC5/cyfitter_cfg.c **** 			{0x12u, 0x10u},
 698:Generated_Source\PSoC5/cyfitter_cfg.c **** 			{0x15u, 0x80u},
 699:Generated_Source\PSoC5/cyfitter_cfg.c **** 			{0x16u, 0x40u},
 700:Generated_Source\PSoC5/cyfitter_cfg.c **** 			{0x18u, 0x04u},
 701:Generated_Source\PSoC5/cyfitter_cfg.c **** 			{0x19u, 0x16u},
 702:Generated_Source\PSoC5/cyfitter_cfg.c **** 			{0x1Eu, 0x10u},
 703:Generated_Source\PSoC5/cyfitter_cfg.c **** 			{0x1Fu, 0x08u},
 704:Generated_Source\PSoC5/cyfitter_cfg.c **** 			{0x20u, 0x80u},
 705:Generated_Source\PSoC5/cyfitter_cfg.c **** 			{0x21u, 0x42u},
 706:Generated_Source\PSoC5/cyfitter_cfg.c **** 			{0x28u, 0x12u},
 707:Generated_Source\PSoC5/cyfitter_cfg.c **** 			{0x29u, 0x04u},
 708:Generated_Source\PSoC5/cyfitter_cfg.c **** 			{0x2Au, 0x40u},
 709:Generated_Source\PSoC5/cyfitter_cfg.c **** 			{0x2Bu, 0x8Au},
 710:Generated_Source\PSoC5/cyfitter_cfg.c **** 			{0x30u, 0x48u},
 711:Generated_Source\PSoC5/cyfitter_cfg.c **** 			{0x31u, 0x10u},
 712:Generated_Source\PSoC5/cyfitter_cfg.c **** 			{0x32u, 0x41u},
 713:Generated_Source\PSoC5/cyfitter_cfg.c **** 			{0x38u, 0xE2u},
 714:Generated_Source\PSoC5/cyfitter_cfg.c **** 			{0x39u, 0x08u},
 715:Generated_Source\PSoC5/cyfitter_cfg.c **** 			{0x3Au, 0x10u},
 716:Generated_Source\PSoC5/cyfitter_cfg.c **** 			{0x40u, 0x26u},
 717:Generated_Source\PSoC5/cyfitter_cfg.c **** 			{0x41u, 0x02u},
 718:Generated_Source\PSoC5/cyfitter_cfg.c **** 			{0x48u, 0x10u},
 719:Generated_Source\PSoC5/cyfitter_cfg.c **** 			{0x49u, 0x81u},
 720:Generated_Source\PSoC5/cyfitter_cfg.c **** 			{0x5Cu, 0x80u},
 721:Generated_Source\PSoC5/cyfitter_cfg.c **** 			{0x5Du, 0x21u},
 722:Generated_Source\PSoC5/cyfitter_cfg.c **** 			{0x5Eu, 0x08u},
 723:Generated_Source\PSoC5/cyfitter_cfg.c **** 			{0x67u, 0x80u},
 724:Generated_Source\PSoC5/cyfitter_cfg.c **** 			{0x6Au, 0x40u},
 725:Generated_Source\PSoC5/cyfitter_cfg.c **** 			{0x82u, 0x40u},
 726:Generated_Source\PSoC5/cyfitter_cfg.c **** 			{0x8Cu, 0x21u},
 727:Generated_Source\PSoC5/cyfitter_cfg.c **** 			{0x8Du, 0x40u},
 728:Generated_Source\PSoC5/cyfitter_cfg.c **** 			{0x90u, 0xA0u},
 729:Generated_Source\PSoC5/cyfitter_cfg.c **** 			{0x91u, 0x09u},
 730:Generated_Source\PSoC5/cyfitter_cfg.c **** 			{0x92u, 0x82u},
 731:Generated_Source\PSoC5/cyfitter_cfg.c **** 			{0x94u, 0x06u},
 732:Generated_Source\PSoC5/cyfitter_cfg.c **** 			{0x97u, 0x80u},
 733:Generated_Source\PSoC5/cyfitter_cfg.c **** 			{0x98u, 0x80u},
 734:Generated_Source\PSoC5/cyfitter_cfg.c **** 			{0x99u, 0xA0u},
 735:Generated_Source\PSoC5/cyfitter_cfg.c **** 			{0x9Cu, 0x20u},
 736:Generated_Source\PSoC5/cyfitter_cfg.c **** 			{0x9Du, 0x17u},
 737:Generated_Source\PSoC5/cyfitter_cfg.c **** 			{0xA0u, 0x08u},
 738:Generated_Source\PSoC5/cyfitter_cfg.c **** 			{0xA2u, 0x04u},
 739:Generated_Source\PSoC5/cyfitter_cfg.c **** 			{0xA3u, 0x82u},
 740:Generated_Source\PSoC5/cyfitter_cfg.c **** 			{0xA4u, 0x50u},
 741:Generated_Source\PSoC5/cyfitter_cfg.c **** 			{0xA7u, 0x08u},
 742:Generated_Source\PSoC5/cyfitter_cfg.c **** 			{0xC0u, 0xEDu},
 743:Generated_Source\PSoC5/cyfitter_cfg.c **** 			{0xC2u, 0x2Fu},
 744:Generated_Source\PSoC5/cyfitter_cfg.c **** 			{0xC4u, 0x9Fu},
 745:Generated_Source\PSoC5/cyfitter_cfg.c **** 			{0xCAu, 0x0Fu},
 746:Generated_Source\PSoC5/cyfitter_cfg.c **** 			{0xCCu, 0x0Fu},
 747:Generated_Source\PSoC5/cyfitter_cfg.c **** 			{0xCEu, 0x0Fu},
 748:Generated_Source\PSoC5/cyfitter_cfg.c **** 			{0xD0u, 0x0Fu},
 749:Generated_Source\PSoC5/cyfitter_cfg.c **** 			{0xD2u, 0x08u},
 750:Generated_Source\PSoC5/cyfitter_cfg.c **** 			{0xD6u, 0xF0u},
ARM GAS  C:\Users\mgnocco\AppData\Local\Temp\ccQexeeb.s 			page 22


 751:Generated_Source\PSoC5/cyfitter_cfg.c **** 			{0xD8u, 0x80u},
 752:Generated_Source\PSoC5/cyfitter_cfg.c **** 			{0xE0u, 0x04u},
 753:Generated_Source\PSoC5/cyfitter_cfg.c **** 			{0xE8u, 0x80u},
 754:Generated_Source\PSoC5/cyfitter_cfg.c **** 			{0x30u, 0x10u},
 755:Generated_Source\PSoC5/cyfitter_cfg.c **** 			{0x35u, 0x80u},
 756:Generated_Source\PSoC5/cyfitter_cfg.c **** 			{0xCCu, 0x30u},
 757:Generated_Source\PSoC5/cyfitter_cfg.c **** 			{0x9Cu, 0x10u},
 758:Generated_Source\PSoC5/cyfitter_cfg.c **** 			{0x9Du, 0x80u},
 759:Generated_Source\PSoC5/cyfitter_cfg.c **** 			{0x9Cu, 0x10u},
 760:Generated_Source\PSoC5/cyfitter_cfg.c **** 			{0x9Du, 0x80u},
 761:Generated_Source\PSoC5/cyfitter_cfg.c **** 			{0x84u, 0x10u},
 762:Generated_Source\PSoC5/cyfitter_cfg.c **** 			{0x9Cu, 0x10u},
 763:Generated_Source\PSoC5/cyfitter_cfg.c **** 			{0x9Du, 0x80u},
 764:Generated_Source\PSoC5/cyfitter_cfg.c **** 			{0xE6u, 0x40u},
 765:Generated_Source\PSoC5/cyfitter_cfg.c **** 			{0x86u, 0x20u},
 766:Generated_Source\PSoC5/cyfitter_cfg.c **** 			{0xADu, 0x80u},
 767:Generated_Source\PSoC5/cyfitter_cfg.c **** 			{0xEAu, 0x10u},
 768:Generated_Source\PSoC5/cyfitter_cfg.c **** 			{0x58u, 0x40u},
 769:Generated_Source\PSoC5/cyfitter_cfg.c **** 			{0x62u, 0x01u},
 770:Generated_Source\PSoC5/cyfitter_cfg.c **** 			{0x99u, 0x08u},
 771:Generated_Source\PSoC5/cyfitter_cfg.c **** 			{0x9Au, 0x20u},
 772:Generated_Source\PSoC5/cyfitter_cfg.c **** 			{0xB5u, 0x08u},
 773:Generated_Source\PSoC5/cyfitter_cfg.c **** 			{0xD4u, 0x01u},
 774:Generated_Source\PSoC5/cyfitter_cfg.c **** 			{0xD8u, 0x02u},
 775:Generated_Source\PSoC5/cyfitter_cfg.c **** 			{0xE8u, 0x02u},
 776:Generated_Source\PSoC5/cyfitter_cfg.c **** 			{0x12u, 0x80u},
 777:Generated_Source\PSoC5/cyfitter_cfg.c **** 			{0x72u, 0x20u},
 778:Generated_Source\PSoC5/cyfitter_cfg.c **** 			{0x75u, 0x08u},
 779:Generated_Source\PSoC5/cyfitter_cfg.c **** 			{0x82u, 0x01u},
 780:Generated_Source\PSoC5/cyfitter_cfg.c **** 			{0x8Eu, 0x80u},
 781:Generated_Source\PSoC5/cyfitter_cfg.c **** 			{0x99u, 0x08u},
 782:Generated_Source\PSoC5/cyfitter_cfg.c **** 			{0x9Au, 0x20u},
 783:Generated_Source\PSoC5/cyfitter_cfg.c **** 			{0x9Eu, 0x01u},
 784:Generated_Source\PSoC5/cyfitter_cfg.c **** 			{0xB0u, 0x40u},
 785:Generated_Source\PSoC5/cyfitter_cfg.c **** 			{0xC4u, 0x08u},
 786:Generated_Source\PSoC5/cyfitter_cfg.c **** 			{0xDCu, 0x01u},
 787:Generated_Source\PSoC5/cyfitter_cfg.c **** 			{0xDEu, 0x04u},
 788:Generated_Source\PSoC5/cyfitter_cfg.c **** 			{0xE2u, 0x02u},
 789:Generated_Source\PSoC5/cyfitter_cfg.c **** 			{0xE8u, 0x01u},
 790:Generated_Source\PSoC5/cyfitter_cfg.c **** 			{0x00u, 0x01u},
 791:Generated_Source\PSoC5/cyfitter_cfg.c **** 			{0x0Cu, 0x01u},
 792:Generated_Source\PSoC5/cyfitter_cfg.c **** 			{0x10u, 0x01u},
 793:Generated_Source\PSoC5/cyfitter_cfg.c **** 			{0x1Cu, 0x01u},
 794:Generated_Source\PSoC5/cyfitter_cfg.c **** 			{0x00u, 0x0Fu},
 795:Generated_Source\PSoC5/cyfitter_cfg.c **** 		};
 796:Generated_Source\PSoC5/cyfitter_cfg.c **** 
 797:Generated_Source\PSoC5/cyfitter_cfg.c **** 
 798:Generated_Source\PSoC5/cyfitter_cfg.c **** 
 799:Generated_Source\PSoC5/cyfitter_cfg.c **** 		CYPACKED typedef struct {
 800:Generated_Source\PSoC5/cyfitter_cfg.c **** 			void CYFAR *address;
 801:Generated_Source\PSoC5/cyfitter_cfg.c **** 			uint16 size;
 802:Generated_Source\PSoC5/cyfitter_cfg.c **** 		} CYPACKED_ATTR cfg_memset_t;
 803:Generated_Source\PSoC5/cyfitter_cfg.c **** 
 804:Generated_Source\PSoC5/cyfitter_cfg.c **** 
 805:Generated_Source\PSoC5/cyfitter_cfg.c **** 		CYPACKED typedef struct {
 806:Generated_Source\PSoC5/cyfitter_cfg.c **** 			void CYFAR *dest;
 807:Generated_Source\PSoC5/cyfitter_cfg.c **** 			const void CYCODE *src;
ARM GAS  C:\Users\mgnocco\AppData\Local\Temp\ccQexeeb.s 			page 23


 808:Generated_Source\PSoC5/cyfitter_cfg.c **** 			uint16 size;
 809:Generated_Source\PSoC5/cyfitter_cfg.c **** 		} CYPACKED_ATTR cfg_memcpy_t;
 810:Generated_Source\PSoC5/cyfitter_cfg.c **** 
 811:Generated_Source\PSoC5/cyfitter_cfg.c **** 		static const cfg_memset_t CYCODE cfg_memset_list[] = {
 812:Generated_Source\PSoC5/cyfitter_cfg.c **** 			/* address, size */
 813:Generated_Source\PSoC5/cyfitter_cfg.c **** 			{(void CYFAR *)(CYREG_PRT0_DR), 16u},
 814:Generated_Source\PSoC5/cyfitter_cfg.c **** 			{(void CYFAR *)(CYREG_PRT2_DR), 16u},
 815:Generated_Source\PSoC5/cyfitter_cfg.c **** 			{(void CYFAR *)(CYREG_PRT4_DR), 48u},
 816:Generated_Source\PSoC5/cyfitter_cfg.c **** 			{(void CYFAR *)(CYREG_PRT15_DR), 16u},
 817:Generated_Source\PSoC5/cyfitter_cfg.c **** 			{(void CYFAR *)(CYDEV_UCFG_B0_P0_U0_BASE), 4096u},
 818:Generated_Source\PSoC5/cyfitter_cfg.c **** 			{(void CYFAR *)(CYDEV_UCFG_B1_P2_U0_BASE), 1536u},
 819:Generated_Source\PSoC5/cyfitter_cfg.c **** 			{(void CYFAR *)(CYDEV_UCFG_B1_P5_U1_BASE), 384u},
 820:Generated_Source\PSoC5/cyfitter_cfg.c **** 			{(void CYFAR *)(CYDEV_UCFG_DSI0_BASE), 2560u},
 821:Generated_Source\PSoC5/cyfitter_cfg.c **** 			{(void CYFAR *)(CYDEV_UCFG_DSI12_BASE), 512u},
 822:Generated_Source\PSoC5/cyfitter_cfg.c **** 			{(void CYFAR *)(CYREG_BCTL0_MDCLK_EN), 32u},
 823:Generated_Source\PSoC5/cyfitter_cfg.c **** 		};
 824:Generated_Source\PSoC5/cyfitter_cfg.c **** 
 825:Generated_Source\PSoC5/cyfitter_cfg.c **** 		/* IOPORT_7 Address: CYDEV_PRTDSI_PRT12_BASE Size (bytes): 6 */
 826:Generated_Source\PSoC5/cyfitter_cfg.c **** 		static const uint8 CYCODE BS_IOPORT_7_VAL[] = {
 827:Generated_Source\PSoC5/cyfitter_cfg.c **** 			0x10u, 0x90u, 0x00u, 0x00u, 0x40u, 0x00u};
 828:Generated_Source\PSoC5/cyfitter_cfg.c **** 
 829:Generated_Source\PSoC5/cyfitter_cfg.c **** 		/* UDB_0_0_0_CONFIG Address: CYDEV_UCFG_B1_P5_U0_BASE Size (bytes): 128 */
 830:Generated_Source\PSoC5/cyfitter_cfg.c **** 		static const uint8 CYCODE BS_UDB_0_0_0_CONFIG_VAL[] = {
 831:Generated_Source\PSoC5/cyfitter_cfg.c **** 			0xCFu, 0x08u, 0x30u, 0x42u, 0xC3u, 0x00u, 0x3Cu, 0x08u, 0x00u, 0x10u, 0x00u, 0x00u, 0x08u, 0x20u
 832:Generated_Source\PSoC5/cyfitter_cfg.c **** 			0x00u, 0x20u, 0xF3u, 0x00u, 0x0Cu, 0x30u, 0xF3u, 0x00u, 0x3Du, 0x0Fu, 0xC0u, 0xF0u, 0x08u, 0x00u
 833:Generated_Source\PSoC5/cyfitter_cfg.c **** 			0x02u, 0x3Fu, 0x20u, 0xC0u, 0x04u, 0xF8u, 0x00u, 0x01u, 0x0Cu, 0x39u, 0x00u, 0xC6u, 0x43u, 0x00u
 834:Generated_Source\PSoC5/cyfitter_cfg.c **** 			0x40u, 0x31u, 0x8Cu, 0x00u, 0x3Fu, 0x00u, 0x00u, 0xFFu, 0x00u, 0x00u, 0x28u, 0x00u, 0x00u, 0x00u
 835:Generated_Source\PSoC5/cyfitter_cfg.c **** 			0x21u, 0x05u, 0x04u, 0x00u, 0x03u, 0xECu, 0x00u, 0x00u, 0x03u, 0xFFu, 0xFFu, 0xFFu, 0x62u, 0xA0u
 836:Generated_Source\PSoC5/cyfitter_cfg.c **** 			0x0Cu, 0x00u, 0x00u, 0x00u, 0x00u, 0x00u, 0x00u, 0x00u, 0x04u, 0x04u, 0x04u, 0x04u, 0x00u, 0x00u
 837:Generated_Source\PSoC5/cyfitter_cfg.c **** 			0x00u, 0x00u, 0x00u, 0x00u, 0x00u, 0x00u, 0x40u, 0x02u, 0x00u, 0x10u, 0x30u, 0x10u, 0x00u, 0x10u
 838:Generated_Source\PSoC5/cyfitter_cfg.c **** 			0x00u, 0x00u, 0x00u, 0x00u, 0x00u, 0x00u, 0x00u, 0x00u, 0x00u, 0x00u, 0x00u, 0x00u, 0x00u, 0x00u
 839:Generated_Source\PSoC5/cyfitter_cfg.c **** 
 840:Generated_Source\PSoC5/cyfitter_cfg.c **** 		static const cfg_memcpy_t CYCODE cfg_memcpy_list [] = {
 841:Generated_Source\PSoC5/cyfitter_cfg.c **** 			/* dest, src, size */
 842:Generated_Source\PSoC5/cyfitter_cfg.c **** 			{(void CYFAR *)(CYDEV_PRTDSI_PRT12_BASE), BS_IOPORT_7_VAL, 6u},
 843:Generated_Source\PSoC5/cyfitter_cfg.c **** 			{(void CYFAR *)(CYDEV_UCFG_B1_P5_U0_BASE), BS_UDB_0_0_0_CONFIG_VAL, 128u},
 844:Generated_Source\PSoC5/cyfitter_cfg.c **** 		};
 845:Generated_Source\PSoC5/cyfitter_cfg.c **** 
 846:Generated_Source\PSoC5/cyfitter_cfg.c **** 		uint8 CYDATA i;
 847:Generated_Source\PSoC5/cyfitter_cfg.c **** 
 848:Generated_Source\PSoC5/cyfitter_cfg.c **** 		/* Zero out critical memory blocks before beginning configuration */
 849:Generated_Source\PSoC5/cyfitter_cfg.c **** 		for (i = 0u; i < (sizeof(cfg_memset_list)/sizeof(cfg_memset_list[0])); i++)
 414              		.loc 1 849 0
 415 0004 0024     		movs	r4, #0
 416 0006 0CE0     		b	.L30
 417              	.LVL32:
 418              	.L31:
 419              	.LBB4:
 850:Generated_Source\PSoC5/cyfitter_cfg.c **** 		{
 851:Generated_Source\PSoC5/cyfitter_cfg.c **** 			const cfg_memset_t CYCODE * CYDATA ms = &cfg_memset_list[i];
 852:Generated_Source\PSoC5/cyfitter_cfg.c **** 			CYMEMZERO(ms->address, (size_t)(uint32)(ms->size));
 420              		.loc 1 852 0 discriminator 3
 421 0008 324D     		ldr	r5, .L35
 422 000a 6300     		lsls	r3, r4, #1
 423 000c 1919     		adds	r1, r3, r4
 424 000e 4A00     		lsls	r2, r1, #1
 425 0010 1146     		mov	r1, r2
ARM GAS  C:\Users\mgnocco\AppData\Local\Temp\ccQexeeb.s 			page 24


 426 0012 2A44     		add	r2, r2, r5
 427 0014 0846     		mov	r0, r1
 428 0016 9188     		ldrh	r1, [r2, #4]
 429 0018 2858     		ldr	r0, [r5, r0]	@ unaligned
 430 001a FFF7FEFF 		bl	CYMEMZERO
 431              	.LVL33:
 432              	.LBE4:
 849:Generated_Source\PSoC5/cyfitter_cfg.c **** 		{
 433              		.loc 1 849 0 discriminator 3
 434 001e 0134     		adds	r4, r4, #1
 435              	.LVL34:
 436 0020 E4B2     		uxtb	r4, r4
 437              	.LVL35:
 438              	.L30:
 849:Generated_Source\PSoC5/cyfitter_cfg.c **** 		{
 439              		.loc 1 849 0 is_stmt 0 discriminator 1
 440 0022 092C     		cmp	r4, #9
 441 0024 F0D9     		bls	.L31
 442 0026 0024     		movs	r4, #0
 443              	.LVL36:
 444 0028 0CE0     		b	.L32
 445              	.LVL37:
 446              	.L33:
 447              	.LBB5:
 853:Generated_Source\PSoC5/cyfitter_cfg.c **** 		}
 854:Generated_Source\PSoC5/cyfitter_cfg.c **** 
 855:Generated_Source\PSoC5/cyfitter_cfg.c **** 		/* Copy device configuration data into registers */
 856:Generated_Source\PSoC5/cyfitter_cfg.c **** 		for (i = 0u; i < (sizeof(cfg_memcpy_list)/sizeof(cfg_memcpy_list[0])); i++)
 857:Generated_Source\PSoC5/cyfitter_cfg.c **** 		{
 858:Generated_Source\PSoC5/cyfitter_cfg.c **** 			const cfg_memcpy_t CYCODE * CYDATA mc = &cfg_memcpy_list[i];
 859:Generated_Source\PSoC5/cyfitter_cfg.c **** 			void * CYDATA destPtr = mc->dest;
 448              		.loc 1 859 0 is_stmt 1 discriminator 3
 449 002a 2A48     		ldr	r0, .L35
 450 002c A200     		lsls	r2, r4, #2
 451 002e 1119     		adds	r1, r2, r4
 452 0030 4B00     		lsls	r3, r1, #1
 453 0032 0344     		add	r3, r3, r0
 454              	.LVL38:
 860:Generated_Source\PSoC5/cyfitter_cfg.c **** 			const void CYCODE * CYDATA srcPtr = mc->src;
 861:Generated_Source\PSoC5/cyfitter_cfg.c **** 			uint16 CYDATA numBytes = mc->size;
 862:Generated_Source\PSoC5/cyfitter_cfg.c **** 			CYCONFIGCPYCODE(destPtr, srcPtr, numBytes);
 455              		.loc 1 862 0 discriminator 3
 456 0034 B3F84420 		ldrh	r2, [r3, #68]
 457 0038 196C     		ldr	r1, [r3, #64]	@ unaligned
 458              	.LVL39:
 459 003a D86B     		ldr	r0, [r3, #60]	@ unaligned
 460              	.LVL40:
 461 003c FFF7FEFF 		bl	CYCONFIGCPYCODE
 462              	.LVL41:
 463              	.LBE5:
 856:Generated_Source\PSoC5/cyfitter_cfg.c **** 		{
 464              		.loc 1 856 0 discriminator 3
 465 0040 0134     		adds	r4, r4, #1
 466              	.LVL42:
 467 0042 E4B2     		uxtb	r4, r4
 468              	.LVL43:
 469              	.L32:
ARM GAS  C:\Users\mgnocco\AppData\Local\Temp\ccQexeeb.s 			page 25


 856:Generated_Source\PSoC5/cyfitter_cfg.c **** 		{
 470              		.loc 1 856 0 is_stmt 0 discriminator 1
 471 0044 012C     		cmp	r4, #1
 472 0046 F0D9     		bls	.L33
 863:Generated_Source\PSoC5/cyfitter_cfg.c **** 		}
 864:Generated_Source\PSoC5/cyfitter_cfg.c **** 
 865:Generated_Source\PSoC5/cyfitter_cfg.c **** 		cfg_write_bytes32(cy_cfg_addr_table, cy_cfg_data_table);
 473              		.loc 1 865 0 is_stmt 1
 474 0048 224C     		ldr	r4, .L35
 475              	.LVL44:
 476 004a 04F15001 		add	r1, r4, #80
 477 004e 04F56370 		add	r0, r4, #908
 478 0052 FFF7FEFF 		bl	cfg_write_bytes32
 479              	.LVL45:
 866:Generated_Source\PSoC5/cyfitter_cfg.c **** 
 867:Generated_Source\PSoC5/cyfitter_cfg.c **** 		/* Enable digital routing */
 868:Generated_Source\PSoC5/cyfitter_cfg.c **** 		CY_SET_XTND_REG8((void CYFAR *)CYREG_BCTL0_BANK_CTL, CY_GET_XTND_REG8((void CYFAR *)CYREG_BCTL0_B
 480              		.loc 1 868 0
 481 0056 204A     		ldr	r2, .L35+4
 482 0058 1378     		ldrb	r3, [r2]	@ zero_extendqisi2
 483 005a 43F00203 		orr	r3, r3, #2
 484 005e 1370     		strb	r3, [r2]
 869:Generated_Source\PSoC5/cyfitter_cfg.c **** 		CY_SET_XTND_REG8((void CYFAR *)CYREG_BCTL1_BANK_CTL, CY_GET_XTND_REG8((void CYFAR *)CYREG_BCTL1_B
 485              		.loc 1 869 0
 486 0060 1032     		adds	r2, r2, #16
 487 0062 1378     		ldrb	r3, [r2]	@ zero_extendqisi2
 488 0064 43F00203 		orr	r3, r3, #2
 489 0068 1370     		strb	r3, [r2]
 870:Generated_Source\PSoC5/cyfitter_cfg.c **** 
 871:Generated_Source\PSoC5/cyfitter_cfg.c **** 		/* Enable UDB array */
 872:Generated_Source\PSoC5/cyfitter_cfg.c **** 		CY_SET_XTND_REG8((void CYFAR *)CYREG_PM_ACT_CFG0, CY_GET_XTND_REG8((void CYFAR *)CYREG_PM_ACT_CFG
 490              		.loc 1 872 0
 491 006a 1C4D     		ldr	r5, .L35+8
 492 006c 2B78     		ldrb	r3, [r5]	@ zero_extendqisi2
 493 006e 43F04003 		orr	r3, r3, #64
 494 0072 2B70     		strb	r3, [r5]
 873:Generated_Source\PSoC5/cyfitter_cfg.c **** 		CY_SET_XTND_REG8((void CYFAR *)CYREG_PM_AVAIL_CR2, CY_GET_XTND_REG8((void CYFAR *)CYREG_PM_AVAIL_
 495              		.loc 1 873 0
 496 0074 A2F58632 		sub	r2, r2, #68608
 497 0078 513A     		subs	r2, r2, #81
 498 007a 1378     		ldrb	r3, [r2]	@ zero_extendqisi2
 499 007c 43F01003 		orr	r3, r3, #16
 500 0080 1370     		strb	r3, [r2]
 501              	.LBE3:
 874:Generated_Source\PSoC5/cyfitter_cfg.c **** 	}
 875:Generated_Source\PSoC5/cyfitter_cfg.c **** 
 876:Generated_Source\PSoC5/cyfitter_cfg.c **** 
 877:Generated_Source\PSoC5/cyfitter_cfg.c **** 	/* Perform second pass device configuration. These items must be configured in specific order afte
 878:Generated_Source\PSoC5/cyfitter_cfg.c **** 	CYCONFIGCPYCODE((void CYFAR *)(CYREG_PRT12_DM0), (const void CYCODE *)(BS_IOPINS0_7_VAL), 8u);
 502              		.loc 1 878 0
 503 0082 0822     		movs	r2, #8
 504 0084 04F57A71 		add	r1, r4, #1000
 505 0088 1548     		ldr	r0, .L35+12
 506 008a FFF7FEFF 		bl	CYCONFIGCPYCODE
 507              	.LVL46:
 879:Generated_Source\PSoC5/cyfitter_cfg.c **** 	CYCONFIGCPYCODE((void CYFAR *)(CYREG_PRT1_DM0), (const void CYCODE *)(BS_IOPINS0_1_VAL), 8u);
 508              		.loc 1 879 0
ARM GAS  C:\Users\mgnocco\AppData\Local\Temp\ccQexeeb.s 			page 26


 509 008e 0822     		movs	r2, #8
 510 0090 04F57C71 		add	r1, r4, #1008
 511 0094 1348     		ldr	r0, .L35+16
 512 0096 FFF7FEFF 		bl	CYCONFIGCPYCODE
 513              	.LVL47:
 880:Generated_Source\PSoC5/cyfitter_cfg.c **** 	CYCONFIGCPYCODE((void CYFAR *)(CYREG_PRT3_DR), (const void CYCODE *)(BS_IOPINS0_3_VAL), 10u);
 514              		.loc 1 880 0
 515 009a 0A22     		movs	r2, #10
 516 009c 04F57E71 		add	r1, r4, #1016
 517 00a0 1148     		ldr	r0, .L35+20
 518 00a2 FFF7FEFF 		bl	CYCONFIGCPYCODE
 519              	.LVL48:
 881:Generated_Source\PSoC5/cyfitter_cfg.c **** 	/* Switch Boost to the precision bandgap reference from its internal reference */
 882:Generated_Source\PSoC5/cyfitter_cfg.c **** 	CY_SET_REG8((void CYXDATA *)CYREG_BOOST_CR2, (CY_GET_REG8((void CYXDATA *)CYREG_BOOST_CR2) | 0x08u
 520              		.loc 1 882 0
 521 00a6 114A     		ldr	r2, .L35+24
 522 00a8 1378     		ldrb	r3, [r2]	@ zero_extendqisi2
 523 00aa 43F00803 		orr	r3, r3, #8
 524 00ae 1370     		strb	r3, [r2]
 883:Generated_Source\PSoC5/cyfitter_cfg.c **** 
 884:Generated_Source\PSoC5/cyfitter_cfg.c **** 	/* Set Flash Cycles based on max possible frequency in case a glitch occurs during ClockSetup(). *
 885:Generated_Source\PSoC5/cyfitter_cfg.c **** 	CY_SET_XTND_REG8((void CYFAR *)(CYREG_CACHE_CC_CTL), (((CYDEV_INSTRUCT_CACHE_ENABLED) != 0) ? 0x61
 525              		.loc 1 885 0
 526 00b0 0F4C     		ldr	r4, .L35+28
 527 00b2 6123     		movs	r3, #97
 528 00b4 2370     		strb	r3, [r4]
 886:Generated_Source\PSoC5/cyfitter_cfg.c **** 	/* Setup clocks based on selections from Clock DWR */
 887:Generated_Source\PSoC5/cyfitter_cfg.c **** 	ClockSetup();
 529              		.loc 1 887 0
 530 00b6 FFF7FEFF 		bl	ClockSetup
 531              	.LVL49:
 888:Generated_Source\PSoC5/cyfitter_cfg.c **** 	/* Set Flash Cycles based on newly configured 24.00MHz Bus Clock. */
 889:Generated_Source\PSoC5/cyfitter_cfg.c **** 	CY_SET_XTND_REG8((void CYFAR *)(CYREG_CACHE_CC_CTL), (((CYDEV_INSTRUCT_CACHE_ENABLED) != 0) ? 0x81
 532              		.loc 1 889 0
 533 00ba 8123     		movs	r3, #129
 534 00bc 2370     		strb	r3, [r4]
 890:Generated_Source\PSoC5/cyfitter_cfg.c **** 	CY_SET_XTND_REG8((void CYFAR *)(CYREG_PANTHER_WAITPIPE), 0x01u);
 535              		.loc 1 890 0
 536 00be 0122     		movs	r2, #1
 537 00c0 0C4B     		ldr	r3, .L35+32
 538 00c2 1A70     		strb	r2, [r3]
 891:Generated_Source\PSoC5/cyfitter_cfg.c **** 
 892:Generated_Source\PSoC5/cyfitter_cfg.c **** 	/* Perform basic analog initialization to defaults */
 893:Generated_Source\PSoC5/cyfitter_cfg.c **** 	AnalogSetDefault();
 539              		.loc 1 893 0
 540 00c4 FFF7FEFF 		bl	AnalogSetDefault
 541              	.LVL50:
 894:Generated_Source\PSoC5/cyfitter_cfg.c **** 
 895:Generated_Source\PSoC5/cyfitter_cfg.c **** 	/* Configure alternate active mode */
 896:Generated_Source\PSoC5/cyfitter_cfg.c **** 	CYCONFIGCPY((void CYFAR *)CYDEV_PM_STBY_BASE, (const void CYFAR *)CYDEV_PM_ACT_BASE, 14u);
 542              		.loc 1 896 0
 543 00c8 0E22     		movs	r2, #14
 544 00ca 2946     		mov	r1, r5
 545 00cc 0A48     		ldr	r0, .L35+36
 546 00ce FFF7FEFF 		bl	CYCONFIGCPY
 547              	.LVL51:
 548 00d2 38BD     		pop	{r3, r4, r5, pc}
ARM GAS  C:\Users\mgnocco\AppData\Local\Temp\ccQexeeb.s 			page 27


 549              	.L36:
 550              		.align	2
 551              	.L35:
 552 00d4 00000000 		.word	.LANCHOR0
 553 00d8 03500140 		.word	1073827843
 554 00dc A0430040 		.word	1073759136
 555 00e0 C2510040 		.word	1073762754
 556 00e4 12510040 		.word	1073762578
 557 00e8 30510040 		.word	1073762608
 558 00ec 22430040 		.word	1073759010
 559 00f0 00480040 		.word	1073760256
 560 00f4 04000840 		.word	1074266116
 561 00f8 B0430040 		.word	1073759152
 562              		.cfi_endproc
 563              	.LFE8:
 564              		.size	cyfitter_cfg, .-cyfitter_cfg
 565              		.section	.rodata
 566              		.align	2
 567              		.set	.LANCHOR0,. + 0
 568              		.type	cfg_memset_list.5023, %object
 569              		.size	cfg_memset_list.5023, 60
 570              	cfg_memset_list.5023:
 571 0000 00510040 		.word	1073762560
 572 0004 1000     		.short	16
 573 0006 20510040 		.4byte	1073762592
 574 000a 1000     		.short	16
 575 000c 40510040 		.word	1073762624
 576 0010 3000     		.short	48
 577 0012 F0510040 		.4byte	1073762800
 578 0016 1000     		.short	16
 579 0018 00000140 		.word	1073807360
 580 001c 0010     		.short	4096
 581 001e 00140140 		.4byte	1073812480
 582 0022 0006     		.short	1536
 583 0024 801A0140 		.word	1073814144
 584 0028 8001     		.short	384
 585 002a 00400140 		.4byte	1073823744
 586 002e 000A     		.short	2560
 587 0030 004C0140 		.word	1073826816
 588 0034 0002     		.short	512
 589 0036 00500140 		.4byte	1073827840
 590 003a 2000     		.short	32
 591              		.type	cfg_memcpy_list.5026, %object
 592              		.size	cfg_memcpy_list.5026, 20
 593              	cfg_memcpy_list.5026:
 594 003c 60520040 		.word	1073762912
 595 0040 04040000 		.word	BS_IOPORT_7_VAL.5024
 596 0044 0600     		.short	6
 597 0046 001A0140 		.4byte	1073814016
 598 004a 0C040000 		.4byte	BS_UDB_0_0_0_CONFIG_VAL.5025
 599 004e 8000     		.short	128
 600              		.type	cy_cfg_data_table.5013, %object
 601              		.size	cy_cfg_data_table.5013, 826
 602              	cy_cfg_data_table.5013:
 603 0050 09       		.byte	9
 604 0051 14       		.byte	20
 605 0052 89       		.byte	-119
ARM GAS  C:\Users\mgnocco\AppData\Local\Temp\ccQexeeb.s 			page 28


 606 0053 3A       		.byte	58
 607 0054 89       		.byte	-119
 608 0055 69       		.byte	105
 609 0056 8B       		.byte	-117
 610 0057 0F       		.byte	15
 611 0058 E6       		.byte	-26
 612 0059 02       		.byte	2
 613 005a 03       		.byte	3
 614 005b 01       		.byte	1
 615 005c 04       		.byte	4
 616 005d 61       		.byte	97
 617 005e 06       		.byte	6
 618 005f 0E       		.byte	14
 619 0060 07       		.byte	7
 620 0061 18       		.byte	24
 621 0062 09       		.byte	9
 622 0063 48       		.byte	72
 623 0064 0A       		.byte	10
 624 0065 40       		.byte	64
 625 0066 0B       		.byte	11
 626 0067 86       		.byte	-122
 627 0068 0E       		.byte	14
 628 0069 08       		.byte	8
 629 006a 11       		.byte	17
 630 006b 80       		.byte	-128
 631 006c 13       		.byte	19
 632 006d 65       		.byte	101
 633 006e 14       		.byte	20
 634 006f 2C       		.byte	44
 635 0070 15       		.byte	21
 636 0071 E6       		.byte	-26
 637 0072 16       		.byte	22
 638 0073 43       		.byte	67
 639 0074 17       		.byte	23
 640 0075 11       		.byte	17
 641 0076 19       		.byte	25
 642 0077 60       		.byte	96
 643 0078 1B       		.byte	27
 644 0079 8B       		.byte	-117
 645 007a 1E       		.byte	30
 646 007b 43       		.byte	67
 647 007c 20       		.byte	32
 648 007d 61       		.byte	97
 649 007e 21       		.byte	33
 650 007f A0       		.byte	-96
 651 0080 22       		.byte	34
 652 0081 06       		.byte	6
 653 0082 26       		.byte	38
 654 0083 0C       		.byte	12
 655 0084 28       		.byte	40
 656 0085 10       		.byte	16
 657 0086 2D       		.byte	45
 658 0087 80       		.byte	-128
 659 0088 2F       		.byte	47
 660 0089 02       		.byte	2
 661 008a 30       		.byte	48
 662 008b 20       		.byte	32
ARM GAS  C:\Users\mgnocco\AppData\Local\Temp\ccQexeeb.s 			page 29


 663 008c 32       		.byte	50
 664 008d 0F       		.byte	15
 665 008e 33       		.byte	51
 666 008f 07       		.byte	7
 667 0090 34       		.byte	52
 668 0091 10       		.byte	16
 669 0092 35       		.byte	53
 670 0093 F8       		.byte	-8
 671 0094 36       		.byte	54
 672 0095 40       		.byte	64
 673 0096 38       		.byte	56
 674 0097 02       		.byte	2
 675 0098 3A       		.byte	58
 676 0099 08       		.byte	8
 677 009a 3B       		.byte	59
 678 009b 08       		.byte	8
 679 009c 3E       		.byte	62
 680 009d 50       		.byte	80
 681 009e 40       		.byte	64
 682 009f 03       		.byte	3
 683 00a0 47       		.byte	71
 684 00a1 40       		.byte	64
 685 00a2 49       		.byte	73
 686 00a3 FF       		.byte	-1
 687 00a4 4A       		.byte	74
 688 00a5 07       		.byte	7
 689 00a6 4B       		.byte	75
 690 00a7 FF       		.byte	-1
 691 00a8 4C       		.byte	76
 692 00a9 40       		.byte	64
 693 00aa 4D       		.byte	77
 694 00ab 20       		.byte	32
 695 00ac 4E       		.byte	78
 696 00ad F0       		.byte	-16
 697 00ae 4F       		.byte	79
 698 00af 05       		.byte	5
 699 00b0 50       		.byte	80
 700 00b1 08       		.byte	8
 701 00b2 58       		.byte	88
 702 00b3 04       		.byte	4
 703 00b4 59       		.byte	89
 704 00b5 04       		.byte	4
 705 00b6 5A       		.byte	90
 706 00b7 04       		.byte	4
 707 00b8 5F       		.byte	95
 708 00b9 01       		.byte	1
 709 00ba 60       		.byte	96
 710 00bb 40       		.byte	64
 711 00bc 61       		.byte	97
 712 00bd A8       		.byte	-88
 713 00be 62       		.byte	98
 714 00bf 40       		.byte	64
 715 00c0 63       		.byte	99
 716 00c1 20       		.byte	32
 717 00c2 83       		.byte	-125
 718 00c3 20       		.byte	32
 719 00c4 85       		.byte	-123
ARM GAS  C:\Users\mgnocco\AppData\Local\Temp\ccQexeeb.s 			page 30


 720 00c5 03       		.byte	3
 721 00c6 87       		.byte	-121
 722 00c7 04       		.byte	4
 723 00c8 8A       		.byte	-118
 724 00c9 02       		.byte	2
 725 00ca 8B       		.byte	-117
 726 00cb 08       		.byte	8
 727 00cc 8D       		.byte	-115
 728 00cd 03       		.byte	3
 729 00ce 8E       		.byte	-114
 730 00cf 02       		.byte	2
 731 00d0 8F       		.byte	-113
 732 00d1 0C       		.byte	12
 733 00d2 90       		.byte	-112
 734 00d3 01       		.byte	1
 735 00d4 95       		.byte	-107
 736 00d5 0A       		.byte	10
 737 00d6 97       		.byte	-105
 738 00d7 04       		.byte	4
 739 00d8 98       		.byte	-104
 740 00d9 01       		.byte	1
 741 00da 99       		.byte	-103
 742 00db 03       		.byte	3
 743 00dc 9B       		.byte	-101
 744 00dd 04       		.byte	4
 745 00de A3       		.byte	-93
 746 00df 10       		.byte	16
 747 00e0 A7       		.byte	-89
 748 00e1 10       		.byte	16
 749 00e2 A8       		.byte	-88
 750 00e3 01       		.byte	1
 751 00e4 AF       		.byte	-81
 752 00e5 05       		.byte	5
 753 00e6 B0       		.byte	-80
 754 00e7 01       		.byte	1
 755 00e8 B1       		.byte	-79
 756 00e9 0F       		.byte	15
 757 00ea B3       		.byte	-77
 758 00eb 20       		.byte	32
 759 00ec B5       		.byte	-75
 760 00ed 10       		.byte	16
 761 00ee B6       		.byte	-74
 762 00ef 02       		.byte	2
 763 00f0 BB       		.byte	-69
 764 00f1 02       		.byte	2
 765 00f2 BE       		.byte	-66
 766 00f3 40       		.byte	64
 767 00f4 BF       		.byte	-65
 768 00f5 10       		.byte	16
 769 00f6 D4       		.byte	-44
 770 00f7 1A       		.byte	26
 771 00f8 D6       		.byte	-42
 772 00f9 04       		.byte	4
 773 00fa D8       		.byte	-40
 774 00fb 04       		.byte	4
 775 00fc D9       		.byte	-39
 776 00fd 04       		.byte	4
ARM GAS  C:\Users\mgnocco\AppData\Local\Temp\ccQexeeb.s 			page 31


 777 00fe DB       		.byte	-37
 778 00ff 04       		.byte	4
 779 0100 DF       		.byte	-33
 780 0101 01       		.byte	1
 781 0102 00       		.byte	0
 782 0103 A0       		.byte	-96
 783 0104 05       		.byte	5
 784 0105 80       		.byte	-128
 785 0106 06       		.byte	6
 786 0107 05       		.byte	5
 787 0108 07       		.byte	7
 788 0109 10       		.byte	16
 789 010a 08       		.byte	8
 790 010b 80       		.byte	-128
 791 010c 0A       		.byte	10
 792 010d 45       		.byte	69
 793 010e 0E       		.byte	14
 794 010f 20       		.byte	32
 795 0110 0F       		.byte	15
 796 0111 02       		.byte	2
 797 0112 11       		.byte	17
 798 0113 10       		.byte	16
 799 0114 15       		.byte	21
 800 0115 02       		.byte	2
 801 0116 16       		.byte	22
 802 0117 18       		.byte	24
 803 0118 19       		.byte	25
 804 0119 40       		.byte	64
 805 011a 1B       		.byte	27
 806 011b 02       		.byte	2
 807 011c 1D       		.byte	29
 808 011d 24       		.byte	36
 809 011e 1E       		.byte	30
 810 011f 21       		.byte	33
 811 0120 1F       		.byte	31
 812 0121 01       		.byte	1
 813 0122 20       		.byte	32
 814 0123 40       		.byte	64
 815 0124 21       		.byte	33
 816 0125 05       		.byte	5
 817 0126 22       		.byte	34
 818 0127 02       		.byte	2
 819 0128 23       		.byte	35
 820 0129 04       		.byte	4
 821 012a 24       		.byte	36
 822 012b 04       		.byte	4
 823 012c 27       		.byte	39
 824 012d 10       		.byte	16
 825 012e 29       		.byte	41
 826 012f 01       		.byte	1
 827 0130 2B       		.byte	43
 828 0131 21       		.byte	33
 829 0132 2D       		.byte	45
 830 0133 80       		.byte	-128
 831 0134 2E       		.byte	46
 832 0135 02       		.byte	2
 833 0136 31       		.byte	49
ARM GAS  C:\Users\mgnocco\AppData\Local\Temp\ccQexeeb.s 			page 32


 834 0137 04       		.byte	4
 835 0138 33       		.byte	51
 836 0139 10       		.byte	16
 837 013a 35       		.byte	53
 838 013b 04       		.byte	4
 839 013c 36       		.byte	54
 840 013d 02       		.byte	2
 841 013e 37       		.byte	55
 842 013f 10       		.byte	16
 843 0140 38       		.byte	56
 844 0141 52       		.byte	82
 845 0142 3A       		.byte	58
 846 0143 14       		.byte	20
 847 0144 3C       		.byte	60
 848 0145 14       		.byte	20
 849 0146 3E       		.byte	62
 850 0147 08       		.byte	8
 851 0148 3F       		.byte	63
 852 0149 02       		.byte	2
 853 014a 45       		.byte	69
 854 014b 08       		.byte	8
 855 014c 4F       		.byte	79
 856 014d 02       		.byte	2
 857 014e 56       		.byte	86
 858 014f 01       		.byte	1
 859 0150 59       		.byte	89
 860 0151 02       		.byte	2
 861 0152 5A       		.byte	90
 862 0153 20       		.byte	32
 863 0154 61       		.byte	97
 864 0155 40       		.byte	64
 865 0156 63       		.byte	99
 866 0157 44       		.byte	68
 867 0158 85       		.byte	-123
 868 0159 20       		.byte	32
 869 015a 87       		.byte	-121
 870 015b 40       		.byte	64
 871 015c C0       		.byte	-64
 872 015d E3       		.byte	-29
 873 015e C2       		.byte	-62
 874 015f AA       		.byte	-86
 875 0160 C4       		.byte	-60
 876 0161 72       		.byte	114
 877 0162 CA       		.byte	-54
 878 0163 9B       		.byte	-101
 879 0164 CC       		.byte	-52
 880 0165 E6       		.byte	-26
 881 0166 CE       		.byte	-50
 882 0167 EF       		.byte	-17
 883 0168 D0       		.byte	-48
 884 0169 40       		.byte	64
 885 016a D6       		.byte	-42
 886 016b 05       		.byte	5
 887 016c D8       		.byte	-40
 888 016d 0D       		.byte	13
 889 016e E0       		.byte	-32
 890 016f 08       		.byte	8
ARM GAS  C:\Users\mgnocco\AppData\Local\Temp\ccQexeeb.s 			page 33


 891 0170 B9       		.byte	-71
 892 0171 80       		.byte	-128
 893 0172 BF       		.byte	-65
 894 0173 40       		.byte	64
 895 0174 D9       		.byte	-39
 896 0175 04       		.byte	4
 897 0176 DF       		.byte	-33
 898 0177 01       		.byte	1
 899 0178 26       		.byte	38
 900 0179 80       		.byte	-128
 901 017a A6       		.byte	-90
 902 017b 80       		.byte	-128
 903 017c B2       		.byte	-78
 904 017d 80       		.byte	-128
 905 017e EA       		.byte	-22
 906 017f 08       		.byte	8
 907 0180 01       		.byte	1
 908 0181 02       		.byte	2
 909 0182 0B       		.byte	11
 910 0183 01       		.byte	1
 911 0184 10       		.byte	16
 912 0185 01       		.byte	1
 913 0186 14       		.byte	20
 914 0187 04       		.byte	4
 915 0188 19       		.byte	25
 916 0189 01       		.byte	1
 917 018a 1E       		.byte	30
 918 018b 02       		.byte	2
 919 018c 20       		.byte	32
 920 018d 06       		.byte	6
 921 018e 28       		.byte	40
 922 018f 06       		.byte	6
 923 0190 2D       		.byte	45
 924 0191 01       		.byte	1
 925 0192 32       		.byte	50
 926 0193 06       		.byte	6
 927 0194 33       		.byte	51
 928 0195 03       		.byte	3
 929 0196 34       		.byte	52
 930 0197 01       		.byte	1
 931 0198 38       		.byte	56
 932 0199 08       		.byte	8
 933 019a 39       		.byte	57
 934 019b 08       		.byte	8
 935 019c 3E       		.byte	62
 936 019d 14       		.byte	20
 937 019e 40       		.byte	64
 938 019f 45       		.byte	69
 939 01a0 41       		.byte	65
 940 01a1 02       		.byte	2
 941 01a2 46       		.byte	70
 942 01a3 0E       		.byte	14
 943 01a4 47       		.byte	71
 944 01a5 BC       		.byte	-68
 945 01a6 48       		.byte	72
 946 01a7 34       		.byte	52
 947 01a8 49       		.byte	73
ARM GAS  C:\Users\mgnocco\AppData\Local\Temp\ccQexeeb.s 			page 34


 948 01a9 FF       		.byte	-1
 949 01aa 4A       		.byte	74
 950 01ab FF       		.byte	-1
 951 01ac 4B       		.byte	75
 952 01ad FF       		.byte	-1
 953 01ae 4E       		.byte	78
 954 01af F0       		.byte	-16
 955 01b0 4F       		.byte	79
 956 01b1 44       		.byte	68
 957 01b2 50       		.byte	80
 958 01b3 0C       		.byte	12
 959 01b4 58       		.byte	88
 960 01b5 04       		.byte	4
 961 01b6 59       		.byte	89
 962 01b7 04       		.byte	4
 963 01b8 5A       		.byte	90
 964 01b9 04       		.byte	4
 965 01ba 5F       		.byte	95
 966 01bb 01       		.byte	1
 967 01bc 66       		.byte	102
 968 01bd C0       		.byte	-64
 969 01be 6A       		.byte	106
 970 01bf 40       		.byte	64
 971 01c0 6B       		.byte	107
 972 01c1 02       		.byte	2
 973 01c2 84       		.byte	-124
 974 01c3 03       		.byte	3
 975 01c4 85       		.byte	-123
 976 01c5 08       		.byte	8
 977 01c6 86       		.byte	-122
 978 01c7 0C       		.byte	12
 979 01c8 89       		.byte	-119
 980 01c9 08       		.byte	8
 981 01ca 8D       		.byte	-115
 982 01cb 08       		.byte	8
 983 01cc 8E       		.byte	-114
 984 01cd 0E       		.byte	14
 985 01ce 90       		.byte	-112
 986 01cf 02       		.byte	2
 987 01d0 91       		.byte	-111
 988 01d1 08       		.byte	8
 989 01d2 92       		.byte	-110
 990 01d3 08       		.byte	8
 991 01d4 95       		.byte	-107
 992 01d5 3D       		.byte	61
 993 01d6 96       		.byte	-106
 994 01d7 0F       		.byte	15
 995 01d8 97       		.byte	-105
 996 01d9 02       		.byte	2
 997 01da 98       		.byte	-104
 998 01db 02       		.byte	2
 999 01dc 99       		.byte	-103
 1000 01dd 23       		.byte	35
 1001 01de 9A       		.byte	-102
 1002 01df 04       		.byte	4
 1003 01e0 9B       		.byte	-101
 1004 01e1 1C       		.byte	28
ARM GAS  C:\Users\mgnocco\AppData\Local\Temp\ccQexeeb.s 			page 35


 1005 01e2 9D       		.byte	-99
 1006 01e3 1E       		.byte	30
 1007 01e4 9F       		.byte	-97
 1008 01e5 01       		.byte	1
 1009 01e6 A1       		.byte	-95
 1010 01e7 27       		.byte	39
 1011 01e8 A3       		.byte	-93
 1012 01e9 18       		.byte	24
 1013 01ea A5       		.byte	-91
 1014 01eb 01       		.byte	1
 1015 01ec A7       		.byte	-89
 1016 01ed 16       		.byte	22
 1017 01ee A8       		.byte	-88
 1018 01ef 0C       		.byte	12
 1019 01f0 A9       		.byte	-87
 1020 01f1 26       		.byte	38
 1021 01f2 AA       		.byte	-86
 1022 01f3 03       		.byte	3
 1023 01f4 AB       		.byte	-85
 1024 01f5 19       		.byte	25
 1025 01f6 AC       		.byte	-84
 1026 01f7 03       		.byte	3
 1027 01f8 AE       		.byte	-82
 1028 01f9 0C       		.byte	12
 1029 01fa AF       		.byte	-81
 1030 01fb 1F       		.byte	31
 1031 01fc B3       		.byte	-77
 1032 01fd 20       		.byte	32
 1033 01fe B4       		.byte	-76
 1034 01ff 01       		.byte	1
 1035 0200 B5       		.byte	-75
 1036 0201 08       		.byte	8
 1037 0202 B6       		.byte	-74
 1038 0203 0E       		.byte	14
 1039 0204 B7       		.byte	-73
 1040 0205 1F       		.byte	31
 1041 0206 B8       		.byte	-72
 1042 0207 20       		.byte	32
 1043 0208 BA       		.byte	-70
 1044 0209 80       		.byte	-128
 1045 020a BB       		.byte	-69
 1046 020b 80       		.byte	-128
 1047 020c BF       		.byte	-65
 1048 020d 04       		.byte	4
 1049 020e D6       		.byte	-42
 1050 020f 02       		.byte	2
 1051 0210 D7       		.byte	-41
 1052 0211 12       		.byte	18
 1053 0212 D8       		.byte	-40
 1054 0213 04       		.byte	4
 1055 0214 D9       		.byte	-39
 1056 0215 04       		.byte	4
 1057 0216 DB       		.byte	-37
 1058 0217 04       		.byte	4
 1059 0218 DF       		.byte	-33
 1060 0219 01       		.byte	1
 1061 021a 00       		.byte	0
ARM GAS  C:\Users\mgnocco\AppData\Local\Temp\ccQexeeb.s 			page 36


 1062 021b 04       		.byte	4
 1063 021c 03       		.byte	3
 1064 021d 02       		.byte	2
 1065 021e 05       		.byte	5
 1066 021f 20       		.byte	32
 1067 0220 06       		.byte	6
 1068 0221 04       		.byte	4
 1069 0222 08       		.byte	8
 1070 0223 28       		.byte	40
 1071 0224 0A       		.byte	10
 1072 0225 80       		.byte	-128
 1073 0226 0E       		.byte	14
 1074 0227 30       		.byte	48
 1075 0228 0F       		.byte	15
 1076 0229 82       		.byte	-126
 1077 022a 12       		.byte	18
 1078 022b 09       		.byte	9
 1079 022c 15       		.byte	21
 1080 022d 02       		.byte	2
 1081 022e 16       		.byte	22
 1082 022f C0       		.byte	-64
 1083 0230 17       		.byte	23
 1084 0231 10       		.byte	16
 1085 0232 19       		.byte	25
 1086 0233 80       		.byte	-128
 1087 0234 1B       		.byte	27
 1088 0235 A0       		.byte	-96
 1089 0236 1D       		.byte	29
 1090 0237 08       		.byte	8
 1091 0238 1E       		.byte	30
 1092 0239 08       		.byte	8
 1093 023a 22       		.byte	34
 1094 023b 54       		.byte	84
 1095 023c 24       		.byte	36
 1096 023d 10       		.byte	16
 1097 023e 28       		.byte	40
 1098 023f 28       		.byte	40
 1099 0240 2A       		.byte	42
 1100 0241 01       		.byte	1
 1101 0242 2B       		.byte	43
 1102 0243 8A       		.byte	-118
 1103 0244 2E       		.byte	46
 1104 0245 80       		.byte	-128
 1105 0246 31       		.byte	49
 1106 0247 14       		.byte	20
 1107 0248 32       		.byte	50
 1108 0249 49       		.byte	73
 1109 024a 37       		.byte	55
 1110 024b 10       		.byte	16
 1111 024c 38       		.byte	56
 1112 024d A8       		.byte	-88
 1113 024e 3E       		.byte	62
 1114 024f 10       		.byte	16
 1115 0250 3F       		.byte	63
 1116 0251 02       		.byte	2
 1117 0252 46       		.byte	70
 1118 0253 40       		.byte	64
ARM GAS  C:\Users\mgnocco\AppData\Local\Temp\ccQexeeb.s 			page 37


 1119 0254 47       		.byte	71
 1120 0255 10       		.byte	16
 1121 0256 4E       		.byte	78
 1122 0257 02       		.byte	2
 1123 0258 56       		.byte	86
 1124 0259 06       		.byte	6
 1125 025a 57       		.byte	87
 1126 025b 40       		.byte	64
 1127 025c 5A       		.byte	90
 1128 025d 08       		.byte	8
 1129 025e 69       		.byte	105
 1130 025f 10       		.byte	16
 1131 0260 6A       		.byte	106
 1132 0261 46       		.byte	70
 1133 0262 70       		.byte	112
 1134 0263 5C       		.byte	92
 1135 0264 79       		.byte	121
 1136 0265 01       		.byte	1
 1137 0266 7A       		.byte	122
 1138 0267 02       		.byte	2
 1139 0268 7B       		.byte	123
 1140 0269 41       		.byte	65
 1141 026a 91       		.byte	-111
 1142 026b 0A       		.byte	10
 1143 026c 94       		.byte	-108
 1144 026d 12       		.byte	18
 1145 026e 95       		.byte	-107
 1146 026f 10       		.byte	16
 1147 0270 96       		.byte	-106
 1148 0271 64       		.byte	100
 1149 0272 97       		.byte	-105
 1150 0273 80       		.byte	-128
 1151 0274 98       		.byte	-104
 1152 0275 80       		.byte	-128
 1153 0276 9B       		.byte	-101
 1154 0277 10       		.byte	16
 1155 0278 9D       		.byte	-99
 1156 0279 03       		.byte	3
 1157 027a 9E       		.byte	-98
 1158 027b 06       		.byte	6
 1159 027c A2       		.byte	-94
 1160 027d 10       		.byte	16
 1161 027e A3       		.byte	-93
 1162 027f 03       		.byte	3
 1163 0280 A4       		.byte	-92
 1164 0281 50       		.byte	80
 1165 0282 A5       		.byte	-91
 1166 0283 08       		.byte	8
 1167 0284 A7       		.byte	-89
 1168 0285 20       		.byte	32
 1169 0286 AF       		.byte	-81
 1170 0287 40       		.byte	64
 1171 0288 B7       		.byte	-73
 1172 0289 01       		.byte	1
 1173 028a C0       		.byte	-64
 1174 028b 05       		.byte	5
 1175 028c C2       		.byte	-62
ARM GAS  C:\Users\mgnocco\AppData\Local\Temp\ccQexeeb.s 			page 38


 1176 028d BE       		.byte	-66
 1177 028e C4       		.byte	-60
 1178 028f 53       		.byte	83
 1179 0290 CA       		.byte	-54
 1180 0291 1F       		.byte	31
 1181 0292 CC       		.byte	-52
 1182 0293 2F       		.byte	47
 1183 0294 CE       		.byte	-50
 1184 0295 AE       		.byte	-82
 1185 0296 D0       		.byte	-48
 1186 0297 A0       		.byte	-96
 1187 0298 D2       		.byte	-46
 1188 0299 10       		.byte	16
 1189 029a D6       		.byte	-42
 1190 029b 02       		.byte	2
 1191 029c 84       		.byte	-124
 1192 029d 01       		.byte	1
 1193 029e 88       		.byte	-120
 1194 029f 01       		.byte	1
 1195 02a0 8C       		.byte	-116
 1196 02a1 01       		.byte	1
 1197 02a2 96       		.byte	-106
 1198 02a3 01       		.byte	1
 1199 02a4 A2       		.byte	-94
 1200 02a5 01       		.byte	1
 1201 02a6 AE       		.byte	-82
 1202 02a7 02       		.byte	2
 1203 02a8 B2       		.byte	-78
 1204 02a9 03       		.byte	3
 1205 02aa BA       		.byte	-70
 1206 02ab 08       		.byte	8
 1207 02ac D4       		.byte	-44
 1208 02ad 01       		.byte	1
 1209 02ae D6       		.byte	-42
 1210 02af 04       		.byte	4
 1211 02b0 D8       		.byte	-40
 1212 02b1 04       		.byte	4
 1213 02b2 DB       		.byte	-37
 1214 02b3 04       		.byte	4
 1215 02b4 DF       		.byte	-33
 1216 02b5 01       		.byte	1
 1217 02b6 00       		.byte	0
 1218 02b7 44       		.byte	68
 1219 02b8 03       		.byte	3
 1220 02b9 80       		.byte	-128
 1221 02ba 05       		.byte	5
 1222 02bb 94       		.byte	-108
 1223 02bc 08       		.byte	8
 1224 02bd 12       		.byte	18
 1225 02be 0A       		.byte	10
 1226 02bf 12       		.byte	18
 1227 02c0 0E       		.byte	14
 1228 02c1 10       		.byte	16
 1229 02c2 10       		.byte	16
 1230 02c3 48       		.byte	72
 1231 02c4 11       		.byte	17
 1232 02c5 40       		.byte	64
ARM GAS  C:\Users\mgnocco\AppData\Local\Temp\ccQexeeb.s 			page 39


 1233 02c6 12       		.byte	18
 1234 02c7 10       		.byte	16
 1235 02c8 15       		.byte	21
 1236 02c9 80       		.byte	-128
 1237 02ca 16       		.byte	22
 1238 02cb 40       		.byte	64
 1239 02cc 18       		.byte	24
 1240 02cd 04       		.byte	4
 1241 02ce 19       		.byte	25
 1242 02cf 16       		.byte	22
 1243 02d0 1E       		.byte	30
 1244 02d1 10       		.byte	16
 1245 02d2 1F       		.byte	31
 1246 02d3 08       		.byte	8
 1247 02d4 20       		.byte	32
 1248 02d5 80       		.byte	-128
 1249 02d6 21       		.byte	33
 1250 02d7 42       		.byte	66
 1251 02d8 28       		.byte	40
 1252 02d9 12       		.byte	18
 1253 02da 29       		.byte	41
 1254 02db 04       		.byte	4
 1255 02dc 2A       		.byte	42
 1256 02dd 40       		.byte	64
 1257 02de 2B       		.byte	43
 1258 02df 8A       		.byte	-118
 1259 02e0 30       		.byte	48
 1260 02e1 48       		.byte	72
 1261 02e2 31       		.byte	49
 1262 02e3 10       		.byte	16
 1263 02e4 32       		.byte	50
 1264 02e5 41       		.byte	65
 1265 02e6 38       		.byte	56
 1266 02e7 E2       		.byte	-30
 1267 02e8 39       		.byte	57
 1268 02e9 08       		.byte	8
 1269 02ea 3A       		.byte	58
 1270 02eb 10       		.byte	16
 1271 02ec 40       		.byte	64
 1272 02ed 26       		.byte	38
 1273 02ee 41       		.byte	65
 1274 02ef 02       		.byte	2
 1275 02f0 48       		.byte	72
 1276 02f1 10       		.byte	16
 1277 02f2 49       		.byte	73
 1278 02f3 81       		.byte	-127
 1279 02f4 5C       		.byte	92
 1280 02f5 80       		.byte	-128
 1281 02f6 5D       		.byte	93
 1282 02f7 21       		.byte	33
 1283 02f8 5E       		.byte	94
 1284 02f9 08       		.byte	8
 1285 02fa 67       		.byte	103
 1286 02fb 80       		.byte	-128
 1287 02fc 6A       		.byte	106
 1288 02fd 40       		.byte	64
 1289 02fe 82       		.byte	-126
ARM GAS  C:\Users\mgnocco\AppData\Local\Temp\ccQexeeb.s 			page 40


 1290 02ff 40       		.byte	64
 1291 0300 8C       		.byte	-116
 1292 0301 21       		.byte	33
 1293 0302 8D       		.byte	-115
 1294 0303 40       		.byte	64
 1295 0304 90       		.byte	-112
 1296 0305 A0       		.byte	-96
 1297 0306 91       		.byte	-111
 1298 0307 09       		.byte	9
 1299 0308 92       		.byte	-110
 1300 0309 82       		.byte	-126
 1301 030a 94       		.byte	-108
 1302 030b 06       		.byte	6
 1303 030c 97       		.byte	-105
 1304 030d 80       		.byte	-128
 1305 030e 98       		.byte	-104
 1306 030f 80       		.byte	-128
 1307 0310 99       		.byte	-103
 1308 0311 A0       		.byte	-96
 1309 0312 9C       		.byte	-100
 1310 0313 20       		.byte	32
 1311 0314 9D       		.byte	-99
 1312 0315 17       		.byte	23
 1313 0316 A0       		.byte	-96
 1314 0317 08       		.byte	8
 1315 0318 A2       		.byte	-94
 1316 0319 04       		.byte	4
 1317 031a A3       		.byte	-93
 1318 031b 82       		.byte	-126
 1319 031c A4       		.byte	-92
 1320 031d 50       		.byte	80
 1321 031e A7       		.byte	-89
 1322 031f 08       		.byte	8
 1323 0320 C0       		.byte	-64
 1324 0321 ED       		.byte	-19
 1325 0322 C2       		.byte	-62
 1326 0323 2F       		.byte	47
 1327 0324 C4       		.byte	-60
 1328 0325 9F       		.byte	-97
 1329 0326 CA       		.byte	-54
 1330 0327 0F       		.byte	15
 1331 0328 CC       		.byte	-52
 1332 0329 0F       		.byte	15
 1333 032a CE       		.byte	-50
 1334 032b 0F       		.byte	15
 1335 032c D0       		.byte	-48
 1336 032d 0F       		.byte	15
 1337 032e D2       		.byte	-46
 1338 032f 08       		.byte	8
 1339 0330 D6       		.byte	-42
 1340 0331 F0       		.byte	-16
 1341 0332 D8       		.byte	-40
 1342 0333 80       		.byte	-128
 1343 0334 E0       		.byte	-32
 1344 0335 04       		.byte	4
 1345 0336 E8       		.byte	-24
 1346 0337 80       		.byte	-128
ARM GAS  C:\Users\mgnocco\AppData\Local\Temp\ccQexeeb.s 			page 41


 1347 0338 30       		.byte	48
 1348 0339 10       		.byte	16
 1349 033a 35       		.byte	53
 1350 033b 80       		.byte	-128
 1351 033c CC       		.byte	-52
 1352 033d 30       		.byte	48
 1353 033e 9C       		.byte	-100
 1354 033f 10       		.byte	16
 1355 0340 9D       		.byte	-99
 1356 0341 80       		.byte	-128
 1357 0342 9C       		.byte	-100
 1358 0343 10       		.byte	16
 1359 0344 9D       		.byte	-99
 1360 0345 80       		.byte	-128
 1361 0346 84       		.byte	-124
 1362 0347 10       		.byte	16
 1363 0348 9C       		.byte	-100
 1364 0349 10       		.byte	16
 1365 034a 9D       		.byte	-99
 1366 034b 80       		.byte	-128
 1367 034c E6       		.byte	-26
 1368 034d 40       		.byte	64
 1369 034e 86       		.byte	-122
 1370 034f 20       		.byte	32
 1371 0350 AD       		.byte	-83
 1372 0351 80       		.byte	-128
 1373 0352 EA       		.byte	-22
 1374 0353 10       		.byte	16
 1375 0354 58       		.byte	88
 1376 0355 40       		.byte	64
 1377 0356 62       		.byte	98
 1378 0357 01       		.byte	1
 1379 0358 99       		.byte	-103
 1380 0359 08       		.byte	8
 1381 035a 9A       		.byte	-102
 1382 035b 20       		.byte	32
 1383 035c B5       		.byte	-75
 1384 035d 08       		.byte	8
 1385 035e D4       		.byte	-44
 1386 035f 01       		.byte	1
 1387 0360 D8       		.byte	-40
 1388 0361 02       		.byte	2
 1389 0362 E8       		.byte	-24
 1390 0363 02       		.byte	2
 1391 0364 12       		.byte	18
 1392 0365 80       		.byte	-128
 1393 0366 72       		.byte	114
 1394 0367 20       		.byte	32
 1395 0368 75       		.byte	117
 1396 0369 08       		.byte	8
 1397 036a 82       		.byte	-126
 1398 036b 01       		.byte	1
 1399 036c 8E       		.byte	-114
 1400 036d 80       		.byte	-128
 1401 036e 99       		.byte	-103
 1402 036f 08       		.byte	8
 1403 0370 9A       		.byte	-102
ARM GAS  C:\Users\mgnocco\AppData\Local\Temp\ccQexeeb.s 			page 42


 1404 0371 20       		.byte	32
 1405 0372 9E       		.byte	-98
 1406 0373 01       		.byte	1
 1407 0374 B0       		.byte	-80
 1408 0375 40       		.byte	64
 1409 0376 C4       		.byte	-60
 1410 0377 08       		.byte	8
 1411 0378 DC       		.byte	-36
 1412 0379 01       		.byte	1
 1413 037a DE       		.byte	-34
 1414 037b 04       		.byte	4
 1415 037c E2       		.byte	-30
 1416 037d 02       		.byte	2
 1417 037e E8       		.byte	-24
 1418 037f 01       		.byte	1
 1419 0380 00       		.byte	0
 1420 0381 01       		.byte	1
 1421 0382 0C       		.byte	12
 1422 0383 01       		.byte	1
 1423 0384 10       		.byte	16
 1424 0385 01       		.byte	1
 1425 0386 1C       		.byte	28
 1426 0387 01       		.byte	1
 1427 0388 00       		.byte	0
 1428 0389 0F       		.byte	15
 1429 038a 0000     		.space	2
 1430              		.type	cy_cfg_addr_table.5012, %object
 1431              		.size	cy_cfg_addr_table.5012, 92
 1432              	cy_cfg_addr_table.5012:
 1433 038c 01520040 		.word	1073762817
 1434 0390 01640040 		.word	1073767425
 1435 0394 02650040 		.word	1073767682
 1436 0398 01070140 		.word	1073809153
 1437 039c 54080140 		.word	1073809492
 1438 03a0 37090140 		.word	1073809719
 1439 03a4 04140140 		.word	1073812484
 1440 03a8 03150140 		.word	1073812739
 1441 03ac 01170140 		.word	1073813249
 1442 03b0 4D180140 		.word	1073813581
 1443 03b4 41190140 		.word	1073813825
 1444 03b8 0D1A0140 		.word	1073814029
 1445 03bc 411B0140 		.word	1073814337
 1446 03c0 03400140 		.word	1073823747
 1447 03c4 02410140 		.word	1073824002
 1448 03c8 02420140 		.word	1073824258
 1449 03cc 04430140 		.word	1073824516
 1450 03d0 01470140 		.word	1073825537
 1451 03d4 02480140 		.word	1073825794
 1452 03d8 084C0140 		.word	1073826824
 1453 03dc 0E4D0140 		.word	1073827086
 1454 03e0 04500140 		.word	1073827844
 1455 03e4 01510140 		.word	1073828097
 1456              		.type	BS_IOPINS0_7_VAL.5009, %object
 1457              		.size	BS_IOPINS0_7_VAL.5009, 8
 1458              	BS_IOPINS0_7_VAL.5009:
 1459 03e8 40       		.byte	64
 1460 03e9 90       		.byte	-112
ARM GAS  C:\Users\mgnocco\AppData\Local\Temp\ccQexeeb.s 			page 43


 1461 03ea 90       		.byte	-112
 1462 03eb 00       		.byte	0
 1463 03ec 90       		.byte	-112
 1464 03ed 00       		.byte	0
 1465 03ee 00       		.byte	0
 1466 03ef 00       		.byte	0
 1467              		.type	BS_IOPINS0_1_VAL.5010, %object
 1468              		.size	BS_IOPINS0_1_VAL.5010, 8
 1469              	BS_IOPINS0_1_VAL.5010:
 1470 03f0 10       		.byte	16
 1471 03f1 14       		.byte	20
 1472 03f2 04       		.byte	4
 1473 03f3 00       		.byte	0
 1474 03f4 14       		.byte	20
 1475 03f5 00       		.byte	0
 1476 03f6 00       		.byte	0
 1477 03f7 00       		.byte	0
 1478              		.type	BS_IOPINS0_3_VAL.5011, %object
 1479              		.size	BS_IOPINS0_3_VAL.5011, 10
 1480              	BS_IOPINS0_3_VAL.5011:
 1481 03f8 00       		.byte	0
 1482 03f9 00       		.byte	0
 1483 03fa 00       		.byte	0
 1484 03fb 01       		.byte	1
 1485 03fc 01       		.byte	1
 1486 03fd 00       		.byte	0
 1487 03fe 00       		.byte	0
 1488 03ff 00       		.byte	0
 1489 0400 00       		.byte	0
 1490 0401 00       		.byte	0
 1491 0402 0000     		.space	2
 1492              		.type	BS_IOPORT_7_VAL.5024, %object
 1493              		.size	BS_IOPORT_7_VAL.5024, 6
 1494              	BS_IOPORT_7_VAL.5024:
 1495 0404 10       		.byte	16
 1496 0405 90       		.byte	-112
 1497 0406 00       		.byte	0
 1498 0407 00       		.byte	0
 1499 0408 40       		.byte	64
 1500 0409 00       		.byte	0
 1501 040a 0000     		.space	2
 1502              		.type	BS_UDB_0_0_0_CONFIG_VAL.5025, %object
 1503              		.size	BS_UDB_0_0_0_CONFIG_VAL.5025, 128
 1504              	BS_UDB_0_0_0_CONFIG_VAL.5025:
 1505 040c CF       		.byte	-49
 1506 040d 08       		.byte	8
 1507 040e 30       		.byte	48
 1508 040f 42       		.byte	66
 1509 0410 C3       		.byte	-61
 1510 0411 00       		.byte	0
 1511 0412 3C       		.byte	60
 1512 0413 08       		.byte	8
 1513 0414 00       		.byte	0
 1514 0415 10       		.byte	16
 1515 0416 00       		.byte	0
 1516 0417 00       		.byte	0
 1517 0418 08       		.byte	8
ARM GAS  C:\Users\mgnocco\AppData\Local\Temp\ccQexeeb.s 			page 44


 1518 0419 20       		.byte	32
 1519 041a 00       		.byte	0
 1520 041b 00       		.byte	0
 1521 041c 00       		.byte	0
 1522 041d 20       		.byte	32
 1523 041e F3       		.byte	-13
 1524 041f 00       		.byte	0
 1525 0420 0C       		.byte	12
 1526 0421 30       		.byte	48
 1527 0422 F3       		.byte	-13
 1528 0423 00       		.byte	0
 1529 0424 3D       		.byte	61
 1530 0425 0F       		.byte	15
 1531 0426 C0       		.byte	-64
 1532 0427 F0       		.byte	-16
 1533 0428 08       		.byte	8
 1534 0429 00       		.byte	0
 1535 042a 00       		.byte	0
 1536 042b 84       		.byte	-124
 1537 042c 02       		.byte	2
 1538 042d 3F       		.byte	63
 1539 042e 20       		.byte	32
 1540 042f C0       		.byte	-64
 1541 0430 04       		.byte	4
 1542 0431 F8       		.byte	-8
 1543 0432 00       		.byte	0
 1544 0433 01       		.byte	1
 1545 0434 0C       		.byte	12
 1546 0435 39       		.byte	57
 1547 0436 00       		.byte	0
 1548 0437 C6       		.byte	-58
 1549 0438 43       		.byte	67
 1550 0439 00       		.byte	0
 1551 043a 10       		.byte	16
 1552 043b C7       		.byte	-57
 1553 043c 40       		.byte	64
 1554 043d 31       		.byte	49
 1555 043e 8C       		.byte	-116
 1556 043f 00       		.byte	0
 1557 0440 3F       		.byte	63
 1558 0441 00       		.byte	0
 1559 0442 00       		.byte	0
 1560 0443 FF       		.byte	-1
 1561 0444 00       		.byte	0
 1562 0445 00       		.byte	0
 1563 0446 28       		.byte	40
 1564 0447 00       		.byte	0
 1565 0448 00       		.byte	0
 1566 0449 00       		.byte	0
 1567 044a 00       		.byte	0
 1568 044b 40       		.byte	64
 1569 044c 21       		.byte	33
 1570 044d 05       		.byte	5
 1571 044e 04       		.byte	4
 1572 044f 00       		.byte	0
 1573 0450 03       		.byte	3
 1574 0451 EC       		.byte	-20
ARM GAS  C:\Users\mgnocco\AppData\Local\Temp\ccQexeeb.s 			page 45


 1575 0452 00       		.byte	0
 1576 0453 00       		.byte	0
 1577 0454 03       		.byte	3
 1578 0455 FF       		.byte	-1
 1579 0456 FF       		.byte	-1
 1580 0457 FF       		.byte	-1
 1581 0458 62       		.byte	98
 1582 0459 A0       		.byte	-96
 1583 045a F0       		.byte	-16
 1584 045b 41       		.byte	65
 1585 045c 0C       		.byte	12
 1586 045d 00       		.byte	0
 1587 045e 00       		.byte	0
 1588 045f 00       		.byte	0
 1589 0460 00       		.byte	0
 1590 0461 00       		.byte	0
 1591 0462 00       		.byte	0
 1592 0463 00       		.byte	0
 1593 0464 04       		.byte	4
 1594 0465 04       		.byte	4
 1595 0466 04       		.byte	4
 1596 0467 04       		.byte	4
 1597 0468 00       		.byte	0
 1598 0469 00       		.byte	0
 1599 046a 00       		.byte	0
 1600 046b 01       		.byte	1
 1601 046c 00       		.byte	0
 1602 046d 00       		.byte	0
 1603 046e 00       		.byte	0
 1604 046f 00       		.byte	0
 1605 0470 00       		.byte	0
 1606 0471 00       		.byte	0
 1607 0472 40       		.byte	64
 1608 0473 02       		.byte	2
 1609 0474 00       		.byte	0
 1610 0475 10       		.byte	16
 1611 0476 30       		.byte	48
 1612 0477 10       		.byte	16
 1613 0478 00       		.byte	0
 1614 0479 10       		.byte	16
 1615 047a 10       		.byte	16
 1616 047b 12       		.byte	18
 1617 047c 00       		.byte	0
 1618 047d 00       		.byte	0
 1619 047e 00       		.byte	0
 1620 047f 00       		.byte	0
 1621 0480 00       		.byte	0
 1622 0481 00       		.byte	0
 1623 0482 00       		.byte	0
 1624 0483 00       		.byte	0
 1625 0484 00       		.byte	0
 1626 0485 00       		.byte	0
 1627 0486 00       		.byte	0
 1628 0487 00       		.byte	0
 1629 0488 00       		.byte	0
 1630 0489 00       		.byte	0
 1631 048a 00       		.byte	0
ARM GAS  C:\Users\mgnocco\AppData\Local\Temp\ccQexeeb.s 			page 46


 1632 048b 00       		.byte	0
 1633              		.text
 1634              	.Letext0:
 1635              		.file 2 "c:\\program files (x86)\\cypress\\psoc creator\\4.4\\psoc creator\\import\\gnu\\arm\\5.4.
 1636              		.file 3 "Generated_Source\\PSoC5\\cytypes.h"
 1637              		.file 4 "Generated_Source\\PSoC5\\CyLib.h"