ARM GAS  C:\Users\mgnocco\AppData\Local\Temp\ccCBpfVX.s 			page 1


   1              		.syntax unified
   2              		.cpu cortex-m3
   3              		.fpu softvfp
   4              		.eabi_attribute 20, 1
   5              		.eabi_attribute 21, 1
   6              		.eabi_attribute 23, 3
   7              		.eabi_attribute 24, 1
   8              		.eabi_attribute 25, 1
   9              		.eabi_attribute 26, 1
  10              		.eabi_attribute 30, 1
  11              		.eabi_attribute 34, 1
  12              		.eabi_attribute 18, 4
  13              		.thumb
  14              		.syntax unified
  15              		.file	"UART_RS485_BOOT.c"
  16              		.text
  17              	.Ltext0:
  18              		.cfi_sections	.debug_frame
  19              		.section	.text.UART_RS485_CyBtldrCommStart,"ax",%progbits
  20              		.align	2
  21              		.global	UART_RS485_CyBtldrCommStart
  22              		.thumb
  23              		.thumb_func
  24              		.type	UART_RS485_CyBtldrCommStart, %function
  25              	UART_RS485_CyBtldrCommStart:
  26              	.LFB0:
  27              		.file 1 "Generated_Source\\PSoC5\\UART_RS485_BOOT.c"
   1:Generated_Source\PSoC5/UART_RS485_BOOT.c **** /*******************************************************************************
   2:Generated_Source\PSoC5/UART_RS485_BOOT.c **** * File Name: UART_RS485_BOOT.c
   3:Generated_Source\PSoC5/UART_RS485_BOOT.c **** * Version 2.50
   4:Generated_Source\PSoC5/UART_RS485_BOOT.c **** *
   5:Generated_Source\PSoC5/UART_RS485_BOOT.c **** * Description:
   6:Generated_Source\PSoC5/UART_RS485_BOOT.c **** *  This file provides the source code of bootloader communication APIs for the
   7:Generated_Source\PSoC5/UART_RS485_BOOT.c **** *  UART component.
   8:Generated_Source\PSoC5/UART_RS485_BOOT.c **** *
   9:Generated_Source\PSoC5/UART_RS485_BOOT.c **** * Note:
  10:Generated_Source\PSoC5/UART_RS485_BOOT.c **** *
  11:Generated_Source\PSoC5/UART_RS485_BOOT.c **** ********************************************************************************
  12:Generated_Source\PSoC5/UART_RS485_BOOT.c **** * Copyright 2008-2015, Cypress Semiconductor Corporation.  All rights reserved.
  13:Generated_Source\PSoC5/UART_RS485_BOOT.c **** * You may use this file only in accordance with the license, terms, conditions,
  14:Generated_Source\PSoC5/UART_RS485_BOOT.c **** * disclaimers, and limitations in the end user license agreement accompanying
  15:Generated_Source\PSoC5/UART_RS485_BOOT.c **** * the software package with which this file was provided.
  16:Generated_Source\PSoC5/UART_RS485_BOOT.c **** *******************************************************************************/
  17:Generated_Source\PSoC5/UART_RS485_BOOT.c **** 
  18:Generated_Source\PSoC5/UART_RS485_BOOT.c **** #include "UART_RS485.h"
  19:Generated_Source\PSoC5/UART_RS485_BOOT.c **** 
  20:Generated_Source\PSoC5/UART_RS485_BOOT.c **** #if defined(CYDEV_BOOTLOADER_IO_COMP) && (0u != ((CYDEV_BOOTLOADER_IO_COMP == CyBtldr_UART_RS485) |
  21:Generated_Source\PSoC5/UART_RS485_BOOT.c ****                                           (CYDEV_BOOTLOADER_IO_COMP == CyBtldr_Custom_Interface)))
  22:Generated_Source\PSoC5/UART_RS485_BOOT.c **** 
  23:Generated_Source\PSoC5/UART_RS485_BOOT.c **** 
  24:Generated_Source\PSoC5/UART_RS485_BOOT.c **** /*******************************************************************************
  25:Generated_Source\PSoC5/UART_RS485_BOOT.c **** * Function Name: UART_RS485_CyBtldrCommStart
  26:Generated_Source\PSoC5/UART_RS485_BOOT.c **** ********************************************************************************
  27:Generated_Source\PSoC5/UART_RS485_BOOT.c **** *
  28:Generated_Source\PSoC5/UART_RS485_BOOT.c **** * Summary:
  29:Generated_Source\PSoC5/UART_RS485_BOOT.c **** *  Starts the UART communication component.
  30:Generated_Source\PSoC5/UART_RS485_BOOT.c **** *
ARM GAS  C:\Users\mgnocco\AppData\Local\Temp\ccCBpfVX.s 			page 2


  31:Generated_Source\PSoC5/UART_RS485_BOOT.c **** * Parameters:
  32:Generated_Source\PSoC5/UART_RS485_BOOT.c **** *  None
  33:Generated_Source\PSoC5/UART_RS485_BOOT.c **** *
  34:Generated_Source\PSoC5/UART_RS485_BOOT.c **** * Return:
  35:Generated_Source\PSoC5/UART_RS485_BOOT.c **** *  None
  36:Generated_Source\PSoC5/UART_RS485_BOOT.c **** *
  37:Generated_Source\PSoC5/UART_RS485_BOOT.c **** * Side Effects:
  38:Generated_Source\PSoC5/UART_RS485_BOOT.c **** *  This component automatically enables global interrupt.
  39:Generated_Source\PSoC5/UART_RS485_BOOT.c **** *
  40:Generated_Source\PSoC5/UART_RS485_BOOT.c **** *******************************************************************************/
  41:Generated_Source\PSoC5/UART_RS485_BOOT.c **** void UART_RS485_CyBtldrCommStart(void) CYSMALL 
  42:Generated_Source\PSoC5/UART_RS485_BOOT.c **** {
  28              		.loc 1 42 0
  29              		.cfi_startproc
  30              		@ args = 0, pretend = 0, frame = 0
  31              		@ frame_needed = 0, uses_anonymous_args = 0
  32 0000 08B5     		push	{r3, lr}
  33              		.cfi_def_cfa_offset 8
  34              		.cfi_offset 3, -8
  35              		.cfi_offset 14, -4
  43:Generated_Source\PSoC5/UART_RS485_BOOT.c ****     /* Start UART component and clear the Tx,Rx buffers */
  44:Generated_Source\PSoC5/UART_RS485_BOOT.c ****     UART_RS485_Start();
  36              		.loc 1 44 0
  37 0002 FFF7FEFF 		bl	UART_RS485_Start
  38              	.LVL0:
  45:Generated_Source\PSoC5/UART_RS485_BOOT.c ****     UART_RS485_ClearRxBuffer();
  39              		.loc 1 45 0
  40 0006 FFF7FEFF 		bl	UART_RS485_ClearRxBuffer
  41              	.LVL1:
  46:Generated_Source\PSoC5/UART_RS485_BOOT.c ****     UART_RS485_ClearTxBuffer();
  42              		.loc 1 46 0
  43 000a FFF7FEFF 		bl	UART_RS485_ClearTxBuffer
  44              	.LVL2:
  45 000e 08BD     		pop	{r3, pc}
  46              		.cfi_endproc
  47              	.LFE0:
  48              		.size	UART_RS485_CyBtldrCommStart, .-UART_RS485_CyBtldrCommStart
  49              		.section	.text.UART_RS485_CyBtldrCommStop,"ax",%progbits
  50              		.align	2
  51              		.global	UART_RS485_CyBtldrCommStop
  52              		.thumb
  53              		.thumb_func
  54              		.type	UART_RS485_CyBtldrCommStop, %function
  55              	UART_RS485_CyBtldrCommStop:
  56              	.LFB1:
  47:Generated_Source\PSoC5/UART_RS485_BOOT.c **** }
  48:Generated_Source\PSoC5/UART_RS485_BOOT.c **** 
  49:Generated_Source\PSoC5/UART_RS485_BOOT.c **** 
  50:Generated_Source\PSoC5/UART_RS485_BOOT.c **** /*******************************************************************************
  51:Generated_Source\PSoC5/UART_RS485_BOOT.c **** * Function Name: UART_RS485_CyBtldrCommStop
  52:Generated_Source\PSoC5/UART_RS485_BOOT.c **** ********************************************************************************
  53:Generated_Source\PSoC5/UART_RS485_BOOT.c **** *
  54:Generated_Source\PSoC5/UART_RS485_BOOT.c **** * Summary:
  55:Generated_Source\PSoC5/UART_RS485_BOOT.c **** *  Disables the communication component and disables the interrupt.
  56:Generated_Source\PSoC5/UART_RS485_BOOT.c **** *
  57:Generated_Source\PSoC5/UART_RS485_BOOT.c **** * Parameters:
  58:Generated_Source\PSoC5/UART_RS485_BOOT.c **** *  None
ARM GAS  C:\Users\mgnocco\AppData\Local\Temp\ccCBpfVX.s 			page 3


  59:Generated_Source\PSoC5/UART_RS485_BOOT.c **** *
  60:Generated_Source\PSoC5/UART_RS485_BOOT.c **** * Return:
  61:Generated_Source\PSoC5/UART_RS485_BOOT.c **** *  None
  62:Generated_Source\PSoC5/UART_RS485_BOOT.c **** *
  63:Generated_Source\PSoC5/UART_RS485_BOOT.c **** *******************************************************************************/
  64:Generated_Source\PSoC5/UART_RS485_BOOT.c **** void UART_RS485_CyBtldrCommStop(void) CYSMALL 
  65:Generated_Source\PSoC5/UART_RS485_BOOT.c **** {
  57              		.loc 1 65 0
  58              		.cfi_startproc
  59              		@ args = 0, pretend = 0, frame = 0
  60              		@ frame_needed = 0, uses_anonymous_args = 0
  61 0000 08B5     		push	{r3, lr}
  62              		.cfi_def_cfa_offset 8
  63              		.cfi_offset 3, -8
  64              		.cfi_offset 14, -4
  66:Generated_Source\PSoC5/UART_RS485_BOOT.c ****     /* Stop UART component */
  67:Generated_Source\PSoC5/UART_RS485_BOOT.c ****     UART_RS485_Stop();
  65              		.loc 1 67 0
  66 0002 FFF7FEFF 		bl	UART_RS485_Stop
  67              	.LVL3:
  68 0006 08BD     		pop	{r3, pc}
  69              		.cfi_endproc
  70              	.LFE1:
  71              		.size	UART_RS485_CyBtldrCommStop, .-UART_RS485_CyBtldrCommStop
  72              		.section	.text.UART_RS485_CyBtldrCommReset,"ax",%progbits
  73              		.align	2
  74              		.global	UART_RS485_CyBtldrCommReset
  75              		.thumb
  76              		.thumb_func
  77              		.type	UART_RS485_CyBtldrCommReset, %function
  78              	UART_RS485_CyBtldrCommReset:
  79              	.LFB2:
  68:Generated_Source\PSoC5/UART_RS485_BOOT.c **** }
  69:Generated_Source\PSoC5/UART_RS485_BOOT.c **** 
  70:Generated_Source\PSoC5/UART_RS485_BOOT.c **** 
  71:Generated_Source\PSoC5/UART_RS485_BOOT.c **** /*******************************************************************************
  72:Generated_Source\PSoC5/UART_RS485_BOOT.c **** * Function Name: UART_RS485_CyBtldrCommReset
  73:Generated_Source\PSoC5/UART_RS485_BOOT.c **** ********************************************************************************
  74:Generated_Source\PSoC5/UART_RS485_BOOT.c **** *
  75:Generated_Source\PSoC5/UART_RS485_BOOT.c **** * Summary:
  76:Generated_Source\PSoC5/UART_RS485_BOOT.c **** *  Resets the receive and transmit communication Buffers.
  77:Generated_Source\PSoC5/UART_RS485_BOOT.c **** *
  78:Generated_Source\PSoC5/UART_RS485_BOOT.c **** * Parameters:
  79:Generated_Source\PSoC5/UART_RS485_BOOT.c **** *  None
  80:Generated_Source\PSoC5/UART_RS485_BOOT.c **** *
  81:Generated_Source\PSoC5/UART_RS485_BOOT.c **** * Return:
  82:Generated_Source\PSoC5/UART_RS485_BOOT.c **** *  None
  83:Generated_Source\PSoC5/UART_RS485_BOOT.c **** *
  84:Generated_Source\PSoC5/UART_RS485_BOOT.c **** *******************************************************************************/
  85:Generated_Source\PSoC5/UART_RS485_BOOT.c **** void UART_RS485_CyBtldrCommReset(void) CYSMALL 
  86:Generated_Source\PSoC5/UART_RS485_BOOT.c **** {
  80              		.loc 1 86 0
  81              		.cfi_startproc
  82              		@ args = 0, pretend = 0, frame = 0
  83              		@ frame_needed = 0, uses_anonymous_args = 0
  84 0000 08B5     		push	{r3, lr}
  85              		.cfi_def_cfa_offset 8
ARM GAS  C:\Users\mgnocco\AppData\Local\Temp\ccCBpfVX.s 			page 4


  86              		.cfi_offset 3, -8
  87              		.cfi_offset 14, -4
  87:Generated_Source\PSoC5/UART_RS485_BOOT.c ****     /* Clear RX and TX buffers */
  88:Generated_Source\PSoC5/UART_RS485_BOOT.c ****     UART_RS485_ClearRxBuffer();
  88              		.loc 1 88 0
  89 0002 FFF7FEFF 		bl	UART_RS485_ClearRxBuffer
  90              	.LVL4:
  89:Generated_Source\PSoC5/UART_RS485_BOOT.c ****     UART_RS485_ClearTxBuffer();
  91              		.loc 1 89 0
  92 0006 FFF7FEFF 		bl	UART_RS485_ClearTxBuffer
  93              	.LVL5:
  94 000a 08BD     		pop	{r3, pc}
  95              		.cfi_endproc
  96              	.LFE2:
  97              		.size	UART_RS485_CyBtldrCommReset, .-UART_RS485_CyBtldrCommReset
  98              		.section	.text.UART_RS485_CyBtldrCommWrite,"ax",%progbits
  99              		.align	2
 100              		.global	UART_RS485_CyBtldrCommWrite
 101              		.thumb
 102              		.thumb_func
 103              		.type	UART_RS485_CyBtldrCommWrite, %function
 104              	UART_RS485_CyBtldrCommWrite:
 105              	.LFB3:
  90:Generated_Source\PSoC5/UART_RS485_BOOT.c **** }
  91:Generated_Source\PSoC5/UART_RS485_BOOT.c **** 
  92:Generated_Source\PSoC5/UART_RS485_BOOT.c **** 
  93:Generated_Source\PSoC5/UART_RS485_BOOT.c **** /*******************************************************************************
  94:Generated_Source\PSoC5/UART_RS485_BOOT.c **** * Function Name: UART_RS485_CyBtldrCommWrite
  95:Generated_Source\PSoC5/UART_RS485_BOOT.c **** ********************************************************************************
  96:Generated_Source\PSoC5/UART_RS485_BOOT.c **** *
  97:Generated_Source\PSoC5/UART_RS485_BOOT.c **** * Summary:
  98:Generated_Source\PSoC5/UART_RS485_BOOT.c **** *  Allows the caller to write data to the boot loader host. This function uses
  99:Generated_Source\PSoC5/UART_RS485_BOOT.c **** * a blocking write function for writing data using UART communication component.
 100:Generated_Source\PSoC5/UART_RS485_BOOT.c **** *
 101:Generated_Source\PSoC5/UART_RS485_BOOT.c **** * Parameters:
 102:Generated_Source\PSoC5/UART_RS485_BOOT.c **** *  pData:    A pointer to the block of data to send to the device
 103:Generated_Source\PSoC5/UART_RS485_BOOT.c **** *  size:     The number of bytes to write.
 104:Generated_Source\PSoC5/UART_RS485_BOOT.c **** *  count:    Pointer to an unsigned short variable to write the number of
 105:Generated_Source\PSoC5/UART_RS485_BOOT.c **** *             bytes actually written.
 106:Generated_Source\PSoC5/UART_RS485_BOOT.c **** *  timeOut:  Number of units to wait before returning because of a timeout.
 107:Generated_Source\PSoC5/UART_RS485_BOOT.c **** *
 108:Generated_Source\PSoC5/UART_RS485_BOOT.c **** * Return:
 109:Generated_Source\PSoC5/UART_RS485_BOOT.c **** *   cystatus: This function will return CYRET_SUCCESS if data is sent
 110:Generated_Source\PSoC5/UART_RS485_BOOT.c **** *             successfully.
 111:Generated_Source\PSoC5/UART_RS485_BOOT.c **** *
 112:Generated_Source\PSoC5/UART_RS485_BOOT.c **** * Side Effects:
 113:Generated_Source\PSoC5/UART_RS485_BOOT.c **** *  This function should be called after command was received .
 114:Generated_Source\PSoC5/UART_RS485_BOOT.c **** *
 115:Generated_Source\PSoC5/UART_RS485_BOOT.c **** *******************************************************************************/
 116:Generated_Source\PSoC5/UART_RS485_BOOT.c **** cystatus UART_RS485_CyBtldrCommWrite(const uint8 pData[], uint16 size, uint16 * count, uint8 timeOu
 117:Generated_Source\PSoC5/UART_RS485_BOOT.c ****          
 118:Generated_Source\PSoC5/UART_RS485_BOOT.c **** {
 106              		.loc 1 118 0
 107              		.cfi_startproc
 108              		@ args = 0, pretend = 0, frame = 0
 109              		@ frame_needed = 0, uses_anonymous_args = 0
 110              	.LVL6:
ARM GAS  C:\Users\mgnocco\AppData\Local\Temp\ccCBpfVX.s 			page 5


 111 0000 F8B5     		push	{r3, r4, r5, r6, r7, lr}
 112              		.cfi_def_cfa_offset 24
 113              		.cfi_offset 3, -24
 114              		.cfi_offset 4, -20
 115              		.cfi_offset 5, -16
 116              		.cfi_offset 6, -12
 117              		.cfi_offset 7, -8
 118              		.cfi_offset 14, -4
 119 0002 0646     		mov	r6, r0
 120 0004 0D46     		mov	r5, r1
 121 0006 1746     		mov	r7, r2
 122              	.LVL7:
 119:Generated_Source\PSoC5/UART_RS485_BOOT.c ****     uint16 bufIndex = 0u;
 120:Generated_Source\PSoC5/UART_RS485_BOOT.c **** 
 121:Generated_Source\PSoC5/UART_RS485_BOOT.c ****     if(0u != timeOut)
 122:Generated_Source\PSoC5/UART_RS485_BOOT.c ****     {
 123:Generated_Source\PSoC5/UART_RS485_BOOT.c ****         /* Suppress compiler warning */
 124:Generated_Source\PSoC5/UART_RS485_BOOT.c ****     }
 125:Generated_Source\PSoC5/UART_RS485_BOOT.c **** 
 126:Generated_Source\PSoC5/UART_RS485_BOOT.c ****     /* Clear receive buffers */
 127:Generated_Source\PSoC5/UART_RS485_BOOT.c ****     UART_RS485_ClearRxBuffer();
 123              		.loc 1 127 0
 124 0008 FFF7FEFF 		bl	UART_RS485_ClearRxBuffer
 125              	.LVL8:
 119:Generated_Source\PSoC5/UART_RS485_BOOT.c ****     uint16 bufIndex = 0u;
 126              		.loc 1 119 0
 127 000c 0024     		movs	r4, #0
 128:Generated_Source\PSoC5/UART_RS485_BOOT.c **** 
 129:Generated_Source\PSoC5/UART_RS485_BOOT.c ****     /* Write TX data using blocking function */
 130:Generated_Source\PSoC5/UART_RS485_BOOT.c ****     while(bufIndex < size)
 128              		.loc 1 130 0
 129 000e 04E0     		b	.L8
 130              	.LVL9:
 131              	.L9:
 131:Generated_Source\PSoC5/UART_RS485_BOOT.c ****     {
 132:Generated_Source\PSoC5/UART_RS485_BOOT.c ****         UART_RS485_PutChar(pData[bufIndex]);
 132              		.loc 1 132 0
 133 0010 305D     		ldrb	r0, [r6, r4]	@ zero_extendqisi2
 134 0012 FFF7FEFF 		bl	UART_RS485_PutChar
 135              	.LVL10:
 133:Generated_Source\PSoC5/UART_RS485_BOOT.c ****         bufIndex++;
 136              		.loc 1 133 0
 137 0016 0134     		adds	r4, r4, #1
 138              	.LVL11:
 139 0018 A4B2     		uxth	r4, r4
 140              	.LVL12:
 141              	.L8:
 130:Generated_Source\PSoC5/UART_RS485_BOOT.c ****     {
 142              		.loc 1 130 0
 143 001a AC42     		cmp	r4, r5
 144 001c F8D3     		bcc	.L9
 134:Generated_Source\PSoC5/UART_RS485_BOOT.c ****     }
 135:Generated_Source\PSoC5/UART_RS485_BOOT.c **** 
 136:Generated_Source\PSoC5/UART_RS485_BOOT.c ****     /* Return success code */
 137:Generated_Source\PSoC5/UART_RS485_BOOT.c ****     *count = size;
 145              		.loc 1 137 0
 146 001e 3D80     		strh	r5, [r7]	@ movhi
ARM GAS  C:\Users\mgnocco\AppData\Local\Temp\ccCBpfVX.s 			page 6


 138:Generated_Source\PSoC5/UART_RS485_BOOT.c **** 
 139:Generated_Source\PSoC5/UART_RS485_BOOT.c ****     return (CYRET_SUCCESS);
 140:Generated_Source\PSoC5/UART_RS485_BOOT.c **** }
 147              		.loc 1 140 0
 148 0020 0020     		movs	r0, #0
 149 0022 F8BD     		pop	{r3, r4, r5, r6, r7, pc}
 150              		.cfi_endproc
 151              	.LFE3:
 152              		.size	UART_RS485_CyBtldrCommWrite, .-UART_RS485_CyBtldrCommWrite
 153              		.section	.text.UART_RS485_CyBtldrCommRead,"ax",%progbits
 154              		.align	2
 155              		.global	UART_RS485_CyBtldrCommRead
 156              		.thumb
 157              		.thumb_func
 158              		.type	UART_RS485_CyBtldrCommRead, %function
 159              	UART_RS485_CyBtldrCommRead:
 160              	.LFB4:
 141:Generated_Source\PSoC5/UART_RS485_BOOT.c **** 
 142:Generated_Source\PSoC5/UART_RS485_BOOT.c **** 
 143:Generated_Source\PSoC5/UART_RS485_BOOT.c **** /*******************************************************************************
 144:Generated_Source\PSoC5/UART_RS485_BOOT.c **** * Function Name: UART_RS485_CyBtldrCommRead
 145:Generated_Source\PSoC5/UART_RS485_BOOT.c **** ********************************************************************************
 146:Generated_Source\PSoC5/UART_RS485_BOOT.c **** *
 147:Generated_Source\PSoC5/UART_RS485_BOOT.c **** * Summary:
 148:Generated_Source\PSoC5/UART_RS485_BOOT.c **** *  Receives the command.
 149:Generated_Source\PSoC5/UART_RS485_BOOT.c **** *
 150:Generated_Source\PSoC5/UART_RS485_BOOT.c **** * Parameters:
 151:Generated_Source\PSoC5/UART_RS485_BOOT.c **** *  pData:    A pointer to the area to store the block of data received
 152:Generated_Source\PSoC5/UART_RS485_BOOT.c **** *             from the device.
 153:Generated_Source\PSoC5/UART_RS485_BOOT.c **** *  size:     Maximum size of the read buffer
 154:Generated_Source\PSoC5/UART_RS485_BOOT.c **** *  count:    Pointer to an unsigned short variable to write the number
 155:Generated_Source\PSoC5/UART_RS485_BOOT.c **** *             of bytes actually read.
 156:Generated_Source\PSoC5/UART_RS485_BOOT.c **** *  timeOut:  Number of units to wait before returning because of a timeOut.
 157:Generated_Source\PSoC5/UART_RS485_BOOT.c **** *            Time out is measured in 10s of ms.
 158:Generated_Source\PSoC5/UART_RS485_BOOT.c **** *
 159:Generated_Source\PSoC5/UART_RS485_BOOT.c **** * Return:
 160:Generated_Source\PSoC5/UART_RS485_BOOT.c **** *  cystatus: This function will return CYRET_SUCCESS if at least one byte is
 161:Generated_Source\PSoC5/UART_RS485_BOOT.c **** *            received successfully within the time out interval. If no data is
 162:Generated_Source\PSoC5/UART_RS485_BOOT.c **** *            received  this function will return CYRET_EMPTY.
 163:Generated_Source\PSoC5/UART_RS485_BOOT.c **** *
 164:Generated_Source\PSoC5/UART_RS485_BOOT.c **** *  BYTE2BYTE_TIME_OUT is used for detecting time out marking end of block data
 165:Generated_Source\PSoC5/UART_RS485_BOOT.c **** *  from host. This has to be set to a value which is greater than the expected
 166:Generated_Source\PSoC5/UART_RS485_BOOT.c **** *  maximum delay between two bytes during a block/packet transmission from the
 167:Generated_Source\PSoC5/UART_RS485_BOOT.c **** *  host. You have to account for the delay in hardware converters while
 168:Generated_Source\PSoC5/UART_RS485_BOOT.c **** *  calculating this value, if you are using any USB-UART bridges.
 169:Generated_Source\PSoC5/UART_RS485_BOOT.c **** *******************************************************************************/
 170:Generated_Source\PSoC5/UART_RS485_BOOT.c **** cystatus UART_RS485_CyBtldrCommRead(uint8 pData[], uint16 size, uint16 * count, uint8 timeOut) CYSM
 171:Generated_Source\PSoC5/UART_RS485_BOOT.c ****          
 172:Generated_Source\PSoC5/UART_RS485_BOOT.c **** {
 161              		.loc 1 172 0
 162              		.cfi_startproc
 163              		@ args = 0, pretend = 0, frame = 0
 164              		@ frame_needed = 0, uses_anonymous_args = 0
 165              	.LVL13:
 166 0000 2DE9F047 		push	{r4, r5, r6, r7, r8, r9, r10, lr}
 167              		.cfi_def_cfa_offset 32
 168              		.cfi_offset 4, -32
ARM GAS  C:\Users\mgnocco\AppData\Local\Temp\ccCBpfVX.s 			page 7


 169              		.cfi_offset 5, -28
 170              		.cfi_offset 6, -24
 171              		.cfi_offset 7, -20
 172              		.cfi_offset 8, -16
 173              		.cfi_offset 9, -12
 174              		.cfi_offset 10, -8
 175              		.cfi_offset 14, -4
 176 0004 0746     		mov	r7, r0
 177 0006 8946     		mov	r9, r1
 178 0008 9046     		mov	r8, r2
 179 000a 1D46     		mov	r5, r3
 180              	.LVL14:
 173:Generated_Source\PSoC5/UART_RS485_BOOT.c ****     uint16 iCntr;
 174:Generated_Source\PSoC5/UART_RS485_BOOT.c ****     uint16 dataIndexCntr;
 175:Generated_Source\PSoC5/UART_RS485_BOOT.c ****     uint16 tempCount;
 176:Generated_Source\PSoC5/UART_RS485_BOOT.c ****     uint16 oldDataCount;
 177:Generated_Source\PSoC5/UART_RS485_BOOT.c **** 
 178:Generated_Source\PSoC5/UART_RS485_BOOT.c ****     cystatus status = CYRET_EMPTY;
 179:Generated_Source\PSoC5/UART_RS485_BOOT.c **** 
 180:Generated_Source\PSoC5/UART_RS485_BOOT.c ****     /* Check whether data is received within the time out period.
 181:Generated_Source\PSoC5/UART_RS485_BOOT.c ****     *  Time out period is in units of 10ms.
 182:Generated_Source\PSoC5/UART_RS485_BOOT.c ****     *  If at least one byte is received within the time out interval, wait for more data */
 183:Generated_Source\PSoC5/UART_RS485_BOOT.c ****     for (iCntr = 0u; iCntr < ((uint16)10u * timeOut); iCntr++)
 181              		.loc 1 183 0
 182 000c 0024     		movs	r4, #0
 183 000e 14E0     		b	.L12
 184              	.LVL15:
 185              	.L16:
 184:Generated_Source\PSoC5/UART_RS485_BOOT.c ****     {
 185:Generated_Source\PSoC5/UART_RS485_BOOT.c ****         /* If at least one byte is received within the timeout interval
 186:Generated_Source\PSoC5/UART_RS485_BOOT.c ****         *  enter the next loop waiting for more data reception
 187:Generated_Source\PSoC5/UART_RS485_BOOT.c ****         */
 188:Generated_Source\PSoC5/UART_RS485_BOOT.c ****         if(0u != UART_RS485_GetRxBufferSize())
 186              		.loc 1 188 0
 187 0010 FFF7FEFF 		bl	UART_RS485_GetRxBufferSize
 188              	.LVL16:
 189 0014 60B1     		cbz	r0, .L13
 190              	.LVL17:
 191              	.L14:
 189:Generated_Source\PSoC5/UART_RS485_BOOT.c ****         {
 190:Generated_Source\PSoC5/UART_RS485_BOOT.c ****             /* Wait for more data until 25ms byte to byte time out interval.
 191:Generated_Source\PSoC5/UART_RS485_BOOT.c ****             * If no data is received during the last 25 ms(BYTE2BYTE_TIME_OUT)
 192:Generated_Source\PSoC5/UART_RS485_BOOT.c ****             * then it is considered as end of transmitted data block(packet)
 193:Generated_Source\PSoC5/UART_RS485_BOOT.c ****             * from the host and the program execution will break from the
 194:Generated_Source\PSoC5/UART_RS485_BOOT.c ****             * data awaiting loop with status=CYRET_SUCCESS
 195:Generated_Source\PSoC5/UART_RS485_BOOT.c ****             */
 196:Generated_Source\PSoC5/UART_RS485_BOOT.c ****             do
 197:Generated_Source\PSoC5/UART_RS485_BOOT.c ****             {
 198:Generated_Source\PSoC5/UART_RS485_BOOT.c ****                 oldDataCount = UART_RS485_GetRxBufferSize();
 192              		.loc 1 198 0 discriminator 1
 193 0016 FFF7FEFF 		bl	UART_RS485_GetRxBufferSize
 194              	.LVL18:
 195 001a 0446     		mov	r4, r0
 196              	.LVL19:
 199:Generated_Source\PSoC5/UART_RS485_BOOT.c ****                 CyDelay(UART_RS485_BYTE2BYTE_TIME_OUT);
 197              		.loc 1 199 0 discriminator 1
 198 001c 1920     		movs	r0, #25
ARM GAS  C:\Users\mgnocco\AppData\Local\Temp\ccCBpfVX.s 			page 8


 199 001e FFF7FEFF 		bl	CyDelay
 200              	.LVL20:
 200:Generated_Source\PSoC5/UART_RS485_BOOT.c ****             }
 201:Generated_Source\PSoC5/UART_RS485_BOOT.c ****             while(UART_RS485_GetRxBufferSize() > oldDataCount);
 201              		.loc 1 201 0 discriminator 1
 202 0022 FFF7FEFF 		bl	UART_RS485_GetRxBufferSize
 203              	.LVL21:
 204 0026 8442     		cmp	r4, r0
 205 0028 F5D3     		bcc	.L14
 202:Generated_Source\PSoC5/UART_RS485_BOOT.c **** 
 203:Generated_Source\PSoC5/UART_RS485_BOOT.c ****             status = CYRET_SUCCESS;
 206              		.loc 1 203 0
 207 002a 4FF0000A 		mov	r10, #0
 208 002e 0BE0     		b	.L15
 209              	.LVL22:
 210              	.L13:
 204:Generated_Source\PSoC5/UART_RS485_BOOT.c ****             break;
 205:Generated_Source\PSoC5/UART_RS485_BOOT.c ****         }
 206:Generated_Source\PSoC5/UART_RS485_BOOT.c ****         /* If the data is not received, give a delay of 
 207:Generated_Source\PSoC5/UART_RS485_BOOT.c ****         *  UART_RS485_BL_CHK_DELAY_MS and check again until the timeOut specified.
 208:Generated_Source\PSoC5/UART_RS485_BOOT.c ****         */
 209:Generated_Source\PSoC5/UART_RS485_BOOT.c ****         else
 210:Generated_Source\PSoC5/UART_RS485_BOOT.c ****         {
 211:Generated_Source\PSoC5/UART_RS485_BOOT.c ****             CyDelay(UART_RS485_BL_CHK_DELAY_MS);
 211              		.loc 1 211 0 discriminator 2
 212 0030 0120     		movs	r0, #1
 213 0032 FFF7FEFF 		bl	CyDelay
 214              	.LVL23:
 183:Generated_Source\PSoC5/UART_RS485_BOOT.c ****     {
 215              		.loc 1 183 0 discriminator 2
 216 0036 0134     		adds	r4, r4, #1
 217              	.LVL24:
 218 0038 A4B2     		uxth	r4, r4
 219              	.LVL25:
 220              	.L12:
 183:Generated_Source\PSoC5/UART_RS485_BOOT.c ****     {
 221              		.loc 1 183 0 is_stmt 0 discriminator 1
 222 003a 05EB8502 		add	r2, r5, r5, lsl #2
 223 003e 5300     		lsls	r3, r2, #1
 224 0040 9C42     		cmp	r4, r3
 225 0042 E5DB     		blt	.L16
 178:Generated_Source\PSoC5/UART_RS485_BOOT.c **** 
 226              		.loc 1 178 0 is_stmt 1
 227 0044 4FF0050A 		mov	r10, #5
 228              	.LVL26:
 229              	.L15:
 212:Generated_Source\PSoC5/UART_RS485_BOOT.c ****         }
 213:Generated_Source\PSoC5/UART_RS485_BOOT.c ****     }
 214:Generated_Source\PSoC5/UART_RS485_BOOT.c **** 
 215:Generated_Source\PSoC5/UART_RS485_BOOT.c ****     /* Initialize the data read indexes and Count value */
 216:Generated_Source\PSoC5/UART_RS485_BOOT.c ****     *count = 0u;
 230              		.loc 1 216 0
 231 0048 0025     		movs	r5, #0
 232 004a A8F80050 		strh	r5, [r8]	@ movhi
 233              	.LVL27:
 217:Generated_Source\PSoC5/UART_RS485_BOOT.c ****     dataIndexCntr = 0u;
 218:Generated_Source\PSoC5/UART_RS485_BOOT.c **** 
ARM GAS  C:\Users\mgnocco\AppData\Local\Temp\ccCBpfVX.s 			page 9


 219:Generated_Source\PSoC5/UART_RS485_BOOT.c ****     /* If GetRxBufferSize()>0 , move the received data to the pData buffer */
 220:Generated_Source\PSoC5/UART_RS485_BOOT.c ****     while(UART_RS485_GetRxBufferSize() > 0u)
 234              		.loc 1 220 0
 235 004e 22E0     		b	.L17
 236              	.LVL28:
 237              	.L23:
 221:Generated_Source\PSoC5/UART_RS485_BOOT.c ****     {
 222:Generated_Source\PSoC5/UART_RS485_BOOT.c ****         tempCount = UART_RS485_GetRxBufferSize();
 238              		.loc 1 222 0
 239 0050 FFF7FEFF 		bl	UART_RS485_GetRxBufferSize
 240              	.LVL29:
 241 0054 86B2     		uxth	r6, r0
 242              	.LVL30:
 223:Generated_Source\PSoC5/UART_RS485_BOOT.c ****         *count  =(*count) + tempCount;
 243              		.loc 1 223 0
 244 0056 B8F80020 		ldrh	r2, [r8]
 245 005a B318     		adds	r3, r6, r2
 246 005c 9BB2     		uxth	r3, r3
 247 005e A8F80030 		strh	r3, [r8]	@ movhi
 224:Generated_Source\PSoC5/UART_RS485_BOOT.c **** 
 225:Generated_Source\PSoC5/UART_RS485_BOOT.c ****         /* Check if buffer overflow will occur before moving the data */
 226:Generated_Source\PSoC5/UART_RS485_BOOT.c ****         if(*count < size)
 248              		.loc 1 226 0
 249 0062 4B45     		cmp	r3, r9
 250 0064 08D3     		bcc	.L24
 251 0066 13E0     		b	.L25
 252              	.LVL31:
 253              	.L20:
 227:Generated_Source\PSoC5/UART_RS485_BOOT.c ****         {
 228:Generated_Source\PSoC5/UART_RS485_BOOT.c ****             for (iCntr = 0u; iCntr < tempCount; iCntr++)
 229:Generated_Source\PSoC5/UART_RS485_BOOT.c ****             {
 230:Generated_Source\PSoC5/UART_RS485_BOOT.c ****                 /* Read the data and move it to the pData buffer */
 231:Generated_Source\PSoC5/UART_RS485_BOOT.c ****                 pData[dataIndexCntr] = UART_RS485_ReadRxData();
 254              		.loc 1 231 0 discriminator 3
 255 0068 FFF7FEFF 		bl	UART_RS485_ReadRxData
 256              	.LVL32:
 257 006c 7855     		strb	r0, [r7, r5]
 232:Generated_Source\PSoC5/UART_RS485_BOOT.c ****                 dataIndexCntr++;
 258              		.loc 1 232 0 discriminator 3
 259 006e 0135     		adds	r5, r5, #1
 260              	.LVL33:
 261 0070 ADB2     		uxth	r5, r5
 262              	.LVL34:
 228:Generated_Source\PSoC5/UART_RS485_BOOT.c ****             {
 263              		.loc 1 228 0 discriminator 3
 264 0072 0134     		adds	r4, r4, #1
 265              	.LVL35:
 266 0074 A4B2     		uxth	r4, r4
 267              	.LVL36:
 268 0076 00E0     		b	.L18
 269              	.LVL37:
 270              	.L24:
 271 0078 0024     		movs	r4, #0
 272              	.L18:
 273              	.LVL38:
 228:Generated_Source\PSoC5/UART_RS485_BOOT.c ****             {
 274              		.loc 1 228 0 is_stmt 0 discriminator 1
ARM GAS  C:\Users\mgnocco\AppData\Local\Temp\ccCBpfVX.s 			page 10


 275 007a B442     		cmp	r4, r6
 276 007c F4D3     		bcc	.L20
 233:Generated_Source\PSoC5/UART_RS485_BOOT.c ****             }
 234:Generated_Source\PSoC5/UART_RS485_BOOT.c **** 
 235:Generated_Source\PSoC5/UART_RS485_BOOT.c ****             /* Check if the last received byte is end of packet defined by bootloader
 236:Generated_Source\PSoC5/UART_RS485_BOOT.c ****             *  If not wait for additional UART_RS485_WAIT_EOP_DELAY ms.
 237:Generated_Source\PSoC5/UART_RS485_BOOT.c ****             */
 238:Generated_Source\PSoC5/UART_RS485_BOOT.c ****             if(pData[dataIndexCntr - 1u] != UART_RS485_PACKET_EOP)
 277              		.loc 1 238 0 is_stmt 1
 278 007e 7B19     		adds	r3, r7, r5
 279 0080 13F8013C 		ldrb	r3, [r3, #-1]	@ zero_extendqisi2
 280 0084 172B     		cmp	r3, #23
 281 0086 06D0     		beq	.L17
 239:Generated_Source\PSoC5/UART_RS485_BOOT.c ****             {
 240:Generated_Source\PSoC5/UART_RS485_BOOT.c ****                 CyDelay(UART_RS485_WAIT_EOP_DELAY);
 282              		.loc 1 240 0
 283 0088 0520     		movs	r0, #5
 284 008a FFF7FEFF 		bl	CyDelay
 285              	.LVL39:
 286 008e 02E0     		b	.L17
 287              	.LVL40:
 288              	.L25:
 241:Generated_Source\PSoC5/UART_RS485_BOOT.c ****             }
 242:Generated_Source\PSoC5/UART_RS485_BOOT.c ****         }
 243:Generated_Source\PSoC5/UART_RS485_BOOT.c ****         /* If there is no space to move data, break from the loop */
 244:Generated_Source\PSoC5/UART_RS485_BOOT.c ****         else
 245:Generated_Source\PSoC5/UART_RS485_BOOT.c ****         {
 246:Generated_Source\PSoC5/UART_RS485_BOOT.c ****             *count = (*count) - tempCount;
 289              		.loc 1 246 0
 290 0090 A8F80020 		strh	r2, [r8]	@ movhi
 247:Generated_Source\PSoC5/UART_RS485_BOOT.c ****             break;
 291              		.loc 1 247 0
 292 0094 03E0     		b	.L22
 293              	.LVL41:
 294              	.L17:
 220:Generated_Source\PSoC5/UART_RS485_BOOT.c ****     {
 295              		.loc 1 220 0
 296 0096 FFF7FEFF 		bl	UART_RS485_GetRxBufferSize
 297              	.LVL42:
 298 009a 0028     		cmp	r0, #0
 299 009c D8D1     		bne	.L23
 300              	.L22:
 248:Generated_Source\PSoC5/UART_RS485_BOOT.c ****         }
 249:Generated_Source\PSoC5/UART_RS485_BOOT.c ****     }
 250:Generated_Source\PSoC5/UART_RS485_BOOT.c **** 
 251:Generated_Source\PSoC5/UART_RS485_BOOT.c ****     return (status);
 252:Generated_Source\PSoC5/UART_RS485_BOOT.c **** }
 301              		.loc 1 252 0
 302 009e 5046     		mov	r0, r10
 303 00a0 BDE8F087 		pop	{r4, r5, r6, r7, r8, r9, r10, pc}
 304              		.cfi_endproc
 305              	.LFE4:
 306              		.size	UART_RS485_CyBtldrCommRead, .-UART_RS485_CyBtldrCommRead
 307              		.text
 308              	.Letext0:
 309              		.file 2 "Generated_Source\\PSoC5\\cytypes.h"
 310              		.file 3 "Generated_Source\\PSoC5\\UART_RS485.h"
ARM GAS  C:\Users\mgnocco\AppData\Local\Temp\ccCBpfVX.s 			page 11


 311              		.file 4 "Generated_Source\\PSoC5\\CyLib.h"