ARM GAS  C:\Users\mgnocco\AppData\Local\Temp\cczULO9j.s 			page 1


   1              		.syntax unified
   2              		.cpu cortex-m3
   3              		.fpu softvfp
   4              		.eabi_attribute 20, 1
   5              		.eabi_attribute 21, 1
   6              		.eabi_attribute 23, 3
   7              		.eabi_attribute 24, 1
   8              		.eabi_attribute 25, 1
   9              		.eabi_attribute 26, 1
  10              		.eabi_attribute 30, 6
  11              		.eabi_attribute 34, 1
  12              		.eabi_attribute 18, 4
  13              		.thumb
  14              		.syntax unified
  15              		.file	"Encoder_functions.c"
  16              		.text
  17              	.Ltext0:
  18              		.cfi_sections	.debug_frame
  19              		.section	.text.Change_CS_EncoderLine,"ax",%progbits
  20              		.align	2
  21              		.global	Change_CS_EncoderLine
  22              		.thumb
  23              		.thumb_func
  24              		.type	Change_CS_EncoderLine, %function
  25              	Change_CS_EncoderLine:
  26              	.LFB64:
  27              		.file 1 "..\\src\\Encoder_functions.c"
   1:..\src/Encoder_functions.c **** // ----------------------------------------------------------------------------
   2:..\src/Encoder_functions.c **** // BSD 3-Clause License
   3:..\src/Encoder_functions.c **** 
   4:..\src/Encoder_functions.c **** // Copyright (c) 2016, qbrobotics
   5:..\src/Encoder_functions.c **** // Copyright (c) 2017-2020, Centro "E.Piaggio"
   6:..\src/Encoder_functions.c **** // All rights reserved.
   7:..\src/Encoder_functions.c **** 
   8:..\src/Encoder_functions.c **** // Redistribution and use in source and binary forms, with or without
   9:..\src/Encoder_functions.c **** // modification, are permitted provided that the following conditions are met:
  10:..\src/Encoder_functions.c **** 
  11:..\src/Encoder_functions.c **** // * Redistributions of source code must retain the above copyright notice, this
  12:..\src/Encoder_functions.c **** //   list of conditions and the following disclaimer.
  13:..\src/Encoder_functions.c **** 
  14:..\src/Encoder_functions.c **** // * Redistributions in binary form must reproduce the above copyright notice,
  15:..\src/Encoder_functions.c **** //   this list of conditions and the following disclaimer in the documentation
  16:..\src/Encoder_functions.c **** //   and/or other materials provided with the distribution.
  17:..\src/Encoder_functions.c **** 
  18:..\src/Encoder_functions.c **** // * Neither the name of the copyright holder nor the names of its
  19:..\src/Encoder_functions.c **** //   contributors may be used to endorse or promote products derived from
  20:..\src/Encoder_functions.c **** //   this software without specific prior written permission.
  21:..\src/Encoder_functions.c **** 
  22:..\src/Encoder_functions.c **** // THIS SOFTWARE IS PROVIDED BY THE COPYRIGHT HOLDERS AND CONTRIBUTORS "AS IS"
  23:..\src/Encoder_functions.c **** // AND ANY EXPRESS OR IMPLIED WARRANTIES, INCLUDING, BUT NOT LIMITED TO, THE
  24:..\src/Encoder_functions.c **** // IMPLIED WARRANTIES OF MERCHANTABILITY AND FITNESS FOR A PARTICULAR PURPOSE ARE
  25:..\src/Encoder_functions.c **** // DISCLAIMED. IN NO EVENT SHALL THE COPYRIGHT HOLDER OR CONTRIBUTORS BE LIABLE
  26:..\src/Encoder_functions.c **** // FOR ANY DIRECT, INDIRECT, INCIDENTAL, SPECIAL, EXEMPLARY, OR CONSEQUENTIAL
  27:..\src/Encoder_functions.c **** // DAMAGES (INCLUDING, BUT NOT LIMITED TO, PROCUREMENT OF SUBSTITUTE GOODS OR
  28:..\src/Encoder_functions.c **** // SERVICES; LOSS OF USE, DATA, OR PROFITS; OR BUSINESS INTERRUPTION) HOWEVER
  29:..\src/Encoder_functions.c **** // CAUSED AND ON ANY THEORY OF LIABILITY, WHETHER IN CONTRACT, STRICT LIABILITY,
  30:..\src/Encoder_functions.c **** // OR TORT (INCLUDING NEGLIGENCE OR OTHERWISE) ARISING IN ANY WAY OUT OF THE USE
ARM GAS  C:\Users\mgnocco\AppData\Local\Temp\cczULO9j.s 			page 2


  31:..\src/Encoder_functions.c **** // OF THIS SOFTWARE, EVEN IF ADVISED OF THE POSSIBILITY OF SUCH DAMAGE.
  32:..\src/Encoder_functions.c **** // POSSIBILITY OF SUCH DAMAGE.
  33:..\src/Encoder_functions.c **** // ----------------------------------------------------------------------------
  34:..\src/Encoder_functions.c **** 
  35:..\src/Encoder_functions.c **** /**
  36:..\src/Encoder_functions.c **** * \file         Encoder_functions.c
  37:..\src/Encoder_functions.c **** *
  38:..\src/Encoder_functions.c **** * \brief        Implementation of SPI module functions.
  39:..\src/Encoder_functions.c **** * \date         March 20th, 2020
  40:..\src/Encoder_functions.c **** * \author       _Centro "E.Piaggio"_
  41:..\src/Encoder_functions.c **** * \copyright    (C) 2012-2016 qbrobotics. All rights reserved.
  42:..\src/Encoder_functions.c **** * \copyright    (C) 2017-2020 Centro "E.Piaggio". All rights reserved.
  43:..\src/Encoder_functions.c **** */
  44:..\src/Encoder_functions.c **** 
  45:..\src/Encoder_functions.c **** #include "Encoder_functions.h"
  46:..\src/Encoder_functions.c **** 
  47:..\src/Encoder_functions.c **** /********************************************************************************
  48:..\src/Encoder_functions.c **** * Function Name: Change_CS_EncoderLine                                                   *
  49:..\src/Encoder_functions.c **** *********************************************************************************/
  50:..\src/Encoder_functions.c **** void Change_CS_EncoderLine(int n)
  51:..\src/Encoder_functions.c **** { 
  28              		.loc 1 51 0
  29              		.cfi_startproc
  30              		@ args = 0, pretend = 0, frame = 8
  31              		@ frame_needed = 1, uses_anonymous_args = 0
  32              		@ link register save eliminated.
  33 0000 80B4     		push	{r7}
  34              		.cfi_def_cfa_offset 4
  35              		.cfi_offset 7, -4
  36 0002 83B0     		sub	sp, sp, #12
  37              		.cfi_def_cfa_offset 16
  38 0004 00AF     		add	r7, sp, #0
  39              		.cfi_def_cfa_register 7
  40 0006 7860     		str	r0, [r7, #4]
  52:..\src/Encoder_functions.c **** }
  41              		.loc 1 52 0
  42 0008 00BF     		nop
  43 000a 0C37     		adds	r7, r7, #12
  44              		.cfi_def_cfa_offset 4
  45 000c BD46     		mov	sp, r7
  46              		.cfi_def_cfa_register 13
  47              		@ sp needed
  48 000e 80BC     		pop	{r7}
  49              		.cfi_restore 7
  50              		.cfi_def_cfa_offset 0
  51 0010 7047     		bx	lr
  52              		.cfi_endproc
  53              	.LFE64:
  54              		.size	Change_CS_EncoderLine, .-Change_CS_EncoderLine
  55 0012 00BF     		.section	.text.EncoderReset,"ax",%progbits
  56              		.align	2
  57              		.global	EncoderReset
  58              		.thumb
  59              		.thumb_func
  60              		.type	EncoderReset, %function
  61              	EncoderReset:
  62              	.LFB65:
ARM GAS  C:\Users\mgnocco\AppData\Local\Temp\cczULO9j.s 			page 3


  53:..\src/Encoder_functions.c **** 
  54:..\src/Encoder_functions.c **** /*******************************************************************************
  55:..\src/Encoder_functions.c **** * Function Name: Encoder Reset
  56:..\src/Encoder_functions.c **** *********************************************************************************/
  57:..\src/Encoder_functions.c **** void EncoderReset() {
  63              		.loc 1 57 0
  64              		.cfi_startproc
  65              		@ args = 0, pretend = 0, frame = 0
  66              		@ frame_needed = 1, uses_anonymous_args = 0
  67              		@ link register save eliminated.
  68 0000 80B4     		push	{r7}
  69              		.cfi_def_cfa_offset 4
  70              		.cfi_offset 7, -4
  71 0002 00AF     		add	r7, sp, #0
  72              		.cfi_def_cfa_register 7
  58:..\src/Encoder_functions.c **** 	
  59:..\src/Encoder_functions.c **** }
  73              		.loc 1 59 0
  74 0004 00BF     		nop
  75 0006 BD46     		mov	sp, r7
  76              		.cfi_def_cfa_register 13
  77              		@ sp needed
  78 0008 80BC     		pop	{r7}
  79              		.cfi_restore 7
  80              		.cfi_def_cfa_offset 0
  81 000a 7047     		bx	lr
  82              		.cfi_endproc
  83              	.LFE65:
  84              		.size	EncoderReset, .-EncoderReset
  85              		.section	.text.InitEncoderGeneral,"ax",%progbits
  86              		.align	2
  87              		.global	InitEncoderGeneral
  88              		.thumb
  89              		.thumb_func
  90              		.type	InitEncoderGeneral, %function
  91              	InitEncoderGeneral:
  92              	.LFB66:
  60:..\src/Encoder_functions.c **** 
  61:..\src/Encoder_functions.c **** /********************************************************************************
  62:..\src/Encoder_functions.c **** * Function Name: InitEncoderGeneral                                                 *
  63:..\src/Encoder_functions.c **** *********************************************************************************/
  64:..\src/Encoder_functions.c **** void InitEncoderGeneral()
  65:..\src/Encoder_functions.c **** {
  93              		.loc 1 65 0
  94              		.cfi_startproc
  95              		@ args = 0, pretend = 0, frame = 0
  96              		@ frame_needed = 1, uses_anonymous_args = 0
  97              		@ link register save eliminated.
  98 0000 80B4     		push	{r7}
  99              		.cfi_def_cfa_offset 4
 100              		.cfi_offset 7, -4
 101 0002 00AF     		add	r7, sp, #0
 102              		.cfi_def_cfa_register 7
  66:..\src/Encoder_functions.c **** }
 103              		.loc 1 66 0
 104 0004 00BF     		nop
 105 0006 BD46     		mov	sp, r7
ARM GAS  C:\Users\mgnocco\AppData\Local\Temp\cczULO9j.s 			page 4


 106              		.cfi_def_cfa_register 13
 107              		@ sp needed
 108 0008 80BC     		pop	{r7}
 109              		.cfi_restore 7
 110              		.cfi_def_cfa_offset 0
 111 000a 7047     		bx	lr
 112              		.cfi_endproc
 113              	.LFE66:
 114              		.size	InitEncoderGeneral, .-InitEncoderGeneral
 115              		.section	.text.InitEncoderLine,"ax",%progbits
 116              		.align	2
 117              		.global	InitEncoderLine
 118              		.thumb
 119              		.thumb_func
 120              		.type	InitEncoderLine, %function
 121              	InitEncoderLine:
 122              	.LFB67:
  67:..\src/Encoder_functions.c **** 
  68:..\src/Encoder_functions.c **** /*******************************************************************************
  69:..\src/Encoder_functions.c **** * Function Name: Encoder Initialization
  70:..\src/Encoder_functions.c **** *********************************************************************************/
  71:..\src/Encoder_functions.c **** void InitEncoderLine(uint8 n){
 123              		.loc 1 71 0
 124              		.cfi_startproc
 125              		@ args = 0, pretend = 0, frame = 8
 126              		@ frame_needed = 1, uses_anonymous_args = 0
 127              		@ link register save eliminated.
 128 0000 80B4     		push	{r7}
 129              		.cfi_def_cfa_offset 4
 130              		.cfi_offset 7, -4
 131 0002 83B0     		sub	sp, sp, #12
 132              		.cfi_def_cfa_offset 16
 133 0004 00AF     		add	r7, sp, #0
 134              		.cfi_def_cfa_register 7
 135 0006 0346     		mov	r3, r0
 136 0008 FB71     		strb	r3, [r7, #7]
  72:..\src/Encoder_functions.c ****   
  73:..\src/Encoder_functions.c **** }
 137              		.loc 1 73 0
 138 000a 00BF     		nop
 139 000c 0C37     		adds	r7, r7, #12
 140              		.cfi_def_cfa_offset 4
 141 000e BD46     		mov	sp, r7
 142              		.cfi_def_cfa_register 13
 143              		@ sp needed
 144 0010 80BC     		pop	{r7}
 145              		.cfi_restore 7
 146              		.cfi_def_cfa_offset 0
 147 0012 7047     		bx	lr
 148              		.cfi_endproc
 149              	.LFE67:
 150              		.size	InitEncoderLine, .-InitEncoderLine
 151              		.section	.text.ReadEncoderLine,"ax",%progbits
 152              		.align	2
 153              		.global	ReadEncoderLine
 154              		.thumb
 155              		.thumb_func
ARM GAS  C:\Users\mgnocco\AppData\Local\Temp\cczULO9j.s 			page 5


 156              		.type	ReadEncoderLine, %function
 157              	ReadEncoderLine:
 158              	.LFB68:
  74:..\src/Encoder_functions.c **** 
  75:..\src/Encoder_functions.c **** /*******************************************************************************
  76:..\src/Encoder_functions.c **** * Function Name: Read Encoder
  77:..\src/Encoder_functions.c **** *********************************************************************************/
  78:..\src/Encoder_functions.c **** void ReadEncoderLine(int n_encoders, int n_line)
  79:..\src/Encoder_functions.c **** {  
 159              		.loc 1 79 0
 160              		.cfi_startproc
 161              		@ args = 0, pretend = 0, frame = 8
 162              		@ frame_needed = 1, uses_anonymous_args = 0
 163              		@ link register save eliminated.
 164 0000 80B4     		push	{r7}
 165              		.cfi_def_cfa_offset 4
 166              		.cfi_offset 7, -4
 167 0002 83B0     		sub	sp, sp, #12
 168              		.cfi_def_cfa_offset 16
 169 0004 00AF     		add	r7, sp, #0
 170              		.cfi_def_cfa_register 7
 171 0006 7860     		str	r0, [r7, #4]
 172 0008 3960     		str	r1, [r7]
  80:..\src/Encoder_functions.c **** }...
 173              		.loc 1 80 0
 174 000a 00BF     		nop
 175 000c 0C37     		adds	r7, r7, #12
 176              		.cfi_def_cfa_offset 4
 177 000e BD46     		mov	sp, r7
 178              		.cfi_def_cfa_register 13
 179              		@ sp needed
 180 0010 80BC     		pop	{r7}
 181              		.cfi_restore 7
 182              		.cfi_def_cfa_offset 0
 183 0012 7047     		bx	lr
 184              		.cfi_endproc
 185              	.LFE68:
 186              		.size	ReadEncoderLine, .-ReadEncoderLine
 187              		.text
 188              	.Letext0:
 189              		.file 2 "c:\\program files (x86)\\cypress\\psoc creator\\4.4\\psoc creator\\import\\gnu\\arm\\5.4.
 190              		.file 3 "c:\\program files (x86)\\cypress\\psoc creator\\4.4\\psoc creator\\import\\gnu\\arm\\5.4.
 191              		.file 4 "Generated_Source\\PSoC5/cytypes.h"
 192              		.file 5 "Generated_Source\\PSoC5/core_cm3.h"