ARM GAS  C:\Users\mgnocco\AppData\Local\Temp\ccQgbceT.s 			page 1


   1              		.syntax unified
   2              		.cpu cortex-m3
   3              		.fpu softvfp
   4              		.eabi_attribute 20, 1
   5              		.eabi_attribute 21, 1
   6              		.eabi_attribute 23, 3
   7              		.eabi_attribute 24, 1
   8              		.eabi_attribute 25, 1
   9              		.eabi_attribute 26, 1
  10              		.eabi_attribute 30, 6
  11              		.eabi_attribute 34, 1
  12              		.eabi_attribute 18, 4
  13              		.thumb
  14              		.syntax unified
  15              		.file	"IMU_functions.c"
  16              		.text
  17              	.Ltext0:
  18              		.cfi_sections	.debug_frame
  19              		.section	.text.ImusReset,"ax",%progbits
  20              		.align	2
  21              		.global	ImusReset
  22              		.thumb
  23              		.thumb_func
  24              		.type	ImusReset, %function
  25              	ImusReset:
  26              	.LFB64:
  27              		.file 1 "..\\src\\IMU_functions.c"
   1:..\src/IMU_functions.c **** // ----------------------------------------------------------------------------
   2:..\src/IMU_functions.c **** // BSD 3-Clause License
   3:..\src/IMU_functions.c **** 
   4:..\src/IMU_functions.c **** // Copyright (c) 2016, qbrobotics
   5:..\src/IMU_functions.c **** // Copyright (c) 2017-2020, Centro "E.Piaggio"
   6:..\src/IMU_functions.c **** // All rights reserved.
   7:..\src/IMU_functions.c **** 
   8:..\src/IMU_functions.c **** // Redistribution and use in source and binary forms, with or without
   9:..\src/IMU_functions.c **** // modification, are permitted provided that the following conditions are met:
  10:..\src/IMU_functions.c **** 
  11:..\src/IMU_functions.c **** // * Redistributions of source code must retain the above copyright notice, this
  12:..\src/IMU_functions.c **** //   list of conditions and the following disclaimer.
  13:..\src/IMU_functions.c **** 
  14:..\src/IMU_functions.c **** // * Redistributions in binary form must reproduce the above copyright notice,
  15:..\src/IMU_functions.c **** //   this list of conditions and the following disclaimer in the documentation
  16:..\src/IMU_functions.c **** //   and/or other materials provided with the distribution.
  17:..\src/IMU_functions.c **** 
  18:..\src/IMU_functions.c **** // * Neither the name of the copyright holder nor the names of its
  19:..\src/IMU_functions.c **** //   contributors may be used to endorse or promote products derived from
  20:..\src/IMU_functions.c **** //   this software without specific prior written permission.
  21:..\src/IMU_functions.c **** 
  22:..\src/IMU_functions.c **** // THIS SOFTWARE IS PROVIDED BY THE COPYRIGHT HOLDERS AND CONTRIBUTORS "AS IS"
  23:..\src/IMU_functions.c **** // AND ANY EXPRESS OR IMPLIED WARRANTIES, INCLUDING, BUT NOT LIMITED TO, THE
  24:..\src/IMU_functions.c **** // IMPLIED WARRANTIES OF MERCHANTABILITY AND FITNESS FOR A PARTICULAR PURPOSE ARE
  25:..\src/IMU_functions.c **** // DISCLAIMED. IN NO EVENT SHALL THE COPYRIGHT HOLDER OR CONTRIBUTORS BE LIABLE
  26:..\src/IMU_functions.c **** // FOR ANY DIRECT, INDIRECT, INCIDENTAL, SPECIAL, EXEMPLARY, OR CONSEQUENTIAL
  27:..\src/IMU_functions.c **** // DAMAGES (INCLUDING, BUT NOT LIMITED TO, PROCUREMENT OF SUBSTITUTE GOODS OR
  28:..\src/IMU_functions.c **** // SERVICES; LOSS OF USE, DATA, OR PROFITS; OR BUSINESS INTERRUPTION) HOWEVER
  29:..\src/IMU_functions.c **** // CAUSED AND ON ANY THEORY OF LIABILITY, WHETHER IN CONTRACT, STRICT LIABILITY,
  30:..\src/IMU_functions.c **** // OR TORT (INCLUDING NEGLIGENCE OR OTHERWISE) ARISING IN ANY WAY OUT OF THE USE
ARM GAS  C:\Users\mgnocco\AppData\Local\Temp\ccQgbceT.s 			page 2


  31:..\src/IMU_functions.c **** // OF THIS SOFTWARE, EVEN IF ADVISED OF THE POSSIBILITY OF SUCH DAMAGE.
  32:..\src/IMU_functions.c **** // POSSIBILITY OF SUCH DAMAGE.
  33:..\src/IMU_functions.c **** // ----------------------------------------------------------------------------
  34:..\src/IMU_functions.c **** 
  35:..\src/IMU_functions.c **** /**
  36:..\src/IMU_functions.c **** * \file         IMU_functions.c
  37:..\src/IMU_functions.c **** *
  38:..\src/IMU_functions.c **** * \brief        Implementation of IMU module functions.
  39:..\src/IMU_functions.c **** * \date         March 20th, 2020
  40:..\src/IMU_functions.c **** * \author       _Centro "E.Piaggio"_
  41:..\src/IMU_functions.c **** * \copyright    (C) 2012-2016 qbrobotics. All rights reserved.
  42:..\src/IMU_functions.c **** * \copyright    (C) 2017-2020 Centro "E.Piaggio". All rights reserved.
  43:..\src/IMU_functions.c **** */
  44:..\src/IMU_functions.c **** 
  45:..\src/IMU_functions.c **** #include "IMU_functions.h"
  46:..\src/IMU_functions.c **** 
  47:..\src/IMU_functions.c **** /*******************************************************************************
  48:..\src/IMU_functions.c **** * Function Name: Imus Reset
  49:..\src/IMU_functions.c **** *********************************************************************************/	
  50:..\src/IMU_functions.c **** void ImusReset() {
  28              		.loc 1 50 0
  29              		.cfi_startproc
  30              		@ args = 0, pretend = 0, frame = 0
  31              		@ frame_needed = 1, uses_anonymous_args = 0
  32              		@ link register save eliminated.
  33 0000 80B4     		push	{r7}
  34              		.cfi_def_cfa_offset 4
  35              		.cfi_offset 7, -4
  36 0002 00AF     		add	r7, sp, #0
  37              		.cfi_def_cfa_register 7
  51:..\src/IMU_functions.c ****     /*
  52:..\src/IMU_functions.c ****     uint8 i;
  53:..\src/IMU_functions.c ****     
  54:..\src/IMU_functions.c ****     CyDelay(10);
  55:..\src/IMU_functions.c ****     InitIMUgeneral();
  56:..\src/IMU_functions.c **** 
  57:..\src/IMU_functions.c ****     CyDelay(10);
  58:..\src/IMU_functions.c ****     
  59:..\src/IMU_functions.c ****     // Initialize quaternion
  60:..\src/IMU_functions.c ****     for (i = 0; i<N_IMU_MAX; i++) {
  61:..\src/IMU_functions.c ****         Quat[i][0] = 0.999;
  62:..\src/IMU_functions.c ****         Quat[i][1] = 0.01;
  63:..\src/IMU_functions.c ****         Quat[i][2] = 0.01;
  64:..\src/IMU_functions.c ****         Quat[i][3] = 0.01;
  65:..\src/IMU_functions.c ****     }
  66:..\src/IMU_functions.c ****     */
  67:..\src/IMU_functions.c **** }
  38              		.loc 1 67 0
  39 0004 00BF     		nop
  40 0006 BD46     		mov	sp, r7
  41              		.cfi_def_cfa_register 13
  42              		@ sp needed
  43 0008 80BC     		pop	{r7}
  44              		.cfi_restore 7
  45              		.cfi_def_cfa_offset 0
  46 000a 7047     		bx	lr
  47              		.cfi_endproc
ARM GAS  C:\Users\mgnocco\AppData\Local\Temp\ccQgbceT.s 			page 3


  48              	.LFE64:
  49              		.size	ImusReset, .-ImusReset
  50              		.section	.text.InitIMU,"ax",%progbits
  51              		.align	2
  52              		.global	InitIMU
  53              		.thumb
  54              		.thumb_func
  55              		.type	InitIMU, %function
  56              	InitIMU:
  57              	.LFB65:
  68:..\src/IMU_functions.c **** 
  69:..\src/IMU_functions.c **** /*******************************************************************************
  70:..\src/IMU_functions.c **** * Function Name: IMU Initialization
  71:..\src/IMU_functions.c **** *********************************************************************************/
  72:..\src/IMU_functions.c **** void InitIMU(){	
  58              		.loc 1 72 0
  59              		.cfi_startproc
  60              		@ args = 0, pretend = 0, frame = 0
  61              		@ frame_needed = 1, uses_anonymous_args = 0
  62              		@ link register save eliminated.
  63 0000 80B4     		push	{r7}
  64              		.cfi_def_cfa_offset 4
  65              		.cfi_offset 7, -4
  66 0002 00AF     		add	r7, sp, #0
  67              		.cfi_def_cfa_register 7
  73:..\src/IMU_functions.c ****     /*
  74:..\src/IMU_functions.c **** 	WriteControlRegisterIMU(MPU9250_PWR_MGMT_1, 0x10); 
  75:..\src/IMU_functions.c **** 	CyDelay(10);	
  76:..\src/IMU_functions.c **** 	WriteControlRegisterIMU(MPU9250_USER_CTRL, 0x20);  //I2C master enable - disable I2C (prima 0x30)
  77:..\src/IMU_functions.c **** 	CyDelay(10);
  78:..\src/IMU_functions.c ****     WriteControlRegisterIMU(MPU9250_CONFIG, 0x06); //Gyro & Temp Low Pass Filter 0x01 = 184Hz, 0x02
  79:..\src/IMU_functions.c ****     CyDelay(10);	
  80:..\src/IMU_functions.c **** 	WriteControlRegisterIMU(MPU9250_GYRO_CONFIG , GYRO_SF_2000); //Gyro full scale select 0x00=250°/s
  81:..\src/IMU_functions.c **** 	CyDelay(10);
  82:..\src/IMU_functions.c ****     WriteControlRegisterIMU(MPU9250_ACCEL_CONFIG, ACC_SF_2G); // Acc full scale select 0x00 = 2g 0x
  83:..\src/IMU_functions.c ****     CyDelay(10);
  84:..\src/IMU_functions.c ****    // WriteControlRegisterIMU(MPU9250_ACCEL_CONFIG2, LP_ACC_FREQ_10);   
  85:..\src/IMU_functions.c ****     WriteControlRegisterIMU(MPU9250_ACCEL_CONFIG2, NO_ACC_FIL);   
  86:..\src/IMU_functions.c ****     CyDelay(10);
  87:..\src/IMU_functions.c **** 	//mag register
  88:..\src/IMU_functions.c **** 	WriteControlRegisterIMU(MPU9250_I2C_MST_CTRL, 0x0D); //set slave I2C speed
  89:..\src/IMU_functions.c **** 	CyDelay(10);
  90:..\src/IMU_functions.c **** 	//SLV0 (use to write)
  91:..\src/IMU_functions.c **** 	WriteControlRegisterIMU(MPU9250_I2C_SLV0_ADDR, 0x0C); //set compass address
  92:..\src/IMU_functions.c **** 	CyDelay(10);			
  93:..\src/IMU_functions.c **** 	WriteControlRegisterIMU(MPU9250_I2C_SLV0_REG, AK8936_CNTL); //compass mode register
  94:..\src/IMU_functions.c **** 	CyDelay(10);	
  95:..\src/IMU_functions.c **** 	// Istruction used to read Compass
  96:..\src/IMU_functions.c **** 	WriteControlRegisterIMU(MPU9250_I2C_SLV0_D0, 0x16); //0x12 continuous mode1  0x16 continuous mode2
  97:..\src/IMU_functions.c **** 	CyDelay(10);
  98:..\src/IMU_functions.c **** 	WriteControlRegisterIMU(MPU9250_I2C_SLV0_CTRL, 0x81); //enable data from register + 1 bit to write
  99:..\src/IMU_functions.c **** 	CyDelay(10);
 100:..\src/IMU_functions.c **** 	//SLV0 (use to read)
 101:..\src/IMU_functions.c **** 	WriteControlRegisterIMU(MPU9250_I2C_SLV0_ADDR, 0x8C); // RCR  | AK8963_address (0x0C) 
 102:..\src/IMU_functions.c **** 	CyDelay(10);
 103:..\src/IMU_functions.c **** 	// Istruction used to read Compass
 104:..\src/IMU_functions.c **** 	WriteControlRegisterIMU(MPU9250_I2C_SLV0_REG, 0x03); // 0x03:start from Xout Low in case of calibr
ARM GAS  C:\Users\mgnocco\AppData\Local\Temp\ccQgbceT.s 			page 4


 105:..\src/IMU_functions.c **** 	CyDelay(10);
 106:..\src/IMU_functions.c **** 	// Istruction used to read Compass
 107:..\src/IMU_functions.c **** 	WriteControlRegisterIMU(MPU9250_I2C_SLV0_CTRL, 0x8D); //How many bits read  SEMPRE DISPARI 0x8D er
 108:..\src/IMU_functions.c **** 	CyDelay(10);
 109:..\src/IMU_functions.c **** 	WriteControlRegisterIMU(MPU9250_PWR_MGMT_1, 0x00); 
 110:..\src/IMU_functions.c **** 	CyDelay(20);
 111:..\src/IMU_functions.c ****     */
 112:..\src/IMU_functions.c **** }	
  68              		.loc 1 112 0
  69 0004 00BF     		nop
  70 0006 BD46     		mov	sp, r7
  71              		.cfi_def_cfa_register 13
  72              		@ sp needed
  73 0008 80BC     		pop	{r7}
  74              		.cfi_restore 7
  75              		.cfi_def_cfa_offset 0
  76 000a 7047     		bx	lr
  77              		.cfi_endproc
  78              	.LFE65:
  79              		.size	InitIMU, .-InitIMU
  80              		.section	.text.InitIMUMagCal,"ax",%progbits
  81              		.align	2
  82              		.global	InitIMUMagCal
  83              		.thumb
  84              		.thumb_func
  85              		.type	InitIMUMagCal, %function
  86              	InitIMUMagCal:
  87              	.LFB66:
 113:..\src/IMU_functions.c **** 
 114:..\src/IMU_functions.c **** /*******************************************************************************
 115:..\src/IMU_functions.c **** * Function Name: IMU Mag Cal Initialization
 116:..\src/IMU_functions.c **** *********************************************************************************/
 117:..\src/IMU_functions.c **** void InitIMUMagCal(){	
  88              		.loc 1 117 0
  89              		.cfi_startproc
  90              		@ args = 0, pretend = 0, frame = 0
  91              		@ frame_needed = 1, uses_anonymous_args = 0
  92              		@ link register save eliminated.
  93 0000 80B4     		push	{r7}
  94              		.cfi_def_cfa_offset 4
  95              		.cfi_offset 7, -4
  96 0002 00AF     		add	r7, sp, #0
  97              		.cfi_def_cfa_register 7
 118:..\src/IMU_functions.c ****     /*
 119:..\src/IMU_functions.c **** 	WriteControlRegisterIMU(MPU9250_PWR_MGMT_1, 0x10); 
 120:..\src/IMU_functions.c **** 	CyDelay(10);	
 121:..\src/IMU_functions.c **** 	WriteControlRegisterIMU(MPU9250_USER_CTRL, 0x20);  //I2C master enable - disable I2C (prima 0x30)
 122:..\src/IMU_functions.c **** 	CyDelay(10);
 123:..\src/IMU_functions.c ****     WriteControlRegisterIMU(MPU9250_CONFIG, 0x06); //Gyro & Temp Low Pass Filter 0x01 = 184Hz, 0x02
 124:..\src/IMU_functions.c ****     CyDelay(10);	
 125:..\src/IMU_functions.c **** 	WriteControlRegisterIMU(MPU9250_GYRO_CONFIG , GYRO_SF_2000); //Gyro full scale select 0x00=250°/s
 126:..\src/IMU_functions.c **** 	CyDelay(10);
 127:..\src/IMU_functions.c ****     WriteControlRegisterIMU(MPU9250_ACCEL_CONFIG, ACC_SF_2G); // Acc full scale select 0x00 = 2g 0x
 128:..\src/IMU_functions.c ****     CyDelay(10);
 129:..\src/IMU_functions.c ****     WriteControlRegisterIMU(MPU9250_ACCEL_CONFIG2, 0x05);
 130:..\src/IMU_functions.c ****     CyDelay(10);
 131:..\src/IMU_functions.c **** 	//mag register
ARM GAS  C:\Users\mgnocco\AppData\Local\Temp\ccQgbceT.s 			page 5


 132:..\src/IMU_functions.c **** 	WriteControlRegisterIMU(MPU9250_I2C_MST_CTRL, 0x0D); //set slave I2C speed
 133:..\src/IMU_functions.c **** 	CyDelay(10);
 134:..\src/IMU_functions.c **** 	//SLV0 (use to write)
 135:..\src/IMU_functions.c **** 	WriteControlRegisterIMU(MPU9250_I2C_SLV0_ADDR, 0x0C); //set compass address
 136:..\src/IMU_functions.c **** 	CyDelay(10);			
 137:..\src/IMU_functions.c **** 	WriteControlRegisterIMU(MPU9250_I2C_SLV0_REG, AK8936_CNTL); //compass mode register
 138:..\src/IMU_functions.c **** 	CyDelay(10);	
 139:..\src/IMU_functions.c **** 	WriteControlRegisterIMU(MPU9250_I2C_SLV0_D0, 0x1F); //0x1F ROM access
 140:..\src/IMU_functions.c **** 	CyDelay(10);
 141:..\src/IMU_functions.c **** 	WriteControlRegisterIMU(MPU9250_I2C_SLV0_CTRL, 0x81); //enable data from register + 1 bit to write
 142:..\src/IMU_functions.c **** 	CyDelay(10);
 143:..\src/IMU_functions.c **** 	//SLV0 (use to read)
 144:..\src/IMU_functions.c **** 	WriteControlRegisterIMU(MPU9250_I2C_SLV0_ADDR, 0x8C); // RCR  | AK8963_address (0x0C) 
 145:..\src/IMU_functions.c **** 	CyDelay(10);
 146:..\src/IMU_functions.c **** 	WriteControlRegisterIMU(MPU9250_I2C_SLV0_REG, 0x10); // 0x10:start from ASAX
 147:..\src/IMU_functions.c **** 	CyDelay(10);
 148:..\src/IMU_functions.c **** 	WriteControlRegisterIMU(MPU9250_I2C_SLV0_CTRL, 0x83);
 149:..\src/IMU_functions.c **** 	CyDelay(10);
 150:..\src/IMU_functions.c **** 	WriteControlRegisterIMU(MPU9250_PWR_MGMT_1, 0x00); 
 151:..\src/IMU_functions.c **** 	CyDelay(20);
 152:..\src/IMU_functions.c ****     */
 153:..\src/IMU_functions.c **** }
  98              		.loc 1 153 0
  99 0004 00BF     		nop
 100 0006 BD46     		mov	sp, r7
 101              		.cfi_def_cfa_register 13
 102              		@ sp needed
 103 0008 80BC     		pop	{r7}
 104              		.cfi_restore 7
 105              		.cfi_def_cfa_offset 0
 106 000a 7047     		bx	lr
 107              		.cfi_endproc
 108              	.LFE66:
 109              		.size	InitIMUMagCal, .-InitIMUMagCal
 110              		.section	.text.ChipSelectorIMU,"ax",%progbits
 111              		.align	2
 112              		.global	ChipSelectorIMU
 113              		.thumb
 114              		.thumb_func
 115              		.type	ChipSelectorIMU, %function
 116              	ChipSelectorIMU:
 117              	.LFB67:
 154:..\src/IMU_functions.c **** 
 155:..\src/IMU_functions.c **** /********************************************************************************
 156:..\src/IMU_functions.c **** * Function Name: ChipSelectorIMU                                                   *
 157:..\src/IMU_functions.c **** *********************************************************************************/
 158:..\src/IMU_functions.c **** void ChipSelectorIMU(int n)
 159:..\src/IMU_functions.c **** {
 118              		.loc 1 159 0
 119              		.cfi_startproc
 120              		@ args = 0, pretend = 0, frame = 8
 121              		@ frame_needed = 1, uses_anonymous_args = 0
 122              		@ link register save eliminated.
 123 0000 80B4     		push	{r7}
 124              		.cfi_def_cfa_offset 4
 125              		.cfi_offset 7, -4
 126 0002 83B0     		sub	sp, sp, #12
ARM GAS  C:\Users\mgnocco\AppData\Local\Temp\ccQgbceT.s 			page 6


 127              		.cfi_def_cfa_offset 16
 128 0004 00AF     		add	r7, sp, #0
 129              		.cfi_def_cfa_register 7
 130 0006 7860     		str	r0, [r7, #4]
 160:..\src/IMU_functions.c ****    /* Chip_Select_IMU_Write(7);
 161:..\src/IMU_functions.c ****     
 162:..\src/IMU_functions.c ****     Chip_Select_IMU_Write(n);
 163:..\src/IMU_functions.c ****     */
 164:..\src/IMU_functions.c **** }
 131              		.loc 1 164 0
 132 0008 00BF     		nop
 133 000a 0C37     		adds	r7, r7, #12
 134              		.cfi_def_cfa_offset 4
 135 000c BD46     		mov	sp, r7
 136              		.cfi_def_cfa_register 13
 137              		@ sp needed
 138 000e 80BC     		pop	{r7}
 139              		.cfi_restore 7
 140              		.cfi_def_cfa_offset 0
 141 0010 7047     		bx	lr
 142              		.cfi_endproc
 143              	.LFE67:
 144              		.size	ChipSelectorIMU, .-ChipSelectorIMU
 145 0012 00BF     		.section	.text.InitIMUgeneral,"ax",%progbits
 146              		.align	2
 147              		.global	InitIMUgeneral
 148              		.thumb
 149              		.thumb_func
 150              		.type	InitIMUgeneral, %function
 151              	InitIMUgeneral:
 152              	.LFB68:
 165:..\src/IMU_functions.c **** 
 166:..\src/IMU_functions.c **** /********************************************************************************
 167:..\src/IMU_functions.c **** * Function Name: InitIMUGeneral                                                 *
 168:..\src/IMU_functions.c **** *********************************************************************************/
 169:..\src/IMU_functions.c **** void InitIMUgeneral()
 170:..\src/IMU_functions.c **** {
 153              		.loc 1 170 0
 154              		.cfi_startproc
 155              		@ args = 0, pretend = 0, frame = 0
 156              		@ frame_needed = 1, uses_anonymous_args = 0
 157              		@ link register save eliminated.
 158 0000 80B4     		push	{r7}
 159              		.cfi_def_cfa_offset 4
 160              		.cfi_offset 7, -4
 161 0002 00AF     		add	r7, sp, #0
 162              		.cfi_def_cfa_register 7
 171:..\src/IMU_functions.c ****     /*uint8 k_imu;
 172:..\src/IMU_functions.c ****     uint8 count = 0;
 173:..\src/IMU_functions.c ****     int IMU_ack;
 174:..\src/IMU_functions.c ****     int tmp[N_IMU_MAX];
 175:..\src/IMU_functions.c ****     
 176:..\src/IMU_functions.c ****     // Initialize Memory Structure 
 177:..\src/IMU_functions.c ****     memset(&g_imu, 0, sizeof(struct st_imu));
 178:..\src/IMU_functions.c ****     memset(&IMU_connected, 0, sizeof(IMU_connected));
 179:..\src/IMU_functions.c **** 
 180:..\src/IMU_functions.c ****     // Initialize IMU to Read MagCal Parameters
ARM GAS  C:\Users\mgnocco\AppData\Local\Temp\ccQgbceT.s 			page 7


 181:..\src/IMU_functions.c ****     for (k_imu=0; k_imu < N_IMU_MAX; k_imu++) 
 182:..\src/IMU_functions.c ****     {	
 183:..\src/IMU_functions.c **** 	    ChipSelectorIMU(k_imu);
 184:..\src/IMU_functions.c **** 	    CyDelay(10);
 185:..\src/IMU_functions.c **** 	    InitIMUMagCal();
 186:..\src/IMU_functions.c **** 	    CyDelay(10); 
 187:..\src/IMU_functions.c ****     }
 188:..\src/IMU_functions.c ****     
 189:..\src/IMU_functions.c ****     // Reading of MagCal Parameters
 190:..\src/IMU_functions.c ****     CyDelay(50);
 191:..\src/IMU_functions.c ****     for (k_imu = 0; k_imu < N_IMU_MAX; k_imu++){
 192:..\src/IMU_functions.c ****         ChipSelectorIMU(k_imu);
 193:..\src/IMU_functions.c ****         CyDelay(10);
 194:..\src/IMU_functions.c ****         ReadMagCal(k_imu);  
 195:..\src/IMU_functions.c ****         CyDelay(10);
 196:..\src/IMU_functions.c ****     }
 197:..\src/IMU_functions.c **** 
 198:..\src/IMU_functions.c ****     ChipSelectorIMU(0); // Read again first IMU MagCal Parameters
 199:..\src/IMU_functions.c ****     CyDelay(10);
 200:..\src/IMU_functions.c ****     ReadMagCal(0);  
 201:..\src/IMU_functions.c ****     CyDelay(10);
 202:..\src/IMU_functions.c ****         
 203:..\src/IMU_functions.c ****     // First ping to be sure to wakeup IMUs
 204:..\src/IMU_functions.c ****     for (k_imu=0; k_imu < N_IMU_MAX; k_imu++) 
 205:..\src/IMU_functions.c ****     {	
 206:..\src/IMU_functions.c **** 	    ChipSelectorIMU(k_imu);
 207:..\src/IMU_functions.c **** 	    CyDelay(10);
 208:..\src/IMU_functions.c **** 	    ReadControlRegisterIMU(MPU9250_WHO_AM_I);
 209:..\src/IMU_functions.c ****     }
 210:..\src/IMU_functions.c ****     
 211:..\src/IMU_functions.c ****     // Identify IMU connected
 212:..\src/IMU_functions.c ****     ChipSelectorIMU(0);
 213:..\src/IMU_functions.c ****     CyDelay(10);
 214:..\src/IMU_functions.c ****     IMU_ack = ReadControlRegisterIMU(MPU9250_WHO_AM_I);
 215:..\src/IMU_functions.c ****     IMU_ack = 0;
 216:..\src/IMU_functions.c ****     N_IMU_Connected = 0;    
 217:..\src/IMU_functions.c ****     for (k_imu = 0; k_imu < NUM_DEV_IMU; k_imu++) 
 218:..\src/IMU_functions.c ****     {      
 219:..\src/IMU_functions.c ****     	ChipSelectorIMU(k_imu);
 220:..\src/IMU_functions.c ****         CyDelay(10);
 221:..\src/IMU_functions.c ****         IMU_ack = ReadControlRegisterIMU(MPU9250_WHO_AM_I);
 222:..\src/IMU_functions.c ****         if (IMU_ack == 0x71) 
 223:..\src/IMU_functions.c ****         {
 224:..\src/IMU_functions.c ****             N_IMU_Connected++;
 225:..\src/IMU_functions.c ****             IMU_ack = 0;
 226:..\src/IMU_functions.c ****             tmp[k_imu] = 1;
 227:..\src/IMU_functions.c ****         }
 228:..\src/IMU_functions.c ****         else
 229:..\src/IMU_functions.c ****             tmp[k_imu] = 0;
 230:..\src/IMU_functions.c ****     }
 231:..\src/IMU_functions.c **** 
 232:..\src/IMU_functions.c ****     for(k_imu = 0; k_imu < N_IMU_MAX; k_imu++)
 233:..\src/IMU_functions.c ****     {
 234:..\src/IMU_functions.c ****         if(tmp[k_imu] == 1)
 235:..\src/IMU_functions.c ****         {
 236:..\src/IMU_functions.c ****             IMU_connected[count] = k_imu;
 237:..\src/IMU_functions.c ****             count++;
ARM GAS  C:\Users\mgnocco\AppData\Local\Temp\ccQgbceT.s 			page 8


 238:..\src/IMU_functions.c ****         }
 239:..\src/IMU_functions.c ****     }
 240:..\src/IMU_functions.c ****             
 241:..\src/IMU_functions.c ****     // Standard Initialization of the IMU
 242:..\src/IMU_functions.c ****     CyDelay(10);
 243:..\src/IMU_functions.c ****     for (k_imu=0; k_imu < N_IMU_MAX; k_imu++) 
 244:..\src/IMU_functions.c ****     {	
 245:..\src/IMU_functions.c **** 	    ChipSelectorIMU(k_imu);
 246:..\src/IMU_functions.c **** 	    CyDelay(10);
 247:..\src/IMU_functions.c **** 	    InitIMU();
 248:..\src/IMU_functions.c **** 	    CyDelay(10); 
 249:..\src/IMU_functions.c ****     }
 250:..\src/IMU_functions.c ****     CyDelay(50);
 251:..\src/IMU_functions.c ****     
 252:..\src/IMU_functions.c ****     // Set Standard Read for the IMU
 253:..\src/IMU_functions.c ****     memset(&single_imu_size, 0, sizeof(single_imu_size));
 254:..\src/IMU_functions.c ****     imus_data_size = 1; //header    
 255:..\src/IMU_functions.c ****     for (k_imu = 0; k_imu < N_IMU_Connected; k_imu++)
 256:..\src/IMU_functions.c ****     {
 257:..\src/IMU_functions.c ****         single_imu_size[IMU_connected[k_imu]] = 1 + 6*c_mem.imu.IMU_conf[IMU_connected[k_imu]][0] +
 258:..\src/IMU_functions.c ****         imus_data_size = imus_data_size + single_imu_size[IMU_connected[k_imu]];
 259:..\src/IMU_functions.c ****     }
 260:..\src/IMU_functions.c ****     imus_data_size = imus_data_size + 1;    //checksum*/
 261:..\src/IMU_functions.c **** }
 163              		.loc 1 261 0
 164 0004 00BF     		nop
 165 0006 BD46     		mov	sp, r7
 166              		.cfi_def_cfa_register 13
 167              		@ sp needed
 168 0008 80BC     		pop	{r7}
 169              		.cfi_restore 7
 170              		.cfi_def_cfa_offset 0
 171 000a 7047     		bx	lr
 172              		.cfi_endproc
 173              	.LFE68:
 174              		.size	InitIMUgeneral, .-InitIMUgeneral
 175              		.section	.text.ReadIMU,"ax",%progbits
 176              		.align	2
 177              		.global	ReadIMU
 178              		.thumb
 179              		.thumb_func
 180              		.type	ReadIMU, %function
 181              	ReadIMU:
 182              	.LFB69:
 262:..\src/IMU_functions.c **** 
 263:..\src/IMU_functions.c **** /*******************************************************************************
 264:..\src/IMU_functions.c **** * Function Name: IMU Read
 265:..\src/IMU_functions.c **** *********************************************************************************/	
 266:..\src/IMU_functions.c **** void ReadIMU(int n)
 267:..\src/IMU_functions.c **** {/*
 183              		.loc 1 267 0
 184              		.cfi_startproc
 185              		@ args = 0, pretend = 0, frame = 8
 186              		@ frame_needed = 1, uses_anonymous_args = 0
 187              		@ link register save eliminated.
 188 0000 80B4     		push	{r7}
 189              		.cfi_def_cfa_offset 4
ARM GAS  C:\Users\mgnocco\AppData\Local\Temp\ccQgbceT.s 			page 9


 190              		.cfi_offset 7, -4
 191 0002 83B0     		sub	sp, sp, #12
 192              		.cfi_def_cfa_offset 16
 193 0004 00AF     		add	r7, sp, #0
 194              		.cfi_def_cfa_register 7
 195 0006 7860     		str	r0, [r7, #4]
 268:..\src/IMU_functions.c ****     if (c_mem.imu.IMU_conf[n][0]) ReadAcc(n);
 269:..\src/IMU_functions.c ****     if (c_mem.imu.IMU_conf[n][1]) ReadGyro(n);
 270:..\src/IMU_functions.c ****     if (c_mem.imu.IMU_conf[n][2]) ReadMag(n);
 271:..\src/IMU_functions.c ****     if (c_mem.imu.IMU_conf[n][3]) ReadQuat(n);
 272:..\src/IMU_functions.c ****     if (c_mem.imu.IMU_conf[n][4]) ReadTemp(n);
 273:..\src/IMU_functions.c ****     */
 274:..\src/IMU_functions.c **** }
 196              		.loc 1 274 0
 197 0008 00BF     		nop
 198 000a 0C37     		adds	r7, r7, #12
 199              		.cfi_def_cfa_offset 4
 200 000c BD46     		mov	sp, r7
 201              		.cfi_def_cfa_register 13
 202              		@ sp needed
 203 000e 80BC     		pop	{r7}
 204              		.cfi_restore 7
 205              		.cfi_def_cfa_offset 0
 206 0010 7047     		bx	lr
 207              		.cfi_endproc
 208              	.LFE69:
 209              		.size	ReadIMU, .-ReadIMU
 210 0012 00BF     		.section	.text.ReadAcc,"ax",%progbits
 211              		.align	2
 212              		.global	ReadAcc
 213              		.thumb
 214              		.thumb_func
 215              		.type	ReadAcc, %function
 216              	ReadAcc:
 217              	.LFB70:
 275:..\src/IMU_functions.c **** 
 276:..\src/IMU_functions.c **** /*******************************************************************************
 277:..\src/IMU_functions.c **** * Function Name: Read Acc's Data of IMU n
 278:..\src/IMU_functions.c **** *********************************************************************************/
 279:..\src/IMU_functions.c **** void ReadAcc(int n)
 280:..\src/IMU_functions.c **** {/*
 218              		.loc 1 280 0
 219              		.cfi_startproc
 220              		@ args = 0, pretend = 0, frame = 8
 221              		@ frame_needed = 1, uses_anonymous_args = 0
 222              		@ link register save eliminated.
 223 0000 80B4     		push	{r7}
 224              		.cfi_def_cfa_offset 4
 225              		.cfi_offset 7, -4
 226 0002 83B0     		sub	sp, sp, #12
 227              		.cfi_def_cfa_offset 16
 228 0004 00AF     		add	r7, sp, #0
 229              		.cfi_def_cfa_register 7
 230 0006 7860     		str	r0, [r7, #4]
 281:..\src/IMU_functions.c **** 	uint8 low=0, high=0;
 282:..\src/IMU_functions.c **** 	
 283:..\src/IMU_functions.c **** 	int row = n;
ARM GAS  C:\Users\mgnocco\AppData\Local\Temp\ccQgbceT.s 			page 10


 284:..\src/IMU_functions.c **** 	
 285:..\src/IMU_functions.c **** 	//read X
 286:..\src/IMU_functions.c ****     low=ReadControlRegisterIMU(MPU9250_ACCEL_XOUT_L);
 287:..\src/IMU_functions.c ****     SPI_delay();
 288:..\src/IMU_functions.c ****     high=ReadControlRegisterIMU(MPU9250_ACCEL_XOUT_H);
 289:..\src/IMU_functions.c ****     SPI_delay();
 290:..\src/IMU_functions.c ****     
 291:..\src/IMU_functions.c **** 	Accel[row][0] = high; 
 292:..\src/IMU_functions.c **** 	Accel[row][1] = low; 
 293:..\src/IMU_functions.c **** 	low=0, high=0;
 294:..\src/IMU_functions.c **** 			
 295:..\src/IMU_functions.c **** 	//read Y
 296:..\src/IMU_functions.c ****     low=ReadControlRegisterIMU(MPU9250_ACCEL_YOUT_L);
 297:..\src/IMU_functions.c ****     SPI_delay();
 298:..\src/IMU_functions.c **** 	high=ReadControlRegisterIMU(MPU9250_ACCEL_YOUT_H);
 299:..\src/IMU_functions.c ****     SPI_delay();
 300:..\src/IMU_functions.c **** 
 301:..\src/IMU_functions.c **** 	Accel[row][2] = high; 
 302:..\src/IMU_functions.c **** 	Accel[row][3] = low; 
 303:..\src/IMU_functions.c **** 	low=0, high=0;
 304:..\src/IMU_functions.c **** 		
 305:..\src/IMU_functions.c **** 	//read Z
 306:..\src/IMU_functions.c ****     low=ReadControlRegisterIMU(MPU9250_ACCEL_ZOUT_L);
 307:..\src/IMU_functions.c ****     SPI_delay();
 308:..\src/IMU_functions.c ****     high=ReadControlRegisterIMU(MPU9250_ACCEL_ZOUT_H);
 309:..\src/IMU_functions.c ****     SPI_delay();
 310:..\src/IMU_functions.c ****     
 311:..\src/IMU_functions.c **** 	Accel[row][4] = high; 
 312:..\src/IMU_functions.c **** 	Accel[row][5] = low;
 313:..\src/IMU_functions.c **** 	low=0, high=0;
 314:..\src/IMU_functions.c ****     */
 315:..\src/IMU_functions.c **** }
 231              		.loc 1 315 0
 232 0008 00BF     		nop
 233 000a 0C37     		adds	r7, r7, #12
 234              		.cfi_def_cfa_offset 4
 235 000c BD46     		mov	sp, r7
 236              		.cfi_def_cfa_register 13
 237              		@ sp needed
 238 000e 80BC     		pop	{r7}
 239              		.cfi_restore 7
 240              		.cfi_def_cfa_offset 0
 241 0010 7047     		bx	lr
 242              		.cfi_endproc
 243              	.LFE70:
 244              		.size	ReadAcc, .-ReadAcc
 245 0012 00BF     		.section	.text.ReadGyro,"ax",%progbits
 246              		.align	2
 247              		.global	ReadGyro
 248              		.thumb
 249              		.thumb_func
 250              		.type	ReadGyro, %function
 251              	ReadGyro:
 252              	.LFB71:
 316:..\src/IMU_functions.c **** 
 317:..\src/IMU_functions.c **** /*******************************************************************************
 318:..\src/IMU_functions.c **** * Function Name: Read Gyro's Data of IMU n
ARM GAS  C:\Users\mgnocco\AppData\Local\Temp\ccQgbceT.s 			page 11


 319:..\src/IMU_functions.c **** *********************************************************************************/
 320:..\src/IMU_functions.c **** void ReadGyro(int n){
 253              		.loc 1 320 0
 254              		.cfi_startproc
 255              		@ args = 0, pretend = 0, frame = 8
 256              		@ frame_needed = 1, uses_anonymous_args = 0
 257              		@ link register save eliminated.
 258 0000 80B4     		push	{r7}
 259              		.cfi_def_cfa_offset 4
 260              		.cfi_offset 7, -4
 261 0002 83B0     		sub	sp, sp, #12
 262              		.cfi_def_cfa_offset 16
 263 0004 00AF     		add	r7, sp, #0
 264              		.cfi_def_cfa_register 7
 265 0006 7860     		str	r0, [r7, #4]
 321:..\src/IMU_functions.c ****     /*
 322:..\src/IMU_functions.c **** 	uint8 low=0, high=0;
 323:..\src/IMU_functions.c ****  
 324:..\src/IMU_functions.c **** 	int row = n;
 325:..\src/IMU_functions.c **** 	
 326:..\src/IMU_functions.c **** 	//read X
 327:..\src/IMU_functions.c **** 	low=ReadControlRegisterIMU(MPU9250_GYRO_XOUT_L);
 328:..\src/IMU_functions.c ****     SPI_delay();
 329:..\src/IMU_functions.c **** 	high=ReadControlRegisterIMU(MPU9250_GYRO_XOUT_H);
 330:..\src/IMU_functions.c ****     SPI_delay();
 331:..\src/IMU_functions.c ****     
 332:..\src/IMU_functions.c **** 	Gyro[row][0] = high; 
 333:..\src/IMU_functions.c **** 	Gyro[row][1] = low;
 334:..\src/IMU_functions.c **** 	low=0, high=0;
 335:..\src/IMU_functions.c ****     
 336:..\src/IMU_functions.c **** 	//read Y
 337:..\src/IMU_functions.c **** 	low=ReadControlRegisterIMU(MPU9250_GYRO_YOUT_L);
 338:..\src/IMU_functions.c ****     SPI_delay();
 339:..\src/IMU_functions.c **** 	high=ReadControlRegisterIMU(MPU9250_GYRO_YOUT_H);
 340:..\src/IMU_functions.c ****     SPI_delay();
 341:..\src/IMU_functions.c ****     
 342:..\src/IMU_functions.c **** 	Gyro[row][2] = high; 
 343:..\src/IMU_functions.c **** 	Gyro[row][3] = low;
 344:..\src/IMU_functions.c **** 	low=0, high=0;
 345:..\src/IMU_functions.c **** 
 346:..\src/IMU_functions.c **** 	//read Z
 347:..\src/IMU_functions.c ****     low=ReadControlRegisterIMU(MPU9250_GYRO_ZOUT_L);
 348:..\src/IMU_functions.c ****     SPI_delay();
 349:..\src/IMU_functions.c **** 	high=ReadControlRegisterIMU(MPU9250_GYRO_ZOUT_H);
 350:..\src/IMU_functions.c ****     SPI_delay();
 351:..\src/IMU_functions.c ****     
 352:..\src/IMU_functions.c **** 	Gyro[row][4] = high; 
 353:..\src/IMU_functions.c **** 	Gyro[row][5] = low;        
 354:..\src/IMU_functions.c **** 
 355:..\src/IMU_functions.c **** 	low=0, high=0;
 356:..\src/IMU_functions.c ****     */
 357:..\src/IMU_functions.c **** }
 266              		.loc 1 357 0
 267 0008 00BF     		nop
 268 000a 0C37     		adds	r7, r7, #12
 269              		.cfi_def_cfa_offset 4
 270 000c BD46     		mov	sp, r7
ARM GAS  C:\Users\mgnocco\AppData\Local\Temp\ccQgbceT.s 			page 12


 271              		.cfi_def_cfa_register 13
 272              		@ sp needed
 273 000e 80BC     		pop	{r7}
 274              		.cfi_restore 7
 275              		.cfi_def_cfa_offset 0
 276 0010 7047     		bx	lr
 277              		.cfi_endproc
 278              	.LFE71:
 279              		.size	ReadGyro, .-ReadGyro
 280 0012 00BF     		.section	.text.ReadMag,"ax",%progbits
 281              		.align	2
 282              		.global	ReadMag
 283              		.thumb
 284              		.thumb_func
 285              		.type	ReadMag, %function
 286              	ReadMag:
 287              	.LFB72:
 358:..\src/IMU_functions.c **** 
 359:..\src/IMU_functions.c **** /*******************************************************************************
 360:..\src/IMU_functions.c **** * Function Name: Read Compas' Data of IMU n
 361:..\src/IMU_functions.c **** *********************************************************************************/
 362:..\src/IMU_functions.c **** void ReadMag(int n){
 288              		.loc 1 362 0
 289              		.cfi_startproc
 290              		@ args = 0, pretend = 0, frame = 8
 291              		@ frame_needed = 1, uses_anonymous_args = 0
 292              		@ link register save eliminated.
 293 0000 80B4     		push	{r7}
 294              		.cfi_def_cfa_offset 4
 295              		.cfi_offset 7, -4
 296 0002 83B0     		sub	sp, sp, #12
 297              		.cfi_def_cfa_offset 16
 298 0004 00AF     		add	r7, sp, #0
 299              		.cfi_def_cfa_register 7
 300 0006 7860     		str	r0, [r7, #4]
 363:..\src/IMU_functions.c ****     /*
 364:..\src/IMU_functions.c **** 	
 365:..\src/IMU_functions.c **** 	uint8 low, high;
 366:..\src/IMU_functions.c **** 	int row = n;	
 367:..\src/IMU_functions.c **** 	//read X
 368:..\src/IMU_functions.c **** 	low = ReadControlRegisterIMU(MPU9250_EXT_SENS_DATA_00);
 369:..\src/IMU_functions.c ****     SPI_delay();
 370:..\src/IMU_functions.c **** 	high = ReadControlRegisterIMU(MPU9250_EXT_SENS_DATA_01);		
 371:..\src/IMU_functions.c ****     SPI_delay();
 372:..\src/IMU_functions.c ****     
 373:..\src/IMU_functions.c **** 	Mag[row][0] = high; 
 374:..\src/IMU_functions.c **** 	Mag[row][1] = low;
 375:..\src/IMU_functions.c **** 	low=0, high=0;
 376:..\src/IMU_functions.c ****     
 377:..\src/IMU_functions.c **** 	//read Y
 378:..\src/IMU_functions.c **** 	low = ReadControlRegisterIMU(MPU9250_EXT_SENS_DATA_02);
 379:..\src/IMU_functions.c ****     SPI_delay();
 380:..\src/IMU_functions.c **** 	high = ReadControlRegisterIMU(MPU9250_EXT_SENS_DATA_03);		
 381:..\src/IMU_functions.c ****     SPI_delay();
 382:..\src/IMU_functions.c ****     
 383:..\src/IMU_functions.c **** 	Mag[row][2] = high; 
 384:..\src/IMU_functions.c **** 	Mag[row][3] = low;
ARM GAS  C:\Users\mgnocco\AppData\Local\Temp\ccQgbceT.s 			page 13


 385:..\src/IMU_functions.c **** 	low=0, high=0;
 386:..\src/IMU_functions.c ****     
 387:..\src/IMU_functions.c **** 	//read Z
 388:..\src/IMU_functions.c **** 	low = ReadControlRegisterIMU(MPU9250_EXT_SENS_DATA_04);
 389:..\src/IMU_functions.c ****     SPI_delay();
 390:..\src/IMU_functions.c **** 	high = ReadControlRegisterIMU(MPU9250_EXT_SENS_DATA_05);
 391:..\src/IMU_functions.c ****     SPI_delay();
 392:..\src/IMU_functions.c **** 		
 393:..\src/IMU_functions.c **** 	Mag[row][4] = high; 
 394:..\src/IMU_functions.c **** 	Mag[row][5] = low;
 395:..\src/IMU_functions.c **** 	low=0, high=0;
 396:..\src/IMU_functions.c ****     */
 397:..\src/IMU_functions.c **** }
 301              		.loc 1 397 0
 302 0008 00BF     		nop
 303 000a 0C37     		adds	r7, r7, #12
 304              		.cfi_def_cfa_offset 4
 305 000c BD46     		mov	sp, r7
 306              		.cfi_def_cfa_register 13
 307              		@ sp needed
 308 000e 80BC     		pop	{r7}
 309              		.cfi_restore 7
 310              		.cfi_def_cfa_offset 0
 311 0010 7047     		bx	lr
 312              		.cfi_endproc
 313              	.LFE72:
 314              		.size	ReadMag, .-ReadMag
 315 0012 00BF     		.section	.text.ReadMagCal,"ax",%progbits
 316              		.align	2
 317              		.global	ReadMagCal
 318              		.thumb
 319              		.thumb_func
 320              		.type	ReadMagCal, %function
 321              	ReadMagCal:
 322              	.LFB73:
 398:..\src/IMU_functions.c **** 
 399:..\src/IMU_functions.c **** /********************************************************************************
 400:..\src/IMU_functions.c **** * Function Name: ReadMagCal
 401:..\src/IMU_functions.c **** *********************************************************************************/
 402:..\src/IMU_functions.c **** void ReadMagCal(int n){
 323              		.loc 1 402 0
 324              		.cfi_startproc
 325              		@ args = 0, pretend = 0, frame = 8
 326              		@ frame_needed = 1, uses_anonymous_args = 0
 327              		@ link register save eliminated.
 328 0000 80B4     		push	{r7}
 329              		.cfi_def_cfa_offset 4
 330              		.cfi_offset 7, -4
 331 0002 83B0     		sub	sp, sp, #12
 332              		.cfi_def_cfa_offset 16
 333 0004 00AF     		add	r7, sp, #0
 334              		.cfi_def_cfa_register 7
 335 0006 7860     		str	r0, [r7, #4]
 403:..\src/IMU_functions.c **** 	/*
 404:..\src/IMU_functions.c ****     uint8 read = 0; 
 405:..\src/IMU_functions.c **** 	int row = n;	
 406:..\src/IMU_functions.c **** 	//read X
ARM GAS  C:\Users\mgnocco\AppData\Local\Temp\ccQgbceT.s 			page 14


 407:..\src/IMU_functions.c **** 	read = ReadControlRegisterIMU(MPU9250_EXT_SENS_DATA_00);
 408:..\src/IMU_functions.c ****     MagCal[row][0] = read; 
 409:..\src/IMU_functions.c ****     read = 0;
 410:..\src/IMU_functions.c ****     
 411:..\src/IMU_functions.c **** 	//read Y
 412:..\src/IMU_functions.c **** 	read = ReadControlRegisterIMU(MPU9250_EXT_SENS_DATA_01);			
 413:..\src/IMU_functions.c **** 	MagCal[row][1] = read; 
 414:..\src/IMU_functions.c **** 	read = 0;
 415:..\src/IMU_functions.c ****     
 416:..\src/IMU_functions.c **** 	//read Z
 417:..\src/IMU_functions.c **** 	read = ReadControlRegisterIMU(MPU9250_EXT_SENS_DATA_02);			
 418:..\src/IMU_functions.c **** 	MagCal[row][2] = read; 
 419:..\src/IMU_functions.c **** 	read = 0;
 420:..\src/IMU_functions.c ****     */
 421:..\src/IMU_functions.c **** }
 336              		.loc 1 421 0
 337 0008 00BF     		nop
 338 000a 0C37     		adds	r7, r7, #12
 339              		.cfi_def_cfa_offset 4
 340 000c BD46     		mov	sp, r7
 341              		.cfi_def_cfa_register 13
 342              		@ sp needed
 343 000e 80BC     		pop	{r7}
 344              		.cfi_restore 7
 345              		.cfi_def_cfa_offset 0
 346 0010 7047     		bx	lr
 347              		.cfi_endproc
 348              	.LFE73:
 349              		.size	ReadMagCal, .-ReadMagCal
 350 0012 00BF     		.section	.text.ReadQuat,"ax",%progbits
 351              		.align	2
 352              		.global	ReadQuat
 353              		.thumb
 354              		.thumb_func
 355              		.type	ReadQuat, %function
 356              	ReadQuat:
 357              	.LFB74:
 422:..\src/IMU_functions.c ****     
 423:..\src/IMU_functions.c **** /*******************************************************************************
 424:..\src/IMU_functions.c **** * Function Name: Read Quaternion of IMU n
 425:..\src/IMU_functions.c **** *********************************************************************************/
 426:..\src/IMU_functions.c **** void ReadQuat(int n)
 427:..\src/IMU_functions.c **** {/*
 358              		.loc 1 427 0
 359              		.cfi_startproc
 360              		@ args = 0, pretend = 0, frame = 8
 361              		@ frame_needed = 1, uses_anonymous_args = 0
 362              		@ link register save eliminated.
 363 0000 80B4     		push	{r7}
 364              		.cfi_def_cfa_offset 4
 365              		.cfi_offset 7, -4
 366 0002 83B0     		sub	sp, sp, #12
 367              		.cfi_def_cfa_offset 16
 368 0004 00AF     		add	r7, sp, #0
 369              		.cfi_def_cfa_register 7
 370 0006 7860     		str	r0, [r7, #4]
 428:..\src/IMU_functions.c ****     int16 var_h;
ARM GAS  C:\Users\mgnocco\AppData\Local\Temp\ccQgbceT.s 			page 15


 429:..\src/IMU_functions.c ****     float qd0,qd1,qd2,qd3;        
 430:..\src/IMU_functions.c ****     float aP[3]; //, fa[3];
 431:..\src/IMU_functions.c ****     float Napla[4],g[4],qL[4];
 432:..\src/IMU_functions.c **** 
 433:..\src/IMU_functions.c ****     if (!c_mem.imu.IMU_conf[n][0]) ReadAcc(n);
 434:..\src/IMU_functions.c ****     if (!c_mem.imu.IMU_conf[n][1]) ReadGyro(n);
 435:..\src/IMU_functions.c ****     
 436:..\src/IMU_functions.c ****     // assume cycle time is the same of last function_scheduler execution,
 437:..\src/IMU_functions.c ****     // without adding another counter
 438:..\src/IMU_functions.c ****     
 439:..\src/IMU_functions.c ****     // how N sees P; N is 'Earth' equivalent, P is for sensor
 440:..\src/IMU_functions.c ****     // e.g. N = imu1, P = imu0, how imu1 sees imu0
 441:..\src/IMU_functions.c **** 
 442:..\src/IMU_functions.c ****     var_h = Accel[n][0];
 443:..\src/IMU_functions.c ****     aP[0] = (int16_t)(var_h << 8 | Accel[n][1])*TICK2ACC; 
 444:..\src/IMU_functions.c ****     var_h = Accel[n][2];
 445:..\src/IMU_functions.c ****     aP[1] = (int16_t)(var_h << 8 | Accel[n][3])*TICK2ACC; 
 446:..\src/IMU_functions.c ****     var_h = Accel[n][4];
 447:..\src/IMU_functions.c ****     aP[2] = (int16_t)(var_h << 8 | Accel[n][5])*TICK2ACC;
 448:..\src/IMU_functions.c ****     
 449:..\src/IMU_functions.c ****     g[0] = 0;
 450:..\src/IMU_functions.c ****     var_h = Gyro[n][0];
 451:..\src/IMU_functions.c ****     g[1] = ((int16)(var_h << 8 | Gyro[n][1]))*TICK2GYRO;
 452:..\src/IMU_functions.c ****     if ( fabs(g[1]) < GYRO_THR ) g[1] = 0;
 453:..\src/IMU_functions.c ****     var_h = Gyro[n][2];
 454:..\src/IMU_functions.c ****     g[2] = ((int16)(var_h << 8 | Gyro[n][3]))*TICK2GYRO; 
 455:..\src/IMU_functions.c ****     if ( fabs(g[2]) < GYRO_THR ) g[2] = 0;
 456:..\src/IMU_functions.c ****     var_h = Gyro[n][4];
 457:..\src/IMU_functions.c ****     g[3] = ((int16)(var_h << 8 | Gyro[n][5]))*TICK2GYRO;
 458:..\src/IMU_functions.c ****     if ( fabs(g[3]) < GYRO_THR ) g[3] = 0;
 459:..\src/IMU_functions.c ****     
 460:..\src/IMU_functions.c ****     // Normalize to 1
 461:..\src/IMU_functions.c ****     v3_normalize(aP);
 462:..\src/IMU_functions.c ****     
 463:..\src/IMU_functions.c ****     // Current quaternion assignment
 464:..\src/IMU_functions.c ****     qL[0] = Quat[n][0];
 465:..\src/IMU_functions.c ****     qL[1] = Quat[n][1];
 466:..\src/IMU_functions.c ****     qL[2] = Quat[n][2];
 467:..\src/IMU_functions.c ****     qL[3] = Quat[n][3];   
 468:..\src/IMU_functions.c ****     
 469:..\src/IMU_functions.c ****     // Napla computation
 470:..\src/IMU_functions.c ****     Napla[0] = (-qL[2]*((2*(qL[1]*qL[3]-qL[0]*qL[2]) - aP[0])) + qL[1]*((2*(qL[0]*qL[1] + qL[2]*qL[
 471:..\src/IMU_functions.c ****     Napla[1] = (qL[3]*((2*(qL[1]*qL[3]-qL[0]*qL[2]) - aP[0])) + qL[0]*((2*(qL[0]*qL[1] + qL[2]*qL[3
 472:..\src/IMU_functions.c ****     Napla[2] = (-qL[0]*((2*(qL[1]*qL[3]-qL[0]*qL[2]) - aP[0])) +qL[3]*((2*(qL[0]*qL[1] + qL[2]*qL[3
 473:..\src/IMU_functions.c ****     Napla[3] = (qL[1]*((2*(qL[1]*qL[3]-qL[0]*qL[2]) - aP[0])) + qL[2]*((2*(qL[0]*qL[1] + qL[2]*qL[3
 474:..\src/IMU_functions.c ****     
 475:..\src/IMU_functions.c ****     qd0 = 0.5*(-(qL[1]*g[1] + qL[2]*g[2] + qL[3]*g[3])) - Napla[0];
 476:..\src/IMU_functions.c ****     qd1 = 0.5*(qL[0]*g[1] + (qL[2]*g[3] - qL[3]*g[2])) - Napla[1];
 477:..\src/IMU_functions.c ****     qd2 = 0.5*(qL[0]*g[2] + (qL[3]*g[1] - qL[1]*g[3])) - Napla[2];
 478:..\src/IMU_functions.c ****     qd3 = 0.5*(qL[0]*g[3] + (qL[1]*g[2] - qL[2]*g[1])) - Napla[3];
 479:..\src/IMU_functions.c ****             
 480:..\src/IMU_functions.c ****     qL[0] = qL[0] + qd0*cycle_time;
 481:..\src/IMU_functions.c ****     qL[1] = qL[1] + qd1*cycle_time;
 482:..\src/IMU_functions.c ****     qL[2] = qL[2] + qd2*cycle_time;
 483:..\src/IMU_functions.c ****     qL[3] = qL[3] + qd3*cycle_time;
 484:..\src/IMU_functions.c ****     
 485:..\src/IMU_functions.c ****     if (sqrt(qL[0]*qL[0] + qL[1]*qL[1] + qL[2]*qL[2] + qL[3]*qL[3]) == 0) {
ARM GAS  C:\Users\mgnocco\AppData\Local\Temp\ccQgbceT.s 			page 16


 486:..\src/IMU_functions.c **** 	    qL[0] = Quat[n][0];
 487:..\src/IMU_functions.c **** 	    qL[1] = Quat[n][1];
 488:..\src/IMU_functions.c **** 	    qL[2] = Quat[n][2];
 489:..\src/IMU_functions.c **** 	    qL[3] = Quat[n][3];
 490:..\src/IMU_functions.c ****     }
 491:..\src/IMU_functions.c ****         
 492:..\src/IMU_functions.c ****     v4_normalize(qL);
 493:..\src/IMU_functions.c ****     
 494:..\src/IMU_functions.c ****     // Quaternion update      
 495:..\src/IMU_functions.c ****     Quat[n][0] = qL[0];
 496:..\src/IMU_functions.c ****     Quat[n][1] = qL[1];
 497:..\src/IMU_functions.c ****     Quat[n][2] = qL[2];
 498:..\src/IMU_functions.c ****     Quat[n][3] = qL[3];
 499:..\src/IMU_functions.c ****     */
 500:..\src/IMU_functions.c **** }
 371              		.loc 1 500 0
 372 0008 00BF     		nop
 373 000a 0C37     		adds	r7, r7, #12
 374              		.cfi_def_cfa_offset 4
 375 000c BD46     		mov	sp, r7
 376              		.cfi_def_cfa_register 13
 377              		@ sp needed
 378 000e 80BC     		pop	{r7}
 379              		.cfi_restore 7
 380              		.cfi_def_cfa_offset 0
 381 0010 7047     		bx	lr
 382              		.cfi_endproc
 383              	.LFE74:
 384              		.size	ReadQuat, .-ReadQuat
 385 0012 00BF     		.section	.text.ReadAllIMUs,"ax",%progbits
 386              		.align	2
 387              		.global	ReadAllIMUs
 388              		.thumb
 389              		.thumb_func
 390              		.type	ReadAllIMUs, %function
 391              	ReadAllIMUs:
 392              	.LFB75:
 501:..\src/IMU_functions.c **** 
 502:..\src/IMU_functions.c **** /********************************************************************************
 503:..\src/IMU_functions.c **** * Function Name: ReadAllIMUs
 504:..\src/IMU_functions.c **** *********************************************************************************/
 505:..\src/IMU_functions.c **** void ReadAllIMUs(){
 393              		.loc 1 505 0
 394              		.cfi_startproc
 395              		@ args = 0, pretend = 0, frame = 0
 396              		@ frame_needed = 1, uses_anonymous_args = 0
 397              		@ link register save eliminated.
 398 0000 80B4     		push	{r7}
 399              		.cfi_def_cfa_offset 4
 400              		.cfi_offset 7, -4
 401 0002 00AF     		add	r7, sp, #0
 402              		.cfi_def_cfa_register 7
 506:..\src/IMU_functions.c ****     /*
 507:..\src/IMU_functions.c ****     static uint8 k_imu = 0;
 508:..\src/IMU_functions.c ****     uint16 tmp = 0, j = 0;
 509:..\src/IMU_functions.c **** 
 510:..\src/IMU_functions.c ****     for (k_imu = 0; k_imu < N_IMU_Connected; k_imu++){ 
ARM GAS  C:\Users\mgnocco\AppData\Local\Temp\ccQgbceT.s 			page 17


 511:..\src/IMU_functions.c ****         // Read k_imu IMU
 512:..\src/IMU_functions.c ****         ChipSelectorIMU(IMU_connected[k_imu]);
 513:..\src/IMU_functions.c ****         ReadIMU(IMU_connected[k_imu]);
 514:..\src/IMU_functions.c ****         
 515:..\src/IMU_functions.c ****         for (j = 0; j < 3; j++) {
 516:..\src/IMU_functions.c ****             tmp = Accel[IMU_connected[k_imu]][2*j];
 517:..\src/IMU_functions.c ****             g_imuNew[k_imu].accel_value[j] = (int16)(tmp<<8 | Accel[IMU_connected[k_imu]][2*j + 1])
 518:..\src/IMU_functions.c ****         }
 519:..\src/IMU_functions.c ****         
 520:..\src/IMU_functions.c ****         for (j = 0; j < 3; j++) {
 521:..\src/IMU_functions.c ****             tmp = Gyro[IMU_connected[k_imu]][2*j];
 522:..\src/IMU_functions.c ****             g_imuNew[k_imu].gyro_value[j] = (int16)(tmp<<8 | Gyro[IMU_connected[k_imu]][2*j + 1]);
 523:..\src/IMU_functions.c ****         }
 524:..\src/IMU_functions.c ****                 
 525:..\src/IMU_functions.c ****         for (j = 0; j < 3; j++) {
 526:..\src/IMU_functions.c ****             tmp = Mag[IMU_connected[k_imu]][2*j];
 527:..\src/IMU_functions.c ****             g_imuNew[k_imu].mag_value[j] = (int16)(tmp<<8 | Mag[IMU_connected[k_imu]][2*j + 1]);
 528:..\src/IMU_functions.c ****         }  
 529:..\src/IMU_functions.c **** 
 530:..\src/IMU_functions.c ****         for (j = 0; j < 4; j++) {
 531:..\src/IMU_functions.c ****             g_imuNew[k_imu].quat_value[j] = (float)(Quat[IMU_connected[k_imu]][j]);
 532:..\src/IMU_functions.c ****         }
 533:..\src/IMU_functions.c ****         
 534:..\src/IMU_functions.c ****         tmp = Temp[IMU_connected[k_imu]][0];
 535:..\src/IMU_functions.c ****         g_imuNew[k_imu].temp_value = (int16)(tmp<<8 | Temp[IMU_connected[k_imu]][1]);
 536:..\src/IMU_functions.c ****     }
 537:..\src/IMU_functions.c ****     */
 538:..\src/IMU_functions.c **** }
 403              		.loc 1 538 0
 404 0004 00BF     		nop
 405 0006 BD46     		mov	sp, r7
 406              		.cfi_def_cfa_register 13
 407              		@ sp needed
 408 0008 80BC     		pop	{r7}
 409              		.cfi_restore 7
 410              		.cfi_def_cfa_offset 0
 411 000a 7047     		bx	lr
 412              		.cfi_endproc
 413              	.LFE75:
 414              		.size	ReadAllIMUs, .-ReadAllIMUs
 415              		.section	.text.ReadTemp,"ax",%progbits
 416              		.align	2
 417              		.global	ReadTemp
 418              		.thumb
 419              		.thumb_func
 420              		.type	ReadTemp, %function
 421              	ReadTemp:
 422              	.LFB76:
 539:..\src/IMU_functions.c **** 
 540:..\src/IMU_functions.c **** /*******************************************************************************
 541:..\src/IMU_functions.c **** * Function Name: Read Temperature Data of IMU n
 542:..\src/IMU_functions.c **** *********************************************************************************/
 543:..\src/IMU_functions.c **** void ReadTemp(int n)
 544:..\src/IMU_functions.c **** {/*
 423              		.loc 1 544 0
 424              		.cfi_startproc
 425              		@ args = 0, pretend = 0, frame = 8
ARM GAS  C:\Users\mgnocco\AppData\Local\Temp\ccQgbceT.s 			page 18


 426              		@ frame_needed = 1, uses_anonymous_args = 0
 427              		@ link register save eliminated.
 428 0000 80B4     		push	{r7}
 429              		.cfi_def_cfa_offset 4
 430              		.cfi_offset 7, -4
 431 0002 83B0     		sub	sp, sp, #12
 432              		.cfi_def_cfa_offset 16
 433 0004 00AF     		add	r7, sp, #0
 434              		.cfi_def_cfa_register 7
 435 0006 7860     		str	r0, [r7, #4]
 545:..\src/IMU_functions.c **** 	uint8 low=0, high=0;	
 546:..\src/IMU_functions.c **** 	int row = n;
 547:..\src/IMU_functions.c **** 	
 548:..\src/IMU_functions.c **** 	//read X
 549:..\src/IMU_functions.c ****     low=ReadControlRegisterIMU(MPU9250_TEMP_OUT_L);
 550:..\src/IMU_functions.c ****     SPI_delay();
 551:..\src/IMU_functions.c **** 	high=ReadControlRegisterIMU(MPU9250_TEMP_OUT_H);
 552:..\src/IMU_functions.c ****     SPI_delay();
 553:..\src/IMU_functions.c **** 
 554:..\src/IMU_functions.c **** 	Temp[row][0] = high; 
 555:..\src/IMU_functions.c **** 	Temp[row][1] = low; 
 556:..\src/IMU_functions.c **** 	low=0, high=0;
 557:..\src/IMU_functions.c ****     */
 558:..\src/IMU_functions.c **** }
 436              		.loc 1 558 0
 437 0008 00BF     		nop
 438 000a 0C37     		adds	r7, r7, #12
 439              		.cfi_def_cfa_offset 4
 440 000c BD46     		mov	sp, r7
 441              		.cfi_def_cfa_register 13
 442              		@ sp needed
 443 000e 80BC     		pop	{r7}
 444              		.cfi_restore 7
 445              		.cfi_def_cfa_offset 0
 446 0010 7047     		bx	lr
 447              		.cfi_endproc
 448              	.LFE76:
 449              		.size	ReadTemp, .-ReadTemp
 450 0012 00BF     		.section	.text.WriteControlRegisterIMU,"ax",%progbits
 451              		.align	2
 452              		.global	WriteControlRegisterIMU
 453              		.thumb
 454              		.thumb_func
 455              		.type	WriteControlRegisterIMU, %function
 456              	WriteControlRegisterIMU:
 457              	.LFB77:
 559:..\src/IMU_functions.c **** 
 560:..\src/IMU_functions.c **** /********************************** *********************************************
 561:..\src/IMU_functions.c **** * Function Name: Write Control Register
 562:..\src/IMU_functions.c **** *********************************************************************************/
 563:..\src/IMU_functions.c **** void WriteControlRegisterIMU(uint8 address, uint8 dta){
 458              		.loc 1 563 0
 459              		.cfi_startproc
 460              		@ args = 0, pretend = 0, frame = 8
 461              		@ frame_needed = 1, uses_anonymous_args = 0
 462              		@ link register save eliminated.
 463 0000 80B4     		push	{r7}
ARM GAS  C:\Users\mgnocco\AppData\Local\Temp\ccQgbceT.s 			page 19


 464              		.cfi_def_cfa_offset 4
 465              		.cfi_offset 7, -4
 466 0002 83B0     		sub	sp, sp, #12
 467              		.cfi_def_cfa_offset 16
 468 0004 00AF     		add	r7, sp, #0
 469              		.cfi_def_cfa_register 7
 470 0006 0346     		mov	r3, r0
 471 0008 0A46     		mov	r2, r1
 472 000a FB71     		strb	r3, [r7, #7]
 473 000c 1346     		mov	r3, r2
 474 000e BB71     		strb	r3, [r7, #6]
 564:..\src/IMU_functions.c **** 	/*
 565:..\src/IMU_functions.c **** 	SPI_IMU_ClearRxBuffer();
 566:..\src/IMU_functions.c **** 	SPI_IMU_ClearTxBuffer();
 567:..\src/IMU_functions.c **** 	SPI_IMU_ClearFIFO();
 568:..\src/IMU_functions.c **** 	SPI_IMU_WriteByte(MPU9250_WCR | address);
 569:..\src/IMU_functions.c **** 	while(!( SPI_IMU_ReadStatus() & SPI_IMU_STS_TX_FIFO_EMPTY));		
 570:..\src/IMU_functions.c **** 	SPI_IMU_WriteByte(dta);
 571:..\src/IMU_functions.c **** 	while(!( SPI_IMU_ReadStatus() & SPI_IMU_STS_TX_FIFO_EMPTY));
 572:..\src/IMU_functions.c ****     */
 573:..\src/IMU_functions.c **** }
 475              		.loc 1 573 0
 476 0010 00BF     		nop
 477 0012 0C37     		adds	r7, r7, #12
 478              		.cfi_def_cfa_offset 4
 479 0014 BD46     		mov	sp, r7
 480              		.cfi_def_cfa_register 13
 481              		@ sp needed
 482 0016 80BC     		pop	{r7}
 483              		.cfi_restore 7
 484              		.cfi_def_cfa_offset 0
 485 0018 7047     		bx	lr
 486              		.cfi_endproc
 487              	.LFE77:
 488              		.size	WriteControlRegisterIMU, .-WriteControlRegisterIMU
 489 001a 00BF     		.section	.text.ReadControlRegisterIMU,"ax",%progbits
 490              		.align	2
 491              		.global	ReadControlRegisterIMU
 492              		.thumb
 493              		.thumb_func
 494              		.type	ReadControlRegisterIMU, %function
 495              	ReadControlRegisterIMU:
 496              	.LFB78:
 574:..\src/IMU_functions.c **** 
 575:..\src/IMU_functions.c **** /*******************************************************************************
 576:..\src/IMU_functions.c **** * Function Name: Read Control Register
 577:..\src/IMU_functions.c **** *********************************************************************************/
 578:..\src/IMU_functions.c **** uint8 ReadControlRegisterIMU(uint8 address){
 497              		.loc 1 578 0
 498              		.cfi_startproc
 499              		@ args = 0, pretend = 0, frame = 8
 500              		@ frame_needed = 1, uses_anonymous_args = 0
 501              		@ link register save eliminated.
 502 0000 80B4     		push	{r7}
 503              		.cfi_def_cfa_offset 4
 504              		.cfi_offset 7, -4
 505 0002 83B0     		sub	sp, sp, #12
ARM GAS  C:\Users\mgnocco\AppData\Local\Temp\ccQgbceT.s 			page 20


 506              		.cfi_def_cfa_offset 16
 507 0004 00AF     		add	r7, sp, #0
 508              		.cfi_def_cfa_register 7
 509 0006 0346     		mov	r3, r0
 510 0008 FB71     		strb	r3, [r7, #7]
 579:..\src/IMU_functions.c ****     /*
 580:..\src/IMU_functions.c **** 	uint8 controlreg = 0;
 581:..\src/IMU_functions.c **** 	
 582:..\src/IMU_functions.c **** 	SPI_IMU_WriteByte(MPU9250_RCR | address);
 583:..\src/IMU_functions.c ****     while(!( SPI_IMU_ReadStatus() & SPI_IMU_STS_TX_FIFO_EMPTY));
 584:..\src/IMU_functions.c ****     SPI_IMU_WriteByte(0x00);
 585:..\src/IMU_functions.c **** 	while(!( SPI_IMU_ReadStatus() & SPI_IMU_STS_SPI_DONE));
 586:..\src/IMU_functions.c **** 	controlreg = SPI_IMU_ReadByte();        //real data
 587:..\src/IMU_functions.c **** 	return controlreg;
 588:..\src/IMU_functions.c ****     */
 589:..\src/IMU_functions.c ****     return 0;
 511              		.loc 1 589 0
 512 000a 0023     		movs	r3, #0
 590:..\src/IMU_functions.c **** }
 513              		.loc 1 590 0
 514 000c 1846     		mov	r0, r3
 515 000e 0C37     		adds	r7, r7, #12
 516              		.cfi_def_cfa_offset 4
 517 0010 BD46     		mov	sp, r7
 518              		.cfi_def_cfa_register 13
 519              		@ sp needed
 520 0012 80BC     		pop	{r7}
 521              		.cfi_restore 7
 522              		.cfi_def_cfa_offset 0
 523 0014 7047     		bx	lr
 524              		.cfi_endproc
 525              	.LFE78:
 526              		.size	ReadControlRegisterIMU, .-ReadControlRegisterIMU
 527 0016 00BF     		.section	.text.SPI_delay,"ax",%progbits
 528              		.align	2
 529              		.global	SPI_delay
 530              		.thumb
 531              		.thumb_func
 532              		.type	SPI_delay, %function
 533              	SPI_delay:
 534              	.LFB79:
 591:..\src/IMU_functions.c **** 
 592:..\src/IMU_functions.c **** /*******************************************************************************
 593:..\src/IMU_functions.c **** * Function Name: SPI delay
 594:..\src/IMU_functions.c **** *********************************************************************************/
 595:..\src/IMU_functions.c **** void SPI_delay(){
 535              		.loc 1 595 0
 536              		.cfi_startproc
 537              		@ args = 0, pretend = 0, frame = 0
 538              		@ frame_needed = 1, uses_anonymous_args = 0
 539              		@ link register save eliminated.
 540 0000 80B4     		push	{r7}
 541              		.cfi_def_cfa_offset 4
 542              		.cfi_offset 7, -4
 543 0002 00AF     		add	r7, sp, #0
 544              		.cfi_def_cfa_register 7
 596:..\src/IMU_functions.c ****     /*
ARM GAS  C:\Users\mgnocco\AppData\Local\Temp\ccQgbceT.s 			page 21


 597:..\src/IMU_functions.c ****     switch( c_mem.imu.SPI_read_delay ) {
 598:..\src/IMU_functions.c ****         case 1:     // Low
 599:..\src/IMU_functions.c ****             CyDelayUs((uint16)SPI_DELAY_LOW);
 600:..\src/IMU_functions.c ****             break;
 601:..\src/IMU_functions.c ****         case 2:     // High
 602:..\src/IMU_functions.c ****             CyDelayUs((uint16)SPI_DELAY_HIGH);
 603:..\src/IMU_functions.c ****             break;
 604:..\src/IMU_functions.c ****         default:    // None
 605:..\src/IMU_functions.c ****             break;
 606:..\src/IMU_functions.c ****     }
 607:..\src/IMU_functions.c ****     */
 608:..\src/IMU_functions.c **** }...
 545              		.loc 1 608 0
 546 0004 00BF     		nop
 547 0006 BD46     		mov	sp, r7
 548              		.cfi_def_cfa_register 13
 549              		@ sp needed
 550 0008 80BC     		pop	{r7}
 551              		.cfi_restore 7
 552              		.cfi_def_cfa_offset 0
 553 000a 7047     		bx	lr
 554              		.cfi_endproc
 555              	.LFE79:
 556              		.size	SPI_delay, .-SPI_delay
 557              		.text
 558              	.Letext0:
 559              		.file 2 "c:\\program files (x86)\\cypress\\psoc creator\\4.4\\psoc creator\\import\\gnu\\arm\\5.4.
 560              		.file 3 "c:\\program files (x86)\\cypress\\psoc creator\\4.4\\psoc creator\\import\\gnu\\arm\\5.4.
 561              		.file 4 "Generated_Source\\PSoC5/cytypes.h"
 562              		.file 5 "Generated_Source\\PSoC5/core_cm3.h"