ARM GAS  C:\Users\mgnocco\AppData\Local\Temp\ccN5vhdn.s 			page 1


   1              		.syntax unified
   2              		.cpu cortex-m3
   3              		.fpu softvfp
   4              		.eabi_attribute 20, 1
   5              		.eabi_attribute 21, 1
   6              		.eabi_attribute 23, 3
   7              		.eabi_attribute 24, 1
   8              		.eabi_attribute 25, 1
   9              		.eabi_attribute 26, 1
  10              		.eabi_attribute 30, 6
  11              		.eabi_attribute 34, 1
  12              		.eabi_attribute 18, 4
  13              		.thumb
  14              		.syntax unified
  15              		.file	"interruptions.c"
  16              		.text
  17              	.Ltext0:
  18              		.cfi_sections	.debug_frame
  19              		.section	.rodata
  20              		.align	2
  21              		.type	pwm_preload_values, %object
  22              		.size	pwm_preload_values, 29
  23              	pwm_preload_values:
  24 0000 64       		.byte	100
  25 0001 53       		.byte	83
  26 0002 4E       		.byte	78
  27 0003 4C       		.byte	76
  28 0004 4A       		.byte	74
  29 0005 48       		.byte	72
  30 0006 46       		.byte	70
  31 0007 44       		.byte	68
  32 0008 43       		.byte	67
  33 0009 41       		.byte	65
  34 000a 40       		.byte	64
  35 000b 3F       		.byte	63
  36 000c 3E       		.byte	62
  37 000d 3D       		.byte	61
  38 000e 3C       		.byte	60
  39 000f 3B       		.byte	59
  40 0010 3A       		.byte	58
  41 0011 39       		.byte	57
  42 0012 38       		.byte	56
  43 0013 38       		.byte	56
  44 0014 37       		.byte	55
  45 0015 36       		.byte	54
  46 0016 36       		.byte	54
  47 0017 35       		.byte	53
  48 0018 34       		.byte	52
  49 0019 34       		.byte	52
  50 001a 34       		.byte	52
  51 001b 33       		.byte	51
  52 001c 33       		.byte	51
  53              		.section	.text.ISR_RS485_RX_ExInterrupt,"ax",%progbits
  54              		.align	2
  55              		.global	ISR_RS485_RX_ExInterrupt
  56              		.thumb
  57              		.thumb_func
ARM GAS  C:\Users\mgnocco\AppData\Local\Temp\ccN5vhdn.s 			page 2


  58              		.type	ISR_RS485_RX_ExInterrupt, %function
  59              	ISR_RS485_RX_ExInterrupt:
  60              	.LFB64:
  61              		.file 1 "..\\src\\interruptions.c"
   1:..\src/interruptions.c **** // ----------------------------------------------------------------------------
   2:..\src/interruptions.c **** // BSD 3-Clause License
   3:..\src/interruptions.c **** 
   4:..\src/interruptions.c **** // Copyright (c) 2016, qbrobotics
   5:..\src/interruptions.c **** // Copyright (c) 2017-2020, Centro "E.Piaggio"
   6:..\src/interruptions.c **** // All rights reserved.
   7:..\src/interruptions.c **** 
   8:..\src/interruptions.c **** // Redistribution and use in source and binary forms, with or without
   9:..\src/interruptions.c **** // modification, are permitted provided that the following conditions are met:
  10:..\src/interruptions.c **** 
  11:..\src/interruptions.c **** // * Redistributions of source code must retain the above copyright notice, this
  12:..\src/interruptions.c **** //   list of conditions and the following disclaimer.
  13:..\src/interruptions.c **** 
  14:..\src/interruptions.c **** // * Redistributions in binary form must reproduce the above copyright notice,
  15:..\src/interruptions.c **** //   this list of conditions and the following disclaimer in the documentation
  16:..\src/interruptions.c **** //   and/or other materials provided with the distribution.
  17:..\src/interruptions.c **** 
  18:..\src/interruptions.c **** // * Neither the name of the copyright holder nor the names of its
  19:..\src/interruptions.c **** //   contributors may be used to endorse or promote products derived from
  20:..\src/interruptions.c **** //   this software without specific prior written permission.
  21:..\src/interruptions.c **** 
  22:..\src/interruptions.c **** // THIS SOFTWARE IS PROVIDED BY THE COPYRIGHT HOLDERS AND CONTRIBUTORS "AS IS"
  23:..\src/interruptions.c **** // AND ANY EXPRESS OR IMPLIED WARRANTIES, INCLUDING, BUT NOT LIMITED TO, THE
  24:..\src/interruptions.c **** // IMPLIED WARRANTIES OF MERCHANTABILITY AND FITNESS FOR A PARTICULAR PURPOSE ARE
  25:..\src/interruptions.c **** // DISCLAIMED. IN NO EVENT SHALL THE COPYRIGHT HOLDER OR CONTRIBUTORS BE LIABLE
  26:..\src/interruptions.c **** // FOR ANY DIRECT, INDIRECT, INCIDENTAL, SPECIAL, EXEMPLARY, OR CONSEQUENTIAL
  27:..\src/interruptions.c **** // DAMAGES (INCLUDING, BUT NOT LIMITED TO, PROCUREMENT OF SUBSTITUTE GOODS OR
  28:..\src/interruptions.c **** // SERVICES; LOSS OF USE, DATA, OR PROFITS; OR BUSINESS INTERRUPTION) HOWEVER
  29:..\src/interruptions.c **** // CAUSED AND ON ANY THEORY OF LIABILITY, WHETHER IN CONTRACT, STRICT LIABILITY,
  30:..\src/interruptions.c **** // OR TORT (INCLUDING NEGLIGENCE OR OTHERWISE) ARISING IN ANY WAY OUT OF THE USE
  31:..\src/interruptions.c **** // OF THIS SOFTWARE, EVEN IF ADVISED OF THE POSSIBILITY OF SUCH DAMAGE.
  32:..\src/interruptions.c **** // POSSIBILITY OF SUCH DAMAGE.
  33:..\src/interruptions.c **** // ----------------------------------------------------------------------------
  34:..\src/interruptions.c **** 
  35:..\src/interruptions.c **** /**
  36:..\src/interruptions.c **** * \file         interruptions.c
  37:..\src/interruptions.c **** *
  38:..\src/interruptions.c **** * \brief        Interruption handling and firmware core functions
  39:..\src/interruptions.c **** * \date         March 20th, 2020
  40:..\src/interruptions.c **** * \author       _Centro "E.Piaggio"_
  41:..\src/interruptions.c **** * \copyright    (C) 2012-2016 qbrobotics. All rights reserved.
  42:..\src/interruptions.c **** * \copyright    (C) 2017-2020 Centro "E.Piaggio". All rights reserved.
  43:..\src/interruptions.c **** */
  44:..\src/interruptions.c **** 
  45:..\src/interruptions.c **** 
  46:..\src/interruptions.c **** //=================================================================     includes
  47:..\src/interruptions.c **** #include "interruptions.h"
  48:..\src/interruptions.c **** 
  49:..\src/interruptions.c **** //==============================================================================
  50:..\src/interruptions.c **** //                                                            RS485 RX INTERRUPT
  51:..\src/interruptions.c **** //==============================================================================
  52:..\src/interruptions.c **** // Processing RS-485 data frame:
  53:..\src/interruptions.c **** //
ARM GAS  C:\Users\mgnocco\AppData\Local\Temp\ccN5vhdn.s 			page 3


  54:..\src/interruptions.c **** // - 0:     Waits for beginning characters
  55:..\src/interruptions.c **** // - 1:     Waits for ID;
  56:..\src/interruptions.c **** // - 2:     Data length;
  57:..\src/interruptions.c **** // - 3:     Receive all bytes;
  58:..\src/interruptions.c **** // - 4:     Wait for another device end of transmission;
  59:..\src/interruptions.c **** //
  60:..\src/interruptions.c **** //==============================================================================
  61:..\src/interruptions.c **** 
  62:..\src/interruptions.c **** // PWM values needed to obtain 11.5 V given a certain input tension
  63:..\src/interruptions.c **** // Numbers are sperimentally calculated //[index] (millivolts)
  64:..\src/interruptions.c **** static const uint8 pwm_preload_values[29] = {100,    //0 (11500)
  65:..\src/interruptions.c ****                                               83,
  66:..\src/interruptions.c ****                                               78,
  67:..\src/interruptions.c ****                                               76,
  68:..\src/interruptions.c ****                                               74,
  69:..\src/interruptions.c ****                                               72,    //5 (14000)
  70:..\src/interruptions.c ****                                               70,
  71:..\src/interruptions.c ****                                               68,
  72:..\src/interruptions.c ****                                               67,
  73:..\src/interruptions.c ****                                               65,
  74:..\src/interruptions.c ****                                               64,    //10 (16500)
  75:..\src/interruptions.c ****                                               63,
  76:..\src/interruptions.c ****                                               62,
  77:..\src/interruptions.c ****                                               61,
  78:..\src/interruptions.c ****                                               60,
  79:..\src/interruptions.c ****                                               59,    //15 (19000)
  80:..\src/interruptions.c ****                                               58,
  81:..\src/interruptions.c ****                                               57,
  82:..\src/interruptions.c ****                                               56,
  83:..\src/interruptions.c ****                                               56,
  84:..\src/interruptions.c ****                                               55,    //20 (21500)
  85:..\src/interruptions.c ****                                               54,
  86:..\src/interruptions.c ****                                               54,
  87:..\src/interruptions.c ****                                               53,
  88:..\src/interruptions.c ****                                               52,
  89:..\src/interruptions.c ****                                               52,    //25 (24000)
  90:..\src/interruptions.c ****                                               52,
  91:..\src/interruptions.c ****                                               51,
  92:..\src/interruptions.c ****                                               51};   //28 (25500)
  93:..\src/interruptions.c **** 
  94:..\src/interruptions.c **** //==============================================================================
  95:..\src/interruptions.c **** //                                                            RS485 RX INTERRUPT
  96:..\src/interruptions.c **** //==============================================================================
  97:..\src/interruptions.c **** 
  98:..\src/interruptions.c **** CY_ISR(ISR_RS485_RX_ExInterrupt) {
  62              		.loc 1 98 0
  63              		.cfi_startproc
  64              		@ args = 0, pretend = 0, frame = 0
  65              		@ frame_needed = 1, uses_anonymous_args = 0
  66              		@ link register save eliminated.
  67 0000 80B4     		push	{r7}
  68              		.cfi_def_cfa_offset 4
  69              		.cfi_offset 7, -4
  70 0002 00AF     		add	r7, sp, #0
  71              		.cfi_def_cfa_register 7
  99:..\src/interruptions.c **** 
 100:..\src/interruptions.c ****     // Set RS485 flag
ARM GAS  C:\Users\mgnocco\AppData\Local\Temp\ccN5vhdn.s 			page 4


 101:..\src/interruptions.c ****     
 102:..\src/interruptions.c ****     interrupt_flag = TRUE;
  72              		.loc 1 102 0
  73 0004 034B     		ldr	r3, .L2
  74 0006 0122     		movs	r2, #1
  75 0008 1A70     		strb	r2, [r3]
 103:..\src/interruptions.c ****      
 104:..\src/interruptions.c **** }
  76              		.loc 1 104 0
  77 000a 00BF     		nop
  78 000c BD46     		mov	sp, r7
  79              		.cfi_def_cfa_register 13
  80              		@ sp needed
  81 000e 80BC     		pop	{r7}
  82              		.cfi_restore 7
  83              		.cfi_def_cfa_offset 0
  84 0010 7047     		bx	lr
  85              	.L3:
  86 0012 00BF     		.align	2
  87              	.L2:
  88 0014 00000000 		.word	interrupt_flag
  89              		.cfi_endproc
  90              	.LFE64:
  91              		.size	ISR_RS485_RX_ExInterrupt, .-ISR_RS485_RX_ExInterrupt
  92              		.section	.text.ISR_CYCLES_Handler,"ax",%progbits
  93              		.align	2
  94              		.global	ISR_CYCLES_Handler
  95              		.thumb
  96              		.thumb_func
  97              		.type	ISR_CYCLES_Handler, %function
  98              	ISR_CYCLES_Handler:
  99              	.LFB65:
 105:..\src/interruptions.c **** 
 106:..\src/interruptions.c **** //==============================================================================
 107:..\src/interruptions.c **** //                                                        CYCLES TIMER INTERRUPT
 108:..\src/interruptions.c **** //==============================================================================
 109:..\src/interruptions.c **** CY_ISR(ISR_CYCLES_Handler){
 100              		.loc 1 109 0
 101              		.cfi_startproc
 102              		@ args = 0, pretend = 0, frame = 0
 103              		@ frame_needed = 1, uses_anonymous_args = 0
 104              		@ link register save eliminated.
 105 0000 80B4     		push	{r7}
 106              		.cfi_def_cfa_offset 4
 107              		.cfi_offset 7, -4
 108 0002 00AF     		add	r7, sp, #0
 109              		.cfi_def_cfa_register 7
 110:..\src/interruptions.c **** 
 111:..\src/interruptions.c ****     // Set cycles interrupt flag
 112:..\src/interruptions.c ****     
 113:..\src/interruptions.c ****     cycles_interrupt_flag = TRUE;
 110              		.loc 1 113 0
 111 0004 044B     		ldr	r3, .L5
 112 0006 0122     		movs	r2, #1
 113 0008 1A70     		strb	r2, [r3]
 114:..\src/interruptions.c ****     
 115:..\src/interruptions.c ****     CYCLES_TIMER_STATUS;
ARM GAS  C:\Users\mgnocco\AppData\Local\Temp\ccN5vhdn.s 			page 5


 114              		.loc 1 115 0
 115 000a 044B     		ldr	r3, .L5+4
 116 000c 1B78     		ldrb	r3, [r3]
 116:..\src/interruptions.c **** 
 117:..\src/interruptions.c **** }
 117              		.loc 1 117 0
 118 000e 00BF     		nop
 119 0010 BD46     		mov	sp, r7
 120              		.cfi_def_cfa_register 13
 121              		@ sp needed
 122 0012 80BC     		pop	{r7}
 123              		.cfi_restore 7
 124              		.cfi_def_cfa_offset 0
 125 0014 7047     		bx	lr
 126              	.L6:
 127 0016 00BF     		.align	2
 128              	.L5:
 129 0018 00000000 		.word	cycles_interrupt_flag
 130 001c 034F0040 		.word	1073762051
 131              		.cfi_endproc
 132              	.LFE65:
 133              		.size	ISR_CYCLES_Handler, .-ISR_CYCLES_Handler
 134              		.section	.text.interrupt_manager,"ax",%progbits
 135              		.align	2
 136              		.global	interrupt_manager
 137              		.thumb
 138              		.thumb_func
 139              		.type	interrupt_manager, %function
 140              	interrupt_manager:
 141              	.LFB66:
 118:..\src/interruptions.c **** 
 119:..\src/interruptions.c **** //==============================================================================
 120:..\src/interruptions.c **** //                                                             INTERRUPT MANAGER
 121:..\src/interruptions.c **** //==============================================================================
 122:..\src/interruptions.c **** // Manage interrupt from RS485 
 123:..\src/interruptions.c **** //==============================================================================
 124:..\src/interruptions.c **** // Processing RS-485 data frame:
 125:..\src/interruptions.c **** //
 126:..\src/interruptions.c **** // - WAIT_START:    Waits for beginning characters;
 127:..\src/interruptions.c **** // - WAIT_ID:       Waits for ID;
 128:..\src/interruptions.c **** // - WAIT_LENGTH:   Data length;
 129:..\src/interruptions.c **** // - RECEIVE:       Receive all bytes;
 130:..\src/interruptions.c **** // - UNLOAD:        Wait for another device end of transmission;
 131:..\src/interruptions.c **** //
 132:..\src/interruptions.c **** //==============================================================================
 133:..\src/interruptions.c **** 
 134:..\src/interruptions.c **** void interrupt_manager(){
 142              		.loc 1 134 0
 143              		.cfi_startproc
 144              		@ args = 0, pretend = 0, frame = 8
 145              		@ frame_needed = 1, uses_anonymous_args = 0
 146 0000 80B5     		push	{r7, lr}
 147              		.cfi_def_cfa_offset 8
 148              		.cfi_offset 7, -8
 149              		.cfi_offset 14, -4
 150 0002 82B0     		sub	sp, sp, #8
 151              		.cfi_def_cfa_offset 16
ARM GAS  C:\Users\mgnocco\AppData\Local\Temp\ccN5vhdn.s 			page 6


 152 0004 00AF     		add	r7, sp, #0
 153              		.cfi_def_cfa_register 7
 135:..\src/interruptions.c **** 
 136:..\src/interruptions.c ****     
 137:..\src/interruptions.c ****     //===========================================     local variables definition
 138:..\src/interruptions.c **** 
 139:..\src/interruptions.c ****     static uint8 CYDATA state = WAIT_START;                      // state
 140:..\src/interruptions.c ****     
 141:..\src/interruptions.c ****     //------------------------------------------------- local data packet
 142:..\src/interruptions.c ****     static uint8 CYDATA data_packet_index;
 143:..\src/interruptions.c ****     static uint8 CYDATA data_packet_length;
 144:..\src/interruptions.c ****     static uint8 data_packet_buffer[128];                     
 145:..\src/interruptions.c ****     static uint8 CYDATA rx_queue[3];                    // last 2 bytes received
 146:..\src/interruptions.c ****     //-------------------------------------------------
 147:..\src/interruptions.c **** 
 148:..\src/interruptions.c ****     uint8 CYDATA    rx_data;                            // RS485 UART rx data
 149:..\src/interruptions.c ****     CYBIT           rx_data_type = TRUE;                       // my id?
 154              		.loc 1 149 0
 155 0006 0123     		movs	r3, #1
 156 0008 FB71     		strb	r3, [r7, #7]
 150:..\src/interruptions.c ****     uint8 CYDATA    package_count = 0;                     
 157              		.loc 1 150 0
 158 000a 0023     		movs	r3, #0
 159 000c BB71     		strb	r3, [r7, #6]
 151:..\src/interruptions.c **** 
 152:..\src/interruptions.c ****     //======================================================     receive routine
 153:..\src/interruptions.c ****     
 154:..\src/interruptions.c ****     while(UART_RS485_GetRxBufferSize() && (package_count < 100)){
 160              		.loc 1 154 0
 161 000e E0E0     		b	.L8
 162              	.L28:
 155:..\src/interruptions.c ****         // 100 - estimated maximum number of packets we can read without blocking firmware executio
 156:..\src/interruptions.c **** 
 157:..\src/interruptions.c ****         // Get next char
 158:..\src/interruptions.c ****         rx_data = UART_RS485_GetChar();
 163              		.loc 1 158 0
 164 0010 FFF7FEFF 		bl	UART_RS485_GetChar
 165 0014 0346     		mov	r3, r0
 166 0016 7B71     		strb	r3, [r7, #5]
 159:..\src/interruptions.c ****         
 160:..\src/interruptions.c ****         switch (state) {
 167              		.loc 1 160 0
 168 0018 744B     		ldr	r3, .L31
 169 001a 1B78     		ldrb	r3, [r3]	@ zero_extendqisi2
 170 001c 042B     		cmp	r3, #4
 171 001e 00F2D880 		bhi	.L8
 172 0022 01A2     		adr	r2, .L10
 173 0024 52F823F0 		ldr	pc, [r2, r3, lsl #2]
 174              		.p2align 2
 175              	.L10:
 176 0028 3D000000 		.word	.L9+1
 177 002c A3000000 		.word	.L11+1
 178 0030 E1000000 		.word	.L12+1
 179 0034 2F010000 		.word	.L13+1
 180 0038 99010000 		.word	.L14+1
 181              		.p2align 1
 182              	.L9:
ARM GAS  C:\Users\mgnocco\AppData\Local\Temp\ccN5vhdn.s 			page 7


 161:..\src/interruptions.c ****             //-----     wait for frame start     -------------------------------
 162:..\src/interruptions.c ****             case WAIT_START:
 163:..\src/interruptions.c ****             
 164:..\src/interruptions.c ****                 rx_queue[0] = rx_queue[1];
 183              		.loc 1 164 0
 184 003c 6C4B     		ldr	r3, .L31+4
 185 003e 5A78     		ldrb	r2, [r3, #1]	@ zero_extendqisi2
 186 0040 6B4B     		ldr	r3, .L31+4
 187 0042 1A70     		strb	r2, [r3]
 165:..\src/interruptions.c ****                 rx_queue[1] = rx_queue[2];
 188              		.loc 1 165 0
 189 0044 6A4B     		ldr	r3, .L31+4
 190 0046 9A78     		ldrb	r2, [r3, #2]	@ zero_extendqisi2
 191 0048 694B     		ldr	r3, .L31+4
 192 004a 5A70     		strb	r2, [r3, #1]
 166:..\src/interruptions.c ****                 rx_queue[2] = rx_data;
 193              		.loc 1 166 0
 194 004c 684A     		ldr	r2, .L31+4
 195 004e 7B79     		ldrb	r3, [r7, #5]
 196 0050 9370     		strb	r3, [r2, #2]
 167:..\src/interruptions.c ****                 
 168:..\src/interruptions.c ****                 // Check for header configuration package
 169:..\src/interruptions.c ****                 if ((rx_queue[1] == 58) && (rx_queue[2] == 58)) {
 197              		.loc 1 169 0
 198 0052 674B     		ldr	r3, .L31+4
 199 0054 5B78     		ldrb	r3, [r3, #1]	@ zero_extendqisi2
 200 0056 3A2B     		cmp	r3, #58
 201 0058 10D1     		bne	.L15
 202              		.loc 1 169 0 is_stmt 0 discriminator 1
 203 005a 654B     		ldr	r3, .L31+4
 204 005c 9B78     		ldrb	r3, [r3, #2]	@ zero_extendqisi2
 205 005e 3A2B     		cmp	r3, #58
 206 0060 0CD1     		bne	.L15
 170:..\src/interruptions.c ****                     rx_queue[0] = 0;
 207              		.loc 1 170 0 is_stmt 1
 208 0062 634B     		ldr	r3, .L31+4
 209 0064 0022     		movs	r2, #0
 210 0066 1A70     		strb	r2, [r3]
 171:..\src/interruptions.c ****                     rx_queue[1] = 0;
 211              		.loc 1 171 0
 212 0068 614B     		ldr	r3, .L31+4
 213 006a 0022     		movs	r2, #0
 214 006c 5A70     		strb	r2, [r3, #1]
 172:..\src/interruptions.c ****                     rx_queue[2] = 0;
 215              		.loc 1 172 0
 216 006e 604B     		ldr	r3, .L31+4
 217 0070 0022     		movs	r2, #0
 218 0072 9A70     		strb	r2, [r3, #2]
 173:..\src/interruptions.c ****                     state       = WAIT_ID;                    
 219              		.loc 1 173 0
 220 0074 5D4B     		ldr	r3, .L31
 221 0076 0122     		movs	r2, #1
 222 0078 1A70     		strb	r2, [r3]
 223 007a 11E0     		b	.L16
 224              	.L15:
 174:..\src/interruptions.c ****                 }else
 175:..\src/interruptions.c ****                     if ((rx_queue[0] == 63) &&      //ASCII - ?
ARM GAS  C:\Users\mgnocco\AppData\Local\Temp\ccN5vhdn.s 			page 8


 225              		.loc 1 175 0
 226 007c 5C4B     		ldr	r3, .L31+4
 227 007e 1B78     		ldrb	r3, [r3]	@ zero_extendqisi2
 228 0080 3F2B     		cmp	r3, #63
 229 0082 40F0A680 		bne	.L8
 176:..\src/interruptions.c ****                         (rx_queue[1] == 13) &&      //ASCII - CR
 230              		.loc 1 176 0 discriminator 1
 231 0086 5A4B     		ldr	r3, .L31+4
 232 0088 5B78     		ldrb	r3, [r3, #1]	@ zero_extendqisi2
 175:..\src/interruptions.c ****                         (rx_queue[1] == 13) &&      //ASCII - CR
 233              		.loc 1 175 0 discriminator 1
 234 008a 0D2B     		cmp	r3, #13
 235 008c 40F0A180 		bne	.L8
 177:..\src/interruptions.c ****                         (rx_queue[2] == 10))        //ASCII - LF)
 236              		.loc 1 177 0
 237 0090 574B     		ldr	r3, .L31+4
 238 0092 9B78     		ldrb	r3, [r3, #2]	@ zero_extendqisi2
 176:..\src/interruptions.c ****                         (rx_queue[1] == 13) &&      //ASCII - CR
 239              		.loc 1 176 0
 240 0094 0A2B     		cmp	r3, #10
 241 0096 40F09C80 		bne	.L8
 178:..\src/interruptions.c ****                         infoGet(INFO_ALL);
 242              		.loc 1 178 0
 243 009a 0020     		movs	r0, #0
 244 009c FFF7FEFF 		bl	infoGet
 245              	.L16:
 179:..\src/interruptions.c ****                 break;
 246              		.loc 1 179 0
 247 00a0 97E0     		b	.L8
 248              	.L11:
 180:..\src/interruptions.c **** 
 181:..\src/interruptions.c ****             //-----     wait for id     ----------------------------------------
 182:..\src/interruptions.c ****             case  WAIT_ID:
 183:..\src/interruptions.c **** 
 184:..\src/interruptions.c ****                 // packet is for my ID or is broadcast
 185:..\src/interruptions.c **** #ifdef MASTER_FW
 186:..\src/interruptions.c ****                 if (rx_data == c_mem.dev.id || rx_data == 0 || (master_mode && rx_data == c_mem.MS.
 249              		.loc 1 186 0
 250 00a2 544B     		ldr	r3, .L31+8
 251 00a4 93F8A030 		ldrb	r3, [r3, #160]	@ zero_extendqisi2
 252 00a8 7A79     		ldrb	r2, [r7, #5]	@ zero_extendqisi2
 253 00aa 9A42     		cmp	r2, r3
 254 00ac 0CD0     		beq	.L17
 255              		.loc 1 186 0 is_stmt 0 discriminator 1
 256 00ae 7B79     		ldrb	r3, [r7, #5]	@ zero_extendqisi2
 257 00b0 002B     		cmp	r3, #0
 258 00b2 09D0     		beq	.L17
 259              		.loc 1 186 0 discriminator 2
 260 00b4 504B     		ldr	r3, .L31+12
 261 00b6 1B78     		ldrb	r3, [r3]	@ zero_extendqisi2
 262 00b8 002B     		cmp	r3, #0
 263 00ba 08D0     		beq	.L18
 264              		.loc 1 186 0 discriminator 3
 265 00bc 4D4B     		ldr	r3, .L31+8
 266 00be 93F8C132 		ldrb	r3, [r3, #705]	@ zero_extendqisi2
 267 00c2 7A79     		ldrb	r2, [r7, #5]	@ zero_extendqisi2
 268 00c4 9A42     		cmp	r2, r3
ARM GAS  C:\Users\mgnocco\AppData\Local\Temp\ccN5vhdn.s 			page 9


 269 00c6 02D1     		bne	.L18
 270              	.L17:
 187:..\src/interruptions.c ****                    rx_data_type = FALSE;
 271              		.loc 1 187 0 is_stmt 1
 272 00c8 0023     		movs	r3, #0
 273 00ca FB71     		strb	r3, [r7, #7]
 274 00cc 01E0     		b	.L19
 275              	.L18:
 188:..\src/interruptions.c ****                 else                //packet is for others
 189:..\src/interruptions.c ****                     rx_data_type = TRUE;
 276              		.loc 1 189 0
 277 00ce 0123     		movs	r3, #1
 278 00d0 FB71     		strb	r3, [r7, #7]
 279              	.L19:
 190:..\src/interruptions.c **** #else
 191:..\src/interruptions.c ****                 if (rx_data == c_mem.dev.id || rx_data == 0)
 192:..\src/interruptions.c ****                     rx_data_type = FALSE;
 193:..\src/interruptions.c ****                 else                //packet is for others
 194:..\src/interruptions.c ****                     rx_data_type = TRUE;
 195:..\src/interruptions.c **** #endif                
 196:..\src/interruptions.c ****                 data_packet_length = 0;
 280              		.loc 1 196 0
 281 00d2 4A4B     		ldr	r3, .L31+16
 282 00d4 0022     		movs	r2, #0
 283 00d6 1A70     		strb	r2, [r3]
 197:..\src/interruptions.c ****                 state = WAIT_LENGTH;
 284              		.loc 1 197 0
 285 00d8 444B     		ldr	r3, .L31
 286 00da 0222     		movs	r2, #2
 287 00dc 1A70     		strb	r2, [r3]
 198:..\src/interruptions.c ****                 break;
 288              		.loc 1 198 0
 289 00de 78E0     		b	.L8
 290              	.L12:
 199:..\src/interruptions.c **** 
 200:..\src/interruptions.c ****             //-----     wait for length     ------------------------------------
 201:..\src/interruptions.c ****             case  WAIT_LENGTH:
 202:..\src/interruptions.c **** 
 203:..\src/interruptions.c ****                 data_packet_length = rx_data;
 291              		.loc 1 203 0
 292 00e0 464A     		ldr	r2, .L31+16
 293 00e2 7B79     		ldrb	r3, [r7, #5]
 294 00e4 1370     		strb	r3, [r2]
 204:..\src/interruptions.c ****                 // check validity of pack length
 205:..\src/interruptions.c ****                 if (data_packet_length <= 1) {
 295              		.loc 1 205 0
 296 00e6 454B     		ldr	r3, .L31+16
 297 00e8 1B78     		ldrb	r3, [r3]	@ zero_extendqisi2
 298 00ea 012B     		cmp	r3, #1
 299 00ec 06D8     		bhi	.L20
 206:..\src/interruptions.c ****                     data_packet_length = 0;
 300              		.loc 1 206 0
 301 00ee 434B     		ldr	r3, .L31+16
 302 00f0 0022     		movs	r2, #0
 303 00f2 1A70     		strb	r2, [r3]
 207:..\src/interruptions.c ****                     state = WAIT_START;
 304              		.loc 1 207 0
ARM GAS  C:\Users\mgnocco\AppData\Local\Temp\ccN5vhdn.s 			page 10


 305 00f4 3D4B     		ldr	r3, .L31
 306 00f6 0022     		movs	r2, #0
 307 00f8 1A70     		strb	r2, [r3]
 308 00fa 6AE0     		b	.L8
 309              	.L20:
 208:..\src/interruptions.c ****                 } else if (data_packet_length > 128) {
 310              		.loc 1 208 0
 311 00fc 3F4B     		ldr	r3, .L31+16
 312 00fe 1B78     		ldrb	r3, [r3]	@ zero_extendqisi2
 313 0100 802B     		cmp	r3, #128
 314 0102 06D9     		bls	.L22
 209:..\src/interruptions.c ****                     data_packet_length = 0;
 315              		.loc 1 209 0
 316 0104 3D4B     		ldr	r3, .L31+16
 317 0106 0022     		movs	r2, #0
 318 0108 1A70     		strb	r2, [r3]
 210:..\src/interruptions.c ****                     state = WAIT_START;
 319              		.loc 1 210 0
 320 010a 384B     		ldr	r3, .L31
 321 010c 0022     		movs	r2, #0
 322 010e 1A70     		strb	r2, [r3]
 323 0110 5FE0     		b	.L8
 324              	.L22:
 211:..\src/interruptions.c ****                 } else {
 212:..\src/interruptions.c ****                     data_packet_index = 0;
 325              		.loc 1 212 0
 326 0112 3B4B     		ldr	r3, .L31+20
 327 0114 0022     		movs	r2, #0
 328 0116 1A70     		strb	r2, [r3]
 213:..\src/interruptions.c ****                     
 214:..\src/interruptions.c ****                     if(rx_data_type == FALSE)
 329              		.loc 1 214 0
 330 0118 FB79     		ldrb	r3, [r7, #7]	@ zero_extendqisi2
 331 011a 002B     		cmp	r3, #0
 332 011c 03D1     		bne	.L23
 215:..\src/interruptions.c ****                         state = RECEIVE;          // packet for me or broadcast
 333              		.loc 1 215 0
 334 011e 334B     		ldr	r3, .L31
 335 0120 0322     		movs	r2, #3
 336 0122 1A70     		strb	r2, [r3]
 337 0124 55E0     		b	.L8
 338              	.L23:
 216:..\src/interruptions.c ****                     else
 217:..\src/interruptions.c ****                         state = UNLOAD;           // packet for others
 339              		.loc 1 217 0
 340 0126 314B     		ldr	r3, .L31
 341 0128 0422     		movs	r2, #4
 342 012a 1A70     		strb	r2, [r3]
 218:..\src/interruptions.c ****                 }
 219:..\src/interruptions.c ****                 break;
 343              		.loc 1 219 0
 344 012c 51E0     		b	.L8
 345              	.L13:
 220:..\src/interruptions.c **** 
 221:..\src/interruptions.c ****             //-----     receiving     -------------------------------------------
 222:..\src/interruptions.c ****             case RECEIVE:
 223:..\src/interruptions.c **** 
ARM GAS  C:\Users\mgnocco\AppData\Local\Temp\ccN5vhdn.s 			page 11


 224:..\src/interruptions.c ****                 data_packet_buffer[data_packet_index] = rx_data;
 346              		.loc 1 224 0
 347 012e 344B     		ldr	r3, .L31+20
 348 0130 1B78     		ldrb	r3, [r3]	@ zero_extendqisi2
 349 0132 1946     		mov	r1, r3
 350 0134 334A     		ldr	r2, .L31+24
 351 0136 7B79     		ldrb	r3, [r7, #5]
 352 0138 5354     		strb	r3, [r2, r1]
 225:..\src/interruptions.c ****                 data_packet_index++;
 353              		.loc 1 225 0
 354 013a 314B     		ldr	r3, .L31+20
 355 013c 1B78     		ldrb	r3, [r3]	@ zero_extendqisi2
 356 013e 0133     		adds	r3, r3, #1
 357 0140 DAB2     		uxtb	r2, r3
 358 0142 2F4B     		ldr	r3, .L31+20
 359 0144 1A70     		strb	r2, [r3]
 226:..\src/interruptions.c ****                 
 227:..\src/interruptions.c ****                 // check end of transmission
 228:..\src/interruptions.c ****                 if (data_packet_index >= data_packet_length) {
 360              		.loc 1 228 0
 361 0146 2E4B     		ldr	r3, .L31+20
 362 0148 1A78     		ldrb	r2, [r3]	@ zero_extendqisi2
 363 014a 2C4B     		ldr	r3, .L31+16
 364 014c 1B78     		ldrb	r3, [r3]	@ zero_extendqisi2
 365 014e 9A42     		cmp	r2, r3
 366 0150 3FD3     		bcc	.L8
 229:..\src/interruptions.c ****                     // verify if frame ID corresponded to the device ID
 230:..\src/interruptions.c ****                     if (rx_data_type == FALSE) {
 367              		.loc 1 230 0
 368 0152 FB79     		ldrb	r3, [r7, #7]	@ zero_extendqisi2
 369 0154 002B     		cmp	r3, #0
 370 0156 12D1     		bne	.L25
 231:..\src/interruptions.c ****                         // copying data from buffer to global packet
 232:..\src/interruptions.c ****                         memcpy(g_rx.buffer, data_packet_buffer, data_packet_length);
 371              		.loc 1 232 0
 372 0158 284B     		ldr	r3, .L31+16
 373 015a 1B78     		ldrb	r3, [r3]	@ zero_extendqisi2
 374 015c 1A46     		mov	r2, r3
 375 015e 2949     		ldr	r1, .L31+24
 376 0160 2948     		ldr	r0, .L31+28
 377 0162 FFF7FEFF 		bl	memcpy
 233:..\src/interruptions.c ****                         g_rx.length = data_packet_length;
 378              		.loc 1 233 0
 379 0166 254B     		ldr	r3, .L31+16
 380 0168 1B78     		ldrb	r3, [r3]	@ zero_extendqisi2
 381 016a 1AB2     		sxth	r2, r3
 382 016c 264B     		ldr	r3, .L31+28
 383 016e A3F88020 		strh	r2, [r3, #128]	@ movhi
 234:..\src/interruptions.c ****                         g_rx.ready  = 1;
 384              		.loc 1 234 0
 385 0172 254B     		ldr	r3, .L31+28
 386 0174 0122     		movs	r2, #1
 387 0176 83F88420 		strb	r2, [r3, #132]
 235:..\src/interruptions.c ****                         commProcess();
 388              		.loc 1 235 0
 389 017a FFF7FEFF 		bl	commProcess
 390              	.L25:
ARM GAS  C:\Users\mgnocco\AppData\Local\Temp\ccN5vhdn.s 			page 12


 236:..\src/interruptions.c ****                     }
 237:..\src/interruptions.c ****                     
 238:..\src/interruptions.c ****                     data_packet_index  = 0;
 391              		.loc 1 238 0
 392 017e 204B     		ldr	r3, .L31+20
 393 0180 0022     		movs	r2, #0
 394 0182 1A70     		strb	r2, [r3]
 239:..\src/interruptions.c ****                     data_packet_length = 0;
 395              		.loc 1 239 0
 396 0184 1D4B     		ldr	r3, .L31+16
 397 0186 0022     		movs	r2, #0
 398 0188 1A70     		strb	r2, [r3]
 240:..\src/interruptions.c ****                     state              = WAIT_START;
 399              		.loc 1 240 0
 400 018a 184B     		ldr	r3, .L31
 401 018c 0022     		movs	r2, #0
 402 018e 1A70     		strb	r2, [r3]
 241:..\src/interruptions.c ****                     package_count++;
 403              		.loc 1 241 0
 404 0190 BB79     		ldrb	r3, [r7, #6]	@ zero_extendqisi2
 405 0192 0133     		adds	r3, r3, #1
 406 0194 BB71     		strb	r3, [r7, #6]
 242:..\src/interruptions.c ****                 
 243:..\src/interruptions.c ****                 }
 244:..\src/interruptions.c ****                 break;
 407              		.loc 1 244 0
 408 0196 1CE0     		b	.L8
 409              	.L14:
 245:..\src/interruptions.c **** 
 246:..\src/interruptions.c ****             //-----     other device is receving     ---------------------------
 247:..\src/interruptions.c ****             case UNLOAD:
 248:..\src/interruptions.c ****                 if (!(--data_packet_length)) {
 410              		.loc 1 248 0
 411 0198 184B     		ldr	r3, .L31+16
 412 019a 1B78     		ldrb	r3, [r3]	@ zero_extendqisi2
 413 019c 013B     		subs	r3, r3, #1
 414 019e DAB2     		uxtb	r2, r3
 415 01a0 164B     		ldr	r3, .L31+16
 416 01a2 1A70     		strb	r2, [r3]
 417 01a4 154B     		ldr	r3, .L31+16
 418 01a6 1B78     		ldrb	r3, [r3]	@ zero_extendqisi2
 419 01a8 002B     		cmp	r3, #0
 420 01aa 11D1     		bne	.L30
 249:..\src/interruptions.c ****                     data_packet_index  = 0;
 421              		.loc 1 249 0
 422 01ac 144B     		ldr	r3, .L31+20
 423 01ae 0022     		movs	r2, #0
 424 01b0 1A70     		strb	r2, [r3]
 250:..\src/interruptions.c ****                     data_packet_length = 0;
 425              		.loc 1 250 0
 426 01b2 124B     		ldr	r3, .L31+16
 427 01b4 0022     		movs	r2, #0
 428 01b6 1A70     		strb	r2, [r3]
 251:..\src/interruptions.c ****                     RS485_CTS_Write(1);
 429              		.loc 1 251 0
 430 01b8 0120     		movs	r0, #1
 431 01ba FFF7FEFF 		bl	RS485_CTS_Write
ARM GAS  C:\Users\mgnocco\AppData\Local\Temp\ccN5vhdn.s 			page 13


 252:..\src/interruptions.c ****                     RS485_CTS_Write(0);
 432              		.loc 1 252 0
 433 01be 0020     		movs	r0, #0
 434 01c0 FFF7FEFF 		bl	RS485_CTS_Write
 253:..\src/interruptions.c ****                     state              = WAIT_START;
 435              		.loc 1 253 0
 436 01c4 094B     		ldr	r3, .L31
 437 01c6 0022     		movs	r2, #0
 438 01c8 1A70     		strb	r2, [r3]
 254:..\src/interruptions.c ****                     package_count++;
 439              		.loc 1 254 0
 440 01ca BB79     		ldrb	r3, [r7, #6]	@ zero_extendqisi2
 441 01cc 0133     		adds	r3, r3, #1
 442 01ce BB71     		strb	r3, [r7, #6]
 443              	.L30:
 255:..\src/interruptions.c ****                 }
 256:..\src/interruptions.c ****                 break;
 444              		.loc 1 256 0
 445 01d0 00BF     		nop
 446              	.L8:
 154:..\src/interruptions.c ****         // 100 - estimated maximum number of packets we can read without blocking firmware executio
 447              		.loc 1 154 0
 448 01d2 FFF7FEFF 		bl	UART_RS485_GetRxBufferSize
 449 01d6 0346     		mov	r3, r0
 450 01d8 002B     		cmp	r3, #0
 451 01da 03D0     		beq	.L29
 154:..\src/interruptions.c ****         // 100 - estimated maximum number of packets we can read without blocking firmware executio
 452              		.loc 1 154 0 is_stmt 0 discriminator 1
 453 01dc BB79     		ldrb	r3, [r7, #6]	@ zero_extendqisi2
 454 01de 632B     		cmp	r3, #99
 455 01e0 7FF616AF 		bls	.L28
 456              	.L29:
 257:..\src/interruptions.c ****         }
 258:..\src/interruptions.c ****     }
 259:..\src/interruptions.c **** }
 457              		.loc 1 259 0 is_stmt 1
 458 01e4 00BF     		nop
 459 01e6 0837     		adds	r7, r7, #8
 460              		.cfi_def_cfa_offset 8
 461 01e8 BD46     		mov	sp, r7
 462              		.cfi_def_cfa_register 13
 463              		@ sp needed
 464 01ea 80BD     		pop	{r7, pc}
 465              	.L32:
 466              		.align	2
 467              	.L31:
 468 01ec 00000000 		.word	state.10225
 469 01f0 04000000 		.word	rx_queue.10229
 470 01f4 00000000 		.word	c_mem
 471 01f8 00000000 		.word	master_mode
 472 01fc 07000000 		.word	data_packet_length.10227
 473 0200 08000000 		.word	data_packet_index.10226
 474 0204 0C000000 		.word	data_packet_buffer.10228
 475 0208 00000000 		.word	g_rx
 476              		.cfi_endproc
 477              	.LFE66:
 478              		.size	interrupt_manager, .-interrupt_manager
ARM GAS  C:\Users\mgnocco\AppData\Local\Temp\ccN5vhdn.s 			page 14


 479              		.section	.rodata
 480 001d 000000   		.align	2
 481              	.LC0:
 482 0020 00       		.ascii	"\000"
 483              		.global	__aeabi_i2f
 484              		.global	__aeabi_fdiv
 485              		.section	.text.function_scheduler,"ax",%progbits
 486              		.align	2
 487              		.global	function_scheduler
 488              		.thumb
 489              		.thumb_func
 490              		.type	function_scheduler, %function
 491              	function_scheduler:
 492              	.LFB67:
 260:..\src/interruptions.c **** //==============================================================================
 261:..\src/interruptions.c **** //                                                            FUNCTION SCHEDULER
 262:..\src/interruptions.c **** //==============================================================================
 263:..\src/interruptions.c **** // Call all the function with the right frequency
 264:..\src/interruptions.c **** //==============================================================================
 265:..\src/interruptions.c **** // Base frequency 5000 Hz (110 us - max. 200 us cycle time)
 266:..\src/interruptions.c **** //==============================================================================
 267:..\src/interruptions.c **** 
 268:..\src/interruptions.c **** void function_scheduler(void) {
 493              		.loc 1 268 0
 494              		.cfi_startproc
 495              		@ args = 0, pretend = 0, frame = 17504
 496              		@ frame_needed = 1, uses_anonymous_args = 0
 497 0000 B0B5     		push	{r4, r5, r7, lr}
 498              		.cfi_def_cfa_offset 16
 499              		.cfi_offset 4, -16
 500              		.cfi_offset 5, -12
 501              		.cfi_offset 7, -8
 502              		.cfi_offset 14, -4
 503 0002 ADF5884D 		sub	sp, sp, #17408
 504              		.cfi_def_cfa_offset 17424
 505 0006 98B0     		sub	sp, sp, #96
 506              		.cfi_def_cfa_offset 17520
 507 0008 00AF     		add	r7, sp, #0
 508              		.cfi_def_cfa_register 7
 269:..\src/interruptions.c ****  
 270:..\src/interruptions.c ****     static uint16 counter_calibration = DIV_INIT_VALUE;
 271:..\src/interruptions.c ****     static uint16 counter_tension_func = DIV_INIT_VALUE;
 272:..\src/interruptions.c ****     char info_[2500] = "";
 509              		.loc 1 272 0
 510 000a 07F56A53 		add	r3, r7, #14976
 511 000e 03F11803 		add	r3, r3, #24
 512 0012 0022     		movs	r2, #0
 513 0014 1A60     		str	r2, [r3]
 514 0016 0433     		adds	r3, r3, #4
 515 0018 4FF41C62 		mov	r2, #2496
 516 001c 0021     		movs	r1, #0
 517 001e 1846     		mov	r0, r3
 518 0020 FFF7FEFF 		bl	memset
 273:..\src/interruptions.c ****     
 274:..\src/interruptions.c ****     uint8 MOTOR_IDX = 0;
 519              		.loc 1 274 0
 520 0024 0023     		movs	r3, #0
ARM GAS  C:\Users\mgnocco\AppData\Local\Temp\ccN5vhdn.s 			page 15


 521 0026 07F58842 		add	r2, r7, #17408
 522 002a 02F15F02 		add	r2, r2, #95
 523 002e 1370     		strb	r3, [r2]
 275:..\src/interruptions.c ****     uint8 SECOND_MOTOR_IDX = 1;
 524              		.loc 1 275 0
 525 0030 0123     		movs	r3, #1
 526 0032 07F58842 		add	r2, r7, #17408
 527 0036 02F15E02 		add	r2, r2, #94
 528 003a 1370     		strb	r3, [r2]
 276:..\src/interruptions.c ****     
 277:..\src/interruptions.c ****     MY_TIMER_REG_Write(0x00);
 529              		.loc 1 277 0
 530 003c 0020     		movs	r0, #0
 531 003e FFF7FEFF 		bl	MY_TIMER_REG_Write
 278:..\src/interruptions.c ****     timer_value0 = (uint32)MY_TIMER_ReadCounter();
 532              		.loc 1 278 0
 533 0042 FFF7FEFF 		bl	MY_TIMER_ReadCounter
 534 0046 0346     		mov	r3, r0
 535 0048 1A46     		mov	r2, r3
 536 004a B34B     		ldr	r3, .L64
 537 004c 1A80     		strh	r2, [r3]	@ movhi
 279:..\src/interruptions.c ****     // Start ADC Conversion, SOC = 1
 280:..\src/interruptions.c **** 
 281:..\src/interruptions.c ****     ADC_SOC_Write(0x01); 
 538              		.loc 1 281 0
 539 004e 0120     		movs	r0, #1
 540 0050 FFF7FEFF 		bl	ADC_SOC_Write
 282:..\src/interruptions.c ****     
 283:..\src/interruptions.c ****     // Check Interrupt 
 284:..\src/interruptions.c **** 
 285:..\src/interruptions.c ****     if (interrupt_flag){
 541              		.loc 1 285 0
 542 0054 B14B     		ldr	r3, .L64+4
 543 0056 1B78     		ldrb	r3, [r3]	@ zero_extendqisi2
 544 0058 002B     		cmp	r3, #0
 545 005a 04D0     		beq	.L34
 286:..\src/interruptions.c ****         interrupt_flag = FALSE;
 546              		.loc 1 286 0
 547 005c AF4B     		ldr	r3, .L64+4
 548 005e 0022     		movs	r2, #0
 549 0060 1A70     		strb	r2, [r3]
 287:..\src/interruptions.c ****         interrupt_manager();
 550              		.loc 1 287 0
 551 0062 FFF7FEFF 		bl	interrupt_manager
 552              	.L34:
 288:..\src/interruptions.c ****     }
 289:..\src/interruptions.c ****    
 290:..\src/interruptions.c ****             // if master_mode parameter is set to 1
 291:..\src/interruptions.c ****             if (g_mem.MS.master_mode_active){  
 553              		.loc 1 291 0
 554 0066 AE4B     		ldr	r3, .L64+8
 555 0068 93F8C032 		ldrb	r3, [r3, #704]	@ zero_extendqisi2
 556 006c 002B     		cmp	r3, #0
 557 006e 11D0     		beq	.L35
 292:..\src/interruptions.c ****                 
 293:..\src/interruptions.c ****                 // Check if voltage on pin MASTER MODE VOLTAGE, set by a physical switch, is HIGH o
 294:..\src/interruptions.c ****                 // This is a way to force exit from master_mode during execution, since USB command
ARM GAS  C:\Users\mgnocco\AppData\Local\Temp\ccN5vhdn.s 			page 16


 295:..\src/interruptions.c ****                 // are hampered by the communications between the two boards (slave and master)
 296:..\src/interruptions.c ****                 
 297:..\src/interruptions.c ****                 if (flag_master < 2000)       // if voltage is LOW, exit master mode
 558              		.loc 1 297 0
 559 0070 AC4B     		ldr	r3, .L64+12
 560 0072 1B68     		ldr	r3, [r3]
 561 0074 B3F5FA6F 		cmp	r3, #2000
 562 0078 03DA     		bge	.L36
 298:..\src/interruptions.c ****                     master_mode = 0;
 563              		.loc 1 298 0
 564 007a AB4B     		ldr	r3, .L64+16
 565 007c 0022     		movs	r2, #0
 566 007e 1A70     		strb	r2, [r3]
 567 0080 0BE0     		b	.L38
 568              	.L36:
 299:..\src/interruptions.c ****                 
 300:..\src/interruptions.c ****                 else if (flag_master > 2000)  // if voltage is HIGH, enter master mode
 569              		.loc 1 300 0
 570 0082 A84B     		ldr	r3, .L64+12
 571 0084 1B68     		ldr	r3, [r3]
 572 0086 B3F5FA6F 		cmp	r3, #2000
 573 008a 06DD     		ble	.L38
 301:..\src/interruptions.c ****                     master_mode = 1;
 574              		.loc 1 301 0
 575 008c A64B     		ldr	r3, .L64+16
 576 008e 0122     		movs	r2, #1
 577 0090 1A70     		strb	r2, [r3]
 578 0092 02E0     		b	.L38
 579              	.L35:
 302:..\src/interruptions.c ****             }
 303:..\src/interruptions.c ****             
 304:..\src/interruptions.c ****             else{
 305:..\src/interruptions.c ****                 master_mode = 0;
 580              		.loc 1 305 0
 581 0094 A44B     		ldr	r3, .L64+16
 582 0096 0022     		movs	r2, #0
 583 0098 1A70     		strb	r2, [r3]
 584              	.L38:
 306:..\src/interruptions.c ****             }
 307:..\src/interruptions.c ****                     
 308:..\src/interruptions.c ****             if (master_mode){
 585              		.loc 1 308 0
 586 009a A34B     		ldr	r3, .L64+16
 587 009c 1B78     		ldrb	r3, [r3]	@ zero_extendqisi2
 588 009e 002B     		cmp	r3, #0
 589 00a0 56D0     		beq	.L39
 309:..\src/interruptions.c ****                 
 310:..\src/interruptions.c ****                 //-------------------------------------------------------------- Air Chamber and Vi
 311:..\src/interruptions.c ****                 if (g_mem.FB.vibrotactile_feedback_active && g_mem.FB.airchamber_feedback_active){ 
 590              		.loc 1 311 0
 591 00a2 9F4B     		ldr	r3, .L64+8
 592 00a4 93F8DC32 		ldrb	r3, [r3, #732]	@ zero_extendqisi2
 593 00a8 002B     		cmp	r3, #0
 594 00aa 0FD0     		beq	.L40
 595              		.loc 1 311 0 is_stmt 0 discriminator 1
 596 00ac 9C4B     		ldr	r3, .L64+8
 597 00ae 93F8DD32 		ldrb	r3, [r3, #733]	@ zero_extendqisi2
ARM GAS  C:\Users\mgnocco\AppData\Local\Temp\ccN5vhdn.s 			page 17


 598 00b2 002B     		cmp	r3, #0
 599 00b4 0AD0     		beq	.L40
 312:..\src/interruptions.c ****                     
 313:..\src/interruptions.c ****                     LED_CTRL_Write(GREEN);
 600              		.loc 1 313 0 is_stmt 1
 601 00b6 0220     		movs	r0, #2
 602 00b8 FFF7FEFF 		bl	LED_CTRL_Write
 314:..\src/interruptions.c ****                     BLINK_CTRL_EN_Write(0);
 603              		.loc 1 314 0
 604 00bc 0020     		movs	r0, #0
 605 00be FFF7FEFF 		bl	BLINK_CTRL_EN_Write
 315:..\src/interruptions.c ****                 
 316:..\src/interruptions.c ****                     air_chambers_control();
 606              		.loc 1 316 0
 607 00c2 FFF7FEFF 		bl	air_chambers_control
 317:..\src/interruptions.c ****                     vibrotactile_control();
 608              		.loc 1 317 0
 609 00c6 FFF7FEFF 		bl	vibrotactile_control
 610 00ca 1AE0     		b	.L41
 611              	.L40:
 318:..\src/interruptions.c ****                   
 319:..\src/interruptions.c ****                 }
 320:..\src/interruptions.c ****                 
 321:..\src/interruptions.c ****                 //-------------------------------------------------------------- Air Chamber contro
 322:..\src/interruptions.c ****                 else if (g_mem.FB.airchamber_feedback_active){
 612              		.loc 1 322 0
 613 00cc 944B     		ldr	r3, .L64+8
 614 00ce 93F8DD32 		ldrb	r3, [r3, #733]	@ zero_extendqisi2
 615 00d2 002B     		cmp	r3, #0
 616 00d4 08D0     		beq	.L42
 323:..\src/interruptions.c ****                     
 324:..\src/interruptions.c ****                     LED_CTRL_Write(RED);
 617              		.loc 1 324 0
 618 00d6 0120     		movs	r0, #1
 619 00d8 FFF7FEFF 		bl	LED_CTRL_Write
 325:..\src/interruptions.c ****                     BLINK_CTRL_EN_Write(0);
 620              		.loc 1 325 0
 621 00dc 0020     		movs	r0, #0
 622 00de FFF7FEFF 		bl	BLINK_CTRL_EN_Write
 326:..\src/interruptions.c ****                     
 327:..\src/interruptions.c ****                     air_chambers_control();
 623              		.loc 1 327 0
 624 00e2 FFF7FEFF 		bl	air_chambers_control
 625 00e6 0CE0     		b	.L41
 626              	.L42:
 328:..\src/interruptions.c ****                     
 329:..\src/interruptions.c ****                 }
 330:..\src/interruptions.c ****             
 331:..\src/interruptions.c ****                 //-------------------------------------------------------------- Vibrotactile contr
 332:..\src/interruptions.c ****                 else if (g_mem.FB.vibrotactile_feedback_active){
 627              		.loc 1 332 0
 628 00e8 8D4B     		ldr	r3, .L64+8
 629 00ea 93F8DC32 		ldrb	r3, [r3, #732]	@ zero_extendqisi2
 630 00ee 002B     		cmp	r3, #0
 631 00f0 07D0     		beq	.L41
 333:..\src/interruptions.c ****                     
 334:..\src/interruptions.c ****                     LED_CTRL_Write(YELLOW);
ARM GAS  C:\Users\mgnocco\AppData\Local\Temp\ccN5vhdn.s 			page 18


 632              		.loc 1 334 0
 633 00f2 0320     		movs	r0, #3
 634 00f4 FFF7FEFF 		bl	LED_CTRL_Write
 335:..\src/interruptions.c ****                     BLINK_CTRL_EN_Write(0);
 635              		.loc 1 335 0
 636 00f8 0020     		movs	r0, #0
 637 00fa FFF7FEFF 		bl	BLINK_CTRL_EN_Write
 336:..\src/interruptions.c ****                     
 337:..\src/interruptions.c ****                     vibrotactile_control();
 638              		.loc 1 337 0
 639 00fe FFF7FEFF 		bl	vibrotactile_control
 640              	.L41:
 338:..\src/interruptions.c ****                 }
 339:..\src/interruptions.c ****                 
 340:..\src/interruptions.c ****                 if (interrupt_flag){
 641              		.loc 1 340 0
 642 0102 864B     		ldr	r3, .L64+4
 643 0104 1B78     		ldrb	r3, [r3]	@ zero_extendqisi2
 644 0106 002B     		cmp	r3, #0
 645 0108 04D0     		beq	.L43
 341:..\src/interruptions.c ****                     interrupt_flag = FALSE;
 646              		.loc 1 341 0
 647 010a 844B     		ldr	r3, .L64+4
 648 010c 0022     		movs	r2, #0
 649 010e 1A70     		strb	r2, [r3]
 342:..\src/interruptions.c ****                     interrupt_manager();
 650              		.loc 1 342 0
 651 0110 FFF7FEFF 		bl	interrupt_manager
 652              	.L43:
 343:..\src/interruptions.c ****                 }
 344:..\src/interruptions.c ****                     
 345:..\src/interruptions.c ****                 motor_control_generic(SECOND_MOTOR_IDX); // Compute reference for the SH starting f
 653              		.loc 1 345 0
 654 0114 07F58843 		add	r3, r7, #17408
 655 0118 03F15E03 		add	r3, r3, #94
 656 011c 1B78     		ldrb	r3, [r3]	@ zero_extendqisi2
 657 011e 1846     		mov	r0, r3
 658 0120 FFF7FEFF 		bl	motor_control_generic
 346:..\src/interruptions.c ****                     
 347:..\src/interruptions.c ****                 drive_slave(SECOND_MOTOR_IDX, c_mem.MS.slave_ID); // Send reference to the SH calli
 659              		.loc 1 347 0
 660 0124 814B     		ldr	r3, .L64+20
 661 0126 93F8C122 		ldrb	r2, [r3, #705]	@ zero_extendqisi2
 662 012a 07F58843 		add	r3, r7, #17408
 663 012e 03F15E03 		add	r3, r3, #94
 664 0132 1B78     		ldrb	r3, [r3]	@ zero_extendqisi2
 665 0134 1146     		mov	r1, r2
 666 0136 1846     		mov	r0, r3
 667 0138 FFF7FEFF 		bl	drive_slave
 348:..\src/interruptions.c ****                     
 349:..\src/interruptions.c ****                 if (interrupt_flag){
 668              		.loc 1 349 0
 669 013c 774B     		ldr	r3, .L64+4
 670 013e 1B78     		ldrb	r3, [r3]	@ zero_extendqisi2
 671 0140 002B     		cmp	r3, #0
 672 0142 14D0     		beq	.L45
 350:..\src/interruptions.c ****                     interrupt_flag = FALSE;
ARM GAS  C:\Users\mgnocco\AppData\Local\Temp\ccN5vhdn.s 			page 19


 673              		.loc 1 350 0
 674 0144 754B     		ldr	r3, .L64+4
 675 0146 0022     		movs	r2, #0
 676 0148 1A70     		strb	r2, [r3]
 351:..\src/interruptions.c ****                     interrupt_manager();
 677              		.loc 1 351 0
 678 014a FFF7FEFF 		bl	interrupt_manager
 679 014e 0EE0     		b	.L45
 680              	.L39:
 352:..\src/interruptions.c ****                 }
 353:..\src/interruptions.c ****             }
 354:..\src/interruptions.c ****             
 355:..\src/interruptions.c ****            
 356:..\src/interruptions.c ****             else {
 357:..\src/interruptions.c ****                 
 358:..\src/interruptions.c ****                 LED_CTRL_Write(0);
 681              		.loc 1 358 0
 682 0150 0020     		movs	r0, #0
 683 0152 FFF7FEFF 		bl	LED_CTRL_Write
 359:..\src/interruptions.c ****                 BLINK_CTRL_EN_Write(0);
 684              		.loc 1 359 0
 685 0156 0020     		movs	r0, #0
 686 0158 FFF7FEFF 		bl	BLINK_CTRL_EN_Write
 360:..\src/interruptions.c ****                     
 361:..\src/interruptions.c ****                 // Check Interrupt 
 362:..\src/interruptions.c ****                 if (interrupt_flag){
 687              		.loc 1 362 0
 688 015c 6F4B     		ldr	r3, .L64+4
 689 015e 1B78     		ldrb	r3, [r3]	@ zero_extendqisi2
 690 0160 002B     		cmp	r3, #0
 691 0162 04D0     		beq	.L45
 363:..\src/interruptions.c ****                     interrupt_flag = FALSE;
 692              		.loc 1 363 0
 693 0164 6D4B     		ldr	r3, .L64+4
 694 0166 0022     		movs	r2, #0
 695 0168 1A70     		strb	r2, [r3]
 364:..\src/interruptions.c ****                     interrupt_manager();
 696              		.loc 1 364 0
 697 016a FFF7FEFF 		bl	interrupt_manager
 698              	.L45:
 365:..\src/interruptions.c ****                 } 
 366:..\src/interruptions.c ****             }
 367:..\src/interruptions.c ****             
 368:..\src/interruptions.c ****             motor_control_generic(MOTOR_IDX);  // Compute references and drive air pump
 699              		.loc 1 368 0
 700 016e 07F58843 		add	r3, r7, #17408
 701 0172 03F15F03 		add	r3, r3, #95
 702 0176 1B78     		ldrb	r3, [r3]	@ zero_extendqisi2
 703 0178 1846     		mov	r0, r3
 704 017a FFF7FEFF 		bl	motor_control_generic
 369:..\src/interruptions.c ****     
 370:..\src/interruptions.c ****             if (interrupt_flag){
 705              		.loc 1 370 0
 706 017e 674B     		ldr	r3, .L64+4
 707 0180 1B78     		ldrb	r3, [r3]	@ zero_extendqisi2
 708 0182 002B     		cmp	r3, #0
 709 0184 04D0     		beq	.L46
ARM GAS  C:\Users\mgnocco\AppData\Local\Temp\ccN5vhdn.s 			page 20


 371:..\src/interruptions.c ****                 interrupt_flag = FALSE;
 710              		.loc 1 371 0
 711 0186 654B     		ldr	r3, .L64+4
 712 0188 0022     		movs	r2, #0
 713 018a 1A70     		strb	r2, [r3]
 372:..\src/interruptions.c ****                 interrupt_manager();
 714              		.loc 1 372 0
 715 018c FFF7FEFF 		bl	interrupt_manager
 716              	.L46:
 373:..\src/interruptions.c ****             }
 374:..\src/interruptions.c ****     
 375:..\src/interruptions.c ****            
 376:..\src/interruptions.c ****     //---------------------------------- Read conversion buffer - LOCK function
 377:..\src/interruptions.c **** 
 378:..\src/interruptions.c ****     analog_read_end();
 717              		.loc 1 378 0
 718 0190 FFF7FEFF 		bl	analog_read_end
 379:..\src/interruptions.c **** 
 380:..\src/interruptions.c ****     if (interrupt_flag){
 719              		.loc 1 380 0
 720 0194 614B     		ldr	r3, .L64+4
 721 0196 1B78     		ldrb	r3, [r3]	@ zero_extendqisi2
 722 0198 002B     		cmp	r3, #0
 723 019a 04D0     		beq	.L47
 381:..\src/interruptions.c ****         interrupt_flag = FALSE;
 724              		.loc 1 381 0
 725 019c 5F4B     		ldr	r3, .L64+4
 726 019e 0022     		movs	r2, #0
 727 01a0 1A70     		strb	r2, [r3]
 382:..\src/interruptions.c ****         interrupt_manager();
 728              		.loc 1 382 0
 729 01a2 FFF7FEFF 		bl	interrupt_manager
 730              	.L47:
 383:..\src/interruptions.c ****     }
 384:..\src/interruptions.c **** 
 385:..\src/interruptions.c ****     //---------------------------------- Control Overcurrent
 386:..\src/interruptions.c **** 
 387:..\src/interruptions.c ****     overcurrent_control();
 731              		.loc 1 387 0
 732 01a6 FFF7FEFF 		bl	overcurrent_control
 388:..\src/interruptions.c ****     
 389:..\src/interruptions.c ****     // Check Interrupt 
 390:..\src/interruptions.c ****     
 391:..\src/interruptions.c ****     if (interrupt_flag){
 733              		.loc 1 391 0
 734 01aa 5C4B     		ldr	r3, .L64+4
 735 01ac 1B78     		ldrb	r3, [r3]	@ zero_extendqisi2
 736 01ae 002B     		cmp	r3, #0
 737 01b0 04D0     		beq	.L48
 392:..\src/interruptions.c ****         interrupt_flag = FALSE;
 738              		.loc 1 392 0
 739 01b2 5A4B     		ldr	r3, .L64+4
 740 01b4 0022     		movs	r2, #0
 741 01b6 1A70     		strb	r2, [r3]
 393:..\src/interruptions.c ****         interrupt_manager();
 742              		.loc 1 393 0
 743 01b8 FFF7FEFF 		bl	interrupt_manager
ARM GAS  C:\Users\mgnocco\AppData\Local\Temp\ccN5vhdn.s 			page 21


 744              	.L48:
 394:..\src/interruptions.c ****     }
 395:..\src/interruptions.c **** 
 396:..\src/interruptions.c ****     //---------------------------------- Calibration 
 397:..\src/interruptions.c **** 
 398:..\src/interruptions.c ****     // Divider 10, freq = 500 Hz
 399:..\src/interruptions.c ****     if (calib.enabled == TRUE) {
 745              		.loc 1 399 0
 746 01bc 5C4B     		ldr	r3, .L64+24
 747 01be 1B78     		ldrb	r3, [r3]	@ zero_extendqisi2
 748 01c0 012B     		cmp	r3, #1
 749 01c2 0ED1     		bne	.L49
 400:..\src/interruptions.c ****         if (counter_calibration == CALIBRATION_DIV) {
 750              		.loc 1 400 0
 751 01c4 5B4B     		ldr	r3, .L64+28
 752 01c6 1B88     		ldrh	r3, [r3]
 753 01c8 0A2B     		cmp	r3, #10
 754 01ca 04D1     		bne	.L50
 401:..\src/interruptions.c ****             calibration();
 755              		.loc 1 401 0
 756 01cc FFF7FEFF 		bl	calibration
 402:..\src/interruptions.c ****             counter_calibration = 0;
 757              		.loc 1 402 0
 758 01d0 584B     		ldr	r3, .L64+28
 759 01d2 0022     		movs	r2, #0
 760 01d4 1A80     		strh	r2, [r3]	@ movhi
 761              	.L50:
 403:..\src/interruptions.c ****         }
 404:..\src/interruptions.c ****         counter_calibration++;
 762              		.loc 1 404 0
 763 01d6 574B     		ldr	r3, .L64+28
 764 01d8 1B88     		ldrh	r3, [r3]
 765 01da 0133     		adds	r3, r3, #1
 766 01dc 9AB2     		uxth	r2, r3
 767 01de 554B     		ldr	r3, .L64+28
 768 01e0 1A80     		strh	r2, [r3]	@ movhi
 769              	.L49:
 405:..\src/interruptions.c ****     }
 406:..\src/interruptions.c **** 
 407:..\src/interruptions.c ****     // Check Interrupt 
 408:..\src/interruptions.c ****     
 409:..\src/interruptions.c ****     if (interrupt_flag){
 770              		.loc 1 409 0
 771 01e2 4E4B     		ldr	r3, .L64+4
 772 01e4 1B78     		ldrb	r3, [r3]	@ zero_extendqisi2
 773 01e6 002B     		cmp	r3, #0
 774 01e8 04D0     		beq	.L51
 410:..\src/interruptions.c ****         interrupt_flag = FALSE;
 775              		.loc 1 410 0
 776 01ea 4C4B     		ldr	r3, .L64+4
 777 01ec 0022     		movs	r2, #0
 778 01ee 1A70     		strb	r2, [r3]
 411:..\src/interruptions.c ****         interrupt_manager();
 779              		.loc 1 411 0
 780 01f0 FFF7FEFF 		bl	interrupt_manager
 781              	.L51:
 412:..\src/interruptions.c ****     }
ARM GAS  C:\Users\mgnocco\AppData\Local\Temp\ccN5vhdn.s 			page 22


 413:..\src/interruptions.c ****     
 414:..\src/interruptions.c **** 
 415:..\src/interruptions.c ****     
 416:..\src/interruptions.c ****      
 417:..\src/interruptions.c ****     //---------------------------------- EMG history Update
 418:..\src/interruptions.c ****     if (c_mem.exp.record_EMG_history_on_SD){
 782              		.loc 1 418 0
 783 01f4 4D4B     		ldr	r3, .L64+20
 784 01f6 93F83432 		ldrb	r3, [r3, #564]	@ zero_extendqisi2
 785 01fa 002B     		cmp	r3, #0
 786 01fc 0AD0     		beq	.L52
 419:..\src/interruptions.c ****         
 420:..\src/interruptions.c ****         update_EMG_history();
 787              		.loc 1 420 0
 788 01fe FFF7FEFF 		bl	update_EMG_history
 421:..\src/interruptions.c **** 
 422:..\src/interruptions.c ****         // Check Interrupt 
 423:..\src/interruptions.c **** 
 424:..\src/interruptions.c ****         if (interrupt_flag){
 789              		.loc 1 424 0
 790 0202 464B     		ldr	r3, .L64+4
 791 0204 1B78     		ldrb	r3, [r3]	@ zero_extendqisi2
 792 0206 002B     		cmp	r3, #0
 793 0208 04D0     		beq	.L52
 425:..\src/interruptions.c ****             interrupt_flag = FALSE;
 794              		.loc 1 425 0
 795 020a 444B     		ldr	r3, .L64+4
 796 020c 0022     		movs	r2, #0
 797 020e 1A70     		strb	r2, [r3]
 426:..\src/interruptions.c ****             interrupt_manager();
 798              		.loc 1 426 0
 799 0210 FFF7FEFF 		bl	interrupt_manager
 800              	.L52:
 427:..\src/interruptions.c ****         }
 428:..\src/interruptions.c ****     }
 429:..\src/interruptions.c **** 
 430:..\src/interruptions.c ****     
 431:..\src/interruptions.c ****     //---------------------------------- Control Cycles Counter
 432:..\src/interruptions.c **** 
 433:..\src/interruptions.c ****     if (pos_reconstruct[c_mem.motor[0].encoder_line]){      // Once Motor 0 encoder line reading is
 801              		.loc 1 433 0
 802 0214 454B     		ldr	r3, .L64+20
 803 0216 93F81031 		ldrb	r3, [r3, #272]	@ zero_extendqisi2
 804 021a 1A46     		mov	r2, r3
 805 021c 464B     		ldr	r3, .L64+32
 806 021e 9B5C     		ldrb	r3, [r3, r2]	@ zero_extendqisi2
 807 0220 002B     		cmp	r3, #0
 808 0222 01D0     		beq	.L53
 434:..\src/interruptions.c ****         cycles_counter_update();                            // Need at least one encoder to work
 809              		.loc 1 434 0
 810 0224 FFF7FEFF 		bl	cycles_counter_update
 811              	.L53:
 435:..\src/interruptions.c ****     }
 436:..\src/interruptions.c **** 
 437:..\src/interruptions.c ****     // Check Cycles Interrupt 
 438:..\src/interruptions.c ****     
 439:..\src/interruptions.c ****     if (cycles_interrupt_flag){
ARM GAS  C:\Users\mgnocco\AppData\Local\Temp\ccN5vhdn.s 			page 23


 812              		.loc 1 439 0
 813 0228 444B     		ldr	r3, .L64+36
 814 022a 1B78     		ldrb	r3, [r3]	@ zero_extendqisi2
 815 022c 002B     		cmp	r3, #0
 816 022e 00F0A280 		beq	.L54
 440:..\src/interruptions.c ****         cycles_interrupt_flag = FALSE;
 817              		.loc 1 440 0
 818 0232 424B     		ldr	r3, .L64+36
 819 0234 0022     		movs	r2, #0
 820 0236 1A70     		strb	r2, [r3]
 441:..\src/interruptions.c **** 
 442:..\src/interruptions.c ****         // Cycles are written only every 120 seconds (CYCLES_TIMER interrupt)
 443:..\src/interruptions.c ****         // to save EEPROM writings (1M maximum)
 444:..\src/interruptions.c ****         if(can_write) {
 821              		.loc 1 444 0
 822 0238 414B     		ldr	r3, .L64+40
 823 023a 1B78     		ldrb	r3, [r3]	@ zero_extendqisi2
 824 023c 002B     		cmp	r3, #0
 825 023e 54D0     		beq	.L55
 445:..\src/interruptions.c ****             cycles_status = PREPARE_DATA;
 826              		.loc 1 445 0
 827 0240 404B     		ldr	r3, .L64+44
 828 0242 0022     		movs	r2, #0
 829 0244 1A70     		strb	r2, [r3]
 446:..\src/interruptions.c ****             
 447:..\src/interruptions.c ****             //Update time variable
 448:..\src/interruptions.c ****             g_mem.cnt.total_runtime = g_mem.cnt.total_runtime + 120;  // Add 120 seconds.
 830              		.loc 1 448 0
 831 0246 364B     		ldr	r3, .L64+8
 832 0248 9B6D     		ldr	r3, [r3, #88]
 833 024a 7833     		adds	r3, r3, #120
 834 024c 344A     		ldr	r2, .L64+8
 835 024e 9365     		str	r3, [r2, #88]
 449:..\src/interruptions.c ****             
 450:..\src/interruptions.c ****             if (c_mem.exp.read_exp_port_flag == EXP_SD_RTC) {
 836              		.loc 1 450 0
 837 0250 364B     		ldr	r3, .L64+20
 838 0252 93F82632 		ldrb	r3, [r3, #550]	@ zero_extendqisi2
 839 0256 012B     		cmp	r3, #1
 840 0258 47D1     		bne	.L55
 451:..\src/interruptions.c ****                 
 452:..\src/interruptions.c ****                 store_RTC_current_time();
 841              		.loc 1 452 0
 842 025a FFF7FEFF 		bl	store_RTC_current_time
 453:..\src/interruptions.c ****                 
 454:..\src/interruptions.c ****                 //Write in SD card
 455:..\src/interruptions.c ****                 prepare_SD_info(info_);
 843              		.loc 1 455 0
 844 025e 07F56A53 		add	r3, r7, #14976
 845 0262 03F11803 		add	r3, r3, #24
 846 0266 1846     		mov	r0, r3
 847 0268 FFF7FEFF 		bl	prepare_SD_info
 456:..\src/interruptions.c ****                 FS_Write(pFile, info_, strlen(info_));
 848              		.loc 1 456 0
 849 026c 364B     		ldr	r3, .L64+48
 850 026e 1C68     		ldr	r4, [r3]
 851 0270 07F56A53 		add	r3, r7, #14976
ARM GAS  C:\Users\mgnocco\AppData\Local\Temp\ccN5vhdn.s 			page 24


 852 0274 03F11803 		add	r3, r3, #24
 853 0278 1846     		mov	r0, r3
 854 027a FFF7FEFF 		bl	strlen
 855 027e 0246     		mov	r2, r0
 856 0280 07F56A53 		add	r3, r7, #14976
 857 0284 03F11803 		add	r3, r3, #24
 858 0288 1946     		mov	r1, r3
 859 028a 2046     		mov	r0, r4
 860 028c FFF7FEFF 		bl	FS_Write
 457:..\src/interruptions.c ****                 
 458:..\src/interruptions.c ****                 if (c_mem.exp.record_EMG_history_on_SD){
 861              		.loc 1 458 0
 862 0290 264B     		ldr	r3, .L64+20
 863 0292 93F83432 		ldrb	r3, [r3, #564]	@ zero_extendqisi2
 864 0296 002B     		cmp	r3, #0
 865 0298 27D0     		beq	.L55
 866              	.LBB2:
 459:..\src/interruptions.c ****                     char EMG_history_info_[15000] = "";
 867              		.loc 1 459 0
 868 029a 07F16003 		add	r3, r7, #96
 869 029e 603B     		subs	r3, r3, #96
 870 02a0 0022     		movs	r2, #0
 871 02a2 1A60     		str	r2, [r3]
 872 02a4 0433     		adds	r3, r3, #4
 873 02a6 43F69422 		movw	r2, #14996
 874 02aa 0021     		movs	r1, #0
 875 02ac 1846     		mov	r0, r3
 876 02ae FFF7FEFF 		bl	memset
 460:..\src/interruptions.c ****                     strcpy(EMG_history_info_, "");
 877              		.loc 1 460 0
 878 02b2 264B     		ldr	r3, .L64+52
 879 02b4 1A78     		ldrb	r2, [r3]	@ zero_extendqisi2
 880 02b6 07F16003 		add	r3, r7, #96
 881 02ba 603B     		subs	r3, r3, #96
 882 02bc 1A70     		strb	r2, [r3]
 461:..\src/interruptions.c ****                     prepare_SD_EMG_history(EMG_history_info_);
 883              		.loc 1 461 0
 884 02be 07F16003 		add	r3, r7, #96
 885 02c2 603B     		subs	r3, r3, #96
 886 02c4 1846     		mov	r0, r3
 887 02c6 FFF7FEFF 		bl	prepare_SD_EMG_history
 462:..\src/interruptions.c ****                     FS_Write(pEMGHFile, EMG_history_info_, strlen(EMG_history_info_));
 888              		.loc 1 462 0
 889 02ca 214B     		ldr	r3, .L64+56
 890 02cc 1C68     		ldr	r4, [r3]
 891 02ce 07F16003 		add	r3, r7, #96
 892 02d2 603B     		subs	r3, r3, #96
 893 02d4 1846     		mov	r0, r3
 894 02d6 FFF7FEFF 		bl	strlen
 895 02da 0246     		mov	r2, r0
 896 02dc 07F16003 		add	r3, r7, #96
 897 02e0 603B     		subs	r3, r3, #96
 898 02e2 1946     		mov	r1, r3
 899 02e4 2046     		mov	r0, r4
 900 02e6 FFF7FEFF 		bl	FS_Write
 901              	.L55:
 902              	.LBE2:
ARM GAS  C:\Users\mgnocco\AppData\Local\Temp\ccN5vhdn.s 			page 25


 463:..\src/interruptions.c ****                 }
 464:..\src/interruptions.c ****             }
 465:..\src/interruptions.c ****         }
 466:..\src/interruptions.c ****         
 467:..\src/interruptions.c ****         // Deactivate the motor just for the time data are written in the EEPROM
 468:..\src/interruptions.c ****         if (cycles_status == WRITE_CYCLES || cycles_status == WAIT_QUERY){
 903              		.loc 1 468 0
 904 02ea 164B     		ldr	r3, .L64+44
 905 02ec 1B78     		ldrb	r3, [r3]	@ zero_extendqisi2
 906 02ee 012B     		cmp	r3, #1
 907 02f0 03D0     		beq	.L56
 908              		.loc 1 468 0 is_stmt 0 discriminator 1
 909 02f2 144B     		ldr	r3, .L64+44
 910 02f4 1B78     		ldrb	r3, [r3]	@ zero_extendqisi2
 911 02f6 022B     		cmp	r3, #2
 912 02f8 2CD1     		bne	.L57
 913              	.L56:
 469:..\src/interruptions.c ****             // Deactivate motors
 470:..\src/interruptions.c ****             enable_motor(0, 0x00); 
 914              		.loc 1 470 0 is_stmt 1
 915 02fa 0021     		movs	r1, #0
 916 02fc 0020     		movs	r0, #0
 917 02fe FFF7FEFF 		bl	enable_motor
 471:..\src/interruptions.c ****             if (g_mem.dev.use_2nd_motor_flag == TRUE) {
 918              		.loc 1 471 0
 919 0302 074B     		ldr	r3, .L64+8
 920 0304 93F8A930 		ldrb	r3, [r3, #169]	@ zero_extendqisi2
 921 0308 012B     		cmp	r3, #1
 922 030a 34D1     		bne	.L54
 472:..\src/interruptions.c ****                 enable_motor(1, 0x00); 
 923              		.loc 1 472 0
 924 030c 0021     		movs	r1, #0
 925 030e 0120     		movs	r0, #1
 926 0310 FFF7FEFF 		bl	enable_motor
 471:..\src/interruptions.c ****             if (g_mem.dev.use_2nd_motor_flag == TRUE) {
 927              		.loc 1 471 0
 928 0314 2FE0     		b	.L54
 929              	.L65:
 930 0316 00BF     		.align	2
 931              	.L64:
 932 0318 00000000 		.word	timer_value0
 933 031c 00000000 		.word	interrupt_flag
 934 0320 00000000 		.word	g_mem
 935 0324 00000000 		.word	flag_master
 936 0328 00000000 		.word	master_mode
 937 032c 00000000 		.word	c_mem
 938 0330 00000000 		.word	calib
 939 0334 00000000 		.word	counter_calibration.10245
 940 0338 00000000 		.word	pos_reconstruct
 941 033c 00000000 		.word	cycles_interrupt_flag
 942 0340 00000000 		.word	can_write
 943 0344 00000000 		.word	cycles_status
 944 0348 00000000 		.word	pFile
 945 034c 20000000 		.word	.LC0
 946 0350 00000000 		.word	pEMGHFile
 947              	.L57:
 473:..\src/interruptions.c ****             }
ARM GAS  C:\Users\mgnocco\AppData\Local\Temp\ccN5vhdn.s 			page 26


 474:..\src/interruptions.c ****         }
 475:..\src/interruptions.c ****         else {
 476:..\src/interruptions.c ****             // Activate/Deactivate motors
 477:..\src/interruptions.c ****             enable_motor(0, g_ref[0].onoff); 
 948              		.loc 1 477 0
 949 0354 4D4B     		ldr	r3, .L66
 950 0356 1B7B     		ldrb	r3, [r3, #12]	@ zero_extendqisi2
 951 0358 1946     		mov	r1, r3
 952 035a 0020     		movs	r0, #0
 953 035c FFF7FEFF 		bl	enable_motor
 478:..\src/interruptions.c ****             if (g_mem.dev.use_2nd_motor_flag == TRUE) {
 954              		.loc 1 478 0
 955 0360 4B4B     		ldr	r3, .L66+4
 956 0362 93F8A930 		ldrb	r3, [r3, #169]	@ zero_extendqisi2
 957 0366 012B     		cmp	r3, #1
 958 0368 05D1     		bne	.L54
 479:..\src/interruptions.c ****                 enable_motor(1, g_ref[1].onoff); 
 959              		.loc 1 479 0
 960 036a 484B     		ldr	r3, .L66
 961 036c 1B7F     		ldrb	r3, [r3, #28]	@ zero_extendqisi2
 962 036e 1946     		mov	r1, r3
 963 0370 0120     		movs	r0, #1
 964 0372 FFF7FEFF 		bl	enable_motor
 965              	.L54:
 480:..\src/interruptions.c ****             }
 481:..\src/interruptions.c ****         }
 482:..\src/interruptions.c ****     }
 483:..\src/interruptions.c ****     
 484:..\src/interruptions.c ****     // Check Interrupt 
 485:..\src/interruptions.c ****     
 486:..\src/interruptions.c ****     if (interrupt_flag){
 966              		.loc 1 486 0
 967 0376 474B     		ldr	r3, .L66+8
 968 0378 1B78     		ldrb	r3, [r3]	@ zero_extendqisi2
 969 037a 002B     		cmp	r3, #0
 970 037c 04D0     		beq	.L59
 487:..\src/interruptions.c ****         interrupt_flag = FALSE;
 971              		.loc 1 487 0
 972 037e 454B     		ldr	r3, .L66+8
 973 0380 0022     		movs	r2, #0
 974 0382 1A70     		strb	r2, [r3]
 488:..\src/interruptions.c ****         interrupt_manager();
 975              		.loc 1 488 0
 976 0384 FFF7FEFF 		bl	interrupt_manager
 977              	.L59:
 489:..\src/interruptions.c ****     }
 490:..\src/interruptions.c ****     
 491:..\src/interruptions.c ****     
 492:..\src/interruptions.c ****     //---------------------------------- Check battery
 493:..\src/interruptions.c **** 
 494:..\src/interruptions.c ****     // Divider 10, freq = 500 Hz
 495:..\src/interruptions.c ****     if (counter_tension_func == CALIBRATION_DIV) {
 978              		.loc 1 495 0
 979 0388 434B     		ldr	r3, .L66+12
 980 038a 1B88     		ldrh	r3, [r3]
 981 038c 0A2B     		cmp	r3, #10
 982 038e 04D1     		bne	.L60
ARM GAS  C:\Users\mgnocco\AppData\Local\Temp\ccN5vhdn.s 			page 27


 496:..\src/interruptions.c ****         battery_management();   
 983              		.loc 1 496 0
 984 0390 FFF7FEFF 		bl	battery_management
 497:..\src/interruptions.c ****         counter_tension_func = 0;
 985              		.loc 1 497 0
 986 0394 404B     		ldr	r3, .L66+12
 987 0396 0022     		movs	r2, #0
 988 0398 1A80     		strh	r2, [r3]	@ movhi
 989              	.L60:
 498:..\src/interruptions.c ****     }
 499:..\src/interruptions.c ****     counter_tension_func++;
 990              		.loc 1 499 0
 991 039a 3F4B     		ldr	r3, .L66+12
 992 039c 1B88     		ldrh	r3, [r3]
 993 039e 0133     		adds	r3, r3, #1
 994 03a0 9AB2     		uxth	r2, r3
 995 03a2 3D4B     		ldr	r3, .L66+12
 996 03a4 1A80     		strh	r2, [r3]	@ movhi
 500:..\src/interruptions.c **** 
 501:..\src/interruptions.c ****     // Check Interrupt 
 502:..\src/interruptions.c ****     
 503:..\src/interruptions.c ****     if (interrupt_flag){
 997              		.loc 1 503 0
 998 03a6 3B4B     		ldr	r3, .L66+8
 999 03a8 1B78     		ldrb	r3, [r3]	@ zero_extendqisi2
 1000 03aa 002B     		cmp	r3, #0
 1001 03ac 04D0     		beq	.L61
 504:..\src/interruptions.c ****         interrupt_flag = FALSE;
 1002              		.loc 1 504 0
 1003 03ae 394B     		ldr	r3, .L66+8
 1004 03b0 0022     		movs	r2, #0
 1005 03b2 1A70     		strb	r2, [r3]
 505:..\src/interruptions.c ****         interrupt_manager();
 1006              		.loc 1 505 0
 1007 03b4 FFF7FEFF 		bl	interrupt_manager
 1008              	.L61:
 506:..\src/interruptions.c ****     }
 507:..\src/interruptions.c ****    
 508:..\src/interruptions.c ****     //---------------------------------- Read IMUs
 509:..\src/interruptions.c ****     if (c_mem.imu.read_imu_flag) {
 1009              		.loc 1 509 0
 1010 03b8 384B     		ldr	r3, .L66+16
 1011 03ba 93F80032 		ldrb	r3, [r3, #512]	@ zero_extendqisi2
 1012 03be 002B     		cmp	r3, #0
 1013 03c0 0AD0     		beq	.L62
 510:..\src/interruptions.c ****         ReadAllIMUs();      // IMU reading is atomic, no RS485 request is handled
 1014              		.loc 1 510 0
 1015 03c2 FFF7FEFF 		bl	ReadAllIMUs
 511:..\src/interruptions.c ****         
 512:..\src/interruptions.c ****         if (interrupt_flag){
 1016              		.loc 1 512 0
 1017 03c6 334B     		ldr	r3, .L66+8
 1018 03c8 1B78     		ldrb	r3, [r3]	@ zero_extendqisi2
 1019 03ca 002B     		cmp	r3, #0
 1020 03cc 04D0     		beq	.L62
 513:..\src/interruptions.c ****             interrupt_flag = FALSE;
 1021              		.loc 1 513 0
ARM GAS  C:\Users\mgnocco\AppData\Local\Temp\ccN5vhdn.s 			page 28


 1022 03ce 314B     		ldr	r3, .L66+8
 1023 03d0 0022     		movs	r2, #0
 1024 03d2 1A70     		strb	r2, [r3]
 514:..\src/interruptions.c ****             interrupt_manager();
 1025              		.loc 1 514 0
 1026 03d4 FFF7FEFF 		bl	interrupt_manager
 1027              	.L62:
 515:..\src/interruptions.c ****         }
 516:..\src/interruptions.c ****     }
 517:..\src/interruptions.c ****    
 518:..\src/interruptions.c ****     //---------------------------------- Update States
 519:..\src/interruptions.c ****     
 520:..\src/interruptions.c ****     // Load k-1 state
 521:..\src/interruptions.c ****     memcpy( &g_adc_measOld, &g_adc_meas, sizeof(g_adc_meas) );
 1028              		.loc 1 521 0
 1029 03d8 314A     		ldr	r2, .L66+20
 1030 03da 324B     		ldr	r3, .L66+24
 1031 03dc 1446     		mov	r4, r2
 1032 03de 1D46     		mov	r5, r3
 1033 03e0 0FCD     		ldmia	r5!, {r0, r1, r2, r3}
 1034 03e2 0FC4     		stmia	r4!, {r0, r1, r2, r3}
 1035 03e4 0FCD     		ldmia	r5!, {r0, r1, r2, r3}
 1036 03e6 0FC4     		stmia	r4!, {r0, r1, r2, r3}
 1037 03e8 95E80300 		ldmia	r5, {r0, r1}
 1038 03ec 84E80300 		stmia	r4, {r0, r1}
 522:..\src/interruptions.c ****     memcpy( &g_measOld, &g_meas, sizeof(g_meas) );
 1039              		.loc 1 522 0
 1040 03f0 2D4A     		ldr	r2, .L66+28
 1041 03f2 2E4B     		ldr	r3, .L66+32
 1042 03f4 1046     		mov	r0, r2
 1043 03f6 1946     		mov	r1, r3
 1044 03f8 6823     		movs	r3, #104
 1045 03fa 1A46     		mov	r2, r3
 1046 03fc FFF7FEFF 		bl	memcpy
 523:..\src/interruptions.c ****     memcpy( &g_refOld, &g_ref, sizeof(g_ref) );
 1047              		.loc 1 523 0
 1048 0400 2B4A     		ldr	r2, .L66+36
 1049 0402 224B     		ldr	r3, .L66
 1050 0404 1446     		mov	r4, r2
 1051 0406 1D46     		mov	r5, r3
 1052 0408 0FCD     		ldmia	r5!, {r0, r1, r2, r3}
 1053 040a 0FC4     		stmia	r4!, {r0, r1, r2, r3}
 1054 040c 95E80F00 		ldmia	r5, {r0, r1, r2, r3}
 1055 0410 84E80F00 		stmia	r4, {r0, r1, r2, r3}
 524:..\src/interruptions.c **** 
 525:..\src/interruptions.c ****     // Load k+1 state        
 526:..\src/interruptions.c ****     memcpy( &g_ref, &g_refNew, sizeof(g_ref) );
 1056              		.loc 1 526 0
 1057 0414 1D4A     		ldr	r2, .L66
 1058 0416 274B     		ldr	r3, .L66+40
 1059 0418 1446     		mov	r4, r2
 1060 041a 1D46     		mov	r5, r3
 1061 041c 0FCD     		ldmia	r5!, {r0, r1, r2, r3}
 1062 041e 0FC4     		stmia	r4!, {r0, r1, r2, r3}
 1063 0420 95E80F00 		ldmia	r5, {r0, r1, r2, r3}
 1064 0424 84E80F00 		stmia	r4, {r0, r1, r2, r3}
 527:..\src/interruptions.c ****     memcpy( &g_imu, &g_imuNew, sizeof(g_imu) );
ARM GAS  C:\Users\mgnocco\AppData\Local\Temp\ccN5vhdn.s 			page 29


 1065              		.loc 1 527 0
 1066 0428 234A     		ldr	r2, .L66+44
 1067 042a 244B     		ldr	r3, .L66+48
 1068 042c 1046     		mov	r0, r2
 1069 042e 1946     		mov	r1, r3
 1070 0430 C823     		movs	r3, #200
 1071 0432 1A46     		mov	r2, r3
 1072 0434 FFF7FEFF 		bl	memcpy
 528:..\src/interruptions.c ****                     
 529:..\src/interruptions.c ****     if (interrupt_flag){
 1073              		.loc 1 529 0
 1074 0438 164B     		ldr	r3, .L66+8
 1075 043a 1B78     		ldrb	r3, [r3]	@ zero_extendqisi2
 1076 043c 002B     		cmp	r3, #0
 1077 043e 04D0     		beq	.L63
 530:..\src/interruptions.c ****         interrupt_flag = FALSE;
 1078              		.loc 1 530 0
 1079 0440 144B     		ldr	r3, .L66+8
 1080 0442 0022     		movs	r2, #0
 1081 0444 1A70     		strb	r2, [r3]
 531:..\src/interruptions.c ****         interrupt_manager();
 1082              		.loc 1 531 0
 1083 0446 FFF7FEFF 		bl	interrupt_manager
 1084              	.L63:
 532:..\src/interruptions.c ****     }
 533:..\src/interruptions.c **** 
 534:..\src/interruptions.c ****     timer_value = (uint16)MY_TIMER_ReadCounter();
 1085              		.loc 1 534 0
 1086 044a FFF7FEFF 		bl	MY_TIMER_ReadCounter
 1087 044e 0346     		mov	r3, r0
 1088 0450 1A46     		mov	r2, r3
 1089 0452 1B4B     		ldr	r3, .L66+52
 1090 0454 1A80     		strh	r2, [r3]	@ movhi
 535:..\src/interruptions.c ****     cycle_time = ((float)(timer_value0 - timer_value)/1000000.0);
 1091              		.loc 1 535 0
 1092 0456 1B4B     		ldr	r3, .L66+56
 1093 0458 1B88     		ldrh	r3, [r3]
 1094 045a 1A46     		mov	r2, r3
 1095 045c 184B     		ldr	r3, .L66+52
 1096 045e 1B88     		ldrh	r3, [r3]
 1097 0460 D31A     		subs	r3, r2, r3
 1098 0462 1846     		mov	r0, r3
 1099 0464 FFF7FEFF 		bl	__aeabi_i2f
 1100 0468 0346     		mov	r3, r0
 1101 046a 1749     		ldr	r1, .L66+60
 1102 046c 1846     		mov	r0, r3
 1103 046e FFF7FEFF 		bl	__aeabi_fdiv
 1104 0472 0346     		mov	r3, r0
 1105 0474 1A46     		mov	r2, r3
 1106 0476 154B     		ldr	r3, .L66+64
 1107 0478 1A60     		str	r2, [r3]	@ float
 536:..\src/interruptions.c ****     MY_TIMER_REG_Write(0x01);   // reset timer
 1108              		.loc 1 536 0
 1109 047a 0120     		movs	r0, #1
 1110 047c FFF7FEFF 		bl	MY_TIMER_REG_Write
 537:..\src/interruptions.c **** 
 538:..\src/interruptions.c **** }
ARM GAS  C:\Users\mgnocco\AppData\Local\Temp\ccN5vhdn.s 			page 30


 1111              		.loc 1 538 0
 1112 0480 00BF     		nop
 1113 0482 07F58847 		add	r7, r7, #17408
 1114 0486 6037     		adds	r7, r7, #96
 1115              		.cfi_def_cfa_offset 16
 1116 0488 BD46     		mov	sp, r7
 1117              		.cfi_def_cfa_register 13
 1118              		@ sp needed
 1119 048a B0BD     		pop	{r4, r5, r7, pc}
 1120              	.L67:
 1121              		.align	2
 1122              	.L66:
 1123 048c 00000000 		.word	g_ref
 1124 0490 00000000 		.word	g_mem
 1125 0494 00000000 		.word	interrupt_flag
 1126 0498 02000000 		.word	counter_tension_func.10246
 1127 049c 00000000 		.word	c_mem
 1128 04a0 00000000 		.word	g_adc_measOld
 1129 04a4 00000000 		.word	g_adc_meas
 1130 04a8 00000000 		.word	g_measOld
 1131 04ac 00000000 		.word	g_meas
 1132 04b0 00000000 		.word	g_refOld
 1133 04b4 00000000 		.word	g_refNew
 1134 04b8 00000000 		.word	g_imu
 1135 04bc 00000000 		.word	g_imuNew
 1136 04c0 00000000 		.word	timer_value
 1137 04c4 00000000 		.word	timer_value0
 1138 04c8 00247449 		.word	1232348160
 1139 04cc 00000000 		.word	cycle_time
 1140              		.cfi_endproc
 1141              	.LFE67:
 1142              		.size	function_scheduler, .-function_scheduler
 1143              		.section	.text.compute_reference,"ax",%progbits
 1144              		.align	2
 1145              		.global	compute_reference
 1146              		.thumb
 1147              		.thumb_func
 1148              		.type	compute_reference, %function
 1149              	compute_reference:
 1150              	.LFB68:
 539:..\src/interruptions.c **** 
 540:..\src/interruptions.c **** //==============================================================================
 541:..\src/interruptions.c **** //                                                       COMPUTE MOTOR REFERENCE
 542:..\src/interruptions.c **** //==============================================================================
 543:..\src/interruptions.c **** void compute_reference(uint8 motor_idx, struct st_ref* st_ref_p, struct st_ref* st_refOld_p) {
 1151              		.loc 1 543 0
 1152              		.cfi_startproc
 1153              		@ args = 0, pretend = 0, frame = 40
 1154              		@ frame_needed = 1, uses_anonymous_args = 0
 1155 0000 80B5     		push	{r7, lr}
 1156              		.cfi_def_cfa_offset 8
 1157              		.cfi_offset 7, -8
 1158              		.cfi_offset 14, -4
 1159 0002 8CB0     		sub	sp, sp, #48
 1160              		.cfi_def_cfa_offset 56
 1161 0004 02AF     		add	r7, sp, #8
 1162              		.cfi_def_cfa 7, 48
ARM GAS  C:\Users\mgnocco\AppData\Local\Temp\ccN5vhdn.s 			page 31


 1163 0006 0346     		mov	r3, r0
 1164 0008 B960     		str	r1, [r7, #8]
 1165 000a 7A60     		str	r2, [r7, #4]
 1166 000c FB73     		strb	r3, [r7, #15]
 544:..\src/interruptions.c ****     
 545:..\src/interruptions.c ****     int32 CYDATA handle_value;
 546:..\src/interruptions.c ****     int32 CYDATA err_emg_1, err_emg_2;
 547:..\src/interruptions.c ****     struct st_motor* MOT = &c_mem.motor[motor_idx];      // SoftHand default motor
 1167              		.loc 1 547 0
 1168 000e FA7B     		ldrb	r2, [r7, #15]	@ zero_extendqisi2
 1169 0010 1346     		mov	r3, r2
 1170 0012 DB00     		lsls	r3, r3, #3
 1171 0014 9B1A     		subs	r3, r3, r2
 1172 0016 1B01     		lsls	r3, r3, #4
 1173 0018 B033     		adds	r3, r3, #176
 1174 001a A74A     		ldr	r2, .L132
 1175 001c 1344     		add	r3, r3, r2
 1176 001e 3B62     		str	r3, [r7, #32]
 548:..\src/interruptions.c ****     uint8 ENC_L = MOT->encoder_line;          // Associated encoder line
 1177              		.loc 1 548 0
 1178 0020 3B6A     		ldr	r3, [r7, #32]
 1179 0022 93F86030 		ldrb	r3, [r3, #96]
 1180 0026 FB77     		strb	r3, [r7, #31]
 549:..\src/interruptions.c ****     
 550:..\src/interruptions.c ****     static uint8 current_emg[NUM_OF_MOTORS] = {0, 0};   // 0 NONE
 551:..\src/interruptions.c ****                                                         // 1 EMG 1
 552:..\src/interruptions.c ****                                                         // 2 EMG 2
 553:..\src/interruptions.c ****                                                         // wait for both to get down
 554:..\src/interruptions.c ****     
 555:..\src/interruptions.c ****     err_emg_1 = g_adc_meas.emg[0] - c_mem.emg.emg_threshold[0];
 1181              		.loc 1 555 0
 1182 0028 A44B     		ldr	r3, .L132+4
 1183 002a 1B68     		ldr	r3, [r3]
 1184 002c A24A     		ldr	r2, .L132
 1185 002e B2F8F021 		ldrh	r2, [r2, #496]
 1186 0032 9B1A     		subs	r3, r3, r2
 1187 0034 BB61     		str	r3, [r7, #24]
 556:..\src/interruptions.c ****     err_emg_2 = g_adc_meas.emg[1] - c_mem.emg.emg_threshold[1];
 1188              		.loc 1 556 0
 1189 0036 A14B     		ldr	r3, .L132+4
 1190 0038 5B68     		ldr	r3, [r3, #4]
 1191 003a 9F4A     		ldr	r2, .L132
 1192 003c B2F8F221 		ldrh	r2, [r2, #498]
 1193 0040 9B1A     		subs	r3, r3, r2
 1194 0042 7B61     		str	r3, [r7, #20]
 557:..\src/interruptions.c ****     
 558:..\src/interruptions.c ****      // =========================== POSITION INPUT ==============================            
 559:..\src/interruptions.c ****     switch(MOT->input_mode) {
 1195              		.loc 1 559 0
 1196 0044 3B6A     		ldr	r3, [r7, #32]
 1197 0046 93F85E30 		ldrb	r3, [r3, #94]	@ zero_extendqisi2
 1198 004a 013B     		subs	r3, r3, #1
 1199 004c 062B     		cmp	r3, #6
 1200 004e 00F25182 		bhi	.L124
 1201 0052 01A2     		adr	r2, .L71
 1202 0054 52F823F0 		ldr	pc, [r2, r3, lsl #2]
 1203              		.p2align 2
ARM GAS  C:\Users\mgnocco\AppData\Local\Temp\ccN5vhdn.s 			page 32


 1204              	.L71:
 1205 0058 75000000 		.word	.L70+1
 1206 005c 21020000 		.word	.L72+1
 1207 0060 C9020000 		.word	.L73+1
 1208 0064 31030000 		.word	.L74+1
 1209 0068 11040000 		.word	.L75+1
 1210 006c 4D010000 		.word	.L76+1
 1211 0070 5B020000 		.word	.L77+1
 1212              		.p2align 1
 1213              	.L70:
 560:..\src/interruptions.c ****         case INPUT_MODE_ENCODER3:
 561:..\src/interruptions.c **** 
 562:..\src/interruptions.c ****             // Calculate handle value based on position of handle in the
 563:..\src/interruptions.c ****             // sensor chain and multiplication factor between handle and motor position
 564:..\src/interruptions.c ****             if (c_mem.enc[ENC_L].double_encoder_on_off) 
 1214              		.loc 1 564 0
 1215 0074 FA7F     		ldrb	r2, [r7, #31]	@ zero_extendqisi2
 1216 0076 9049     		ldr	r1, .L132
 1217 0078 1346     		mov	r3, r2
 1218 007a 5B00     		lsls	r3, r3, #1
 1219 007c 1344     		add	r3, r3, r2
 1220 007e 1B01     		lsls	r3, r3, #4
 1221 0080 0B44     		add	r3, r3, r1
 1222 0082 03F5D873 		add	r3, r3, #432
 1223 0086 1B78     		ldrb	r3, [r3]	@ zero_extendqisi2
 1224 0088 002B     		cmp	r3, #0
 1225 008a 19D0     		beq	.L78
 565:..\src/interruptions.c ****                 handle_value = (g_meas[ENC_L].pos[2] * c_mem.enc[ENC_L].motor_handle_ratio) + MOT->
 1226              		.loc 1 565 0
 1227 008c FB7F     		ldrb	r3, [r7, #31]	@ zero_extendqisi2
 1228 008e 8C4A     		ldr	r2, .L132+8
 1229 0090 3421     		movs	r1, #52
 1230 0092 01FB03F3 		mul	r3, r1, r3
 1231 0096 1344     		add	r3, r3, r2
 1232 0098 0833     		adds	r3, r3, #8
 1233 009a 1968     		ldr	r1, [r3]
 1234 009c FA7F     		ldrb	r2, [r7, #31]	@ zero_extendqisi2
 1235 009e 8648     		ldr	r0, .L132
 1236 00a0 1346     		mov	r3, r2
 1237 00a2 5B00     		lsls	r3, r3, #1
 1238 00a4 1344     		add	r3, r3, r2
 1239 00a6 1B01     		lsls	r3, r3, #4
 1240 00a8 0344     		add	r3, r3, r0
 1241 00aa 03F5DA73 		add	r3, r3, #436
 1242 00ae 93F90030 		ldrsb	r3, [r3]
 1243 00b2 03FB01F2 		mul	r2, r3, r1
 1244 00b6 3B6A     		ldr	r3, [r7, #32]
 1245 00b8 5B6B     		ldr	r3, [r3, #52]
 1246 00ba 1344     		add	r3, r3, r2
 1247 00bc 7B62     		str	r3, [r7, #36]
 1248 00be 18E0     		b	.L79
 1249              	.L78:
 566:..\src/interruptions.c ****             else
 567:..\src/interruptions.c ****                 handle_value = (g_meas[ENC_L].pos[1] * c_mem.enc[ENC_L].motor_handle_ratio) + MOT->
 1250              		.loc 1 567 0
 1251 00c0 FB7F     		ldrb	r3, [r7, #31]	@ zero_extendqisi2
 1252 00c2 7F4A     		ldr	r2, .L132+8
ARM GAS  C:\Users\mgnocco\AppData\Local\Temp\ccN5vhdn.s 			page 33


 1253 00c4 3421     		movs	r1, #52
 1254 00c6 01FB03F3 		mul	r3, r1, r3
 1255 00ca 1344     		add	r3, r3, r2
 1256 00cc 0433     		adds	r3, r3, #4
 1257 00ce 1968     		ldr	r1, [r3]
 1258 00d0 FA7F     		ldrb	r2, [r7, #31]	@ zero_extendqisi2
 1259 00d2 7948     		ldr	r0, .L132
 1260 00d4 1346     		mov	r3, r2
 1261 00d6 5B00     		lsls	r3, r3, #1
 1262 00d8 1344     		add	r3, r3, r2
 1263 00da 1B01     		lsls	r3, r3, #4
 1264 00dc 0344     		add	r3, r3, r0
 1265 00de 03F5DA73 		add	r3, r3, #436
 1266 00e2 93F90030 		ldrsb	r3, [r3]
 1267 00e6 03FB01F2 		mul	r2, r3, r1
 1268 00ea 3B6A     		ldr	r3, [r7, #32]
 1269 00ec 5B6B     		ldr	r3, [r3, #52]
 1270 00ee 1344     		add	r3, r3, r2
 1271 00f0 7B62     		str	r3, [r7, #36]
 1272              	.L79:
 568:..\src/interruptions.c ****             
 569:..\src/interruptions.c **** 
 570:..\src/interruptions.c ****             // Read handle and use it as reference for the motor
 571:..\src/interruptions.c ****             if (((handle_value - st_refOld_p->pos) > MOT->max_step_pos) && (MOT->max_step_pos != 0)
 1273              		.loc 1 571 0
 1274 00f2 7B68     		ldr	r3, [r7, #4]
 1275 00f4 1B68     		ldr	r3, [r3]
 1276 00f6 7A6A     		ldr	r2, [r7, #36]
 1277 00f8 D21A     		subs	r2, r2, r3
 1278 00fa 3B6A     		ldr	r3, [r7, #32]
 1279 00fc 1B6C     		ldr	r3, [r3, #64]
 1280 00fe 9A42     		cmp	r2, r3
 1281 0100 0BDD     		ble	.L80
 1282              		.loc 1 571 0 is_stmt 0 discriminator 1
 1283 0102 3B6A     		ldr	r3, [r7, #32]
 1284 0104 1B6C     		ldr	r3, [r3, #64]
 1285 0106 002B     		cmp	r3, #0
 1286 0108 07D0     		beq	.L80
 572:..\src/interruptions.c ****                 st_ref_p->pos += MOT->max_step_pos;
 1287              		.loc 1 572 0 is_stmt 1
 1288 010a BB68     		ldr	r3, [r7, #8]
 1289 010c 1A68     		ldr	r2, [r3]
 1290 010e 3B6A     		ldr	r3, [r7, #32]
 1291 0110 1B6C     		ldr	r3, [r3, #64]
 1292 0112 1A44     		add	r2, r2, r3
 1293 0114 BB68     		ldr	r3, [r7, #8]
 1294 0116 1A60     		str	r2, [r3]
 1295 0118 17E0     		b	.L81
 1296              	.L80:
 573:..\src/interruptions.c ****             else {
 574:..\src/interruptions.c ****                 if (((handle_value - st_refOld_p->pos) < MOT->max_step_neg) && (MOT->max_step_neg !
 1297              		.loc 1 574 0
 1298 011a 7B68     		ldr	r3, [r7, #4]
 1299 011c 1B68     		ldr	r3, [r3]
 1300 011e 7A6A     		ldr	r2, [r7, #36]
 1301 0120 D21A     		subs	r2, r2, r3
 1302 0122 3B6A     		ldr	r3, [r7, #32]
ARM GAS  C:\Users\mgnocco\AppData\Local\Temp\ccN5vhdn.s 			page 34


 1303 0124 DB6B     		ldr	r3, [r3, #60]
 1304 0126 9A42     		cmp	r2, r3
 1305 0128 0BDA     		bge	.L82
 1306              		.loc 1 574 0 is_stmt 0 discriminator 1
 1307 012a 3B6A     		ldr	r3, [r7, #32]
 1308 012c DB6B     		ldr	r3, [r3, #60]
 1309 012e 002B     		cmp	r3, #0
 1310 0130 07D0     		beq	.L82
 575:..\src/interruptions.c ****                     st_ref_p->pos += MOT->max_step_neg;
 1311              		.loc 1 575 0 is_stmt 1
 1312 0132 BB68     		ldr	r3, [r7, #8]
 1313 0134 1A68     		ldr	r2, [r3]
 1314 0136 3B6A     		ldr	r3, [r7, #32]
 1315 0138 DB6B     		ldr	r3, [r3, #60]
 1316 013a 1A44     		add	r2, r2, r3
 1317 013c BB68     		ldr	r3, [r7, #8]
 1318 013e 1A60     		str	r2, [r3]
 1319 0140 03E0     		b	.L81
 1320              	.L82:
 576:..\src/interruptions.c ****                 else
 577:..\src/interruptions.c ****                     st_ref_p->pos = handle_value;
 1321              		.loc 1 577 0
 1322 0142 BB68     		ldr	r3, [r7, #8]
 1323 0144 7A6A     		ldr	r2, [r7, #36]
 1324 0146 1A60     		str	r2, [r3]
 578:..\src/interruptions.c ****             }
 579:..\src/interruptions.c ****             break;
 1325              		.loc 1 579 0
 1326 0148 DFE1     		b	.L83
 1327              	.L81:
 1328 014a DEE1     		b	.L83
 1329              	.L76:
 580:..\src/interruptions.c ****         
 581:..\src/interruptions.c ****         case INPUT_MODE_JOYSTICK:
 582:..\src/interruptions.c ****             
 583:..\src/interruptions.c ****             if (c_mem.dev.use_2nd_motor_flag == FALSE){
 1330              		.loc 1 583 0
 1331 014c 5A4B     		ldr	r3, .L132
 1332 014e 93F8A930 		ldrb	r3, [r3, #169]	@ zero_extendqisi2
 1333 0152 002B     		cmp	r3, #0
 1334 0154 57D1     		bne	.L84
 584:..\src/interruptions.c ****                 // Code for single motor devices. Use only up/down direction to give speed referenc
 585:..\src/interruptions.c ****                 st_ref_p->pos = st_refOld_p->pos;
 1335              		.loc 1 585 0
 1336 0156 7B68     		ldr	r3, [r7, #4]
 1337 0158 1A68     		ldr	r2, [r3]
 1338 015a BB68     		ldr	r3, [r7, #8]
 1339 015c 1A60     		str	r2, [r3]
 586:..\src/interruptions.c ****                 if(!(g_adc_meas.joystick[0] > 700)) {
 1340              		.loc 1 586 0
 1341 015e 574B     		ldr	r3, .L132+4
 1342 0160 1B6A     		ldr	r3, [r3, #32]
 1343 0162 B3F52F7F 		cmp	r3, #700
 1344 0166 45DC     		bgt	.L85
 1345              	.LBB3:
 587:..\src/interruptions.c ****                     int32 CYDATA err_joy_1 = g_adc_meas.joystick[0] - c_mem.JOY_spec.joystick_thres
 1346              		.loc 1 587 0
ARM GAS  C:\Users\mgnocco\AppData\Local\Temp\ccN5vhdn.s 			page 35


 1347 0168 544B     		ldr	r3, .L132+4
 1348 016a 1B6A     		ldr	r3, [r3, #32]
 1349 016c 524A     		ldr	r2, .L132
 1350 016e B2F9B222 		ldrsh	r2, [r2, #690]
 1351 0172 9B1A     		subs	r3, r3, r2
 1352 0174 3B61     		str	r3, [r7, #16]
 588:..\src/interruptions.c **** 
 589:..\src/interruptions.c ****                     if(g_adc_meas.joystick[0] > c_mem.JOY_spec.joystick_threshold) {     //both mot
 1353              		.loc 1 589 0
 1354 0176 514B     		ldr	r3, .L132+4
 1355 0178 1B6A     		ldr	r3, [r3, #32]
 1356 017a 4F4A     		ldr	r2, .L132
 1357 017c B2F9B222 		ldrsh	r2, [r2, #690]
 1358 0180 9342     		cmp	r3, r2
 1359 0182 13DD     		ble	.L86
 590:..\src/interruptions.c ****                         st_ref_p->pos += ((int32) err_joy_1 * c_mem.JOY_spec.joystick_closure_speed
 1360              		.loc 1 590 0
 1361 0184 BB68     		ldr	r3, [r7, #8]
 1362 0186 1A68     		ldr	r2, [r3]
 1363 0188 4B4B     		ldr	r3, .L132
 1364 018a B3F8B032 		ldrh	r3, [r3, #688]
 1365 018e 1946     		mov	r1, r3
 1366 0190 3B69     		ldr	r3, [r7, #16]
 1367 0192 03FB01F1 		mul	r1, r3, r1
 1368 0196 484B     		ldr	r3, .L132
 1369 0198 B3F9B232 		ldrsh	r3, [r3, #690]
 1370 019c C3F58063 		rsb	r3, r3, #1024
 1371 01a0 91FBF3F3 		sdiv	r3, r1, r3
 1372 01a4 1A44     		add	r2, r2, r3
 1373 01a6 BB68     		ldr	r3, [r7, #8]
 1374 01a8 1A60     		str	r2, [r3]
 1375              	.LBE3:
 591:..\src/interruptions.c ****                     }
 592:..\src/interruptions.c ****                     else {
 593:..\src/interruptions.c ****                         err_joy_1 = g_adc_meas.joystick[0] + c_mem.JOY_spec.joystick_threshold;
 594:..\src/interruptions.c ****                         if(g_adc_meas.joystick[0] < -c_mem.JOY_spec.joystick_threshold) {  //both m
 595:..\src/interruptions.c ****                             st_ref_p->pos += ((int32) err_joy_1 * c_mem.JOY_spec.joystick_closure_s
 596:..\src/interruptions.c ****                         }
 597:..\src/interruptions.c ****                     }
 598:..\src/interruptions.c ****                 }
 599:..\src/interruptions.c ****                 else {  //The button is pressed and the motor reference is gradually set to zero 
 600:..\src/interruptions.c ****                     st_ref_p->pos -= (int32) g_mem.JOY_spec.joystick_closure_speed;
 601:..\src/interruptions.c ****                 }
 602:..\src/interruptions.c ****             }
 603:..\src/interruptions.c ****             else {
 604:..\src/interruptions.c ****                 // Code for two motors devices. Use both direction to give speed references
 605:..\src/interruptions.c ****                 if (c_mem.dev.dev_type == SOFTHAND_2_MOTORS){
 606:..\src/interruptions.c ****                     compute_SoftHand_2_motors_joystick_reference(motor_idx, st_ref_p, st_refOld_p);
 607:..\src/interruptions.c ****                 }
 608:..\src/interruptions.c ****             }
 609:..\src/interruptions.c ****             break;
 1376              		.loc 1 609 0
 1377 01aa A5E1     		b	.L125
 1378              	.L86:
 1379              	.LBB4:
 593:..\src/interruptions.c ****                         if(g_adc_meas.joystick[0] < -c_mem.JOY_spec.joystick_threshold) {  //both m
 1380              		.loc 1 593 0
ARM GAS  C:\Users\mgnocco\AppData\Local\Temp\ccN5vhdn.s 			page 36


 1381 01ac 434B     		ldr	r3, .L132+4
 1382 01ae 1B6A     		ldr	r3, [r3, #32]
 1383 01b0 414A     		ldr	r2, .L132
 1384 01b2 B2F9B222 		ldrsh	r2, [r2, #690]
 1385 01b6 1344     		add	r3, r3, r2
 1386 01b8 3B61     		str	r3, [r7, #16]
 594:..\src/interruptions.c ****                             st_ref_p->pos += ((int32) err_joy_1 * c_mem.JOY_spec.joystick_closure_s
 1387              		.loc 1 594 0
 1388 01ba 404B     		ldr	r3, .L132+4
 1389 01bc 1A6A     		ldr	r2, [r3, #32]
 1390 01be 3E4B     		ldr	r3, .L132
 1391 01c0 B3F9B232 		ldrsh	r3, [r3, #690]
 1392 01c4 5B42     		negs	r3, r3
 1393 01c6 9A42     		cmp	r2, r3
 1394 01c8 80F29681 		bge	.L125
 595:..\src/interruptions.c ****                         }
 1395              		.loc 1 595 0
 1396 01cc BB68     		ldr	r3, [r7, #8]
 1397 01ce 1A68     		ldr	r2, [r3]
 1398 01d0 394B     		ldr	r3, .L132
 1399 01d2 B3F8B032 		ldrh	r3, [r3, #688]
 1400 01d6 1946     		mov	r1, r3
 1401 01d8 3B69     		ldr	r3, [r7, #16]
 1402 01da 03FB01F1 		mul	r1, r3, r1
 1403 01de 364B     		ldr	r3, .L132
 1404 01e0 B3F9B232 		ldrsh	r3, [r3, #690]
 1405 01e4 C3F58063 		rsb	r3, r3, #1024
 1406 01e8 91FBF3F3 		sdiv	r3, r1, r3
 1407 01ec 1A44     		add	r2, r2, r3
 1408 01ee BB68     		ldr	r3, [r7, #8]
 1409 01f0 1A60     		str	r2, [r3]
 1410              	.LBE4:
 1411              		.loc 1 609 0
 1412 01f2 81E1     		b	.L125
 1413              	.L85:
 600:..\src/interruptions.c ****                 }
 1414              		.loc 1 600 0
 1415 01f4 BB68     		ldr	r3, [r7, #8]
 1416 01f6 1B68     		ldr	r3, [r3]
 1417 01f8 324A     		ldr	r2, .L132+12
 1418 01fa B2F8B022 		ldrh	r2, [r2, #688]
 1419 01fe 9A1A     		subs	r2, r3, r2
 1420 0200 BB68     		ldr	r3, [r7, #8]
 1421 0202 1A60     		str	r2, [r3]
 1422              		.loc 1 609 0
 1423 0204 78E1     		b	.L125
 1424              	.L84:
 605:..\src/interruptions.c ****                     compute_SoftHand_2_motors_joystick_reference(motor_idx, st_ref_p, st_refOld_p);
 1425              		.loc 1 605 0
 1426 0206 2C4B     		ldr	r3, .L132
 1427 0208 93F8AC30 		ldrb	r3, [r3, #172]	@ zero_extendqisi2
 1428 020c 042B     		cmp	r3, #4
 1429 020e 40F07381 		bne	.L125
 606:..\src/interruptions.c ****                 }
 1430              		.loc 1 606 0
 1431 0212 FB7B     		ldrb	r3, [r7, #15]	@ zero_extendqisi2
 1432 0214 7A68     		ldr	r2, [r7, #4]
ARM GAS  C:\Users\mgnocco\AppData\Local\Temp\ccN5vhdn.s 			page 37


 1433 0216 B968     		ldr	r1, [r7, #8]
 1434 0218 1846     		mov	r0, r3
 1435 021a FFF7FEFF 		bl	compute_SoftHand_2_motors_joystick_reference
 1436              		.loc 1 609 0
 1437 021e 6BE1     		b	.L125
 1438              	.L72:
 610:..\src/interruptions.c ****             
 611:..\src/interruptions.c ****         case INPUT_MODE_EMG_PROPORTIONAL:
 612:..\src/interruptions.c ****             if (err_emg_1 > 0)
 1439              		.loc 1 612 0
 1440 0220 BB69     		ldr	r3, [r7, #24]
 1441 0222 002B     		cmp	r3, #0
 1442 0224 15DD     		ble	.L90
 613:..\src/interruptions.c ****                 st_ref_p->pos = (err_emg_1 * g_mem.motor[motor_idx].pos_lim_sup) / (1024 - c_mem.em
 1443              		.loc 1 613 0
 1444 0226 FA7B     		ldrb	r2, [r7, #15]	@ zero_extendqisi2
 1445 0228 2649     		ldr	r1, .L132+12
 1446 022a 1346     		mov	r3, r2
 1447 022c DB00     		lsls	r3, r3, #3
 1448 022e 9B1A     		subs	r3, r3, r2
 1449 0230 1B01     		lsls	r3, r3, #4
 1450 0232 0B44     		add	r3, r3, r1
 1451 0234 E833     		adds	r3, r3, #232
 1452 0236 1B68     		ldr	r3, [r3]
 1453 0238 BA69     		ldr	r2, [r7, #24]
 1454 023a 02FB03F2 		mul	r2, r2, r3
 1455 023e 1E4B     		ldr	r3, .L132
 1456 0240 B3F8F031 		ldrh	r3, [r3, #496]
 1457 0244 C3F58063 		rsb	r3, r3, #1024
 1458 0248 92FBF3F2 		sdiv	r2, r2, r3
 1459 024c BB68     		ldr	r3, [r7, #8]
 1460 024e 1A60     		str	r2, [r3]
 614:..\src/interruptions.c ****             else
 615:..\src/interruptions.c ****                 st_ref_p->pos = 0;
 616:..\src/interruptions.c ****             break;
 1461              		.loc 1 616 0
 1462 0250 5BE1     		b	.L83
 1463              	.L90:
 615:..\src/interruptions.c ****             break;
 1464              		.loc 1 615 0
 1465 0252 BB68     		ldr	r3, [r7, #8]
 1466 0254 0022     		movs	r2, #0
 1467 0256 1A60     		str	r2, [r3]
 1468              		.loc 1 616 0
 1469 0258 57E1     		b	.L83
 1470              	.L77:
 617:..\src/interruptions.c ****         
 618:..\src/interruptions.c ****         case INPUT_MODE_EMG_PROPORTIONAL_NC:
 619:..\src/interruptions.c ****             if (err_emg_1 > 0)
 1471              		.loc 1 619 0
 1472 025a BB69     		ldr	r3, [r7, #24]
 1473 025c 002B     		cmp	r3, #0
 1474 025e 1FDD     		ble	.L92
 620:..\src/interruptions.c ****                 st_ref_p->pos = g_mem.motor[motor_idx].pos_lim_sup - (err_emg_1 * g_mem.motor[motor
 1475              		.loc 1 620 0
 1476 0260 FA7B     		ldrb	r2, [r7, #15]	@ zero_extendqisi2
 1477 0262 1849     		ldr	r1, .L132+12
ARM GAS  C:\Users\mgnocco\AppData\Local\Temp\ccN5vhdn.s 			page 38


 1478 0264 1346     		mov	r3, r2
 1479 0266 DB00     		lsls	r3, r3, #3
 1480 0268 9B1A     		subs	r3, r3, r2
 1481 026a 1B01     		lsls	r3, r3, #4
 1482 026c 0B44     		add	r3, r3, r1
 1483 026e E833     		adds	r3, r3, #232
 1484 0270 1968     		ldr	r1, [r3]
 1485 0272 FA7B     		ldrb	r2, [r7, #15]	@ zero_extendqisi2
 1486 0274 1348     		ldr	r0, .L132+12
 1487 0276 1346     		mov	r3, r2
 1488 0278 DB00     		lsls	r3, r3, #3
 1489 027a 9B1A     		subs	r3, r3, r2
 1490 027c 1B01     		lsls	r3, r3, #4
 1491 027e 0344     		add	r3, r3, r0
 1492 0280 E833     		adds	r3, r3, #232
 1493 0282 1B68     		ldr	r3, [r3]
 1494 0284 BA69     		ldr	r2, [r7, #24]
 1495 0286 02FB03F2 		mul	r2, r2, r3
 1496 028a 0B4B     		ldr	r3, .L132
 1497 028c B3F8F031 		ldrh	r3, [r3, #496]
 1498 0290 C3F58063 		rsb	r3, r3, #1024
 1499 0294 92FBF3F3 		sdiv	r3, r2, r3
 1500 0298 CA1A     		subs	r2, r1, r3
 1501 029a BB68     		ldr	r3, [r7, #8]
 1502 029c 1A60     		str	r2, [r3]
 621:..\src/interruptions.c ****             else
 622:..\src/interruptions.c ****                 st_ref_p->pos = g_mem.motor[motor_idx].pos_lim_sup;
 623:..\src/interruptions.c ****             break;
 1503              		.loc 1 623 0
 1504 029e 34E1     		b	.L83
 1505              	.L92:
 622:..\src/interruptions.c ****             break;
 1506              		.loc 1 622 0
 1507 02a0 FA7B     		ldrb	r2, [r7, #15]	@ zero_extendqisi2
 1508 02a2 0849     		ldr	r1, .L132+12
 1509 02a4 1346     		mov	r3, r2
 1510 02a6 DB00     		lsls	r3, r3, #3
 1511 02a8 9B1A     		subs	r3, r3, r2
 1512 02aa 1B01     		lsls	r3, r3, #4
 1513 02ac 0B44     		add	r3, r3, r1
 1514 02ae E833     		adds	r3, r3, #232
 1515 02b0 1A68     		ldr	r2, [r3]
 1516 02b2 BB68     		ldr	r3, [r7, #8]
 1517 02b4 1A60     		str	r2, [r3]
 1518              		.loc 1 623 0
 1519 02b6 28E1     		b	.L83
 1520              	.L133:
 1521              		.align	2
 1522              	.L132:
 1523 02b8 00000000 		.word	c_mem
 1524 02bc 00000000 		.word	g_adc_meas
 1525 02c0 00000000 		.word	g_meas
 1526 02c4 00000000 		.word	g_mem
 1527              	.L73:
 624:..\src/interruptions.c **** 
 625:..\src/interruptions.c ****         case INPUT_MODE_EMG_INTEGRAL:
 626:..\src/interruptions.c ****             st_ref_p->pos = st_refOld_p->pos;
ARM GAS  C:\Users\mgnocco\AppData\Local\Temp\ccN5vhdn.s 			page 39


 1528              		.loc 1 626 0
 1529 02c8 7B68     		ldr	r3, [r7, #4]
 1530 02ca 1A68     		ldr	r2, [r3]
 1531 02cc BB68     		ldr	r3, [r7, #8]
 1532 02ce 1A60     		str	r2, [r3]
 627:..\src/interruptions.c ****             if (err_emg_1 > 0) {
 1533              		.loc 1 627 0
 1534 02d0 BB69     		ldr	r3, [r7, #24]
 1535 02d2 002B     		cmp	r3, #0
 1536 02d4 13DD     		ble	.L94
 628:..\src/interruptions.c ****                 st_ref_p->pos = st_refOld_p->pos + (err_emg_1 * (int)g_mem.emg.emg_speed[0] * 2) / 
 1537              		.loc 1 628 0
 1538 02d6 7B68     		ldr	r3, [r7, #4]
 1539 02d8 1A68     		ldr	r2, [r3]
 1540 02da 884B     		ldr	r3, .L134
 1541 02dc 93F8FC31 		ldrb	r3, [r3, #508]	@ zero_extendqisi2
 1542 02e0 1946     		mov	r1, r3
 1543 02e2 BB69     		ldr	r3, [r7, #24]
 1544 02e4 03FB01F3 		mul	r3, r3, r1
 1545 02e8 5900     		lsls	r1, r3, #1
 1546 02ea 854B     		ldr	r3, .L134+4
 1547 02ec B3F8F031 		ldrh	r3, [r3, #496]
 1548 02f0 C3F58063 		rsb	r3, r3, #1024
 1549 02f4 91FBF3F3 		sdiv	r3, r1, r3
 1550 02f8 1A44     		add	r2, r2, r3
 1551 02fa BB68     		ldr	r3, [r7, #8]
 1552 02fc 1A60     		str	r2, [r3]
 1553              	.L94:
 629:..\src/interruptions.c ****             }
 630:..\src/interruptions.c ****             if (err_emg_2 > 0) {
 1554              		.loc 1 630 0
 1555 02fe 7B69     		ldr	r3, [r7, #20]
 1556 0300 002B     		cmp	r3, #0
 1557 0302 40F30181 		ble	.L126
 631:..\src/interruptions.c ****                 st_ref_p->pos = st_refOld_p->pos - (err_emg_2 * (int)g_mem.emg.emg_speed[1] * 2) / 
 1558              		.loc 1 631 0
 1559 0306 7B68     		ldr	r3, [r7, #4]
 1560 0308 1A68     		ldr	r2, [r3]
 1561 030a 7C4B     		ldr	r3, .L134
 1562 030c 93F8FD31 		ldrb	r3, [r3, #509]	@ zero_extendqisi2
 1563 0310 1946     		mov	r1, r3
 1564 0312 7B69     		ldr	r3, [r7, #20]
 1565 0314 03FB01F3 		mul	r3, r3, r1
 1566 0318 5900     		lsls	r1, r3, #1
 1567 031a 794B     		ldr	r3, .L134+4
 1568 031c B3F8F231 		ldrh	r3, [r3, #498]
 1569 0320 C3F58063 		rsb	r3, r3, #1024
 1570 0324 91FBF3F3 		sdiv	r3, r1, r3
 1571 0328 D21A     		subs	r2, r2, r3
 1572 032a BB68     		ldr	r3, [r7, #8]
 1573 032c 1A60     		str	r2, [r3]
 632:..\src/interruptions.c ****             }
 633:..\src/interruptions.c ****             break;
 1574              		.loc 1 633 0
 1575 032e EBE0     		b	.L126
 1576              	.L74:
 634:..\src/interruptions.c **** 
ARM GAS  C:\Users\mgnocco\AppData\Local\Temp\ccN5vhdn.s 			page 40


 635:..\src/interruptions.c ****         case INPUT_MODE_EMG_FCFS:
 636:..\src/interruptions.c ****             st_ref_p->pos = st_refOld_p->pos;
 1577              		.loc 1 636 0
 1578 0330 7B68     		ldr	r3, [r7, #4]
 1579 0332 1A68     		ldr	r2, [r3]
 1580 0334 BB68     		ldr	r3, [r7, #8]
 1581 0336 1A60     		str	r2, [r3]
 637:..\src/interruptions.c ****             if (c_mem.dev.dev_type != SOFTHAND_2_MOTORS){
 1582              		.loc 1 637 0
 1583 0338 714B     		ldr	r3, .L134+4
 1584 033a 93F8AC30 		ldrb	r3, [r3, #172]	@ zero_extendqisi2
 1585 033e 042B     		cmp	r3, #4
 1586 0340 5BD0     		beq	.L96
 638:..\src/interruptions.c ****                 switch (current_emg[motor_idx]) {
 1587              		.loc 1 638 0
 1588 0342 FB7B     		ldrb	r3, [r7, #15]	@ zero_extendqisi2
 1589 0344 6F4A     		ldr	r2, .L134+8
 1590 0346 D35C     		ldrb	r3, [r2, r3]	@ zero_extendqisi2
 1591 0348 012B     		cmp	r3, #1
 1592 034a 1CD0     		beq	.L98
 1593 034c 022B     		cmp	r3, #2
 1594 034e 37D0     		beq	.L99
 1595 0350 002B     		cmp	r3, #0
 1596 0352 00D0     		beq	.L100
 639:..\src/interruptions.c ****                     case 0:
 640:..\src/interruptions.c ****                         // Look for the first EMG passing the threshold
 641:..\src/interruptions.c ****                         if (err_emg_1 > 0 && err_emg_1 > err_emg_2) {
 642:..\src/interruptions.c ****                             current_emg[motor_idx] = 1;
 643:..\src/interruptions.c ****                             break;
 644:..\src/interruptions.c ****                         }
 645:..\src/interruptions.c ****                         if (err_emg_2 > 0 && err_emg_2 > err_emg_1) {
 646:..\src/interruptions.c ****                             current_emg[motor_idx] = 2;
 647:..\src/interruptions.c ****                             break;
 648:..\src/interruptions.c ****                         }
 649:..\src/interruptions.c ****                         break;
 650:..\src/interruptions.c **** 
 651:..\src/interruptions.c ****                     case 1:
 652:..\src/interruptions.c ****                         // EMG 1 is first
 653:..\src/interruptions.c ****                         if (err_emg_1 < 0) {
 654:..\src/interruptions.c ****                             current_emg[motor_idx] = 0;
 655:..\src/interruptions.c ****                             break;
 656:..\src/interruptions.c ****                         }
 657:..\src/interruptions.c ****                         st_ref_p->pos = st_refOld_p->pos + (err_emg_1 * g_mem.emg.emg_speed[0] << 2
 658:..\src/interruptions.c ****                         break;
 659:..\src/interruptions.c **** 
 660:..\src/interruptions.c ****                     case 2:
 661:..\src/interruptions.c ****                         // EMG 2 is first
 662:..\src/interruptions.c ****                         if (err_emg_2 < 0) {
 663:..\src/interruptions.c ****                             current_emg[motor_idx] = 0;
 664:..\src/interruptions.c ****                             break;
 665:..\src/interruptions.c ****                         }
 666:..\src/interruptions.c ****                         st_ref_p->pos = st_refOld_p->pos - (err_emg_2 * g_mem.emg.emg_speed[1] << 2
 667:..\src/interruptions.c ****                         break;
 668:..\src/interruptions.c **** 
 669:..\src/interruptions.c ****                     default:
 670:..\src/interruptions.c ****                         break;
 1597              		.loc 1 670 0
ARM GAS  C:\Users\mgnocco\AppData\Local\Temp\ccN5vhdn.s 			page 41


 1598 0354 5BE0     		b	.L106
 1599              	.L100:
 641:..\src/interruptions.c ****                             current_emg[motor_idx] = 1;
 1600              		.loc 1 641 0
 1601 0356 BB69     		ldr	r3, [r7, #24]
 1602 0358 002B     		cmp	r3, #0
 1603 035a 08DD     		ble	.L101
 641:..\src/interruptions.c ****                             current_emg[motor_idx] = 1;
 1604              		.loc 1 641 0 is_stmt 0 discriminator 1
 1605 035c BA69     		ldr	r2, [r7, #24]
 1606 035e 7B69     		ldr	r3, [r7, #20]
 1607 0360 9A42     		cmp	r2, r3
 1608 0362 04DD     		ble	.L101
 642:..\src/interruptions.c ****                             break;
 1609              		.loc 1 642 0 is_stmt 1
 1610 0364 FB7B     		ldrb	r3, [r7, #15]	@ zero_extendqisi2
 1611 0366 674A     		ldr	r2, .L134+8
 1612 0368 0121     		movs	r1, #1
 1613 036a D154     		strb	r1, [r2, r3]
 643:..\src/interruptions.c ****                         }
 1614              		.loc 1 643 0
 1615 036c 4FE0     		b	.L106
 1616              	.L101:
 645:..\src/interruptions.c ****                             current_emg[motor_idx] = 2;
 1617              		.loc 1 645 0
 1618 036e 7B69     		ldr	r3, [r7, #20]
 1619 0370 002B     		cmp	r3, #0
 1620 0372 4BDD     		ble	.L127
 645:..\src/interruptions.c ****                             current_emg[motor_idx] = 2;
 1621              		.loc 1 645 0 is_stmt 0 discriminator 1
 1622 0374 7A69     		ldr	r2, [r7, #20]
 1623 0376 BB69     		ldr	r3, [r7, #24]
 1624 0378 9A42     		cmp	r2, r3
 1625 037a 47DD     		ble	.L127
 646:..\src/interruptions.c ****                             break;
 1626              		.loc 1 646 0 is_stmt 1
 1627 037c FB7B     		ldrb	r3, [r7, #15]	@ zero_extendqisi2
 1628 037e 614A     		ldr	r2, .L134+8
 1629 0380 0221     		movs	r1, #2
 1630 0382 D154     		strb	r1, [r2, r3]
 647:..\src/interruptions.c ****                         }
 1631              		.loc 1 647 0
 1632 0384 43E0     		b	.L106
 1633              	.L98:
 653:..\src/interruptions.c ****                             current_emg[motor_idx] = 0;
 1634              		.loc 1 653 0
 1635 0386 BB69     		ldr	r3, [r7, #24]
 1636 0388 002B     		cmp	r3, #0
 1637 038a 04DA     		bge	.L104
 654:..\src/interruptions.c ****                             break;
 1638              		.loc 1 654 0
 1639 038c FB7B     		ldrb	r3, [r7, #15]	@ zero_extendqisi2
 1640 038e 5D4A     		ldr	r2, .L134+8
 1641 0390 0021     		movs	r1, #0
 1642 0392 D154     		strb	r1, [r2, r3]
 655:..\src/interruptions.c ****                         }
 1643              		.loc 1 655 0
ARM GAS  C:\Users\mgnocco\AppData\Local\Temp\ccN5vhdn.s 			page 42


 1644 0394 3BE0     		b	.L106
 1645              	.L104:
 657:..\src/interruptions.c ****                         break;
 1646              		.loc 1 657 0
 1647 0396 7B68     		ldr	r3, [r7, #4]
 1648 0398 1A68     		ldr	r2, [r3]
 1649 039a 584B     		ldr	r3, .L134
 1650 039c 93F8FC31 		ldrb	r3, [r3, #508]	@ zero_extendqisi2
 1651 03a0 1946     		mov	r1, r3
 1652 03a2 BB69     		ldr	r3, [r7, #24]
 1653 03a4 03FB01F3 		mul	r3, r3, r1
 1654 03a8 9900     		lsls	r1, r3, #2
 1655 03aa 554B     		ldr	r3, .L134+4
 1656 03ac B3F8F031 		ldrh	r3, [r3, #496]
 1657 03b0 C3F58063 		rsb	r3, r3, #1024
 1658 03b4 91FBF3F3 		sdiv	r3, r1, r3
 1659 03b8 1A44     		add	r2, r2, r3
 1660 03ba BB68     		ldr	r3, [r7, #8]
 1661 03bc 1A60     		str	r2, [r3]
 658:..\src/interruptions.c **** 
 1662              		.loc 1 658 0
 1663 03be 26E0     		b	.L106
 1664              	.L99:
 662:..\src/interruptions.c ****                             current_emg[motor_idx] = 0;
 1665              		.loc 1 662 0
 1666 03c0 7B69     		ldr	r3, [r7, #20]
 1667 03c2 002B     		cmp	r3, #0
 1668 03c4 04DA     		bge	.L105
 663:..\src/interruptions.c ****                             break;
 1669              		.loc 1 663 0
 1670 03c6 FB7B     		ldrb	r3, [r7, #15]	@ zero_extendqisi2
 1671 03c8 4E4A     		ldr	r2, .L134+8
 1672 03ca 0021     		movs	r1, #0
 1673 03cc D154     		strb	r1, [r2, r3]
 664:..\src/interruptions.c ****                         }
 1674              		.loc 1 664 0
 1675 03ce 1EE0     		b	.L106
 1676              	.L105:
 666:..\src/interruptions.c ****                         break;
 1677              		.loc 1 666 0
 1678 03d0 7B68     		ldr	r3, [r7, #4]
 1679 03d2 1A68     		ldr	r2, [r3]
 1680 03d4 494B     		ldr	r3, .L134
 1681 03d6 93F8FD31 		ldrb	r3, [r3, #509]	@ zero_extendqisi2
 1682 03da 1946     		mov	r1, r3
 1683 03dc 7B69     		ldr	r3, [r7, #20]
 1684 03de 03FB01F3 		mul	r3, r3, r1
 1685 03e2 9900     		lsls	r1, r3, #2
 1686 03e4 464B     		ldr	r3, .L134+4
 1687 03e6 B3F8F231 		ldrh	r3, [r3, #498]
 1688 03ea C3F58063 		rsb	r3, r3, #1024
 1689 03ee 91FBF3F3 		sdiv	r3, r1, r3
 1690 03f2 D21A     		subs	r2, r2, r3
 1691 03f4 BB68     		ldr	r3, [r7, #8]
 1692 03f6 1A60     		str	r2, [r3]
 667:..\src/interruptions.c **** 
 1693              		.loc 1 667 0
ARM GAS  C:\Users\mgnocco\AppData\Local\Temp\ccN5vhdn.s 			page 43


 1694 03f8 09E0     		b	.L106
 1695              	.L96:
 671:..\src/interruptions.c ****                 }
 672:..\src/interruptions.c ****             }
 673:..\src/interruptions.c ****             else{ // case SOFTHAND_2_MOTORS
 674:..\src/interruptions.c ****                 //compute reference using a FSM for choosing the right sinergy to activate
 675:..\src/interruptions.c ****                 compute_SoftHand_2_motors_emg_reference(motor_idx, st_ref_p, st_refOld_p, err_emg_1
 1696              		.loc 1 675 0
 1697 03fa F87B     		ldrb	r0, [r7, #15]	@ zero_extendqisi2
 1698 03fc 7B69     		ldr	r3, [r7, #20]
 1699 03fe 0093     		str	r3, [sp]
 1700 0400 BB69     		ldr	r3, [r7, #24]
 1701 0402 7A68     		ldr	r2, [r7, #4]
 1702 0404 B968     		ldr	r1, [r7, #8]
 1703 0406 FFF7FEFF 		bl	compute_SoftHand_2_motors_emg_reference
 676:..\src/interruptions.c ****             }
 677:..\src/interruptions.c ****             break;
 1704              		.loc 1 677 0
 1705 040a 7EE0     		b	.L83
 1706              	.L127:
 649:..\src/interruptions.c **** 
 1707              		.loc 1 649 0
 1708 040c 00BF     		nop
 1709              	.L106:
 1710              		.loc 1 677 0 discriminator 5
 1711 040e 7CE0     		b	.L83
 1712              	.L75:
 678:..\src/interruptions.c **** 
 679:..\src/interruptions.c ****         case INPUT_MODE_EMG_FCFS_ADV:
 680:..\src/interruptions.c ****             st_ref_p->pos = st_refOld_p->pos;
 1713              		.loc 1 680 0
 1714 0410 7B68     		ldr	r3, [r7, #4]
 1715 0412 1A68     		ldr	r2, [r3]
 1716 0414 BB68     		ldr	r3, [r7, #8]
 1717 0416 1A60     		str	r2, [r3]
 681:..\src/interruptions.c ****             switch (current_emg[motor_idx]) {
 1718              		.loc 1 681 0
 1719 0418 FB7B     		ldrb	r3, [r7, #15]	@ zero_extendqisi2
 1720 041a 3A4A     		ldr	r2, .L134+8
 1721 041c D35C     		ldrb	r3, [r2, r3]	@ zero_extendqisi2
 1722 041e 012B     		cmp	r3, #1
 1723 0420 1CD0     		beq	.L108
 1724 0422 022B     		cmp	r3, #2
 1725 0424 3DD0     		beq	.L109
 1726 0426 002B     		cmp	r3, #0
 1727 0428 00D0     		beq	.L110
 682:..\src/interruptions.c ****                 // Look for the first EMG passing the threshold
 683:..\src/interruptions.c ****                 case 0:
 684:..\src/interruptions.c ****                     if (err_emg_1 > 0 && err_emg_1 > err_emg_2) {
 685:..\src/interruptions.c ****                         current_emg[motor_idx] = 1;
 686:..\src/interruptions.c ****                         break;
 687:..\src/interruptions.c ****                     }
 688:..\src/interruptions.c ****                     if (err_emg_2 > 0 && err_emg_2 > err_emg_1) {
 689:..\src/interruptions.c ****                         current_emg[motor_idx] = 2;
 690:..\src/interruptions.c ****                         break;
 691:..\src/interruptions.c ****                     }
 692:..\src/interruptions.c ****                     break;
ARM GAS  C:\Users\mgnocco\AppData\Local\Temp\ccN5vhdn.s 			page 44


 693:..\src/interruptions.c **** 
 694:..\src/interruptions.c ****                 // EMG 1 is first
 695:..\src/interruptions.c ****                 case 1:
 696:..\src/interruptions.c ****                     // If both signals are under threshold go back to status 0
 697:..\src/interruptions.c ****                     if ((err_emg_1 < 0) && (err_emg_2 < 0)) {
 698:..\src/interruptions.c ****                         current_emg[motor_idx] = 0;
 699:..\src/interruptions.c ****                         break;
 700:..\src/interruptions.c ****                     }
 701:..\src/interruptions.c ****                     // but if the current signal come back over threshold, continue using it
 702:..\src/interruptions.c ****                     if (err_emg_1 > 0) 
 703:..\src/interruptions.c ****                         st_ref_p->pos = st_refOld_p->pos + (err_emg_1 * g_mem.emg.emg_speed[0] << 2
 704:..\src/interruptions.c ****                     
 705:..\src/interruptions.c ****                     break;
 706:..\src/interruptions.c **** 
 707:..\src/interruptions.c ****                 // EMG 2 is first
 708:..\src/interruptions.c ****                 case 2:
 709:..\src/interruptions.c ****                     // If both signals are under threshold go back to status 0
 710:..\src/interruptions.c ****                     if ((err_emg_1 < 0) && (err_emg_2 < 0)) {
 711:..\src/interruptions.c ****                         current_emg[motor_idx] = 0;
 712:..\src/interruptions.c ****                         break;
 713:..\src/interruptions.c ****                     }
 714:..\src/interruptions.c ****                     // but if the current signal come back over threshold, continue using it
 715:..\src/interruptions.c ****                     if (err_emg_2 > 0) {
 716:..\src/interruptions.c ****                         st_ref_p->pos = st_refOld_p->pos - (err_emg_2 * c_mem.emg.emg_speed[1] << 2
 717:..\src/interruptions.c ****                     }
 718:..\src/interruptions.c ****                     break;
 719:..\src/interruptions.c **** 
 720:..\src/interruptions.c ****                 default:
 721:..\src/interruptions.c ****                     break;
 1728              		.loc 1 721 0
 1729 042a 62E0     		b	.L112
 1730              	.L110:
 684:..\src/interruptions.c ****                         current_emg[motor_idx] = 1;
 1731              		.loc 1 684 0
 1732 042c BB69     		ldr	r3, [r7, #24]
 1733 042e 002B     		cmp	r3, #0
 1734 0430 08DD     		ble	.L111
 684:..\src/interruptions.c ****                         current_emg[motor_idx] = 1;
 1735              		.loc 1 684 0 is_stmt 0 discriminator 1
 1736 0432 BA69     		ldr	r2, [r7, #24]
 1737 0434 7B69     		ldr	r3, [r7, #20]
 1738 0436 9A42     		cmp	r2, r3
 1739 0438 04DD     		ble	.L111
 685:..\src/interruptions.c ****                         break;
 1740              		.loc 1 685 0 is_stmt 1
 1741 043a FB7B     		ldrb	r3, [r7, #15]	@ zero_extendqisi2
 1742 043c 314A     		ldr	r2, .L134+8
 1743 043e 0121     		movs	r1, #1
 1744 0440 D154     		strb	r1, [r2, r3]
 686:..\src/interruptions.c ****                     }
 1745              		.loc 1 686 0
 1746 0442 56E0     		b	.L112
 1747              	.L111:
 688:..\src/interruptions.c ****                         current_emg[motor_idx] = 2;
 1748              		.loc 1 688 0
 1749 0444 7B69     		ldr	r3, [r7, #20]
 1750 0446 002B     		cmp	r3, #0
ARM GAS  C:\Users\mgnocco\AppData\Local\Temp\ccN5vhdn.s 			page 45


 1751 0448 4EDD     		ble	.L128
 688:..\src/interruptions.c ****                         current_emg[motor_idx] = 2;
 1752              		.loc 1 688 0 is_stmt 0 discriminator 1
 1753 044a 7A69     		ldr	r2, [r7, #20]
 1754 044c BB69     		ldr	r3, [r7, #24]
 1755 044e 9A42     		cmp	r2, r3
 1756 0450 4ADD     		ble	.L128
 689:..\src/interruptions.c ****                         break;
 1757              		.loc 1 689 0 is_stmt 1
 1758 0452 FB7B     		ldrb	r3, [r7, #15]	@ zero_extendqisi2
 1759 0454 2B4A     		ldr	r2, .L134+8
 1760 0456 0221     		movs	r1, #2
 1761 0458 D154     		strb	r1, [r2, r3]
 690:..\src/interruptions.c ****                     }
 1762              		.loc 1 690 0
 1763 045a 4AE0     		b	.L112
 1764              	.L108:
 697:..\src/interruptions.c ****                         current_emg[motor_idx] = 0;
 1765              		.loc 1 697 0
 1766 045c BB69     		ldr	r3, [r7, #24]
 1767 045e 002B     		cmp	r3, #0
 1768 0460 07DA     		bge	.L114
 697:..\src/interruptions.c ****                         current_emg[motor_idx] = 0;
 1769              		.loc 1 697 0 is_stmt 0 discriminator 1
 1770 0462 7B69     		ldr	r3, [r7, #20]
 1771 0464 002B     		cmp	r3, #0
 1772 0466 04DA     		bge	.L114
 698:..\src/interruptions.c ****                         break;
 1773              		.loc 1 698 0 is_stmt 1
 1774 0468 FB7B     		ldrb	r3, [r7, #15]	@ zero_extendqisi2
 1775 046a 264A     		ldr	r2, .L134+8
 1776 046c 0021     		movs	r1, #0
 1777 046e D154     		strb	r1, [r2, r3]
 699:..\src/interruptions.c ****                     }
 1778              		.loc 1 699 0
 1779 0470 3FE0     		b	.L112
 1780              	.L114:
 702:..\src/interruptions.c ****                         st_ref_p->pos = st_refOld_p->pos + (err_emg_1 * g_mem.emg.emg_speed[0] << 2
 1781              		.loc 1 702 0
 1782 0472 BB69     		ldr	r3, [r7, #24]
 1783 0474 002B     		cmp	r3, #0
 1784 0476 39DD     		ble	.L129
 703:..\src/interruptions.c ****                     
 1785              		.loc 1 703 0
 1786 0478 7B68     		ldr	r3, [r7, #4]
 1787 047a 1A68     		ldr	r2, [r3]
 1788 047c 1F4B     		ldr	r3, .L134
 1789 047e 93F8FC31 		ldrb	r3, [r3, #508]	@ zero_extendqisi2
 1790 0482 1946     		mov	r1, r3
 1791 0484 BB69     		ldr	r3, [r7, #24]
 1792 0486 03FB01F3 		mul	r3, r3, r1
 1793 048a 9900     		lsls	r1, r3, #2
 1794 048c 1C4B     		ldr	r3, .L134+4
 1795 048e B3F8F031 		ldrh	r3, [r3, #496]
 1796 0492 C3F58063 		rsb	r3, r3, #1024
 1797 0496 91FBF3F3 		sdiv	r3, r1, r3
 1798 049a 1A44     		add	r2, r2, r3
ARM GAS  C:\Users\mgnocco\AppData\Local\Temp\ccN5vhdn.s 			page 46


 1799 049c BB68     		ldr	r3, [r7, #8]
 1800 049e 1A60     		str	r2, [r3]
 705:..\src/interruptions.c **** 
 1801              		.loc 1 705 0
 1802 04a0 24E0     		b	.L129
 1803              	.L109:
 710:..\src/interruptions.c ****                         current_emg[motor_idx] = 0;
 1804              		.loc 1 710 0
 1805 04a2 BB69     		ldr	r3, [r7, #24]
 1806 04a4 002B     		cmp	r3, #0
 1807 04a6 07DA     		bge	.L116
 710:..\src/interruptions.c ****                         current_emg[motor_idx] = 0;
 1808              		.loc 1 710 0 is_stmt 0 discriminator 1
 1809 04a8 7B69     		ldr	r3, [r7, #20]
 1810 04aa 002B     		cmp	r3, #0
 1811 04ac 04DA     		bge	.L116
 711:..\src/interruptions.c ****                         break;
 1812              		.loc 1 711 0 is_stmt 1
 1813 04ae FB7B     		ldrb	r3, [r7, #15]	@ zero_extendqisi2
 1814 04b0 144A     		ldr	r2, .L134+8
 1815 04b2 0021     		movs	r1, #0
 1816 04b4 D154     		strb	r1, [r2, r3]
 712:..\src/interruptions.c ****                     }
 1817              		.loc 1 712 0
 1818 04b6 1CE0     		b	.L112
 1819              	.L116:
 715:..\src/interruptions.c ****                         st_ref_p->pos = st_refOld_p->pos - (err_emg_2 * c_mem.emg.emg_speed[1] << 2
 1820              		.loc 1 715 0
 1821 04b8 7B69     		ldr	r3, [r7, #20]
 1822 04ba 002B     		cmp	r3, #0
 1823 04bc 18DD     		ble	.L130
 716:..\src/interruptions.c ****                     }
 1824              		.loc 1 716 0
 1825 04be 7B68     		ldr	r3, [r7, #4]
 1826 04c0 1A68     		ldr	r2, [r3]
 1827 04c2 0F4B     		ldr	r3, .L134+4
 1828 04c4 93F8FD31 		ldrb	r3, [r3, #509]	@ zero_extendqisi2
 1829 04c8 1946     		mov	r1, r3
 1830 04ca 7B69     		ldr	r3, [r7, #20]
 1831 04cc 03FB01F3 		mul	r3, r3, r1
 1832 04d0 9900     		lsls	r1, r3, #2
 1833 04d2 0B4B     		ldr	r3, .L134+4
 1834 04d4 B3F8F231 		ldrh	r3, [r3, #498]
 1835 04d8 C3F58063 		rsb	r3, r3, #1024
 1836 04dc 91FBF3F3 		sdiv	r3, r1, r3
 1837 04e0 D21A     		subs	r2, r2, r3
 1838 04e2 BB68     		ldr	r3, [r7, #8]
 1839 04e4 1A60     		str	r2, [r3]
 718:..\src/interruptions.c **** 
 1840              		.loc 1 718 0
 1841 04e6 03E0     		b	.L130
 1842              	.L128:
 692:..\src/interruptions.c **** 
 1843              		.loc 1 692 0
 1844 04e8 00BF     		nop
 1845 04ea 0EE0     		b	.L83
 1846              	.L129:
ARM GAS  C:\Users\mgnocco\AppData\Local\Temp\ccN5vhdn.s 			page 47


 705:..\src/interruptions.c **** 
 1847              		.loc 1 705 0
 1848 04ec 00BF     		nop
 1849 04ee 0CE0     		b	.L83
 1850              	.L130:
 718:..\src/interruptions.c **** 
 1851              		.loc 1 718 0
 1852 04f0 00BF     		nop
 1853              	.L112:
 722:..\src/interruptions.c ****             }
 723:..\src/interruptions.c ****             break;
 1854              		.loc 1 723 0 discriminator 6
 1855 04f2 0AE0     		b	.L83
 1856              	.L124:
 724:..\src/interruptions.c **** 
 725:..\src/interruptions.c ****         default:
 726:..\src/interruptions.c ****             break;
 1857              		.loc 1 726 0
 1858 04f4 00BF     		nop
 1859 04f6 08E0     		b	.L83
 1860              	.L125:
 609:..\src/interruptions.c ****             
 1861              		.loc 1 609 0
 1862 04f8 00BF     		nop
 1863 04fa 06E0     		b	.L83
 1864              	.L135:
 1865              		.align	2
 1866              	.L134:
 1867 04fc 00000000 		.word	g_mem
 1868 0500 00000000 		.word	c_mem
 1869 0504 8C000000 		.word	current_emg.10261
 1870              	.L126:
 633:..\src/interruptions.c **** 
 1871              		.loc 1 633 0
 1872 0508 00BF     		nop
 1873              	.L83:
 727:..\src/interruptions.c ****     }
 728:..\src/interruptions.c **** 
 729:..\src/interruptions.c ****     // Position limit saturation
 730:..\src/interruptions.c ****     if (MOT->pos_lim_flag) {
 1874              		.loc 1 730 0
 1875 050a 3B6A     		ldr	r3, [r7, #32]
 1876 050c 93F83330 		ldrb	r3, [r3, #51]	@ zero_extendqisi2
 1877 0510 002B     		cmp	r3, #0
 1878 0512 13D0     		beq	.L118
 731:..\src/interruptions.c ****         if (st_ref_p->pos < MOT->pos_lim_inf) 
 1879              		.loc 1 731 0
 1880 0514 BB68     		ldr	r3, [r7, #8]
 1881 0516 1A68     		ldr	r2, [r3]
 1882 0518 3B6A     		ldr	r3, [r7, #32]
 1883 051a 5B6B     		ldr	r3, [r3, #52]
 1884 051c 9A42     		cmp	r2, r3
 1885 051e 03DA     		bge	.L119
 732:..\src/interruptions.c ****             st_ref_p->pos = MOT->pos_lim_inf;
 1886              		.loc 1 732 0
 1887 0520 3B6A     		ldr	r3, [r7, #32]
 1888 0522 5A6B     		ldr	r2, [r3, #52]
ARM GAS  C:\Users\mgnocco\AppData\Local\Temp\ccN5vhdn.s 			page 48


 1889 0524 BB68     		ldr	r3, [r7, #8]
 1890 0526 1A60     		str	r2, [r3]
 1891              	.L119:
 733:..\src/interruptions.c ****         if (st_ref_p->pos > MOT->pos_lim_sup) 
 1892              		.loc 1 733 0
 1893 0528 BB68     		ldr	r3, [r7, #8]
 1894 052a 1A68     		ldr	r2, [r3]
 1895 052c 3B6A     		ldr	r3, [r7, #32]
 1896 052e 9B6B     		ldr	r3, [r3, #56]
 1897 0530 9A42     		cmp	r2, r3
 1898 0532 03DD     		ble	.L118
 734:..\src/interruptions.c ****             st_ref_p->pos = MOT->pos_lim_sup;
 1899              		.loc 1 734 0
 1900 0534 3B6A     		ldr	r3, [r7, #32]
 1901 0536 9A6B     		ldr	r2, [r3, #56]
 1902 0538 BB68     		ldr	r3, [r7, #8]
 1903 053a 1A60     		str	r2, [r3]
 1904              	.L118:
 735:..\src/interruptions.c ****     }
 736:..\src/interruptions.c ****     
 737:..\src/interruptions.c ****     // SAFETY
 738:..\src/interruptions.c ****     if (battery_low_SoC == TRUE) {
 1905              		.loc 1 738 0
 1906 053c 1D4B     		ldr	r3, .L136
 1907 053e 1B78     		ldrb	r3, [r3]	@ zero_extendqisi2
 1908 0540 012B     		cmp	r3, #1
 1909 0542 02D1     		bne	.L120
 739:..\src/interruptions.c ****         //Reopen the terminal device before disabling motor
 740:..\src/interruptions.c ****         st_ref_p->pos = 0;
 1910              		.loc 1 740 0
 1911 0544 BB68     		ldr	r3, [r7, #8]
 1912 0546 0022     		movs	r2, #0
 1913 0548 1A60     		str	r2, [r3]
 1914              	.L120:
 741:..\src/interruptions.c ****     }      
 742:..\src/interruptions.c ****     
 743:..\src/interruptions.c ****        
 744:..\src/interruptions.c ****     if (c_mem.SH.rest_position_flag == TRUE) {
 1915              		.loc 1 744 0
 1916 054a 1B4B     		ldr	r3, .L136+4
 1917 054c 93F8AC32 		ldrb	r3, [r3, #684]	@ zero_extendqisi2
 1918 0550 012B     		cmp	r3, #1
 1919 0552 2AD1     		bne	.L131
 745:..\src/interruptions.c ****         if (rest_enabled == 1){
 1920              		.loc 1 745 0
 1921 0554 194B     		ldr	r3, .L136+8
 1922 0556 1B78     		ldrb	r3, [r3]	@ zero_extendqisi2
 1923 0558 012B     		cmp	r3, #1
 1924 055a 03D1     		bne	.L122
 746:..\src/interruptions.c ****             // Change position reference to drive motor to rest position smoothly
 747:..\src/interruptions.c ****             st_ref_p->pos = rest_pos_curr_ref;
 1925              		.loc 1 747 0
 1926 055c 184B     		ldr	r3, .L136+12
 1927 055e 1A68     		ldr	r2, [r3]
 1928 0560 BB68     		ldr	r3, [r7, #8]
 1929 0562 1A60     		str	r2, [r3]
 1930              	.L122:
ARM GAS  C:\Users\mgnocco\AppData\Local\Temp\ccN5vhdn.s 			page 49


 748:..\src/interruptions.c ****         }
 749:..\src/interruptions.c ****         
 750:..\src/interruptions.c ****         if (forced_open == 1) {
 1931              		.loc 1 750 0
 1932 0564 174B     		ldr	r3, .L136+16
 1933 0566 1B78     		ldrb	r3, [r3]	@ zero_extendqisi2
 1934 0568 012B     		cmp	r3, #1
 1935 056a 1ED1     		bne	.L131
 751:..\src/interruptions.c ****             // Open the SoftHand as EMG PROPORTIONAL input mode 
 752:..\src/interruptions.c ****             if (err_emg_2 > 0)
 1936              		.loc 1 752 0
 1937 056c 7B69     		ldr	r3, [r7, #20]
 1938 056e 002B     		cmp	r3, #0
 1939 0570 13DD     		ble	.L123
 753:..\src/interruptions.c ****                 st_ref_p->pos = g_mem.SH.rest_pos - (err_emg_2 * g_mem.SH.rest_pos) / (1024 - c_mem
 1940              		.loc 1 753 0
 1941 0572 154B     		ldr	r3, .L136+20
 1942 0574 D3F8A022 		ldr	r2, [r3, #672]
 1943 0578 134B     		ldr	r3, .L136+20
 1944 057a D3F8A032 		ldr	r3, [r3, #672]
 1945 057e 7969     		ldr	r1, [r7, #20]
 1946 0580 01FB03F1 		mul	r1, r1, r3
 1947 0584 0C4B     		ldr	r3, .L136+4
 1948 0586 B3F8F231 		ldrh	r3, [r3, #498]
 1949 058a C3F58063 		rsb	r3, r3, #1024
 1950 058e 91FBF3F3 		sdiv	r3, r1, r3
 1951 0592 D21A     		subs	r2, r2, r3
 1952 0594 BB68     		ldr	r3, [r7, #8]
 1953 0596 1A60     		str	r2, [r3]
 754:..\src/interruptions.c ****             else {
 755:..\src/interruptions.c ****                 st_ref_p->pos = g_mem.SH.rest_pos;
 756:..\src/interruptions.c ****                 forced_open = 0;
 757:..\src/interruptions.c ****             }
 758:..\src/interruptions.c ****         }
 759:..\src/interruptions.c ****     }
 760:..\src/interruptions.c **** }
 1954              		.loc 1 760 0
 1955 0598 07E0     		b	.L131
 1956              	.L123:
 755:..\src/interruptions.c ****                 forced_open = 0;
 1957              		.loc 1 755 0
 1958 059a 0B4B     		ldr	r3, .L136+20
 1959 059c D3F8A022 		ldr	r2, [r3, #672]
 1960 05a0 BB68     		ldr	r3, [r7, #8]
 1961 05a2 1A60     		str	r2, [r3]
 756:..\src/interruptions.c ****             }
 1962              		.loc 1 756 0
 1963 05a4 074B     		ldr	r3, .L136+16
 1964 05a6 0022     		movs	r2, #0
 1965 05a8 1A70     		strb	r2, [r3]
 1966              	.L131:
 1967              		.loc 1 760 0
 1968 05aa 00BF     		nop
 1969 05ac 2837     		adds	r7, r7, #40
 1970              		.cfi_def_cfa_offset 8
 1971 05ae BD46     		mov	sp, r7
 1972              		.cfi_def_cfa_register 13
ARM GAS  C:\Users\mgnocco\AppData\Local\Temp\ccN5vhdn.s 			page 50


 1973              		@ sp needed
 1974 05b0 80BD     		pop	{r7, pc}
 1975              	.L137:
 1976 05b2 00BF     		.align	2
 1977              	.L136:
 1978 05b4 00000000 		.word	battery_low_SoC
 1979 05b8 00000000 		.word	c_mem
 1980 05bc 00000000 		.word	rest_enabled
 1981 05c0 00000000 		.word	rest_pos_curr_ref
 1982 05c4 00000000 		.word	forced_open
 1983 05c8 00000000 		.word	g_mem
 1984              		.cfi_endproc
 1985              	.LFE68:
 1986              		.size	compute_reference, .-compute_reference
 1987              		.section	.text.compute_SoftHand_2_motors_joystick_reference,"ax",%progbits
 1988              		.align	2
 1989              		.global	compute_SoftHand_2_motors_joystick_reference
 1990              		.thumb
 1991              		.thumb_func
 1992              		.type	compute_SoftHand_2_motors_joystick_reference, %function
 1993              	compute_SoftHand_2_motors_joystick_reference:
 1994              	.LFB69:
 761:..\src/interruptions.c **** 
 762:..\src/interruptions.c **** 
 763:..\src/interruptions.c **** //==============================================================================
 764:..\src/interruptions.c **** //                                  COMPUTE SOFTHAND 2 MOTORS JOYSTICK REFERENCE
 765:..\src/interruptions.c **** //==============================================================================
 766:..\src/interruptions.c **** void compute_SoftHand_2_motors_joystick_reference(uint8 motor_idx, struct st_ref* st_ref_p, struct 
 1995              		.loc 1 766 0
 1996              		.cfi_startproc
 1997              		@ args = 0, pretend = 0, frame = 32
 1998              		@ frame_needed = 1, uses_anonymous_args = 0
 1999              		@ link register save eliminated.
 2000 0000 80B4     		push	{r7}
 2001              		.cfi_def_cfa_offset 4
 2002              		.cfi_offset 7, -4
 2003 0002 89B0     		sub	sp, sp, #36
 2004              		.cfi_def_cfa_offset 40
 2005 0004 00AF     		add	r7, sp, #0
 2006              		.cfi_def_cfa_register 7
 2007 0006 0346     		mov	r3, r0
 2008 0008 B960     		str	r1, [r7, #8]
 2009 000a 7A60     		str	r2, [r7, #4]
 2010 000c FB73     		strb	r3, [r7, #15]
 767:..\src/interruptions.c ****     
 768:..\src/interruptions.c ****     if (c_mem.motor[0].input_mode == INPUT_MODE_JOYSTICK && c_mem.motor[1].input_mode == INPUT_MODE
 2011              		.loc 1 768 0
 2012 000e B04B     		ldr	r3, .L159
 2013 0010 93F80E31 		ldrb	r3, [r3, #270]	@ zero_extendqisi2
 2014 0014 062B     		cmp	r3, #6
 2015 0016 40F08581 		bne	.L157
 2016              		.loc 1 768 0 is_stmt 0 discriminator 1
 2017 001a AD4B     		ldr	r3, .L159
 2018 001c 93F87E31 		ldrb	r3, [r3, #382]	@ zero_extendqisi2
 2019 0020 062B     		cmp	r3, #6
 2020 0022 40F07F81 		bne	.L157
 769:..\src/interruptions.c ****         st_ref_p->pos = st_refOld_p->pos;
ARM GAS  C:\Users\mgnocco\AppData\Local\Temp\ccN5vhdn.s 			page 51


 2021              		.loc 1 769 0 is_stmt 1
 2022 0026 7B68     		ldr	r3, [r7, #4]
 2023 0028 1A68     		ldr	r2, [r3]
 2024 002a BB68     		ldr	r3, [r7, #8]
 2025 002c 1A60     		str	r2, [r3]
 770:..\src/interruptions.c ****     
 771:..\src/interruptions.c ****         if(!(g_adc_meas.joystick[0] > 700)) {
 2026              		.loc 1 771 0
 2027 002e A94B     		ldr	r3, .L159+4
 2028 0030 1B6A     		ldr	r3, [r3, #32]
 2029 0032 B3F52F7F 		cmp	r3, #700
 2030 0036 00F3C280 		bgt	.L140
 2031              	.LBB5:
 772:..\src/interruptions.c ****              
 773:..\src/interruptions.c ****             int32 CYDATA err_joy_1 = 0;
 2032              		.loc 1 773 0
 2033 003a 0023     		movs	r3, #0
 2034 003c FB61     		str	r3, [r7, #28]
 774:..\src/interruptions.c ****             int32 CYDATA err_joy_2 = 0;
 2035              		.loc 1 774 0
 2036 003e 0023     		movs	r3, #0
 2037 0040 BB61     		str	r3, [r7, #24]
 775:..\src/interruptions.c ****         
 776:..\src/interruptions.c ****             if(g_adc_meas.joystick[0] > c_mem.JOY_spec.joystick_threshold) {     //both motors wind
 2038              		.loc 1 776 0
 2039 0042 A44B     		ldr	r3, .L159+4
 2040 0044 1B6A     		ldr	r3, [r3, #32]
 2041 0046 A24A     		ldr	r2, .L159
 2042 0048 B2F9B222 		ldrsh	r2, [r2, #690]
 2043 004c 9342     		cmp	r3, r2
 2044 004e 1ADD     		ble	.L141
 777:..\src/interruptions.c ****                 err_joy_1 = g_adc_meas.joystick[0] - c_mem.JOY_spec.joystick_threshold;
 2045              		.loc 1 777 0
 2046 0050 A04B     		ldr	r3, .L159+4
 2047 0052 1B6A     		ldr	r3, [r3, #32]
 2048 0054 9E4A     		ldr	r2, .L159
 2049 0056 B2F9B222 		ldrsh	r2, [r2, #690]
 2050 005a 9B1A     		subs	r3, r3, r2
 2051 005c FB61     		str	r3, [r7, #28]
 778:..\src/interruptions.c ****                 st_ref_p->pos += ((int32) err_joy_1 * c_mem.JOY_spec.joystick_closure_speed) / (102
 2052              		.loc 1 778 0
 2053 005e BB68     		ldr	r3, [r7, #8]
 2054 0060 1A68     		ldr	r2, [r3]
 2055 0062 9B4B     		ldr	r3, .L159
 2056 0064 B3F8B032 		ldrh	r3, [r3, #688]
 2057 0068 1946     		mov	r1, r3
 2058 006a FB69     		ldr	r3, [r7, #28]
 2059 006c 03FB01F1 		mul	r1, r3, r1
 2060 0070 974B     		ldr	r3, .L159
 2061 0072 B3F9B232 		ldrsh	r3, [r3, #690]
 2062 0076 C3F58063 		rsb	r3, r3, #1024
 2063 007a 91FBF3F3 		sdiv	r3, r1, r3
 2064 007e 1A44     		add	r2, r2, r3
 2065 0080 BB68     		ldr	r3, [r7, #8]
 2066 0082 1A60     		str	r2, [r3]
 2067 0084 21E0     		b	.L142
 2068              	.L141:
ARM GAS  C:\Users\mgnocco\AppData\Local\Temp\ccN5vhdn.s 			page 52


 779:..\src/interruptions.c ****             }
 780:..\src/interruptions.c ****             else {
 781:..\src/interruptions.c ****                 if(g_adc_meas.joystick[0] < -c_mem.JOY_spec.joystick_threshold) {  //both motors un
 2069              		.loc 1 781 0
 2070 0086 934B     		ldr	r3, .L159+4
 2071 0088 1A6A     		ldr	r2, [r3, #32]
 2072 008a 914B     		ldr	r3, .L159
 2073 008c B3F9B232 		ldrsh	r3, [r3, #690]
 2074 0090 5B42     		negs	r3, r3
 2075 0092 9A42     		cmp	r2, r3
 2076 0094 19DA     		bge	.L142
 782:..\src/interruptions.c ****                     err_joy_1 = g_adc_meas.joystick[0] + c_mem.JOY_spec.joystick_threshold;
 2077              		.loc 1 782 0
 2078 0096 8F4B     		ldr	r3, .L159+4
 2079 0098 1B6A     		ldr	r3, [r3, #32]
 2080 009a 8D4A     		ldr	r2, .L159
 2081 009c B2F9B222 		ldrsh	r2, [r2, #690]
 2082 00a0 1344     		add	r3, r3, r2
 2083 00a2 FB61     		str	r3, [r7, #28]
 783:..\src/interruptions.c ****                     st_ref_p->pos += ((int32) err_joy_1 * c_mem.JOY_spec.joystick_closure_speed) / 
 2084              		.loc 1 783 0
 2085 00a4 BB68     		ldr	r3, [r7, #8]
 2086 00a6 1A68     		ldr	r2, [r3]
 2087 00a8 894B     		ldr	r3, .L159
 2088 00aa B3F8B032 		ldrh	r3, [r3, #688]
 2089 00ae 1946     		mov	r1, r3
 2090 00b0 FB69     		ldr	r3, [r7, #28]
 2091 00b2 03FB01F1 		mul	r1, r3, r1
 2092 00b6 864B     		ldr	r3, .L159
 2093 00b8 B3F9B232 		ldrsh	r3, [r3, #690]
 2094 00bc C3F58063 		rsb	r3, r3, #1024
 2095 00c0 91FBF3F3 		sdiv	r3, r1, r3
 2096 00c4 1A44     		add	r2, r2, r3
 2097 00c6 BB68     		ldr	r3, [r7, #8]
 2098 00c8 1A60     		str	r2, [r3]
 2099              	.L142:
 784:..\src/interruptions.c ****                 }
 785:..\src/interruptions.c ****             }
 786:..\src/interruptions.c **** 
 787:..\src/interruptions.c ****             if(g_adc_meas.joystick[1] > c_mem.JOY_spec.joystick_threshold) {    //The wire is winde
 2100              		.loc 1 787 0
 2101 00ca 824B     		ldr	r3, .L159+4
 2102 00cc 5B6A     		ldr	r3, [r3, #36]
 2103 00ce 804A     		ldr	r2, .L159
 2104 00d0 B2F9B222 		ldrsh	r2, [r2, #690]
 2105 00d4 9342     		cmp	r3, r2
 2106 00d6 34DD     		ble	.L143
 788:..\src/interruptions.c ****                 err_joy_2 = g_adc_meas.joystick[1] - c_mem.JOY_spec.joystick_threshold;
 2107              		.loc 1 788 0
 2108 00d8 7E4B     		ldr	r3, .L159+4
 2109 00da 5B6A     		ldr	r3, [r3, #36]
 2110 00dc 7C4A     		ldr	r2, .L159
 2111 00de B2F9B222 		ldrsh	r2, [r2, #690]
 2112 00e2 9B1A     		subs	r3, r3, r2
 2113 00e4 BB61     		str	r3, [r7, #24]
 789:..\src/interruptions.c ****                 if (motor_idx == 0){
 2114              		.loc 1 789 0
ARM GAS  C:\Users\mgnocco\AppData\Local\Temp\ccN5vhdn.s 			page 53


 2115 00e6 FB7B     		ldrb	r3, [r7, #15]	@ zero_extendqisi2
 2116 00e8 002B     		cmp	r3, #0
 2117 00ea 12D1     		bne	.L144
 790:..\src/interruptions.c ****                     st_ref_p->pos += ((int32) err_joy_2 * c_mem.JOY_spec.joystick_closure_speed) / 
 2118              		.loc 1 790 0
 2119 00ec BB68     		ldr	r3, [r7, #8]
 2120 00ee 1A68     		ldr	r2, [r3]
 2121 00f0 774B     		ldr	r3, .L159
 2122 00f2 B3F8B032 		ldrh	r3, [r3, #688]
 2123 00f6 1946     		mov	r1, r3
 2124 00f8 BB69     		ldr	r3, [r7, #24]
 2125 00fa 03FB01F1 		mul	r1, r3, r1
 2126 00fe 744B     		ldr	r3, .L159
 2127 0100 B3F9B232 		ldrsh	r3, [r3, #690]
 2128 0104 C3F58063 		rsb	r3, r3, #1024
 2129 0108 91FBF3F3 		sdiv	r3, r1, r3
 2130 010c 1A44     		add	r2, r2, r3
 2131 010e BB68     		ldr	r3, [r7, #8]
 2132 0110 1A60     		str	r2, [r3]
 2133              	.L144:
 791:..\src/interruptions.c ****                 }
 792:..\src/interruptions.c ****                 if (motor_idx == 1){
 2134              		.loc 1 792 0
 2135 0112 FB7B     		ldrb	r3, [r7, #15]	@ zero_extendqisi2
 2136 0114 012B     		cmp	r3, #1
 2137 0116 40F00581 		bne	.L157
 793:..\src/interruptions.c ****                     st_ref_p->pos -= ((int32) err_joy_2 * c_mem.JOY_spec.joystick_closure_speed) / 
 2138              		.loc 1 793 0
 2139 011a BB68     		ldr	r3, [r7, #8]
 2140 011c 1A68     		ldr	r2, [r3]
 2141 011e 6C4B     		ldr	r3, .L159
 2142 0120 B3F8B032 		ldrh	r3, [r3, #688]
 2143 0124 1946     		mov	r1, r3
 2144 0126 BB69     		ldr	r3, [r7, #24]
 2145 0128 03FB01F1 		mul	r1, r3, r1
 2146 012c 684B     		ldr	r3, .L159
 2147 012e B3F9B232 		ldrsh	r3, [r3, #690]
 2148 0132 C3F58063 		rsb	r3, r3, #1024
 2149 0136 91FBF3F3 		sdiv	r3, r1, r3
 2150 013a D21A     		subs	r2, r2, r3
 2151 013c BB68     		ldr	r3, [r7, #8]
 2152 013e 1A60     		str	r2, [r3]
 2153              	.LBE5:
 794:..\src/interruptions.c ****                 }          
 795:..\src/interruptions.c ****             }
 796:..\src/interruptions.c ****             else {
 797:..\src/interruptions.c ****                 if(g_adc_meas.joystick[1] < -c_mem.JOY_spec.joystick_threshold) {  //The wire is un
 798:..\src/interruptions.c ****                     
 799:..\src/interruptions.c ****                     err_joy_2 = g_adc_meas.joystick[1] + c_mem.JOY_spec.joystick_threshold;
 800:..\src/interruptions.c ****                     if (motor_idx == 0){
 801:..\src/interruptions.c ****                         st_ref_p->pos += ((int32) err_joy_2 * c_mem.JOY_spec.joystick_closure_speed
 802:..\src/interruptions.c ****                     }
 803:..\src/interruptions.c ****                     if (motor_idx == 1){
 804:..\src/interruptions.c ****                         st_ref_p->pos -= ((int32) err_joy_2 * c_mem.JOY_spec.joystick_closure_speed
 805:..\src/interruptions.c ****                     }
 806:..\src/interruptions.c ****                 }
 807:..\src/interruptions.c ****             }
ARM GAS  C:\Users\mgnocco\AppData\Local\Temp\ccN5vhdn.s 			page 54


 808:..\src/interruptions.c ****         }
 809:..\src/interruptions.c ****         else {  //The button is pressed and the hand is opened firstly making the position differen
 810:..\src/interruptions.c ****                 //equal to zero, then the position sum is gradually set to zero 
 811:..\src/interruptions.c ****             int32 pos_diff = (g_meas[c_mem.motor[0].encoder_line].pos[0] - g_meas[c_mem.motor[0].en
 812:..\src/interruptions.c ****             int32 pos_sum = (g_meas[c_mem.motor[0].encoder_line].pos[0] + g_meas[c_mem.motor[0].enc
 813:..\src/interruptions.c **** 
 814:..\src/interruptions.c ****             if(pos_diff > 500 || pos_diff < -500) {
 815:..\src/interruptions.c ****                 if(SIGN(pos_diff) == 1) {
 816:..\src/interruptions.c ****                     if (motor_idx == 1){
 817:..\src/interruptions.c ****                         st_ref_p->pos += c_mem.JOY_spec.joystick_closure_speed;
 818:..\src/interruptions.c ****                     }
 819:..\src/interruptions.c ****                     if (motor_idx == 0){
 820:..\src/interruptions.c ****                         st_ref_p->pos -= c_mem.JOY_spec.joystick_closure_speed / 2;
 821:..\src/interruptions.c ****                     }                    
 822:..\src/interruptions.c ****                 }
 823:..\src/interruptions.c ****                 else {
 824:..\src/interruptions.c ****                     if (motor_idx == 0){
 825:..\src/interruptions.c ****                         st_ref_p->pos += c_mem.JOY_spec.joystick_closure_speed;
 826:..\src/interruptions.c ****                     }
 827:..\src/interruptions.c ****                     if (motor_idx == 1){
 828:..\src/interruptions.c ****                         st_ref_p->pos -= c_mem.JOY_spec.joystick_closure_speed / 2;
 829:..\src/interruptions.c ****                     }
 830:..\src/interruptions.c ****                 }
 831:..\src/interruptions.c ****                 
 832:..\src/interruptions.c ****             }
 833:..\src/interruptions.c ****             else {
 834:..\src/interruptions.c ****                 if(pos_sum > 0) {
 835:..\src/interruptions.c ****                     if (motor_idx == 0){
 836:..\src/interruptions.c ****                         st_ref_p->pos -= c_mem.JOY_spec.joystick_closure_speed * 2;
 837:..\src/interruptions.c ****                     }
 838:..\src/interruptions.c ****                     if (motor_idx == 1){
 839:..\src/interruptions.c ****                         st_ref_p->pos -= c_mem.JOY_spec.joystick_closure_speed * 2;
 840:..\src/interruptions.c ****                     }
 841:..\src/interruptions.c ****                     
 842:..\src/interruptions.c ****                     if (st_ref_p->pos < 0){
 843:..\src/interruptions.c ****                         st_ref_p->pos = 0;
 844:..\src/interruptions.c ****                     }
 845:..\src/interruptions.c ****                 }
 846:..\src/interruptions.c ****             }
 847:..\src/interruptions.c ****         }
 848:..\src/interruptions.c ****     }           
 849:..\src/interruptions.c **** }
 2154              		.loc 1 849 0
 2155 0140 F0E0     		b	.L157
 2156              	.L143:
 2157              	.LBB6:
 797:..\src/interruptions.c ****                     
 2158              		.loc 1 797 0
 2159 0142 644B     		ldr	r3, .L159+4
 2160 0144 5A6A     		ldr	r2, [r3, #36]
 2161 0146 624B     		ldr	r3, .L159
 2162 0148 B3F9B232 		ldrsh	r3, [r3, #690]
 2163 014c 5B42     		negs	r3, r3
 2164 014e 9A42     		cmp	r2, r3
 2165 0150 80F2E880 		bge	.L157
 799:..\src/interruptions.c ****                     if (motor_idx == 0){
 2166              		.loc 1 799 0
ARM GAS  C:\Users\mgnocco\AppData\Local\Temp\ccN5vhdn.s 			page 55


 2167 0154 5F4B     		ldr	r3, .L159+4
 2168 0156 5B6A     		ldr	r3, [r3, #36]
 2169 0158 5D4A     		ldr	r2, .L159
 2170 015a B2F9B222 		ldrsh	r2, [r2, #690]
 2171 015e 1344     		add	r3, r3, r2
 2172 0160 BB61     		str	r3, [r7, #24]
 800:..\src/interruptions.c ****                         st_ref_p->pos += ((int32) err_joy_2 * c_mem.JOY_spec.joystick_closure_speed
 2173              		.loc 1 800 0
 2174 0162 FB7B     		ldrb	r3, [r7, #15]	@ zero_extendqisi2
 2175 0164 002B     		cmp	r3, #0
 2176 0166 12D1     		bne	.L147
 801:..\src/interruptions.c ****                     }
 2177              		.loc 1 801 0
 2178 0168 BB68     		ldr	r3, [r7, #8]
 2179 016a 1A68     		ldr	r2, [r3]
 2180 016c 584B     		ldr	r3, .L159
 2181 016e B3F8B032 		ldrh	r3, [r3, #688]
 2182 0172 1946     		mov	r1, r3
 2183 0174 BB69     		ldr	r3, [r7, #24]
 2184 0176 03FB01F1 		mul	r1, r3, r1
 2185 017a 554B     		ldr	r3, .L159
 2186 017c B3F9B232 		ldrsh	r3, [r3, #690]
 2187 0180 C3F58063 		rsb	r3, r3, #1024
 2188 0184 91FBF3F3 		sdiv	r3, r1, r3
 2189 0188 1A44     		add	r2, r2, r3
 2190 018a BB68     		ldr	r3, [r7, #8]
 2191 018c 1A60     		str	r2, [r3]
 2192              	.L147:
 803:..\src/interruptions.c ****                         st_ref_p->pos -= ((int32) err_joy_2 * c_mem.JOY_spec.joystick_closure_speed
 2193              		.loc 1 803 0
 2194 018e FB7B     		ldrb	r3, [r7, #15]	@ zero_extendqisi2
 2195 0190 012B     		cmp	r3, #1
 2196 0192 40F0C780 		bne	.L157
 804:..\src/interruptions.c ****                     }
 2197              		.loc 1 804 0
 2198 0196 BB68     		ldr	r3, [r7, #8]
 2199 0198 1A68     		ldr	r2, [r3]
 2200 019a 4D4B     		ldr	r3, .L159
 2201 019c B3F8B032 		ldrh	r3, [r3, #688]
 2202 01a0 1946     		mov	r1, r3
 2203 01a2 BB69     		ldr	r3, [r7, #24]
 2204 01a4 03FB01F1 		mul	r1, r3, r1
 2205 01a8 494B     		ldr	r3, .L159
 2206 01aa B3F9B232 		ldrsh	r3, [r3, #690]
 2207 01ae C3F58063 		rsb	r3, r3, #1024
 2208 01b2 91FBF3F3 		sdiv	r3, r1, r3
 2209 01b6 D21A     		subs	r2, r2, r3
 2210 01b8 BB68     		ldr	r3, [r7, #8]
 2211 01ba 1A60     		str	r2, [r3]
 2212              	.LBE6:
 2213              		.loc 1 849 0
 2214 01bc B2E0     		b	.L157
 2215              	.L140:
 2216              	.LBB7:
 811:..\src/interruptions.c ****             int32 pos_sum = (g_meas[c_mem.motor[0].encoder_line].pos[0] + g_meas[c_mem.motor[0].enc
 2217              		.loc 1 811 0
 2218 01be 444B     		ldr	r3, .L159
ARM GAS  C:\Users\mgnocco\AppData\Local\Temp\ccN5vhdn.s 			page 56


 2219 01c0 93F81031 		ldrb	r3, [r3, #272]	@ zero_extendqisi2
 2220 01c4 1946     		mov	r1, r3
 2221 01c6 444A     		ldr	r2, .L159+8
 2222 01c8 3423     		movs	r3, #52
 2223 01ca 03FB01F3 		mul	r3, r3, r1
 2224 01ce 1344     		add	r3, r3, r2
 2225 01d0 1A68     		ldr	r2, [r3]
 2226 01d2 3F4B     		ldr	r3, .L159
 2227 01d4 93F81031 		ldrb	r3, [r3, #272]	@ zero_extendqisi2
 2228 01d8 1846     		mov	r0, r3
 2229 01da 3F49     		ldr	r1, .L159+8
 2230 01dc 3423     		movs	r3, #52
 2231 01de 03FB00F3 		mul	r3, r3, r0
 2232 01e2 0B44     		add	r3, r3, r1
 2233 01e4 0433     		adds	r3, r3, #4
 2234 01e6 1B68     		ldr	r3, [r3]
 2235 01e8 D21A     		subs	r2, r2, r3
 2236 01ea 394B     		ldr	r3, .L159
 2237 01ec 93F81031 		ldrb	r3, [r3, #272]	@ zero_extendqisi2
 2238 01f0 1846     		mov	r0, r3
 2239 01f2 3749     		ldr	r1, .L159
 2240 01f4 0346     		mov	r3, r0
 2241 01f6 5B00     		lsls	r3, r3, #1
 2242 01f8 0344     		add	r3, r3, r0
 2243 01fa 1B01     		lsls	r3, r3, #4
 2244 01fc 0B44     		add	r3, r3, r1
 2245 01fe 03F29513 		addw	r3, r3, #405
 2246 0202 1B78     		ldrb	r3, [r3]	@ zero_extendqisi2
 2247 0204 42FA03F3 		asr	r3, r2, r3
 2248 0208 7B61     		str	r3, [r7, #20]
 812:..\src/interruptions.c **** 
 2249              		.loc 1 812 0
 2250 020a 314B     		ldr	r3, .L159
 2251 020c 93F81031 		ldrb	r3, [r3, #272]	@ zero_extendqisi2
 2252 0210 1946     		mov	r1, r3
 2253 0212 314A     		ldr	r2, .L159+8
 2254 0214 3423     		movs	r3, #52
 2255 0216 03FB01F3 		mul	r3, r3, r1
 2256 021a 1344     		add	r3, r3, r2
 2257 021c 1A68     		ldr	r2, [r3]
 2258 021e 2C4B     		ldr	r3, .L159
 2259 0220 93F81031 		ldrb	r3, [r3, #272]	@ zero_extendqisi2
 2260 0224 1846     		mov	r0, r3
 2261 0226 2C49     		ldr	r1, .L159+8
 2262 0228 3423     		movs	r3, #52
 2263 022a 03FB00F3 		mul	r3, r3, r0
 2264 022e 0B44     		add	r3, r3, r1
 2265 0230 0433     		adds	r3, r3, #4
 2266 0232 1B68     		ldr	r3, [r3]
 2267 0234 1A44     		add	r2, r2, r3
 2268 0236 264B     		ldr	r3, .L159
 2269 0238 93F81031 		ldrb	r3, [r3, #272]	@ zero_extendqisi2
 2270 023c 1846     		mov	r0, r3
 2271 023e 2449     		ldr	r1, .L159
 2272 0240 0346     		mov	r3, r0
 2273 0242 5B00     		lsls	r3, r3, #1
 2274 0244 0344     		add	r3, r3, r0
ARM GAS  C:\Users\mgnocco\AppData\Local\Temp\ccN5vhdn.s 			page 57


 2275 0246 1B01     		lsls	r3, r3, #4
 2276 0248 0B44     		add	r3, r3, r1
 2277 024a 03F29513 		addw	r3, r3, #405
 2278 024e 1B78     		ldrb	r3, [r3]	@ zero_extendqisi2
 2279 0250 42FA03F3 		asr	r3, r2, r3
 2280 0254 3B61     		str	r3, [r7, #16]
 814:..\src/interruptions.c ****                 if(SIGN(pos_diff) == 1) {
 2281              		.loc 1 814 0
 2282 0256 7B69     		ldr	r3, [r7, #20]
 2283 0258 B3F5FA7F 		cmp	r3, #500
 2284 025c 03DC     		bgt	.L148
 814:..\src/interruptions.c ****                 if(SIGN(pos_diff) == 1) {
 2285              		.loc 1 814 0 is_stmt 0 discriminator 1
 2286 025e 7B69     		ldr	r3, [r7, #20]
 2287 0260 13F5FA7F 		cmn	r3, #500
 2288 0264 3ADA     		bge	.L149
 2289              	.L148:
 815:..\src/interruptions.c ****                     if (motor_idx == 1){
 2290              		.loc 1 815 0 is_stmt 1
 2291 0266 7B69     		ldr	r3, [r7, #20]
 2292 0268 002B     		cmp	r3, #0
 2293 026a 18DB     		blt	.L150
 816:..\src/interruptions.c ****                         st_ref_p->pos += c_mem.JOY_spec.joystick_closure_speed;
 2294              		.loc 1 816 0
 2295 026c FB7B     		ldrb	r3, [r7, #15]	@ zero_extendqisi2
 2296 026e 012B     		cmp	r3, #1
 2297 0270 07D1     		bne	.L151
 817:..\src/interruptions.c ****                     }
 2298              		.loc 1 817 0
 2299 0272 BB68     		ldr	r3, [r7, #8]
 2300 0274 1B68     		ldr	r3, [r3]
 2301 0276 164A     		ldr	r2, .L159
 2302 0278 B2F8B022 		ldrh	r2, [r2, #688]
 2303 027c 1A44     		add	r2, r2, r3
 2304 027e BB68     		ldr	r3, [r7, #8]
 2305 0280 1A60     		str	r2, [r3]
 2306              	.L151:
 819:..\src/interruptions.c ****                         st_ref_p->pos -= c_mem.JOY_spec.joystick_closure_speed / 2;
 2307              		.loc 1 819 0
 2308 0282 FB7B     		ldrb	r3, [r7, #15]	@ zero_extendqisi2
 2309 0284 002B     		cmp	r3, #0
 2310 0286 4CD1     		bne	.L158
 820:..\src/interruptions.c ****                     }                    
 2311              		.loc 1 820 0
 2312 0288 BB68     		ldr	r3, [r7, #8]
 2313 028a 1B68     		ldr	r3, [r3]
 2314 028c 104A     		ldr	r2, .L159
 2315 028e B2F8B022 		ldrh	r2, [r2, #688]
 2316 0292 5208     		lsrs	r2, r2, #1
 2317 0294 92B2     		uxth	r2, r2
 2318 0296 9A1A     		subs	r2, r3, r2
 2319 0298 BB68     		ldr	r3, [r7, #8]
 2320 029a 1A60     		str	r2, [r3]
 815:..\src/interruptions.c ****                     if (motor_idx == 1){
 2321              		.loc 1 815 0
 2322 029c 41E0     		b	.L158
 2323              	.L150:
ARM GAS  C:\Users\mgnocco\AppData\Local\Temp\ccN5vhdn.s 			page 58


 824:..\src/interruptions.c ****                         st_ref_p->pos += c_mem.JOY_spec.joystick_closure_speed;
 2324              		.loc 1 824 0
 2325 029e FB7B     		ldrb	r3, [r7, #15]	@ zero_extendqisi2
 2326 02a0 002B     		cmp	r3, #0
 2327 02a2 07D1     		bne	.L154
 825:..\src/interruptions.c ****                     }
 2328              		.loc 1 825 0
 2329 02a4 BB68     		ldr	r3, [r7, #8]
 2330 02a6 1B68     		ldr	r3, [r3]
 2331 02a8 094A     		ldr	r2, .L159
 2332 02aa B2F8B022 		ldrh	r2, [r2, #688]
 2333 02ae 1A44     		add	r2, r2, r3
 2334 02b0 BB68     		ldr	r3, [r7, #8]
 2335 02b2 1A60     		str	r2, [r3]
 2336              	.L154:
 827:..\src/interruptions.c ****                         st_ref_p->pos -= c_mem.JOY_spec.joystick_closure_speed / 2;
 2337              		.loc 1 827 0
 2338 02b4 FB7B     		ldrb	r3, [r7, #15]	@ zero_extendqisi2
 2339 02b6 012B     		cmp	r3, #1
 2340 02b8 33D1     		bne	.L158
 828:..\src/interruptions.c ****                     }
 2341              		.loc 1 828 0
 2342 02ba BB68     		ldr	r3, [r7, #8]
 2343 02bc 1B68     		ldr	r3, [r3]
 2344 02be 044A     		ldr	r2, .L159
 2345 02c0 B2F8B022 		ldrh	r2, [r2, #688]
 2346 02c4 5208     		lsrs	r2, r2, #1
 2347 02c6 92B2     		uxth	r2, r2
 2348 02c8 9A1A     		subs	r2, r3, r2
 2349 02ca BB68     		ldr	r3, [r7, #8]
 2350 02cc 1A60     		str	r2, [r3]
 815:..\src/interruptions.c ****                     if (motor_idx == 1){
 2351              		.loc 1 815 0
 2352 02ce 28E0     		b	.L158
 2353              	.L160:
 2354              		.align	2
 2355              	.L159:
 2356 02d0 00000000 		.word	c_mem
 2357 02d4 00000000 		.word	g_adc_meas
 2358 02d8 00000000 		.word	g_meas
 2359              	.L149:
 834:..\src/interruptions.c ****                     if (motor_idx == 0){
 2360              		.loc 1 834 0
 2361 02dc 3B69     		ldr	r3, [r7, #16]
 2362 02de 002B     		cmp	r3, #0
 2363 02e0 20DD     		ble	.L157
 835:..\src/interruptions.c ****                         st_ref_p->pos -= c_mem.JOY_spec.joystick_closure_speed * 2;
 2364              		.loc 1 835 0
 2365 02e2 FB7B     		ldrb	r3, [r7, #15]	@ zero_extendqisi2
 2366 02e4 002B     		cmp	r3, #0
 2367 02e6 08D1     		bne	.L155
 836:..\src/interruptions.c ****                     }
 2368              		.loc 1 836 0
 2369 02e8 BB68     		ldr	r3, [r7, #8]
 2370 02ea 1A68     		ldr	r2, [r3]
 2371 02ec 104B     		ldr	r3, .L161
 2372 02ee B3F8B032 		ldrh	r3, [r3, #688]
ARM GAS  C:\Users\mgnocco\AppData\Local\Temp\ccN5vhdn.s 			page 59


 2373 02f2 5B00     		lsls	r3, r3, #1
 2374 02f4 D21A     		subs	r2, r2, r3
 2375 02f6 BB68     		ldr	r3, [r7, #8]
 2376 02f8 1A60     		str	r2, [r3]
 2377              	.L155:
 838:..\src/interruptions.c ****                         st_ref_p->pos -= c_mem.JOY_spec.joystick_closure_speed * 2;
 2378              		.loc 1 838 0
 2379 02fa FB7B     		ldrb	r3, [r7, #15]	@ zero_extendqisi2
 2380 02fc 012B     		cmp	r3, #1
 2381 02fe 08D1     		bne	.L156
 839:..\src/interruptions.c ****                     }
 2382              		.loc 1 839 0
 2383 0300 BB68     		ldr	r3, [r7, #8]
 2384 0302 1A68     		ldr	r2, [r3]
 2385 0304 0A4B     		ldr	r3, .L161
 2386 0306 B3F8B032 		ldrh	r3, [r3, #688]
 2387 030a 5B00     		lsls	r3, r3, #1
 2388 030c D21A     		subs	r2, r2, r3
 2389 030e BB68     		ldr	r3, [r7, #8]
 2390 0310 1A60     		str	r2, [r3]
 2391              	.L156:
 842:..\src/interruptions.c ****                         st_ref_p->pos = 0;
 2392              		.loc 1 842 0
 2393 0312 BB68     		ldr	r3, [r7, #8]
 2394 0314 1B68     		ldr	r3, [r3]
 2395 0316 002B     		cmp	r3, #0
 2396 0318 04DA     		bge	.L157
 843:..\src/interruptions.c ****                     }
 2397              		.loc 1 843 0
 2398 031a BB68     		ldr	r3, [r7, #8]
 2399 031c 0022     		movs	r2, #0
 2400 031e 1A60     		str	r2, [r3]
 2401              	.LBE7:
 2402              		.loc 1 849 0
 2403 0320 00E0     		b	.L157
 2404              	.L158:
 2405              	.LBB8:
 815:..\src/interruptions.c ****                     if (motor_idx == 1){
 2406              		.loc 1 815 0
 2407 0322 00BF     		nop
 2408              	.L157:
 2409              	.LBE8:
 2410              		.loc 1 849 0
 2411 0324 00BF     		nop
 2412 0326 2437     		adds	r7, r7, #36
 2413              		.cfi_def_cfa_offset 4
 2414 0328 BD46     		mov	sp, r7
 2415              		.cfi_def_cfa_register 13
 2416              		@ sp needed
 2417 032a 80BC     		pop	{r7}
 2418              		.cfi_restore 7
 2419              		.cfi_def_cfa_offset 0
 2420 032c 7047     		bx	lr
 2421              	.L162:
 2422 032e 00BF     		.align	2
 2423              	.L161:
 2424 0330 00000000 		.word	c_mem
ARM GAS  C:\Users\mgnocco\AppData\Local\Temp\ccN5vhdn.s 			page 60


 2425              		.cfi_endproc
 2426              	.LFE69:
 2427              		.size	compute_SoftHand_2_motors_joystick_reference, .-compute_SoftHand_2_motors_joystick_reference
 2428              		.section	.text.compute_SoftHand_2_motors_emg_reference,"ax",%progbits
 2429              		.align	2
 2430              		.global	compute_SoftHand_2_motors_emg_reference
 2431              		.thumb
 2432              		.thumb_func
 2433              		.type	compute_SoftHand_2_motors_emg_reference, %function
 2434              	compute_SoftHand_2_motors_emg_reference:
 2435              	.LFB70:
 850:..\src/interruptions.c **** 
 851:..\src/interruptions.c **** 
 852:..\src/interruptions.c **** //==============================================================================
 853:..\src/interruptions.c **** //                                       COMPUTE SOFTHAND 2 MOTORS EMG REFERENCE
 854:..\src/interruptions.c **** //==============================================================================
 855:..\src/interruptions.c **** void compute_SoftHand_2_motors_emg_reference(uint8 motor_idx, struct st_ref* st_ref_p, struct st_re
 856:..\src/interruptions.c ****     int32 err_emg_1, int32 err_emg_2) {
 2436              		.loc 1 856 0
 2437              		.cfi_startproc
 2438              		@ args = 4, pretend = 0, frame = 16
 2439              		@ frame_needed = 1, uses_anonymous_args = 0
 2440 0000 80B5     		push	{r7, lr}
 2441              		.cfi_def_cfa_offset 8
 2442              		.cfi_offset 7, -8
 2443              		.cfi_offset 14, -4
 2444 0002 84B0     		sub	sp, sp, #16
 2445              		.cfi_def_cfa_offset 24
 2446 0004 00AF     		add	r7, sp, #0
 2447              		.cfi_def_cfa_register 7
 2448 0006 B960     		str	r1, [r7, #8]
 2449 0008 7A60     		str	r2, [r7, #4]
 2450 000a 3B60     		str	r3, [r7]
 2451 000c 0346     		mov	r3, r0
 2452 000e FB73     		strb	r3, [r7, #15]
 857:..\src/interruptions.c ****     
 858:..\src/interruptions.c ****     //Compute reference using a FSM for choosing the right sinergy to activate (call this routine o
 859:..\src/interruptions.c ****     static uint8 fsm_state;     
 860:..\src/interruptions.c ****     if (motor_idx == 0){        //update the fsm only at motor 0 compute reference call and hold th
 2453              		.loc 1 860 0
 2454 0010 FB7B     		ldrb	r3, [r7, #15]	@ zero_extendqisi2
 2455 0012 002B     		cmp	r3, #0
 2456 0014 05D1     		bne	.L164
 861:..\src/interruptions.c ****         fsm_state = emg_activation_velocity_fsm();
 2457              		.loc 1 861 0
 2458 0016 FFF7FEFF 		bl	emg_activation_velocity_fsm
 2459 001a 0346     		mov	r3, r0
 2460 001c 1A46     		mov	r2, r3
 2461 001e 614B     		ldr	r3, .L179
 2462 0020 1A70     		strb	r2, [r3]
 2463              	.L164:
 862:..\src/interruptions.c ****     }
 863:..\src/interruptions.c ****        
 864:..\src/interruptions.c ****     switch (fsm_state){
 2464              		.loc 1 864 0
 2465 0022 604B     		ldr	r3, .L179
 2466 0024 1B78     		ldrb	r3, [r3]	@ zero_extendqisi2
ARM GAS  C:\Users\mgnocco\AppData\Local\Temp\ccN5vhdn.s 			page 61


 2467 0026 032B     		cmp	r3, #3
 2468 0028 00F2B780 		bhi	.L176
 2469 002c 01A2     		adr	r2, .L167
 2470 002e 52F823F0 		ldr	pc, [r2, r3, lsl #2]
 2471 0032 00BF     		.p2align 2
 2472              	.L167:
 2473 0034 45000000 		.word	.L166+1
 2474 0038 45000000 		.word	.L166+1
 2475 003c BF000000 		.word	.L168+1
 2476 0040 4F000000 		.word	.L169+1
 2477              		.p2align 1
 2478              	.L166:
 865:..\src/interruptions.c ****         case RELAX_STATE: case TIMER_STATE:
 866:..\src/interruptions.c ****              
 867:..\src/interruptions.c ****             st_ref_p->pos = st_refOld_p->pos;
 2479              		.loc 1 867 0
 2480 0044 7B68     		ldr	r3, [r7, #4]
 2481 0046 1A68     		ldr	r2, [r3]
 2482 0048 BB68     		ldr	r3, [r7, #8]
 2483 004a 1A60     		str	r2, [r3]
 868:..\src/interruptions.c ****     
 869:..\src/interruptions.c ****             break;
 2484              		.loc 1 869 0
 2485 004c A5E0     		b	.L165
 2486              	.L169:
 870:..\src/interruptions.c ****         
 871:..\src/interruptions.c ****         case MOVE_SLOW_ACT: // First sinergy movement (related to default slow activation)
 872:..\src/interruptions.c **** 
 873:..\src/interruptions.c ****             if (err_emg_1 > 0 && err_emg_1 > err_emg_2) {   //both motors wind the wire around the 
 2487              		.loc 1 873 0
 2488 004e 3B68     		ldr	r3, [r7]
 2489 0050 002B     		cmp	r3, #0
 2490 0052 17DD     		ble	.L170
 2491              		.loc 1 873 0 is_stmt 0 discriminator 1
 2492 0054 3A68     		ldr	r2, [r7]
 2493 0056 BB69     		ldr	r3, [r7, #24]
 2494 0058 9A42     		cmp	r2, r3
 2495 005a 13DD     		ble	.L170
 874:..\src/interruptions.c ****                st_ref_p->pos = st_refOld_p->pos + (err_emg_1 * g_mem.emg.emg_speed[0] << 2) / (1024
 2496              		.loc 1 874 0 is_stmt 1
 2497 005c 7B68     		ldr	r3, [r7, #4]
 2498 005e 1A68     		ldr	r2, [r3]
 2499 0060 514B     		ldr	r3, .L179+4
 2500 0062 93F8FC31 		ldrb	r3, [r3, #508]	@ zero_extendqisi2
 2501 0066 1946     		mov	r1, r3
 2502 0068 3B68     		ldr	r3, [r7]
 2503 006a 03FB01F3 		mul	r3, r3, r1
 2504 006e 9900     		lsls	r1, r3, #2
 2505 0070 4E4B     		ldr	r3, .L179+8
 2506 0072 B3F8F031 		ldrh	r3, [r3, #496]
 2507 0076 C3F58063 		rsb	r3, r3, #1024
 2508 007a 91FBF3F3 		sdiv	r3, r1, r3
 2509 007e 1A44     		add	r2, r2, r3
 2510 0080 BB68     		ldr	r3, [r7, #8]
 2511 0082 1A60     		str	r2, [r3]
 2512              	.L170:
 875:..\src/interruptions.c ****             }
ARM GAS  C:\Users\mgnocco\AppData\Local\Temp\ccN5vhdn.s 			page 62


 876:..\src/interruptions.c ****             if (err_emg_2 > 0 && err_emg_2 > err_emg_1) {   //both motors unroll the wire around th
 2513              		.loc 1 876 0
 2514 0084 BB69     		ldr	r3, [r7, #24]
 2515 0086 002B     		cmp	r3, #0
 2516 0088 40F38480 		ble	.L177
 2517              		.loc 1 876 0 is_stmt 0 discriminator 1
 2518 008c BA69     		ldr	r2, [r7, #24]
 2519 008e 3B68     		ldr	r3, [r7]
 2520 0090 9A42     		cmp	r2, r3
 2521 0092 7FDD     		ble	.L177
 877:..\src/interruptions.c ****                st_ref_p->pos = st_refOld_p->pos - (err_emg_2 * g_mem.emg.emg_speed[1] << 2) / (1024
 2522              		.loc 1 877 0 is_stmt 1
 2523 0094 7B68     		ldr	r3, [r7, #4]
 2524 0096 1A68     		ldr	r2, [r3]
 2525 0098 434B     		ldr	r3, .L179+4
 2526 009a 93F8FD31 		ldrb	r3, [r3, #509]	@ zero_extendqisi2
 2527 009e 1946     		mov	r1, r3
 2528 00a0 BB69     		ldr	r3, [r7, #24]
 2529 00a2 03FB01F3 		mul	r3, r3, r1
 2530 00a6 9900     		lsls	r1, r3, #2
 2531 00a8 404B     		ldr	r3, .L179+8
 2532 00aa B3F8F231 		ldrh	r3, [r3, #498]
 2533 00ae C3F58063 		rsb	r3, r3, #1024
 2534 00b2 91FBF3F3 		sdiv	r3, r1, r3
 2535 00b6 D21A     		subs	r2, r2, r3
 2536 00b8 BB68     		ldr	r3, [r7, #8]
 2537 00ba 1A60     		str	r2, [r3]
 878:..\src/interruptions.c ****             }
 879:..\src/interruptions.c ****             
 880:..\src/interruptions.c ****             break;
 2538              		.loc 1 880 0
 2539 00bc 6AE0     		b	.L177
 2540              	.L168:
 881:..\src/interruptions.c ****             
 882:..\src/interruptions.c ****         case MOVE_FAST_ACT: // Second sinergy movement (related to default fast activation)
 883:..\src/interruptions.c ****             
 884:..\src/interruptions.c ****             if (err_emg_1 > 0 && err_emg_1 > err_emg_2) {   //(Pinch) The wire is winded around the
 2541              		.loc 1 884 0
 2542 00be 3B68     		ldr	r3, [r7]
 2543 00c0 002B     		cmp	r3, #0
 2544 00c2 31DD     		ble	.L172
 2545              		.loc 1 884 0 is_stmt 0 discriminator 1
 2546 00c4 3A68     		ldr	r2, [r7]
 2547 00c6 BB69     		ldr	r3, [r7, #24]
 2548 00c8 9A42     		cmp	r2, r3
 2549 00ca 2DDD     		ble	.L172
 885:..\src/interruptions.c ****                 if (motor_idx == 0){
 2550              		.loc 1 885 0 is_stmt 1
 2551 00cc FB7B     		ldrb	r3, [r7, #15]	@ zero_extendqisi2
 2552 00ce 002B     		cmp	r3, #0
 2553 00d0 13D1     		bne	.L173
 886:..\src/interruptions.c ****                     st_ref_p->pos = st_refOld_p->pos + (err_emg_1 * g_mem.emg.emg_speed[0] << 2) / 
 2554              		.loc 1 886 0
 2555 00d2 7B68     		ldr	r3, [r7, #4]
 2556 00d4 1A68     		ldr	r2, [r3]
 2557 00d6 344B     		ldr	r3, .L179+4
 2558 00d8 93F8FC31 		ldrb	r3, [r3, #508]	@ zero_extendqisi2
ARM GAS  C:\Users\mgnocco\AppData\Local\Temp\ccN5vhdn.s 			page 63


 2559 00dc 1946     		mov	r1, r3
 2560 00de 3B68     		ldr	r3, [r7]
 2561 00e0 03FB01F3 		mul	r3, r3, r1
 2562 00e4 9900     		lsls	r1, r3, #2
 2563 00e6 314B     		ldr	r3, .L179+8
 2564 00e8 B3F8F031 		ldrh	r3, [r3, #496]
 2565 00ec C3F58063 		rsb	r3, r3, #1024
 2566 00f0 91FBF3F3 		sdiv	r3, r1, r3
 2567 00f4 1A44     		add	r2, r2, r3
 2568 00f6 BB68     		ldr	r3, [r7, #8]
 2569 00f8 1A60     		str	r2, [r3]
 2570              	.L173:
 887:..\src/interruptions.c ****                 }
 888:..\src/interruptions.c ****                 if (motor_idx == 1){
 2571              		.loc 1 888 0
 2572 00fa FB7B     		ldrb	r3, [r7, #15]	@ zero_extendqisi2
 2573 00fc 012B     		cmp	r3, #1
 2574 00fe 13D1     		bne	.L172
 889:..\src/interruptions.c ****                     st_ref_p->pos = st_refOld_p->pos - (err_emg_1 * g_mem.emg.emg_speed[0] << 2) / 
 2575              		.loc 1 889 0
 2576 0100 7B68     		ldr	r3, [r7, #4]
 2577 0102 1A68     		ldr	r2, [r3]
 2578 0104 284B     		ldr	r3, .L179+4
 2579 0106 93F8FC31 		ldrb	r3, [r3, #508]	@ zero_extendqisi2
 2580 010a 1946     		mov	r1, r3
 2581 010c 3B68     		ldr	r3, [r7]
 2582 010e 03FB01F3 		mul	r3, r3, r1
 2583 0112 9900     		lsls	r1, r3, #2
 2584 0114 254B     		ldr	r3, .L179+8
 2585 0116 B3F8F031 		ldrh	r3, [r3, #496]
 2586 011a C3F58063 		rsb	r3, r3, #1024
 2587 011e 91FBF3F3 		sdiv	r3, r1, r3
 2588 0122 D21A     		subs	r2, r2, r3
 2589 0124 BB68     		ldr	r3, [r7, #8]
 2590 0126 1A60     		str	r2, [r3]
 2591              	.L172:
 890:..\src/interruptions.c ****                 }   
 891:..\src/interruptions.c ****             }
 892:..\src/interruptions.c ****             if (err_emg_2 > 0 && err_emg_2 > err_emg_1) {   //(Index point) The wire is unwinded fr
 2592              		.loc 1 892 0
 2593 0128 BB69     		ldr	r3, [r7, #24]
 2594 012a 002B     		cmp	r3, #0
 2595 012c 34DD     		ble	.L178
 2596              		.loc 1 892 0 is_stmt 0 discriminator 1
 2597 012e BA69     		ldr	r2, [r7, #24]
 2598 0130 3B68     		ldr	r3, [r7]
 2599 0132 9A42     		cmp	r2, r3
 2600 0134 30DD     		ble	.L178
 893:..\src/interruptions.c ****                 if (motor_idx == 0){
 2601              		.loc 1 893 0 is_stmt 1
 2602 0136 FB7B     		ldrb	r3, [r7, #15]	@ zero_extendqisi2
 2603 0138 002B     		cmp	r3, #0
 2604 013a 13D1     		bne	.L175
 894:..\src/interruptions.c ****                     st_ref_p->pos = st_refOld_p->pos - (err_emg_2 * g_mem.emg.emg_speed[1] << 2) / 
 2605              		.loc 1 894 0
 2606 013c 7B68     		ldr	r3, [r7, #4]
 2607 013e 1A68     		ldr	r2, [r3]
ARM GAS  C:\Users\mgnocco\AppData\Local\Temp\ccN5vhdn.s 			page 64


 2608 0140 194B     		ldr	r3, .L179+4
 2609 0142 93F8FD31 		ldrb	r3, [r3, #509]	@ zero_extendqisi2
 2610 0146 1946     		mov	r1, r3
 2611 0148 BB69     		ldr	r3, [r7, #24]
 2612 014a 03FB01F3 		mul	r3, r3, r1
 2613 014e 9900     		lsls	r1, r3, #2
 2614 0150 164B     		ldr	r3, .L179+8
 2615 0152 B3F8F231 		ldrh	r3, [r3, #498]
 2616 0156 C3F58063 		rsb	r3, r3, #1024
 2617 015a 91FBF3F3 		sdiv	r3, r1, r3
 2618 015e D21A     		subs	r2, r2, r3
 2619 0160 BB68     		ldr	r3, [r7, #8]
 2620 0162 1A60     		str	r2, [r3]
 2621              	.L175:
 895:..\src/interruptions.c ****                 }
 896:..\src/interruptions.c ****                 if (motor_idx == 1){
 2622              		.loc 1 896 0
 2623 0164 FB7B     		ldrb	r3, [r7, #15]	@ zero_extendqisi2
 2624 0166 012B     		cmp	r3, #1
 2625 0168 16D1     		bne	.L178
 897:..\src/interruptions.c ****                     st_ref_p->pos = st_refOld_p->pos + (err_emg_2 * g_mem.emg.emg_speed[1] << 2) / 
 2626              		.loc 1 897 0
 2627 016a 7B68     		ldr	r3, [r7, #4]
 2628 016c 1A68     		ldr	r2, [r3]
 2629 016e 0E4B     		ldr	r3, .L179+4
 2630 0170 93F8FD31 		ldrb	r3, [r3, #509]	@ zero_extendqisi2
 2631 0174 1946     		mov	r1, r3
 2632 0176 BB69     		ldr	r3, [r7, #24]
 2633 0178 03FB01F3 		mul	r3, r3, r1
 2634 017c 9900     		lsls	r1, r3, #2
 2635 017e 0B4B     		ldr	r3, .L179+8
 2636 0180 B3F8F231 		ldrh	r3, [r3, #498]
 2637 0184 C3F58063 		rsb	r3, r3, #1024
 2638 0188 91FBF3F3 		sdiv	r3, r1, r3
 2639 018c 1A44     		add	r2, r2, r3
 2640 018e BB68     		ldr	r3, [r7, #8]
 2641 0190 1A60     		str	r2, [r3]
 898:..\src/interruptions.c ****                 }
 899:..\src/interruptions.c ****             }
 900:..\src/interruptions.c ****             
 901:..\src/interruptions.c ****             break;
 2642              		.loc 1 901 0
 2643 0192 01E0     		b	.L178
 2644              	.L177:
 880:..\src/interruptions.c ****             
 2645              		.loc 1 880 0
 2646 0194 00BF     		nop
 2647 0196 00E0     		b	.L176
 2648              	.L178:
 2649              		.loc 1 901 0
 2650 0198 00BF     		nop
 2651              	.L165:
 2652              	.L176:
 902:..\src/interruptions.c ****     }
 903:..\src/interruptions.c ****  
 904:..\src/interruptions.c **** }
 2653              		.loc 1 904 0
ARM GAS  C:\Users\mgnocco\AppData\Local\Temp\ccN5vhdn.s 			page 65


 2654 019a 00BF     		nop
 2655 019c 1037     		adds	r7, r7, #16
 2656              		.cfi_def_cfa_offset 8
 2657 019e BD46     		mov	sp, r7
 2658              		.cfi_def_cfa_register 13
 2659              		@ sp needed
 2660 01a0 80BD     		pop	{r7, pc}
 2661              	.L180:
 2662 01a2 00BF     		.align	2
 2663              	.L179:
 2664 01a4 8E000000 		.word	fsm_state.10298
 2665 01a8 00000000 		.word	g_mem
 2666 01ac 00000000 		.word	c_mem
 2667              		.cfi_endproc
 2668              	.LFE70:
 2669              		.size	compute_SoftHand_2_motors_emg_reference, .-compute_SoftHand_2_motors_emg_reference
 2670              		.section	.text.motor_control_SH,"ax",%progbits
 2671              		.align	2
 2672              		.global	motor_control_SH
 2673              		.thumb
 2674              		.thumb_func
 2675              		.type	motor_control_SH, %function
 2676              	motor_control_SH:
 2677              	.LFB71:
 905:..\src/interruptions.c **** 
 906:..\src/interruptions.c **** //==============================================================================
 907:..\src/interruptions.c **** //                                                        MOTOR CONTROL SOFTHAND
 908:..\src/interruptions.c **** //==============================================================================
 909:..\src/interruptions.c **** void motor_control_SH() {
 2678              		.loc 1 909 0
 2679              		.cfi_startproc
 2680              		@ args = 0, pretend = 0, frame = 80
 2681              		@ frame_needed = 1, uses_anonymous_args = 0
 2682 0000 80B5     		push	{r7, lr}
 2683              		.cfi_def_cfa_offset 8
 2684              		.cfi_offset 7, -8
 2685              		.cfi_offset 14, -4
 2686 0002 94B0     		sub	sp, sp, #80
 2687              		.cfi_def_cfa_offset 88
 2688 0004 00AF     		add	r7, sp, #0
 2689              		.cfi_def_cfa_register 7
 910:..\src/interruptions.c **** 
 911:..\src/interruptions.c ****     int32 CYDATA pwm_input = 0;
 2690              		.loc 1 911 0
 2691 0006 0023     		movs	r3, #0
 2692 0008 FB64     		str	r3, [r7, #76]
 912:..\src/interruptions.c ****     int32 CYDATA pos_error;         // position error
 913:..\src/interruptions.c ****     int32 CYDATA curr_error;        // current error
 914:..\src/interruptions.c ****     int32 CYDATA i_ref;             // current reference
 915:..\src/interruptions.c ****  
 916:..\src/interruptions.c ****     uint8 MOTOR_IDX = 0;
 2693              		.loc 1 916 0
 2694 000a 0023     		movs	r3, #0
 2695 000c 87F84730 		strb	r3, [r7, #71]
 917:..\src/interruptions.c ****     
 918:..\src/interruptions.c ****     struct st_motor* SH_MOT = &c_mem.motor[MOTOR_IDX];      // SoftHand default motor
 2696              		.loc 1 918 0
ARM GAS  C:\Users\mgnocco\AppData\Local\Temp\ccN5vhdn.s 			page 66


 2697 0010 97F84720 		ldrb	r2, [r7, #71]	@ zero_extendqisi2
 2698 0014 1346     		mov	r3, r2
 2699 0016 DB00     		lsls	r3, r3, #3
 2700 0018 9B1A     		subs	r3, r3, r2
 2701 001a 1B01     		lsls	r3, r3, #4
 2702 001c B033     		adds	r3, r3, #176
 2703 001e 9D4A     		ldr	r2, .L242
 2704 0020 1344     		add	r3, r3, r2
 2705 0022 3B64     		str	r3, [r7, #64]
 919:..\src/interruptions.c ****     uint8 SH_ENC_L = SH_MOT->encoder_line;          // Associated encoder line
 2706              		.loc 1 919 0
 2707 0024 3B6C     		ldr	r3, [r7, #64]
 2708 0026 93F86030 		ldrb	r3, [r3, #96]
 2709 002a 87F83F30 		strb	r3, [r7, #63]
 920:..\src/interruptions.c ****     
 921:..\src/interruptions.c ****     int32 CYDATA k_p = SH_MOT->k_p;  
 2710              		.loc 1 921 0
 2711 002e 3B6C     		ldr	r3, [r7, #64]
 2712 0030 1B68     		ldr	r3, [r3]
 2713 0032 BB63     		str	r3, [r7, #56]
 922:..\src/interruptions.c ****     int32 CYDATA k_i = SH_MOT->k_i; 
 2714              		.loc 1 922 0
 2715 0034 3B6C     		ldr	r3, [r7, #64]
 2716 0036 5B68     		ldr	r3, [r3, #4]
 2717 0038 7B63     		str	r3, [r7, #52]
 923:..\src/interruptions.c ****     int32 CYDATA k_d = SH_MOT->k_d; 
 2718              		.loc 1 923 0
 2719 003a 3B6C     		ldr	r3, [r7, #64]
 2720 003c 9B68     		ldr	r3, [r3, #8]
 2721 003e 3B63     		str	r3, [r7, #48]
 924:..\src/interruptions.c **** 
 925:..\src/interruptions.c ****     int32 CYDATA k_p_c = SH_MOT->k_p_c;  
 2722              		.loc 1 925 0
 2723 0040 3B6C     		ldr	r3, [r7, #64]
 2724 0042 DB68     		ldr	r3, [r3, #12]
 2725 0044 FB62     		str	r3, [r7, #44]
 926:..\src/interruptions.c ****     int32 CYDATA k_i_c = SH_MOT->k_i_c; 
 2726              		.loc 1 926 0
 2727 0046 3B6C     		ldr	r3, [r7, #64]
 2728 0048 1B69     		ldr	r3, [r3, #16]
 2729 004a BB62     		str	r3, [r7, #40]
 927:..\src/interruptions.c ****     int32 CYDATA k_d_c = SH_MOT->k_d_c;   
 2730              		.loc 1 927 0
 2731 004c 3B6C     		ldr	r3, [r7, #64]
 2732 004e 5B69     		ldr	r3, [r3, #20]
 2733 0050 7B62     		str	r3, [r7, #36]
 928:..\src/interruptions.c **** 
 929:..\src/interruptions.c ****     int32 CYDATA k_p_dl = SH_MOT->k_p_dl;  
 2734              		.loc 1 929 0
 2735 0052 3B6C     		ldr	r3, [r7, #64]
 2736 0054 9B69     		ldr	r3, [r3, #24]
 2737 0056 3B62     		str	r3, [r7, #32]
 930:..\src/interruptions.c ****     int32 CYDATA k_i_dl = SH_MOT->k_i_dl; 
 2738              		.loc 1 930 0
 2739 0058 3B6C     		ldr	r3, [r7, #64]
 2740 005a DB69     		ldr	r3, [r3, #28]
 2741 005c FB61     		str	r3, [r7, #28]
ARM GAS  C:\Users\mgnocco\AppData\Local\Temp\ccN5vhdn.s 			page 67


 931:..\src/interruptions.c ****     int32 CYDATA k_d_dl = SH_MOT->k_d_dl;
 2742              		.loc 1 931 0
 2743 005e 3B6C     		ldr	r3, [r7, #64]
 2744 0060 1B6A     		ldr	r3, [r3, #32]
 2745 0062 BB61     		str	r3, [r7, #24]
 932:..\src/interruptions.c ****     
 933:..\src/interruptions.c ****     int32 CYDATA k_p_c_dl = SH_MOT->k_p_c_dl;  
 2746              		.loc 1 933 0
 2747 0064 3B6C     		ldr	r3, [r7, #64]
 2748 0066 5B6A     		ldr	r3, [r3, #36]
 2749 0068 7B61     		str	r3, [r7, #20]
 934:..\src/interruptions.c ****     int32 CYDATA k_i_c_dl = SH_MOT->k_i_c_dl; 
 2750              		.loc 1 934 0
 2751 006a 3B6C     		ldr	r3, [r7, #64]
 2752 006c 9B6A     		ldr	r3, [r3, #40]
 2753 006e 3B61     		str	r3, [r7, #16]
 935:..\src/interruptions.c ****     int32 CYDATA k_d_c_dl = SH_MOT->k_d_c_dl;   
 2754              		.loc 1 935 0
 2755 0070 3B6C     		ldr	r3, [r7, #64]
 2756 0072 DB6A     		ldr	r3, [r3, #44]
 2757 0074 FB60     		str	r3, [r7, #12]
 936:..\src/interruptions.c **** 
 937:..\src/interruptions.c ****     // Static Variables
 938:..\src/interruptions.c **** 
 939:..\src/interruptions.c ****     static int32 pos_error_sum;     // position error sum for integral
 940:..\src/interruptions.c ****     static int32 curr_error_sum;    // current error sum for integral
 941:..\src/interruptions.c ****     
 942:..\src/interruptions.c ****     static int32 prev_pos_err;      // previous position error for deriv. control
 943:..\src/interruptions.c ****     static int32 prev_curr_err;     // previous current error for deriv. control
 944:..\src/interruptions.c ****     static int32 prev_pwm;
 945:..\src/interruptions.c **** 
 946:..\src/interruptions.c ****     static CYBIT motor_dir = FALSE;
 947:..\src/interruptions.c ****     static uint32 position_counter = 0;
 948:..\src/interruptions.c ****   
 949:..\src/interruptions.c ****     // ======================= UPDATE MOTOR REFERENCE ==========================            
 950:..\src/interruptions.c ****     compute_reference(MOTOR_IDX, &g_ref[MOTOR_IDX], &g_refOld[MOTOR_IDX]);
 2758              		.loc 1 950 0
 2759 0076 97F84730 		ldrb	r3, [r7, #71]	@ zero_extendqisi2
 2760 007a 1B01     		lsls	r3, r3, #4
 2761 007c 864A     		ldr	r2, .L242+4
 2762 007e 9918     		adds	r1, r3, r2
 2763 0080 97F84730 		ldrb	r3, [r7, #71]	@ zero_extendqisi2
 2764 0084 1B01     		lsls	r3, r3, #4
 2765 0086 854A     		ldr	r2, .L242+8
 2766 0088 1A44     		add	r2, r2, r3
 2767 008a 97F84730 		ldrb	r3, [r7, #71]	@ zero_extendqisi2
 2768 008e 1846     		mov	r0, r3
 2769 0090 FFF7FEFF 		bl	compute_reference
 951:..\src/interruptions.c ****      
 952:..\src/interruptions.c ****     switch(SH_MOT->control_mode) {
 2770              		.loc 1 952 0
 2771 0094 3B6C     		ldr	r3, [r7, #64]
 2772 0096 93F85F30 		ldrb	r3, [r3, #95]	@ zero_extendqisi2
 2773 009a 032B     		cmp	r3, #3
 2774 009c 00F2F781 		bhi	.L182
 2775 00a0 01A2     		adr	r2, .L184
 2776 00a2 52F823F0 		ldr	pc, [r2, r3, lsl #2]
ARM GAS  C:\Users\mgnocco\AppData\Local\Temp\ccN5vhdn.s 			page 68


 2777 00a6 00BF     		.p2align 2
 2778              	.L184:
 2779 00a8 55020000 		.word	.L183+1
 2780 00ac 49040000 		.word	.L185+1
 2781 00b0 3B030000 		.word	.L186+1
 2782 00b4 B9000000 		.word	.L187+1
 2783              		.p2align 1
 2784              	.L187:
 953:..\src/interruptions.c ****         // ======================= CURRENT AND POSITION CONTROL =======================
 954:..\src/interruptions.c ****         case CURR_AND_POS_CONTROL:
 955:..\src/interruptions.c ****             pos_error = g_ref[MOTOR_IDX].pos - g_meas[SH_ENC_L].pos[0];
 2785              		.loc 1 955 0
 2786 00b8 97F84730 		ldrb	r3, [r7, #71]	@ zero_extendqisi2
 2787 00bc 764A     		ldr	r2, .L242+4
 2788 00be 1B01     		lsls	r3, r3, #4
 2789 00c0 1344     		add	r3, r3, r2
 2790 00c2 1A68     		ldr	r2, [r3]
 2791 00c4 97F83F30 		ldrb	r3, [r7, #63]	@ zero_extendqisi2
 2792 00c8 7549     		ldr	r1, .L242+12
 2793 00ca 3420     		movs	r0, #52
 2794 00cc 00FB03F3 		mul	r3, r0, r3
 2795 00d0 0B44     		add	r3, r3, r1
 2796 00d2 1B68     		ldr	r3, [r3]
 2797 00d4 D31A     		subs	r3, r2, r3
 2798 00d6 BB60     		str	r3, [r7, #8]
 956:..\src/interruptions.c **** 
 957:..\src/interruptions.c ****             pos_error_sum += pos_error;
 2799              		.loc 1 957 0
 2800 00d8 724B     		ldr	r3, .L242+16
 2801 00da 1A68     		ldr	r2, [r3]
 2802 00dc BB68     		ldr	r3, [r7, #8]
 2803 00de 1344     		add	r3, r3, r2
 2804 00e0 704A     		ldr	r2, .L242+16
 2805 00e2 1360     		str	r3, [r2]
 958:..\src/interruptions.c **** 
 959:..\src/interruptions.c ****             // error_sum saturation
 960:..\src/interruptions.c ****             if (pos_error_sum > POS_INTEGRAL_SAT_LIMIT)
 2806              		.loc 1 960 0
 2807 00e4 6F4B     		ldr	r3, .L242+16
 2808 00e6 1B68     		ldr	r3, [r3]
 2809 00e8 6F4A     		ldr	r2, .L242+20
 2810 00ea 9342     		cmp	r3, r2
 2811 00ec 03DD     		ble	.L188
 961:..\src/interruptions.c ****                 pos_error_sum = POS_INTEGRAL_SAT_LIMIT;
 2812              		.loc 1 961 0
 2813 00ee 6D4B     		ldr	r3, .L242+16
 2814 00f0 6D4A     		ldr	r2, .L242+20
 2815 00f2 1A60     		str	r2, [r3]
 2816 00f4 07E0     		b	.L189
 2817              	.L188:
 962:..\src/interruptions.c ****             else {
 963:..\src/interruptions.c ****                 if (pos_error_sum < -POS_INTEGRAL_SAT_LIMIT) 
 2818              		.loc 1 963 0
 2819 00f6 6B4B     		ldr	r3, .L242+16
 2820 00f8 1B68     		ldr	r3, [r3]
 2821 00fa 6C4A     		ldr	r2, .L242+24
 2822 00fc 9342     		cmp	r3, r2
ARM GAS  C:\Users\mgnocco\AppData\Local\Temp\ccN5vhdn.s 			page 69


 2823 00fe 02DA     		bge	.L189
 964:..\src/interruptions.c ****                     pos_error_sum = -POS_INTEGRAL_SAT_LIMIT;
 2824              		.loc 1 964 0
 2825 0100 684B     		ldr	r3, .L242+16
 2826 0102 6A4A     		ldr	r2, .L242+24
 2827 0104 1A60     		str	r2, [r3]
 2828              	.L189:
 965:..\src/interruptions.c ****             }
 966:..\src/interruptions.c ****             
 967:..\src/interruptions.c ****             // ------ position PID control ------
 968:..\src/interruptions.c **** 
 969:..\src/interruptions.c ****             i_ref = 0;
 2829              		.loc 1 969 0
 2830 0106 0023     		movs	r3, #0
 2831 0108 BB64     		str	r3, [r7, #72]
 970:..\src/interruptions.c ****             
 971:..\src/interruptions.c ****             // Proportional
 972:..\src/interruptions.c ****             if (k_p_dl != 0)
 2832              		.loc 1 972 0
 2833 010a 3B6A     		ldr	r3, [r7, #32]
 2834 010c 002B     		cmp	r3, #0
 2835 010e 07D0     		beq	.L190
 973:..\src/interruptions.c ****                 i_ref += (int32)(k_p_dl * pos_error) >> 16;
 2836              		.loc 1 973 0
 2837 0110 3B6A     		ldr	r3, [r7, #32]
 2838 0112 BA68     		ldr	r2, [r7, #8]
 2839 0114 02FB03F3 		mul	r3, r2, r3
 2840 0118 1B14     		asrs	r3, r3, #16
 2841 011a BA6C     		ldr	r2, [r7, #72]
 2842 011c 1344     		add	r3, r3, r2
 2843 011e BB64     		str	r3, [r7, #72]
 2844              	.L190:
 974:..\src/interruptions.c **** 
 975:..\src/interruptions.c ****             // Integral
 976:..\src/interruptions.c ****             if (k_i_dl != 0)
 2845              		.loc 1 976 0
 2846 0120 FB69     		ldr	r3, [r7, #28]
 2847 0122 002B     		cmp	r3, #0
 2848 0124 08D0     		beq	.L191
 977:..\src/interruptions.c ****                 i_ref += (int32)(k_i_dl * pos_error_sum) >> 16;
 2849              		.loc 1 977 0
 2850 0126 5F4B     		ldr	r3, .L242+16
 2851 0128 1B68     		ldr	r3, [r3]
 2852 012a FA69     		ldr	r2, [r7, #28]
 2853 012c 02FB03F3 		mul	r3, r2, r3
 2854 0130 1B14     		asrs	r3, r3, #16
 2855 0132 BA6C     		ldr	r2, [r7, #72]
 2856 0134 1344     		add	r3, r3, r2
 2857 0136 BB64     		str	r3, [r7, #72]
 2858              	.L191:
 978:..\src/interruptions.c **** 
 979:..\src/interruptions.c ****             // Derivative
 980:..\src/interruptions.c ****             if (k_d_dl != 0)
 2859              		.loc 1 980 0
 2860 0138 BB69     		ldr	r3, [r7, #24]
 2861 013a 002B     		cmp	r3, #0
 2862 013c 0AD0     		beq	.L192
ARM GAS  C:\Users\mgnocco\AppData\Local\Temp\ccN5vhdn.s 			page 70


 981:..\src/interruptions.c ****                 i_ref += (int32)(k_d_dl * (pos_error - prev_pos_err)) >> 16;
 2863              		.loc 1 981 0
 2864 013e 5C4B     		ldr	r3, .L242+28
 2865 0140 1B68     		ldr	r3, [r3]
 2866 0142 BA68     		ldr	r2, [r7, #8]
 2867 0144 D31A     		subs	r3, r2, r3
 2868 0146 BA69     		ldr	r2, [r7, #24]
 2869 0148 02FB03F3 		mul	r3, r2, r3
 2870 014c 1B14     		asrs	r3, r3, #16
 2871 014e BA6C     		ldr	r2, [r7, #72]
 2872 0150 1344     		add	r3, r3, r2
 2873 0152 BB64     		str	r3, [r7, #72]
 2874              	.L192:
 982:..\src/interruptions.c ****                         
 983:..\src/interruptions.c ****             // Update previous position
 984:..\src/interruptions.c ****             prev_pos_err = pos_error;
 2875              		.loc 1 984 0
 2876 0154 564A     		ldr	r2, .L242+28
 2877 0156 BB68     		ldr	r3, [r7, #8]
 2878 0158 1360     		str	r3, [r2]
 985:..\src/interruptions.c **** 
 986:..\src/interruptions.c ****             // motor direction depends on i_ref
 987:..\src/interruptions.c ****             if (i_ref >= 0)
 2879              		.loc 1 987 0
 2880 015a BB6C     		ldr	r3, [r7, #72]
 2881 015c 002B     		cmp	r3, #0
 2882 015e 03DB     		blt	.L193
 988:..\src/interruptions.c ****                 motor_dir = TRUE;
 2883              		.loc 1 988 0
 2884 0160 544B     		ldr	r3, .L242+32
 2885 0162 0122     		movs	r2, #1
 2886 0164 1A70     		strb	r2, [r3]
 2887 0166 02E0     		b	.L194
 2888              	.L193:
 989:..\src/interruptions.c ****             else
 990:..\src/interruptions.c ****                 motor_dir = FALSE;
 2889              		.loc 1 990 0
 2890 0168 524B     		ldr	r3, .L242+32
 2891 016a 0022     		movs	r2, #0
 2892 016c 1A70     		strb	r2, [r3]
 2893              	.L194:
 991:..\src/interruptions.c **** 
 992:..\src/interruptions.c ****             // saturate max current
 993:..\src/interruptions.c ****             if (i_ref > SH_MOT->current_limit)
 2894              		.loc 1 993 0
 2895 016e 3B6C     		ldr	r3, [r7, #64]
 2896 0170 B3F95C30 		ldrsh	r3, [r3, #92]
 2897 0174 1A46     		mov	r2, r3
 2898 0176 BB6C     		ldr	r3, [r7, #72]
 2899 0178 9A42     		cmp	r2, r3
 2900 017a 04DA     		bge	.L195
 994:..\src/interruptions.c ****                 i_ref = SH_MOT->current_limit;
 2901              		.loc 1 994 0
 2902 017c 3B6C     		ldr	r3, [r7, #64]
 2903 017e B3F95C30 		ldrsh	r3, [r3, #92]
 2904 0182 BB64     		str	r3, [r7, #72]
 2905 0184 0BE0     		b	.L196
ARM GAS  C:\Users\mgnocco\AppData\Local\Temp\ccN5vhdn.s 			page 71


 2906              	.L195:
 995:..\src/interruptions.c ****             else {
 996:..\src/interruptions.c ****                 if (i_ref < -SH_MOT->current_limit)
 2907              		.loc 1 996 0
 2908 0186 3B6C     		ldr	r3, [r7, #64]
 2909 0188 B3F95C30 		ldrsh	r3, [r3, #92]
 2910 018c 5A42     		negs	r2, r3
 2911 018e BB6C     		ldr	r3, [r7, #72]
 2912 0190 9A42     		cmp	r2, r3
 2913 0192 04DD     		ble	.L196
 997:..\src/interruptions.c ****                     i_ref = -SH_MOT->current_limit;
 2914              		.loc 1 997 0
 2915 0194 3B6C     		ldr	r3, [r7, #64]
 2916 0196 B3F95C30 		ldrsh	r3, [r3, #92]
 2917 019a 5B42     		negs	r3, r3
 2918 019c BB64     		str	r3, [r7, #72]
 2919              	.L196:
 998:..\src/interruptions.c ****         	}
 999:..\src/interruptions.c **** 
1000:..\src/interruptions.c ****             // current error and curr error sum
1001:..\src/interruptions.c ****             curr_error = i_ref - g_meas[SH_ENC_L].curr;
 2920              		.loc 1 1001 0
 2921 019e 97F83F30 		ldrb	r3, [r7, #63]	@ zero_extendqisi2
 2922 01a2 3F4A     		ldr	r2, .L242+12
 2923 01a4 3421     		movs	r1, #52
 2924 01a6 01FB03F3 		mul	r3, r1, r3
 2925 01aa 1344     		add	r3, r3, r2
 2926 01ac 0C33     		adds	r3, r3, #12
 2927 01ae 1B68     		ldr	r3, [r3]
 2928 01b0 BA6C     		ldr	r2, [r7, #72]
 2929 01b2 D31A     		subs	r3, r2, r3
 2930 01b4 7B60     		str	r3, [r7, #4]
1002:..\src/interruptions.c ****             curr_error_sum += curr_error;
 2931              		.loc 1 1002 0
 2932 01b6 404B     		ldr	r3, .L242+36
 2933 01b8 1A68     		ldr	r2, [r3]
 2934 01ba 7B68     		ldr	r3, [r7, #4]
 2935 01bc 1344     		add	r3, r3, r2
 2936 01be 3E4A     		ldr	r2, .L242+36
 2937 01c0 1360     		str	r3, [r2]
1003:..\src/interruptions.c ****             
1004:..\src/interruptions.c ****             if (curr_error_sum > CURR_INTEGRAL_SAT_LIMIT)
 2938              		.loc 1 1004 0
 2939 01c2 3D4B     		ldr	r3, .L242+36
 2940 01c4 1B68     		ldr	r3, [r3]
 2941 01c6 3D4A     		ldr	r2, .L242+40
 2942 01c8 9342     		cmp	r3, r2
 2943 01ca 03DD     		ble	.L197
1005:..\src/interruptions.c ****                 curr_error_sum = CURR_INTEGRAL_SAT_LIMIT;
 2944              		.loc 1 1005 0
 2945 01cc 3A4B     		ldr	r3, .L242+36
 2946 01ce 3B4A     		ldr	r2, .L242+40
 2947 01d0 1A60     		str	r2, [r3]
 2948 01d2 07E0     		b	.L198
 2949              	.L197:
1006:..\src/interruptions.c ****             else {
1007:..\src/interruptions.c ****                 if (curr_error_sum < -CURR_INTEGRAL_SAT_LIMIT)
ARM GAS  C:\Users\mgnocco\AppData\Local\Temp\ccN5vhdn.s 			page 72


 2950              		.loc 1 1007 0
 2951 01d4 384B     		ldr	r3, .L242+36
 2952 01d6 1B68     		ldr	r3, [r3]
 2953 01d8 394A     		ldr	r2, .L242+44
 2954 01da 9342     		cmp	r3, r2
 2955 01dc 02DA     		bge	.L198
1008:..\src/interruptions.c ****                     curr_error_sum = -CURR_INTEGRAL_SAT_LIMIT;
 2956              		.loc 1 1008 0
 2957 01de 364B     		ldr	r3, .L242+36
 2958 01e0 374A     		ldr	r2, .L242+44
 2959 01e2 1A60     		str	r2, [r3]
 2960              	.L198:
1009:..\src/interruptions.c ****             }
1010:..\src/interruptions.c **** 
1011:..\src/interruptions.c ****             // ----- current PID control -----
1012:..\src/interruptions.c **** 
1013:..\src/interruptions.c ****             pwm_input = 0;
 2961              		.loc 1 1013 0
 2962 01e4 0023     		movs	r3, #0
 2963 01e6 FB64     		str	r3, [r7, #76]
1014:..\src/interruptions.c **** 
1015:..\src/interruptions.c ****             // Proportional
1016:..\src/interruptions.c ****             if (k_p_c_dl != 0)
 2964              		.loc 1 1016 0
 2965 01e8 7B69     		ldr	r3, [r7, #20]
 2966 01ea 002B     		cmp	r3, #0
 2967 01ec 07D0     		beq	.L199
1017:..\src/interruptions.c ****                 pwm_input += (int32)(k_p_c_dl * curr_error) >> 16;
 2968              		.loc 1 1017 0
 2969 01ee 7B69     		ldr	r3, [r7, #20]
 2970 01f0 7A68     		ldr	r2, [r7, #4]
 2971 01f2 02FB03F3 		mul	r3, r2, r3
 2972 01f6 1B14     		asrs	r3, r3, #16
 2973 01f8 FA6C     		ldr	r2, [r7, #76]
 2974 01fa 1344     		add	r3, r3, r2
 2975 01fc FB64     		str	r3, [r7, #76]
 2976              	.L199:
1018:..\src/interruptions.c **** 
1019:..\src/interruptions.c ****             // Integral
1020:..\src/interruptions.c ****             if (k_i_c_dl != 0)
 2977              		.loc 1 1020 0
 2978 01fe 3B69     		ldr	r3, [r7, #16]
 2979 0200 002B     		cmp	r3, #0
 2980 0202 08D0     		beq	.L200
1021:..\src/interruptions.c ****                 pwm_input += (int32)(k_i_c_dl * curr_error_sum) >> 16;
 2981              		.loc 1 1021 0
 2982 0204 2C4B     		ldr	r3, .L242+36
 2983 0206 1B68     		ldr	r3, [r3]
 2984 0208 3A69     		ldr	r2, [r7, #16]
 2985 020a 02FB03F3 		mul	r3, r2, r3
 2986 020e 1B14     		asrs	r3, r3, #16
 2987 0210 FA6C     		ldr	r2, [r7, #76]
 2988 0212 1344     		add	r3, r3, r2
 2989 0214 FB64     		str	r3, [r7, #76]
 2990              	.L200:
1022:..\src/interruptions.c **** 
1023:..\src/interruptions.c ****             // Derivative
ARM GAS  C:\Users\mgnocco\AppData\Local\Temp\ccN5vhdn.s 			page 73


1024:..\src/interruptions.c ****             if (k_d_c_dl != 0)
 2991              		.loc 1 1024 0
 2992 0216 FB68     		ldr	r3, [r7, #12]
 2993 0218 002B     		cmp	r3, #0
 2994 021a 0AD0     		beq	.L201
1025:..\src/interruptions.c ****                 pwm_input += (int32)(k_d_c_dl * (curr_error - prev_curr_err)) >> 16;
 2995              		.loc 1 1025 0
 2996 021c 294B     		ldr	r3, .L242+48
 2997 021e 1B68     		ldr	r3, [r3]
 2998 0220 7A68     		ldr	r2, [r7, #4]
 2999 0222 D31A     		subs	r3, r2, r3
 3000 0224 FA68     		ldr	r2, [r7, #12]
 3001 0226 02FB03F3 		mul	r3, r2, r3
 3002 022a 1B14     		asrs	r3, r3, #16
 3003 022c FA6C     		ldr	r2, [r7, #76]
 3004 022e 1344     		add	r3, r3, r2
 3005 0230 FB64     		str	r3, [r7, #76]
 3006              	.L201:
1026:..\src/interruptions.c **** 
1027:..\src/interruptions.c ****             // pwm_input saturation
1028:..\src/interruptions.c ****             if (pwm_input < -PWM_MAX_VALUE_DC) 
 3007              		.loc 1 1028 0
 3008 0232 FB6C     		ldr	r3, [r7, #76]
 3009 0234 13F1640F 		cmn	r3, #100
 3010 0238 03DA     		bge	.L202
1029:..\src/interruptions.c ****                 pwm_input = -PWM_MAX_VALUE_DC;
 3011              		.loc 1 1029 0
 3012 023a 6FF06303 		mvn	r3, #99
 3013 023e FB64     		str	r3, [r7, #76]
 3014 0240 04E0     		b	.L203
 3015              	.L202:
1030:..\src/interruptions.c ****             else {
1031:..\src/interruptions.c ****                 if (pwm_input > PWM_MAX_VALUE_DC)
 3016              		.loc 1 1031 0
 3017 0242 FB6C     		ldr	r3, [r7, #76]
 3018 0244 642B     		cmp	r3, #100
 3019 0246 01DD     		ble	.L203
1032:..\src/interruptions.c ****                     pwm_input = PWM_MAX_VALUE_DC;
 3020              		.loc 1 1032 0
 3021 0248 6423     		movs	r3, #100
 3022 024a FB64     		str	r3, [r7, #76]
 3023              	.L203:
1033:..\src/interruptions.c ****             }
1034:..\src/interruptions.c **** 
1035:..\src/interruptions.c ****             // Update previous current
1036:..\src/interruptions.c ****             prev_curr_err = curr_error;
 3024              		.loc 1 1036 0
 3025 024c 1D4A     		ldr	r2, .L242+48
 3026 024e 7B68     		ldr	r3, [r7, #4]
 3027 0250 1360     		str	r3, [r2]
1037:..\src/interruptions.c **** 
1038:..\src/interruptions.c ****         break;
 3028              		.loc 1 1038 0
 3029 0252 1CE1     		b	.L182
 3030              	.L183:
1039:..\src/interruptions.c **** 
1040:..\src/interruptions.c ****         // ============================== POSITION CONTROL =====================
ARM GAS  C:\Users\mgnocco\AppData\Local\Temp\ccN5vhdn.s 			page 74


1041:..\src/interruptions.c ****         case CONTROL_ANGLE:
1042:..\src/interruptions.c ****             pos_error = g_ref[MOTOR_IDX].pos - g_meas[SH_ENC_L].pos[0];
 3031              		.loc 1 1042 0
 3032 0254 97F84730 		ldrb	r3, [r7, #71]	@ zero_extendqisi2
 3033 0258 0F4A     		ldr	r2, .L242+4
 3034 025a 1B01     		lsls	r3, r3, #4
 3035 025c 1344     		add	r3, r3, r2
 3036 025e 1A68     		ldr	r2, [r3]
 3037 0260 97F83F30 		ldrb	r3, [r7, #63]	@ zero_extendqisi2
 3038 0264 0E49     		ldr	r1, .L242+12
 3039 0266 3420     		movs	r0, #52
 3040 0268 00FB03F3 		mul	r3, r0, r3
 3041 026c 0B44     		add	r3, r3, r1
 3042 026e 1B68     		ldr	r3, [r3]
 3043 0270 D31A     		subs	r3, r2, r3
 3044 0272 BB60     		str	r3, [r7, #8]
1043:..\src/interruptions.c **** 
1044:..\src/interruptions.c ****             pos_error_sum += pos_error;
 3045              		.loc 1 1044 0
 3046 0274 0B4B     		ldr	r3, .L242+16
 3047 0276 1A68     		ldr	r2, [r3]
 3048 0278 BB68     		ldr	r3, [r7, #8]
 3049 027a 1344     		add	r3, r3, r2
 3050 027c 094A     		ldr	r2, .L242+16
 3051 027e 1360     		str	r3, [r2]
1045:..\src/interruptions.c **** 
1046:..\src/interruptions.c ****             // anti-windup (for integral control)
1047:..\src/interruptions.c ****             if (pos_error_sum > ANTI_WINDUP)
 3052              		.loc 1 1047 0
 3053 0280 084B     		ldr	r3, .L242+16
 3054 0282 1B68     		ldr	r3, [r3]
 3055 0284 B3F57A7F 		cmp	r3, #1000
 3056 0288 1EDD     		ble	.L204
1048:..\src/interruptions.c ****                 pos_error_sum = ANTI_WINDUP;
 3057              		.loc 1 1048 0
 3058 028a 064B     		ldr	r3, .L242+16
 3059 028c 4FF47A72 		mov	r2, #1000
 3060 0290 1A60     		str	r2, [r3]
 3061 0292 21E0     		b	.L205
 3062              	.L243:
 3063              		.align	2
 3064              	.L242:
 3065 0294 00000000 		.word	c_mem
 3066 0298 00000000 		.word	g_ref
 3067 029c 00000000 		.word	g_refOld
 3068 02a0 00000000 		.word	g_meas
 3069 02a4 90000000 		.word	pos_error_sum.10325
 3070 02a8 80F0FA02 		.word	50000000
 3071 02ac 800F05FD 		.word	-50000000
 3072 02b0 94000000 		.word	prev_pos_err.10327
 3073 02b4 98000000 		.word	motor_dir.10330
 3074 02b8 9C000000 		.word	curr_error_sum.10326
 3075 02bc A0860100 		.word	100000
 3076 02c0 6079FEFF 		.word	-100000
 3077 02c4 A0000000 		.word	prev_curr_err.10328
 3078              	.L204:
1049:..\src/interruptions.c ****             else {
ARM GAS  C:\Users\mgnocco\AppData\Local\Temp\ccN5vhdn.s 			page 75


1050:..\src/interruptions.c **** 				if (pos_error_sum < -ANTI_WINDUP)
 3079              		.loc 1 1050 0
 3080 02c8 9D4B     		ldr	r3, .L244
 3081 02ca 1B68     		ldr	r3, [r3]
 3082 02cc 13F57A7F 		cmn	r3, #1000
 3083 02d0 02DA     		bge	.L205
1051:..\src/interruptions.c ****                 	pos_error_sum = -ANTI_WINDUP;
 3084              		.loc 1 1051 0
 3085 02d2 9B4B     		ldr	r3, .L244
 3086 02d4 9B4A     		ldr	r2, .L244+4
 3087 02d6 1A60     		str	r2, [r3]
 3088              	.L205:
1052:..\src/interruptions.c ****             }
1053:..\src/interruptions.c **** 
1054:..\src/interruptions.c ****             // Proportional
1055:..\src/interruptions.c ****             if (k_p != 0) 
 3089              		.loc 1 1055 0
 3090 02d8 BB6B     		ldr	r3, [r7, #56]
 3091 02da 002B     		cmp	r3, #0
 3092 02dc 05D0     		beq	.L206
1056:..\src/interruptions.c ****                 pwm_input = (int32)(k_p * pos_error) >> 16;
 3093              		.loc 1 1056 0
 3094 02de BB6B     		ldr	r3, [r7, #56]
 3095 02e0 BA68     		ldr	r2, [r7, #8]
 3096 02e2 02FB03F3 		mul	r3, r2, r3
 3097 02e6 1B14     		asrs	r3, r3, #16
 3098 02e8 FB64     		str	r3, [r7, #76]
 3099              	.L206:
1057:..\src/interruptions.c ****             
1058:..\src/interruptions.c **** 
1059:..\src/interruptions.c ****             // Integral
1060:..\src/interruptions.c ****             if (k_i != 0) 
 3100              		.loc 1 1060 0
 3101 02ea 7B6B     		ldr	r3, [r7, #52]
 3102 02ec 002B     		cmp	r3, #0
 3103 02ee 08D0     		beq	.L207
1061:..\src/interruptions.c ****                 pwm_input += (int32)(k_i * pos_error_sum) >> 16;
 3104              		.loc 1 1061 0
 3105 02f0 934B     		ldr	r3, .L244
 3106 02f2 1B68     		ldr	r3, [r3]
 3107 02f4 7A6B     		ldr	r2, [r7, #52]
 3108 02f6 02FB03F3 		mul	r3, r2, r3
 3109 02fa 1B14     		asrs	r3, r3, #16
 3110 02fc FA6C     		ldr	r2, [r7, #76]
 3111 02fe 1344     		add	r3, r3, r2
 3112 0300 FB64     		str	r3, [r7, #76]
 3113              	.L207:
1062:..\src/interruptions.c ****             
1063:..\src/interruptions.c **** 
1064:..\src/interruptions.c ****             // Derivative
1065:..\src/interruptions.c ****             if (k_d != 0) 
 3114              		.loc 1 1065 0
 3115 0302 3B6B     		ldr	r3, [r7, #48]
 3116 0304 002B     		cmp	r3, #0
 3117 0306 0AD0     		beq	.L208
1066:..\src/interruptions.c ****                 pwm_input += (int32)(k_d * (pos_error - prev_pos_err)) >> 16;
 3118              		.loc 1 1066 0
ARM GAS  C:\Users\mgnocco\AppData\Local\Temp\ccN5vhdn.s 			page 76


 3119 0308 8F4B     		ldr	r3, .L244+8
 3120 030a 1B68     		ldr	r3, [r3]
 3121 030c BA68     		ldr	r2, [r7, #8]
 3122 030e D31A     		subs	r3, r2, r3
 3123 0310 3A6B     		ldr	r2, [r7, #48]
 3124 0312 02FB03F3 		mul	r3, r2, r3
 3125 0316 1B14     		asrs	r3, r3, #16
 3126 0318 FA6C     		ldr	r2, [r7, #76]
 3127 031a 1344     		add	r3, r3, r2
 3128 031c FB64     		str	r3, [r7, #76]
 3129              	.L208:
1067:..\src/interruptions.c ****             
1068:..\src/interruptions.c **** 
1069:..\src/interruptions.c ****             // Update measure
1070:..\src/interruptions.c ****             prev_pos_err = pos_error;
 3130              		.loc 1 1070 0
 3131 031e 8A4A     		ldr	r2, .L244+8
 3132 0320 BB68     		ldr	r3, [r7, #8]
 3133 0322 1360     		str	r3, [r2]
1071:..\src/interruptions.c **** 
1072:..\src/interruptions.c ****             if (pwm_input > 0)
 3134              		.loc 1 1072 0
 3135 0324 FB6C     		ldr	r3, [r7, #76]
 3136 0326 002B     		cmp	r3, #0
 3137 0328 03DD     		ble	.L209
1073:..\src/interruptions.c ****                 motor_dir = TRUE;
 3138              		.loc 1 1073 0
 3139 032a 884B     		ldr	r3, .L244+12
 3140 032c 0122     		movs	r2, #1
 3141 032e 1A70     		strb	r2, [r3]
1074:..\src/interruptions.c ****             else
1075:..\src/interruptions.c ****                 motor_dir = FALSE;
1076:..\src/interruptions.c **** 
1077:..\src/interruptions.c ****         break;
 3142              		.loc 1 1077 0
 3143 0330 ADE0     		b	.L182
 3144              	.L209:
1075:..\src/interruptions.c **** 
 3145              		.loc 1 1075 0
 3146 0332 864B     		ldr	r3, .L244+12
 3147 0334 0022     		movs	r2, #0
 3148 0336 1A70     		strb	r2, [r3]
 3149              		.loc 1 1077 0
 3150 0338 A9E0     		b	.L182
 3151              	.L186:
1078:..\src/interruptions.c **** 
1079:..\src/interruptions.c ****         // ========================== CURRENT CONTROL ==========================
1080:..\src/interruptions.c ****         case CONTROL_CURRENT:
1081:..\src/interruptions.c ****             if(g_ref[MOTOR_IDX].onoff && tension_valid) {
 3152              		.loc 1 1081 0
 3153 033a 97F84730 		ldrb	r3, [r7, #71]	@ zero_extendqisi2
 3154 033e 844A     		ldr	r2, .L244+16
 3155 0340 1B01     		lsls	r3, r3, #4
 3156 0342 1344     		add	r3, r3, r2
 3157 0344 0C33     		adds	r3, r3, #12
 3158 0346 1B78     		ldrb	r3, [r3]	@ zero_extendqisi2
 3159 0348 002B     		cmp	r3, #0
ARM GAS  C:\Users\mgnocco\AppData\Local\Temp\ccN5vhdn.s 			page 77


 3160 034a 00F09D80 		beq	.L240
 3161              		.loc 1 1081 0 is_stmt 0 discriminator 1
 3162 034e 814B     		ldr	r3, .L244+20
 3163 0350 1B78     		ldrb	r3, [r3]	@ zero_extendqisi2
 3164 0352 002B     		cmp	r3, #0
 3165 0354 00F09880 		beq	.L240
1082:..\src/interruptions.c ****                 
1083:..\src/interruptions.c ****                 i_ref = g_ref[MOTOR_IDX].curr;
 3166              		.loc 1 1083 0 is_stmt 1
 3167 0358 97F84730 		ldrb	r3, [r7, #71]	@ zero_extendqisi2
 3168 035c 7C4A     		ldr	r2, .L244+16
 3169 035e 1B01     		lsls	r3, r3, #4
 3170 0360 1344     		add	r3, r3, r2
 3171 0362 0433     		adds	r3, r3, #4
 3172 0364 1B68     		ldr	r3, [r3]
 3173 0366 BB64     		str	r3, [r7, #72]
1084:..\src/interruptions.c **** 
1085:..\src/interruptions.c ****                 if (i_ref > SH_MOT->current_limit) 
 3174              		.loc 1 1085 0
 3175 0368 3B6C     		ldr	r3, [r7, #64]
 3176 036a B3F95C30 		ldrsh	r3, [r3, #92]
 3177 036e 1A46     		mov	r2, r3
 3178 0370 BB6C     		ldr	r3, [r7, #72]
 3179 0372 9A42     		cmp	r2, r3
 3180 0374 04DA     		bge	.L212
1086:..\src/interruptions.c ****                     i_ref = SH_MOT->current_limit;
 3181              		.loc 1 1086 0
 3182 0376 3B6C     		ldr	r3, [r7, #64]
 3183 0378 B3F95C30 		ldrsh	r3, [r3, #92]
 3184 037c BB64     		str	r3, [r7, #72]
 3185 037e 0BE0     		b	.L213
 3186              	.L212:
1087:..\src/interruptions.c ****                 else {
1088:..\src/interruptions.c ****                     if (i_ref < -SH_MOT->current_limit)
 3187              		.loc 1 1088 0
 3188 0380 3B6C     		ldr	r3, [r7, #64]
 3189 0382 B3F95C30 		ldrsh	r3, [r3, #92]
 3190 0386 5A42     		negs	r2, r3
 3191 0388 BB6C     		ldr	r3, [r7, #72]
 3192 038a 9A42     		cmp	r2, r3
 3193 038c 04DD     		ble	.L213
1089:..\src/interruptions.c ****                         i_ref = -SH_MOT->current_limit;
 3194              		.loc 1 1089 0
 3195 038e 3B6C     		ldr	r3, [r7, #64]
 3196 0390 B3F95C30 		ldrsh	r3, [r3, #92]
 3197 0394 5B42     		negs	r3, r3
 3198 0396 BB64     		str	r3, [r7, #72]
 3199              	.L213:
1090:..\src/interruptions.c ****                 }
1091:..\src/interruptions.c ****                 
1092:..\src/interruptions.c ****                 // current error
1093:..\src/interruptions.c ****                 curr_error = i_ref - g_meas[SH_ENC_L].curr;            
 3200              		.loc 1 1093 0
 3201 0398 97F83F30 		ldrb	r3, [r7, #63]	@ zero_extendqisi2
 3202 039c 6E4A     		ldr	r2, .L244+24
 3203 039e 3421     		movs	r1, #52
 3204 03a0 01FB03F3 		mul	r3, r1, r3
ARM GAS  C:\Users\mgnocco\AppData\Local\Temp\ccN5vhdn.s 			page 78


 3205 03a4 1344     		add	r3, r3, r2
 3206 03a6 0C33     		adds	r3, r3, #12
 3207 03a8 1B68     		ldr	r3, [r3]
 3208 03aa BA6C     		ldr	r2, [r7, #72]
 3209 03ac D31A     		subs	r3, r2, r3
 3210 03ae 7B60     		str	r3, [r7, #4]
1094:..\src/interruptions.c ****                 curr_error_sum += curr_error;
 3211              		.loc 1 1094 0
 3212 03b0 6A4B     		ldr	r3, .L244+28
 3213 03b2 1A68     		ldr	r2, [r3]
 3214 03b4 7B68     		ldr	r3, [r7, #4]
 3215 03b6 1344     		add	r3, r3, r2
 3216 03b8 684A     		ldr	r2, .L244+28
 3217 03ba 1360     		str	r3, [r2]
1095:..\src/interruptions.c ****                 
1096:..\src/interruptions.c ****                 if (curr_error_sum > CURR_INTEGRAL_SAT_LIMIT)
 3218              		.loc 1 1096 0
 3219 03bc 674B     		ldr	r3, .L244+28
 3220 03be 1B68     		ldr	r3, [r3]
 3221 03c0 674A     		ldr	r2, .L244+32
 3222 03c2 9342     		cmp	r3, r2
 3223 03c4 03DD     		ble	.L214
1097:..\src/interruptions.c ****                     curr_error_sum = CURR_INTEGRAL_SAT_LIMIT;
 3224              		.loc 1 1097 0
 3225 03c6 654B     		ldr	r3, .L244+28
 3226 03c8 654A     		ldr	r2, .L244+32
 3227 03ca 1A60     		str	r2, [r3]
 3228 03cc 07E0     		b	.L215
 3229              	.L214:
1098:..\src/interruptions.c ****                 else {
1099:..\src/interruptions.c ****                     if (curr_error_sum < -CURR_INTEGRAL_SAT_LIMIT) 
 3230              		.loc 1 1099 0
 3231 03ce 634B     		ldr	r3, .L244+28
 3232 03d0 1B68     		ldr	r3, [r3]
 3233 03d2 644A     		ldr	r2, .L244+36
 3234 03d4 9342     		cmp	r3, r2
 3235 03d6 02DA     		bge	.L215
1100:..\src/interruptions.c ****                         curr_error_sum = -CURR_INTEGRAL_SAT_LIMIT;
 3236              		.loc 1 1100 0
 3237 03d8 604B     		ldr	r3, .L244+28
 3238 03da 624A     		ldr	r2, .L244+36
 3239 03dc 1A60     		str	r2, [r3]
 3240              	.L215:
1101:..\src/interruptions.c ****                 }
1102:..\src/interruptions.c **** 
1103:..\src/interruptions.c ****                 pwm_input = 0;
 3241              		.loc 1 1103 0
 3242 03de 0023     		movs	r3, #0
 3243 03e0 FB64     		str	r3, [r7, #76]
1104:..\src/interruptions.c **** 
1105:..\src/interruptions.c ****                 // Proportional
1106:..\src/interruptions.c ****                 if (k_p_c != 0)
 3244              		.loc 1 1106 0
 3245 03e2 FB6A     		ldr	r3, [r7, #44]
 3246 03e4 002B     		cmp	r3, #0
 3247 03e6 07D0     		beq	.L216
1107:..\src/interruptions.c ****                     pwm_input += (int32)(k_p_c * curr_error) >> 16;
ARM GAS  C:\Users\mgnocco\AppData\Local\Temp\ccN5vhdn.s 			page 79


 3248              		.loc 1 1107 0
 3249 03e8 FB6A     		ldr	r3, [r7, #44]
 3250 03ea 7A68     		ldr	r2, [r7, #4]
 3251 03ec 02FB03F3 		mul	r3, r2, r3
 3252 03f0 1B14     		asrs	r3, r3, #16
 3253 03f2 FA6C     		ldr	r2, [r7, #76]
 3254 03f4 1344     		add	r3, r3, r2
 3255 03f6 FB64     		str	r3, [r7, #76]
 3256              	.L216:
1108:..\src/interruptions.c **** 
1109:..\src/interruptions.c ****                 // Integral
1110:..\src/interruptions.c ****                 if (k_i_c != 0)
 3257              		.loc 1 1110 0
 3258 03f8 BB6A     		ldr	r3, [r7, #40]
 3259 03fa 002B     		cmp	r3, #0
 3260 03fc 08D0     		beq	.L217
1111:..\src/interruptions.c ****                     pwm_input += (int32)(k_i_c * curr_error_sum) >> 16;
 3261              		.loc 1 1111 0
 3262 03fe 574B     		ldr	r3, .L244+28
 3263 0400 1B68     		ldr	r3, [r3]
 3264 0402 BA6A     		ldr	r2, [r7, #40]
 3265 0404 02FB03F3 		mul	r3, r2, r3
 3266 0408 1B14     		asrs	r3, r3, #16
 3267 040a FA6C     		ldr	r2, [r7, #76]
 3268 040c 1344     		add	r3, r3, r2
 3269 040e FB64     		str	r3, [r7, #76]
 3270              	.L217:
1112:..\src/interruptions.c **** 
1113:..\src/interruptions.c ****                 // Derivative
1114:..\src/interruptions.c ****                 if (k_d_c != 0)
 3271              		.loc 1 1114 0
 3272 0410 7B6A     		ldr	r3, [r7, #36]
 3273 0412 002B     		cmp	r3, #0
 3274 0414 0AD0     		beq	.L218
1115:..\src/interruptions.c ****                     pwm_input += (int32)(k_d_c * (curr_error - prev_curr_err)) >> 16;
 3275              		.loc 1 1115 0
 3276 0416 544B     		ldr	r3, .L244+40
 3277 0418 1B68     		ldr	r3, [r3]
 3278 041a 7A68     		ldr	r2, [r7, #4]
 3279 041c D31A     		subs	r3, r2, r3
 3280 041e 7A6A     		ldr	r2, [r7, #36]
 3281 0420 02FB03F3 		mul	r3, r2, r3
 3282 0424 1B14     		asrs	r3, r3, #16
 3283 0426 FA6C     		ldr	r2, [r7, #76]
 3284 0428 1344     		add	r3, r3, r2
 3285 042a FB64     		str	r3, [r7, #76]
 3286              	.L218:
1116:..\src/interruptions.c ****                 
1117:..\src/interruptions.c ****                 prev_curr_err = curr_error;
 3287              		.loc 1 1117 0
 3288 042c 4E4A     		ldr	r2, .L244+40
 3289 042e 7B68     		ldr	r3, [r7, #4]
 3290 0430 1360     		str	r3, [r2]
1118:..\src/interruptions.c ****                 
1119:..\src/interruptions.c ****                 if (pwm_input >= 0) 
 3291              		.loc 1 1119 0
 3292 0432 FB6C     		ldr	r3, [r7, #76]
ARM GAS  C:\Users\mgnocco\AppData\Local\Temp\ccN5vhdn.s 			page 80


 3293 0434 002B     		cmp	r3, #0
 3294 0436 03DB     		blt	.L219
1120:..\src/interruptions.c ****                     motor_dir = TRUE;
 3295              		.loc 1 1120 0
 3296 0438 444B     		ldr	r3, .L244+12
 3297 043a 0122     		movs	r2, #1
 3298 043c 1A70     		strb	r2, [r3]
1121:..\src/interruptions.c ****                 else
1122:..\src/interruptions.c ****                     motor_dir = FALSE;
1123:..\src/interruptions.c ****             }
1124:..\src/interruptions.c ****         break;
 3299              		.loc 1 1124 0
 3300 043e 23E0     		b	.L240
 3301              	.L219:
1122:..\src/interruptions.c ****             }
 3302              		.loc 1 1122 0
 3303 0440 424B     		ldr	r3, .L244+12
 3304 0442 0022     		movs	r2, #0
 3305 0444 1A70     		strb	r2, [r3]
 3306              		.loc 1 1124 0
 3307 0446 1FE0     		b	.L240
 3308              	.L185:
1125:..\src/interruptions.c ****         
1126:..\src/interruptions.c ****         // ================= DIRECT PWM CONTROL ================================
1127:..\src/interruptions.c ****         case CONTROL_PWM:
1128:..\src/interruptions.c **** 
1129:..\src/interruptions.c ****             pwm_input = g_ref[MOTOR_IDX].pwm;
 3309              		.loc 1 1129 0
 3310 0448 97F84730 		ldrb	r3, [r7, #71]	@ zero_extendqisi2
 3311 044c 404A     		ldr	r2, .L244+16
 3312 044e 1B01     		lsls	r3, r3, #4
 3313 0450 1344     		add	r3, r3, r2
 3314 0452 0833     		adds	r3, r3, #8
 3315 0454 1B68     		ldr	r3, [r3]
 3316 0456 FB64     		str	r3, [r7, #76]
1130:..\src/interruptions.c **** 
1131:..\src/interruptions.c ****             if (pwm_input > 0) 
 3317              		.loc 1 1131 0
 3318 0458 FB6C     		ldr	r3, [r7, #76]
 3319 045a 002B     		cmp	r3, #0
 3320 045c 03DD     		ble	.L220
1132:..\src/interruptions.c ****                 motor_dir = TRUE;
 3321              		.loc 1 1132 0
 3322 045e 3B4B     		ldr	r3, .L244+12
 3323 0460 0122     		movs	r2, #1
 3324 0462 1A70     		strb	r2, [r3]
 3325 0464 02E0     		b	.L221
 3326              	.L220:
1133:..\src/interruptions.c ****             else 
1134:..\src/interruptions.c ****                 motor_dir = FALSE;
 3327              		.loc 1 1134 0
 3328 0466 394B     		ldr	r3, .L244+12
 3329 0468 0022     		movs	r2, #0
 3330 046a 1A70     		strb	r2, [r3]
 3331              	.L221:
1135:..\src/interruptions.c ****             
1136:..\src/interruptions.c **** 
ARM GAS  C:\Users\mgnocco\AppData\Local\Temp\ccN5vhdn.s 			page 81


1137:..\src/interruptions.c ****             // pwm_input saturation
1138:..\src/interruptions.c ****             if (pwm_input < -PWM_MAX_VALUE_DC) 
 3332              		.loc 1 1138 0
 3333 046c FB6C     		ldr	r3, [r7, #76]
 3334 046e 13F1640F 		cmn	r3, #100
 3335 0472 03DA     		bge	.L222
1139:..\src/interruptions.c ****                 pwm_input = -PWM_MAX_VALUE_DC;
 3336              		.loc 1 1139 0
 3337 0474 6FF06303 		mvn	r3, #99
 3338 0478 FB64     		str	r3, [r7, #76]
1140:..\src/interruptions.c ****             else {
1141:..\src/interruptions.c **** 				if (pwm_input > PWM_MAX_VALUE_DC) 
1142:..\src/interruptions.c ****                 	pwm_input = PWM_MAX_VALUE_DC;
1143:..\src/interruptions.c ****         	}
1144:..\src/interruptions.c **** 
1145:..\src/interruptions.c ****         break;
 3339              		.loc 1 1145 0
 3340 047a 07E0     		b	.L241
 3341              	.L222:
1141:..\src/interruptions.c ****                 	pwm_input = PWM_MAX_VALUE_DC;
 3342              		.loc 1 1141 0
 3343 047c FB6C     		ldr	r3, [r7, #76]
 3344 047e 642B     		cmp	r3, #100
 3345 0480 04DD     		ble	.L241
1142:..\src/interruptions.c ****         	}
 3346              		.loc 1 1142 0
 3347 0482 6423     		movs	r3, #100
 3348 0484 FB64     		str	r3, [r7, #76]
 3349              		.loc 1 1145 0
 3350 0486 01E0     		b	.L241
 3351              	.L240:
1124:..\src/interruptions.c ****         
 3352              		.loc 1 1124 0
 3353 0488 00BF     		nop
 3354 048a 00E0     		b	.L182
 3355              	.L241:
 3356              		.loc 1 1145 0
 3357 048c 00BF     		nop
 3358              	.L182:
1146:..\src/interruptions.c ****             
1147:..\src/interruptions.c ****     }
1148:..\src/interruptions.c **** 
1149:..\src/interruptions.c ****     ////////////////////////////////////////////////////////////////////////////
1150:..\src/interruptions.c **** 
1151:..\src/interruptions.c ****     if(pwm_input >  PWM_MAX_VALUE_DC) 
 3359              		.loc 1 1151 0
 3360 048e FB6C     		ldr	r3, [r7, #76]
 3361 0490 642B     		cmp	r3, #100
 3362 0492 01DD     		ble	.L224
1152:..\src/interruptions.c ****         pwm_input =  PWM_MAX_VALUE_DC;
 3363              		.loc 1 1152 0
 3364 0494 6423     		movs	r3, #100
 3365 0496 FB64     		str	r3, [r7, #76]
 3366              	.L224:
1153:..\src/interruptions.c ****     if(pwm_input < -PWM_MAX_VALUE_DC) 
 3367              		.loc 1 1153 0
 3368 0498 FB6C     		ldr	r3, [r7, #76]
ARM GAS  C:\Users\mgnocco\AppData\Local\Temp\ccN5vhdn.s 			page 82


 3369 049a 13F1640F 		cmn	r3, #100
 3370 049e 02DA     		bge	.L225
1154:..\src/interruptions.c ****         pwm_input = -PWM_MAX_VALUE_DC;
 3371              		.loc 1 1154 0
 3372 04a0 6FF06303 		mvn	r3, #99
 3373 04a4 FB64     		str	r3, [r7, #76]
 3374              	.L225:
1155:..\src/interruptions.c **** 
1156:..\src/interruptions.c ****     if (SH_MOT->control_mode != CONTROL_PWM) 
 3375              		.loc 1 1156 0
 3376 04a6 3B6C     		ldr	r3, [r7, #64]
 3377 04a8 93F85F30 		ldrb	r3, [r3, #95]	@ zero_extendqisi2
 3378 04ac 012B     		cmp	r3, #1
 3379 04ae 0DD0     		beq	.L226
1157:..\src/interruptions.c ****         pwm_input = (((pwm_input << 10) / PWM_MAX_VALUE_DC) * dev_pwm_limit[0]) >> 10;
 3380              		.loc 1 1157 0
 3381 04b0 FB6C     		ldr	r3, [r7, #76]
 3382 04b2 9B02     		lsls	r3, r3, #10
 3383 04b4 2D4A     		ldr	r2, .L244+44
 3384 04b6 82FB0312 		smull	r1, r2, r2, r3
 3385 04ba 5211     		asrs	r2, r2, #5
 3386 04bc DB17     		asrs	r3, r3, #31
 3387 04be D31A     		subs	r3, r2, r3
 3388 04c0 2B4A     		ldr	r2, .L244+48
 3389 04c2 1288     		ldrh	r2, [r2]
 3390 04c4 02FB03F3 		mul	r3, r2, r3
 3391 04c8 9B12     		asrs	r3, r3, #10
 3392 04ca FB64     		str	r3, [r7, #76]
 3393              	.L226:
1158:..\src/interruptions.c ****  
1159:..\src/interruptions.c ****     //// RATE LIMITER ////
1160:..\src/interruptions.c ****     if((pwm_input-prev_pwm) > SH_MOT->pwm_rate_limiter){
 3394              		.loc 1 1160 0
 3395 04cc 294B     		ldr	r3, .L244+52
 3396 04ce 1B68     		ldr	r3, [r3]
 3397 04d0 FA6C     		ldr	r2, [r7, #76]
 3398 04d2 D31A     		subs	r3, r2, r3
 3399 04d4 3A6C     		ldr	r2, [r7, #64]
 3400 04d6 92F86120 		ldrb	r2, [r2, #97]	@ zero_extendqisi2
 3401 04da 9342     		cmp	r3, r2
 3402 04dc 08DD     		ble	.L227
1161:..\src/interruptions.c ****         pwm_input =  prev_pwm + SH_MOT->pwm_rate_limiter;
 3403              		.loc 1 1161 0
 3404 04de 3B6C     		ldr	r3, [r7, #64]
 3405 04e0 93F86130 		ldrb	r3, [r3, #97]	@ zero_extendqisi2
 3406 04e4 1A46     		mov	r2, r3
 3407 04e6 234B     		ldr	r3, .L244+52
 3408 04e8 1B68     		ldr	r3, [r3]
 3409 04ea 1344     		add	r3, r3, r2
 3410 04ec FB64     		str	r3, [r7, #76]
 3411 04ee 10E0     		b	.L228
 3412              	.L227:
1162:..\src/interruptions.c ****     }
1163:..\src/interruptions.c ****     else {
1164:..\src/interruptions.c ****         if((pwm_input-prev_pwm) < -SH_MOT->pwm_rate_limiter)
 3413              		.loc 1 1164 0
 3414 04f0 204B     		ldr	r3, .L244+52
ARM GAS  C:\Users\mgnocco\AppData\Local\Temp\ccN5vhdn.s 			page 83


 3415 04f2 1B68     		ldr	r3, [r3]
 3416 04f4 FA6C     		ldr	r2, [r7, #76]
 3417 04f6 D21A     		subs	r2, r2, r3
 3418 04f8 3B6C     		ldr	r3, [r7, #64]
 3419 04fa 93F86130 		ldrb	r3, [r3, #97]	@ zero_extendqisi2
 3420 04fe 5B42     		negs	r3, r3
 3421 0500 9A42     		cmp	r2, r3
 3422 0502 06DA     		bge	.L228
1165:..\src/interruptions.c ****             pwm_input =  prev_pwm - SH_MOT->pwm_rate_limiter;
 3423              		.loc 1 1165 0
 3424 0504 1B4B     		ldr	r3, .L244+52
 3425 0506 1B68     		ldr	r3, [r3]
 3426 0508 3A6C     		ldr	r2, [r7, #64]
 3427 050a 92F86120 		ldrb	r2, [r2, #97]	@ zero_extendqisi2
 3428 050e 9B1A     		subs	r3, r3, r2
 3429 0510 FB64     		str	r3, [r7, #76]
 3430              	.L228:
1166:..\src/interruptions.c ****     }
1167:..\src/interruptions.c ****     
1168:..\src/interruptions.c ****     if(pwm_input >  PWM_MAX_VALUE_DC) 
 3431              		.loc 1 1168 0
 3432 0512 FB6C     		ldr	r3, [r7, #76]
 3433 0514 642B     		cmp	r3, #100
 3434 0516 01DD     		ble	.L229
1169:..\src/interruptions.c ****         pwm_input =  PWM_MAX_VALUE_DC;
 3435              		.loc 1 1169 0
 3436 0518 6423     		movs	r3, #100
 3437 051a FB64     		str	r3, [r7, #76]
 3438              	.L229:
1170:..\src/interruptions.c ****     if(pwm_input < -PWM_MAX_VALUE_DC) 
 3439              		.loc 1 1170 0
 3440 051c FB6C     		ldr	r3, [r7, #76]
 3441 051e 13F1640F 		cmn	r3, #100
 3442 0522 02DA     		bge	.L230
1171:..\src/interruptions.c ****         pwm_input = -PWM_MAX_VALUE_DC;
 3443              		.loc 1 1171 0
 3444 0524 6FF06303 		mvn	r3, #99
 3445 0528 FB64     		str	r3, [r7, #76]
 3446              	.L230:
1172:..\src/interruptions.c ****     
1173:..\src/interruptions.c ****     prev_pwm = pwm_input;
 3447              		.loc 1 1173 0
 3448 052a 124A     		ldr	r2, .L244+52
 3449 052c FB6C     		ldr	r3, [r7, #76]
 3450 052e 1360     		str	r3, [r2]
1174:..\src/interruptions.c **** 	
1175:..\src/interruptions.c ****     pwm_sign[MOTOR_IDX] = SIGN(pwm_input);   
 3451              		.loc 1 1175 0
 3452 0530 97F84730 		ldrb	r3, [r7, #71]	@ zero_extendqisi2
 3453 0534 FA6C     		ldr	r2, [r7, #76]
 3454 0536 002A     		cmp	r2, #0
 3455 0538 1EDB     		blt	.L231
 3456              		.loc 1 1175 0 is_stmt 0 discriminator 1
 3457 053a 0121     		movs	r1, #1
 3458 053c 1EE0     		b	.L232
 3459              	.L245:
 3460 053e 00BF     		.align	2
ARM GAS  C:\Users\mgnocco\AppData\Local\Temp\ccN5vhdn.s 			page 84


 3461              	.L244:
 3462 0540 90000000 		.word	pos_error_sum.10325
 3463 0544 18FCFFFF 		.word	-1000
 3464 0548 94000000 		.word	prev_pos_err.10327
 3465 054c 98000000 		.word	motor_dir.10330
 3466 0550 00000000 		.word	g_ref
 3467 0554 00000000 		.word	tension_valid
 3468 0558 00000000 		.word	g_meas
 3469 055c 9C000000 		.word	curr_error_sum.10326
 3470 0560 A0860100 		.word	100000
 3471 0564 6079FEFF 		.word	-100000
 3472 0568 A0000000 		.word	prev_curr_err.10328
 3473 056c 1F85EB51 		.word	1374389535
 3474 0570 00000000 		.word	dev_pwm_limit
 3475 0574 A4000000 		.word	prev_pwm.10329
 3476              	.L231:
 3477              		.loc 1 1175 0 discriminator 2
 3478 0578 4FF0FF31 		mov	r1, #-1
 3479              	.L232:
 3480              		.loc 1 1175 0 discriminator 4
 3481 057c 5A4A     		ldr	r2, .L246
 3482 057e D154     		strb	r1, [r2, r3]
1176:..\src/interruptions.c ****     
1177:..\src/interruptions.c ****     if (SH_MOT->not_revers_motor_flag == TRUE) {
 3483              		.loc 1 1177 0 is_stmt 1 discriminator 4
 3484 0580 3B6C     		ldr	r3, [r7, #64]
 3485 0582 93F86230 		ldrb	r3, [r3, #98]	@ zero_extendqisi2
 3486 0586 012B     		cmp	r3, #1
 3487 0588 40F09680 		bne	.L233
1178:..\src/interruptions.c ****         // Block motor with pwm = 0 to exploit not reversible motor behaviour 
1179:..\src/interruptions.c ****     	if ( SH_MOT->control_mode != CONTROL_PWM && ((g_measOld[SH_ENC_L].pos[0]-g_meas[SH_ENC_L].pos[
 3488              		.loc 1 1179 0
 3489 058c 3B6C     		ldr	r3, [r7, #64]
 3490 058e 93F85F30 		ldrb	r3, [r3, #95]	@ zero_extendqisi2
 3491 0592 012B     		cmp	r3, #1
 3492 0594 00F08D80 		beq	.L234
 3493              		.loc 1 1179 0 is_stmt 0 discriminator 1
 3494 0598 97F83F30 		ldrb	r3, [r7, #63]	@ zero_extendqisi2
 3495 059c 534A     		ldr	r2, .L246+4
 3496 059e 3421     		movs	r1, #52
 3497 05a0 01FB03F3 		mul	r3, r1, r3
 3498 05a4 1344     		add	r3, r3, r2
 3499 05a6 1A68     		ldr	r2, [r3]
 3500 05a8 97F83F30 		ldrb	r3, [r7, #63]	@ zero_extendqisi2
 3501 05ac 5049     		ldr	r1, .L246+8
 3502 05ae 3420     		movs	r0, #52
 3503 05b0 00FB03F3 		mul	r3, r0, r3
 3504 05b4 0B44     		add	r3, r3, r1
 3505 05b6 1B68     		ldr	r3, [r3]
 3506 05b8 D31A     		subs	r3, r2, r3
 3507 05ba 312B     		cmp	r3, #49
 3508 05bc 79DC     		bgt	.L234
1180:..\src/interruptions.c ****             (g_measOld[SH_ENC_L].pos[0]-g_meas[SH_ENC_L].pos[0]) > -50) && 
 3509              		.loc 1 1180 0 is_stmt 1 discriminator 2
 3510 05be 97F83F30 		ldrb	r3, [r7, #63]	@ zero_extendqisi2
 3511 05c2 4A4A     		ldr	r2, .L246+4
 3512 05c4 3421     		movs	r1, #52
ARM GAS  C:\Users\mgnocco\AppData\Local\Temp\ccN5vhdn.s 			page 85


 3513 05c6 01FB03F3 		mul	r3, r1, r3
 3514 05ca 1344     		add	r3, r3, r2
 3515 05cc 1A68     		ldr	r2, [r3]
 3516 05ce 97F83F30 		ldrb	r3, [r7, #63]	@ zero_extendqisi2
 3517 05d2 4749     		ldr	r1, .L246+8
 3518 05d4 3420     		movs	r0, #52
 3519 05d6 00FB03F3 		mul	r3, r0, r3
 3520 05da 0B44     		add	r3, r3, r1
 3521 05dc 1B68     		ldr	r3, [r3]
 3522 05de D31A     		subs	r3, r2, r3
1179:..\src/interruptions.c ****             (g_measOld[SH_ENC_L].pos[0]-g_meas[SH_ENC_L].pos[0]) > -50) && 
 3523              		.loc 1 1179 0 discriminator 2
 3524 05e0 13F1310F 		cmn	r3, #49
 3525 05e4 65DB     		blt	.L234
1181:..\src/interruptions.c ****             ((g_refOld[MOTOR_IDX].pos - g_ref[MOTOR_IDX].pos) < 100 && (g_refOld[MOTOR_IDX].pos - g
 3526              		.loc 1 1181 0
 3527 05e6 97F84730 		ldrb	r3, [r7, #71]	@ zero_extendqisi2
 3528 05ea 424A     		ldr	r2, .L246+12
 3529 05ec 1B01     		lsls	r3, r3, #4
 3530 05ee 1344     		add	r3, r3, r2
 3531 05f0 1A68     		ldr	r2, [r3]
 3532 05f2 97F84730 		ldrb	r3, [r7, #71]	@ zero_extendqisi2
 3533 05f6 4049     		ldr	r1, .L246+16
 3534 05f8 1B01     		lsls	r3, r3, #4
 3535 05fa 0B44     		add	r3, r3, r1
 3536 05fc 1B68     		ldr	r3, [r3]
 3537 05fe D31A     		subs	r3, r2, r3
1180:..\src/interruptions.c ****             (g_measOld[SH_ENC_L].pos[0]-g_meas[SH_ENC_L].pos[0]) > -50) && 
 3538              		.loc 1 1180 0
 3539 0600 632B     		cmp	r3, #99
 3540 0602 56DC     		bgt	.L234
 3541              		.loc 1 1181 0
 3542 0604 97F84730 		ldrb	r3, [r7, #71]	@ zero_extendqisi2
 3543 0608 3A4A     		ldr	r2, .L246+12
 3544 060a 1B01     		lsls	r3, r3, #4
 3545 060c 1344     		add	r3, r3, r2
 3546 060e 1A68     		ldr	r2, [r3]
 3547 0610 97F84730 		ldrb	r3, [r7, #71]	@ zero_extendqisi2
 3548 0614 3849     		ldr	r1, .L246+16
 3549 0616 1B01     		lsls	r3, r3, #4
 3550 0618 0B44     		add	r3, r3, r1
 3551 061a 1B68     		ldr	r3, [r3]
 3552 061c D31A     		subs	r3, r2, r3
 3553 061e 13F1630F 		cmn	r3, #99
 3554 0622 46DB     		blt	.L234
1182:..\src/interruptions.c ****             position_counter++;
 3555              		.loc 1 1182 0
 3556 0624 354B     		ldr	r3, .L246+20
 3557 0626 1B68     		ldr	r3, [r3]
 3558 0628 0133     		adds	r3, r3, #1
 3559 062a 344A     		ldr	r2, .L246+20
 3560 062c 1360     		str	r3, [r2]
1183:..\src/interruptions.c ****             
1184:..\src/interruptions.c ****             if (position_counter >= 250) { 
 3561              		.loc 1 1184 0
 3562 062e 334B     		ldr	r3, .L246+20
 3563 0630 1B68     		ldr	r3, [r3]
ARM GAS  C:\Users\mgnocco\AppData\Local\Temp\ccN5vhdn.s 			page 86


 3564 0632 F92B     		cmp	r3, #249
 3565 0634 40D9     		bls	.L233
1185:..\src/interruptions.c ****                 if (SH_MOT->input_mode == INPUT_MODE_EXTERNAL && change_ext_ref_flag == FALSE) {
 3566              		.loc 1 1185 0
 3567 0636 3B6C     		ldr	r3, [r7, #64]
 3568 0638 93F85E30 		ldrb	r3, [r3, #94]	@ zero_extendqisi2
 3569 063c 002B     		cmp	r3, #0
 3570 063e 11D1     		bne	.L236
 3571              		.loc 1 1185 0 is_stmt 0 discriminator 1
 3572 0640 2F4B     		ldr	r3, .L246+24
 3573 0642 1B78     		ldrb	r3, [r3]	@ zero_extendqisi2
 3574 0644 002B     		cmp	r3, #0
 3575 0646 0DD1     		bne	.L236
1186:..\src/interruptions.c ****                     g_refNew[MOTOR_IDX].pos = g_meas[SH_ENC_L].pos[0];       // Needed only when US
 3576              		.loc 1 1186 0 is_stmt 1
 3577 0648 97F84730 		ldrb	r3, [r7, #71]	@ zero_extendqisi2
 3578 064c 97F83F20 		ldrb	r2, [r7, #63]	@ zero_extendqisi2
 3579 0650 2749     		ldr	r1, .L246+8
 3580 0652 3420     		movs	r0, #52
 3581 0654 00FB02F2 		mul	r2, r0, r2
 3582 0658 0A44     		add	r2, r2, r1
 3583 065a 1268     		ldr	r2, [r2]
 3584 065c 2949     		ldr	r1, .L246+28
 3585 065e 1B01     		lsls	r3, r3, #4
 3586 0660 0B44     		add	r3, r3, r1
 3587 0662 1A60     		str	r2, [r3]
 3588              	.L236:
1187:..\src/interruptions.c ****                 }
1188:..\src/interruptions.c ****                 g_ref[MOTOR_IDX].pos = g_meas[SH_ENC_L].pos[0];
 3589              		.loc 1 1188 0
 3590 0664 97F84730 		ldrb	r3, [r7, #71]	@ zero_extendqisi2
 3591 0668 97F83F20 		ldrb	r2, [r7, #63]	@ zero_extendqisi2
 3592 066c 2049     		ldr	r1, .L246+8
 3593 066e 3420     		movs	r0, #52
 3594 0670 00FB02F2 		mul	r2, r0, r2
 3595 0674 0A44     		add	r2, r2, r1
 3596 0676 1268     		ldr	r2, [r2]
 3597 0678 1F49     		ldr	r1, .L246+16
 3598 067a 1B01     		lsls	r3, r3, #4
 3599 067c 0B44     		add	r3, r3, r1
 3600 067e 1A60     		str	r2, [r3]
1189:..\src/interruptions.c ****                 
1190:..\src/interruptions.c ****                 if (position_counter == 250){
 3601              		.loc 1 1190 0
 3602 0680 1E4B     		ldr	r3, .L246+20
 3603 0682 1B68     		ldr	r3, [r3]
 3604 0684 FA2B     		cmp	r3, #250
 3605 0686 11D1     		bne	.L237
1191:..\src/interruptions.c ****                     // To do only once
1192:..\src/interruptions.c ****                     g_meas[SH_ENC_L].hold_curr = g_meas[SH_ENC_L].curr;
 3606              		.loc 1 1192 0
 3607 0688 97F83F30 		ldrb	r3, [r7, #63]	@ zero_extendqisi2
 3608 068c 97F83F20 		ldrb	r2, [r7, #63]	@ zero_extendqisi2
 3609 0690 1749     		ldr	r1, .L246+8
 3610 0692 3420     		movs	r0, #52
 3611 0694 00FB02F2 		mul	r2, r0, r2
 3612 0698 0A44     		add	r2, r2, r1
ARM GAS  C:\Users\mgnocco\AppData\Local\Temp\ccN5vhdn.s 			page 87


 3613 069a 0C32     		adds	r2, r2, #12
 3614 069c 1268     		ldr	r2, [r2]
 3615 069e 1449     		ldr	r1, .L246+8
 3616 06a0 3420     		movs	r0, #52
 3617 06a2 00FB03F3 		mul	r3, r0, r3
 3618 06a6 0B44     		add	r3, r3, r1
 3619 06a8 1433     		adds	r3, r3, #20
 3620 06aa 1A60     		str	r2, [r3]
 3621              	.L237:
1193:..\src/interruptions.c ****                 }
1194:..\src/interruptions.c ****                 pwm_input = 0;            
 3622              		.loc 1 1194 0
 3623 06ac 0023     		movs	r3, #0
 3624 06ae FB64     		str	r3, [r7, #76]
1184:..\src/interruptions.c ****                 if (SH_MOT->input_mode == INPUT_MODE_EXTERNAL && change_ext_ref_flag == FALSE) {
 3625              		.loc 1 1184 0
 3626 06b0 02E0     		b	.L233
 3627              	.L234:
1195:..\src/interruptions.c ****             }
1196:..\src/interruptions.c ****         }
1197:..\src/interruptions.c ****         else {
1198:..\src/interruptions.c ****             position_counter = 0;
 3628              		.loc 1 1198 0
 3629 06b2 124B     		ldr	r3, .L246+20
 3630 06b4 0022     		movs	r2, #0
 3631 06b6 1A60     		str	r2, [r3]
 3632              	.L233:
1199:..\src/interruptions.c ****         }
1200:..\src/interruptions.c ****     }
1201:..\src/interruptions.c ****     
1202:..\src/interruptions.c ****     if (motor_dir)
 3633              		.loc 1 1202 0
 3634 06b8 134B     		ldr	r3, .L246+32
 3635 06ba 1B78     		ldrb	r3, [r3]	@ zero_extendqisi2
 3636 06bc 002B     		cmp	r3, #0
 3637 06be 03D0     		beq	.L238
1203:..\src/interruptions.c ****         MOTOR_DIR_1_Write(0x01);
 3638              		.loc 1 1203 0
 3639 06c0 0120     		movs	r0, #1
 3640 06c2 FFF7FEFF 		bl	MOTOR_DIR_1_Write
 3641 06c6 02E0     		b	.L239
 3642              	.L238:
1204:..\src/interruptions.c ****     else
1205:..\src/interruptions.c ****         MOTOR_DIR_1_Write(0x00);
 3643              		.loc 1 1205 0
 3644 06c8 0020     		movs	r0, #0
 3645 06ca FFF7FEFF 		bl	MOTOR_DIR_1_Write
 3646              	.L239:
1206:..\src/interruptions.c **** 
1207:..\src/interruptions.c ****     PWM_MOTORS_WriteCompare1(abs(pwm_input));
 3647              		.loc 1 1207 0
 3648 06ce FB6C     		ldr	r3, [r7, #76]
 3649 06d0 002B     		cmp	r3, #0
 3650 06d2 B8BF     		it	lt
 3651 06d4 5B42     		rsblt	r3, r3, #0
 3652 06d6 DBB2     		uxtb	r3, r3
 3653 06d8 1846     		mov	r0, r3
ARM GAS  C:\Users\mgnocco\AppData\Local\Temp\ccN5vhdn.s 			page 88


 3654 06da FFF7FEFF 		bl	PWM_MOTORS_WriteCompare1
1208:..\src/interruptions.c **** }
 3655              		.loc 1 1208 0
 3656 06de 00BF     		nop
 3657 06e0 5037     		adds	r7, r7, #80
 3658              		.cfi_def_cfa_offset 8
 3659 06e2 BD46     		mov	sp, r7
 3660              		.cfi_def_cfa_register 13
 3661              		@ sp needed
 3662 06e4 80BD     		pop	{r7, pc}
 3663              	.L247:
 3664 06e6 00BF     		.align	2
 3665              	.L246:
 3666 06e8 00000000 		.word	pwm_sign
 3667 06ec 00000000 		.word	g_measOld
 3668 06f0 00000000 		.word	g_meas
 3669 06f4 00000000 		.word	g_refOld
 3670 06f8 00000000 		.word	g_ref
 3671 06fc A8000000 		.word	position_counter.10331
 3672 0700 00000000 		.word	change_ext_ref_flag
 3673 0704 00000000 		.word	g_refNew
 3674 0708 98000000 		.word	motor_dir.10330
 3675              		.cfi_endproc
 3676              	.LFE71:
 3677              		.size	motor_control_SH, .-motor_control_SH
 3678              		.section	.text.motor_control_generic,"ax",%progbits
 3679              		.align	2
 3680              		.global	motor_control_generic
 3681              		.thumb
 3682              		.thumb_func
 3683              		.type	motor_control_generic, %function
 3684              	motor_control_generic:
 3685              	.LFB72:
1209:..\src/interruptions.c **** 
1210:..\src/interruptions.c **** //==============================================================================
1211:..\src/interruptions.c **** //                                                         MOTOR CONTROL GENERIC
1212:..\src/interruptions.c **** //==============================================================================
1213:..\src/interruptions.c **** void motor_control_generic(uint8 idx) {
 3686              		.loc 1 1213 0
 3687              		.cfi_startproc
 3688              		@ args = 0, pretend = 0, frame = 80
 3689              		@ frame_needed = 1, uses_anonymous_args = 0
 3690 0000 90B5     		push	{r4, r7, lr}
 3691              		.cfi_def_cfa_offset 12
 3692              		.cfi_offset 4, -12
 3693              		.cfi_offset 7, -8
 3694              		.cfi_offset 14, -4
 3695 0002 95B0     		sub	sp, sp, #84
 3696              		.cfi_def_cfa_offset 96
 3697 0004 00AF     		add	r7, sp, #0
 3698              		.cfi_def_cfa_register 7
 3699 0006 0346     		mov	r3, r0
 3700 0008 FB71     		strb	r3, [r7, #7]
1214:..\src/interruptions.c ****     
1215:..\src/interruptions.c ****     int32 CYDATA pwm_input = 0;
 3701              		.loc 1 1215 0
 3702 000a 0023     		movs	r3, #0
ARM GAS  C:\Users\mgnocco\AppData\Local\Temp\ccN5vhdn.s 			page 89


 3703 000c FB64     		str	r3, [r7, #76]
1216:..\src/interruptions.c ****     int32 CYDATA pos_error;         // position error
1217:..\src/interruptions.c ****     int32 CYDATA curr_error;        // current error
1218:..\src/interruptions.c ****     int32 CYDATA i_ref;             // current reference
1219:..\src/interruptions.c **** 
1220:..\src/interruptions.c ****     struct st_motor* MOT = &c_mem.motor[idx]; // Motor struct
 3704              		.loc 1 1220 0
 3705 000e FA79     		ldrb	r2, [r7, #7]	@ zero_extendqisi2
 3706 0010 1346     		mov	r3, r2
 3707 0012 DB00     		lsls	r3, r3, #3
 3708 0014 9B1A     		subs	r3, r3, r2
 3709 0016 1B01     		lsls	r3, r3, #4
 3710 0018 B033     		adds	r3, r3, #176
 3711 001a 9D4A     		ldr	r2, .L339
 3712 001c 1344     		add	r3, r3, r2
 3713 001e 7B64     		str	r3, [r7, #68]
1221:..\src/interruptions.c ****     uint8 ENC_L = MOT->encoder_line;          // Associated encoder line
 3714              		.loc 1 1221 0
 3715 0020 7B6C     		ldr	r3, [r7, #68]
 3716 0022 93F86030 		ldrb	r3, [r3, #96]
 3717 0026 87F84330 		strb	r3, [r7, #67]
1222:..\src/interruptions.c ****     
1223:..\src/interruptions.c ****     int32 CYDATA k_p = MOT->k_p;  
 3718              		.loc 1 1223 0
 3719 002a 7B6C     		ldr	r3, [r7, #68]
 3720 002c 1B68     		ldr	r3, [r3]
 3721 002e FB63     		str	r3, [r7, #60]
1224:..\src/interruptions.c ****     int32 CYDATA k_i = MOT->k_i; 
 3722              		.loc 1 1224 0
 3723 0030 7B6C     		ldr	r3, [r7, #68]
 3724 0032 5B68     		ldr	r3, [r3, #4]
 3725 0034 BB63     		str	r3, [r7, #56]
1225:..\src/interruptions.c ****     int32 CYDATA k_d = MOT->k_d; 
 3726              		.loc 1 1225 0
 3727 0036 7B6C     		ldr	r3, [r7, #68]
 3728 0038 9B68     		ldr	r3, [r3, #8]
 3729 003a 7B63     		str	r3, [r7, #52]
1226:..\src/interruptions.c **** 
1227:..\src/interruptions.c ****     int32 CYDATA k_p_c = MOT->k_p_c;  
 3730              		.loc 1 1227 0
 3731 003c 7B6C     		ldr	r3, [r7, #68]
 3732 003e DB68     		ldr	r3, [r3, #12]
 3733 0040 3B63     		str	r3, [r7, #48]
1228:..\src/interruptions.c ****     int32 CYDATA k_i_c = MOT->k_i_c; 
 3734              		.loc 1 1228 0
 3735 0042 7B6C     		ldr	r3, [r7, #68]
 3736 0044 1B69     		ldr	r3, [r3, #16]
 3737 0046 FB62     		str	r3, [r7, #44]
1229:..\src/interruptions.c ****     int32 CYDATA k_d_c = MOT->k_d_c;   
 3738              		.loc 1 1229 0
 3739 0048 7B6C     		ldr	r3, [r7, #68]
 3740 004a 5B69     		ldr	r3, [r3, #20]
 3741 004c BB62     		str	r3, [r7, #40]
1230:..\src/interruptions.c **** 
1231:..\src/interruptions.c ****     int32 CYDATA k_p_dl = MOT->k_p_dl;  
 3742              		.loc 1 1231 0
 3743 004e 7B6C     		ldr	r3, [r7, #68]
ARM GAS  C:\Users\mgnocco\AppData\Local\Temp\ccN5vhdn.s 			page 90


 3744 0050 9B69     		ldr	r3, [r3, #24]
 3745 0052 7B62     		str	r3, [r7, #36]
1232:..\src/interruptions.c ****     int32 CYDATA k_i_dl = MOT->k_i_dl; 
 3746              		.loc 1 1232 0
 3747 0054 7B6C     		ldr	r3, [r7, #68]
 3748 0056 DB69     		ldr	r3, [r3, #28]
 3749 0058 3B62     		str	r3, [r7, #32]
1233:..\src/interruptions.c ****     int32 CYDATA k_d_dl = MOT->k_d_dl;
 3750              		.loc 1 1233 0
 3751 005a 7B6C     		ldr	r3, [r7, #68]
 3752 005c 1B6A     		ldr	r3, [r3, #32]
 3753 005e FB61     		str	r3, [r7, #28]
1234:..\src/interruptions.c ****     
1235:..\src/interruptions.c ****     int32 CYDATA k_p_c_dl = MOT->k_p_c_dl;  
 3754              		.loc 1 1235 0
 3755 0060 7B6C     		ldr	r3, [r7, #68]
 3756 0062 5B6A     		ldr	r3, [r3, #36]
 3757 0064 BB61     		str	r3, [r7, #24]
1236:..\src/interruptions.c ****     int32 CYDATA k_i_c_dl = MOT->k_i_c_dl; 
 3758              		.loc 1 1236 0
 3759 0066 7B6C     		ldr	r3, [r7, #68]
 3760 0068 9B6A     		ldr	r3, [r3, #40]
 3761 006a 7B61     		str	r3, [r7, #20]
1237:..\src/interruptions.c ****     int32 CYDATA k_d_c_dl = MOT->k_d_c_dl;   
 3762              		.loc 1 1237 0
 3763 006c 7B6C     		ldr	r3, [r7, #68]
 3764 006e DB6A     		ldr	r3, [r3, #44]
 3765 0070 3B61     		str	r3, [r7, #16]
1238:..\src/interruptions.c **** 
1239:..\src/interruptions.c ****     // Static Variables
1240:..\src/interruptions.c **** 
1241:..\src/interruptions.c ****     static int32 pos_error_sum[NUM_OF_MOTORS];     // position error sum for integral
1242:..\src/interruptions.c ****     static int32 curr_error_sum[NUM_OF_MOTORS];    // current error sum for integral
1243:..\src/interruptions.c ****     
1244:..\src/interruptions.c ****     static int32 prev_pos_err[NUM_OF_MOTORS];      // previous position error for deriv. control
1245:..\src/interruptions.c ****     static int32 prev_curr_err[NUM_OF_MOTORS];     // previous current error for deriv. control
1246:..\src/interruptions.c ****     static int32 prev_pwm[NUM_OF_MOTORS];
1247:..\src/interruptions.c **** 
1248:..\src/interruptions.c ****     static CYBIT motor_dir[NUM_OF_MOTORS] = {FALSE, FALSE};
1249:..\src/interruptions.c ****     static uint32 position_counter[NUM_OF_MOTORS] = {0, 0};
1250:..\src/interruptions.c **** 
1251:..\src/interruptions.c ****     // ======================= UPDATE MOTOR REFERENCE ==========================            
1252:..\src/interruptions.c ****     compute_reference(idx, &g_ref[idx], &g_refOld[idx]);
 3766              		.loc 1 1252 0
 3767 0072 FB79     		ldrb	r3, [r7, #7]	@ zero_extendqisi2
 3768 0074 1B01     		lsls	r3, r3, #4
 3769 0076 874A     		ldr	r2, .L339+4
 3770 0078 9918     		adds	r1, r3, r2
 3771 007a FB79     		ldrb	r3, [r7, #7]	@ zero_extendqisi2
 3772 007c 1B01     		lsls	r3, r3, #4
 3773 007e 864A     		ldr	r2, .L339+8
 3774 0080 1A44     		add	r2, r2, r3
 3775 0082 FB79     		ldrb	r3, [r7, #7]	@ zero_extendqisi2
 3776 0084 1846     		mov	r0, r3
 3777 0086 FFF7FEFF 		bl	compute_reference
1253:..\src/interruptions.c ****     
1254:..\src/interruptions.c ****    
ARM GAS  C:\Users\mgnocco\AppData\Local\Temp\ccN5vhdn.s 			page 91


1255:..\src/interruptions.c ****     switch(MOT->control_mode) {
 3778              		.loc 1 1255 0
 3779 008a 7B6C     		ldr	r3, [r7, #68]
 3780 008c 93F85F30 		ldrb	r3, [r3, #95]	@ zero_extendqisi2
 3781 0090 032B     		cmp	r3, #3
 3782 0092 00F28082 		bhi	.L249
 3783 0096 01A2     		adr	r2, .L251
 3784 0098 52F823F0 		ldr	pc, [r2, r3, lsl #2]
 3785              		.p2align 2
 3786              	.L251:
 3787 009c ED020000 		.word	.L250+1
 3788 00a0 F7040000 		.word	.L252+1
 3789 00a4 C5030000 		.word	.L253+1
 3790 00a8 AD000000 		.word	.L254+1
 3791              		.p2align 1
 3792              	.L254:
1256:..\src/interruptions.c ****         // ======================= CURRENT AND POSITION CONTROL =======================
1257:..\src/interruptions.c ****         case CURR_AND_POS_CONTROL:
1258:..\src/interruptions.c ****             pos_error = g_ref[0].pos - g_meas[ENC_L].pos[0];
 3793              		.loc 1 1258 0
 3794 00ac 794B     		ldr	r3, .L339+4
 3795 00ae 1A68     		ldr	r2, [r3]
 3796 00b0 97F84330 		ldrb	r3, [r7, #67]	@ zero_extendqisi2
 3797 00b4 7949     		ldr	r1, .L339+12
 3798 00b6 3420     		movs	r0, #52
 3799 00b8 00FB03F3 		mul	r3, r0, r3
 3800 00bc 0B44     		add	r3, r3, r1
 3801 00be 1B68     		ldr	r3, [r3]
 3802 00c0 D31A     		subs	r3, r2, r3
 3803 00c2 FB60     		str	r3, [r7, #12]
1259:..\src/interruptions.c **** 
1260:..\src/interruptions.c ****             pos_error_sum[idx] += pos_error;
 3804              		.loc 1 1260 0
 3805 00c4 FB79     		ldrb	r3, [r7, #7]	@ zero_extendqisi2
 3806 00c6 FA79     		ldrb	r2, [r7, #7]	@ zero_extendqisi2
 3807 00c8 7549     		ldr	r1, .L339+16
 3808 00ca 51F82210 		ldr	r1, [r1, r2, lsl #2]
 3809 00ce FA68     		ldr	r2, [r7, #12]
 3810 00d0 0A44     		add	r2, r2, r1
 3811 00d2 7349     		ldr	r1, .L339+16
 3812 00d4 41F82320 		str	r2, [r1, r3, lsl #2]
1261:..\src/interruptions.c **** 
1262:..\src/interruptions.c ****             // error_sum saturation
1263:..\src/interruptions.c ****             if (pos_error_sum[idx] > POS_INTEGRAL_SAT_LIMIT)
 3813              		.loc 1 1263 0
 3814 00d8 FB79     		ldrb	r3, [r7, #7]	@ zero_extendqisi2
 3815 00da 714A     		ldr	r2, .L339+16
 3816 00dc 52F82330 		ldr	r3, [r2, r3, lsl #2]
 3817 00e0 704A     		ldr	r2, .L339+20
 3818 00e2 9342     		cmp	r3, r2
 3819 00e4 05DD     		ble	.L255
1264:..\src/interruptions.c ****                 pos_error_sum[idx] = POS_INTEGRAL_SAT_LIMIT;
 3820              		.loc 1 1264 0
 3821 00e6 FB79     		ldrb	r3, [r7, #7]	@ zero_extendqisi2
 3822 00e8 6D4A     		ldr	r2, .L339+16
 3823 00ea 6E49     		ldr	r1, .L339+20
 3824 00ec 42F82310 		str	r1, [r2, r3, lsl #2]
ARM GAS  C:\Users\mgnocco\AppData\Local\Temp\ccN5vhdn.s 			page 92


 3825 00f0 0BE0     		b	.L256
 3826              	.L255:
1265:..\src/interruptions.c ****             else {
1266:..\src/interruptions.c ****                 if (pos_error_sum[idx] < -POS_INTEGRAL_SAT_LIMIT) 
 3827              		.loc 1 1266 0
 3828 00f2 FB79     		ldrb	r3, [r7, #7]	@ zero_extendqisi2
 3829 00f4 6A4A     		ldr	r2, .L339+16
 3830 00f6 52F82330 		ldr	r3, [r2, r3, lsl #2]
 3831 00fa 6B4A     		ldr	r2, .L339+24
 3832 00fc 9342     		cmp	r3, r2
 3833 00fe 04DA     		bge	.L256
1267:..\src/interruptions.c ****                     pos_error_sum[idx] = -POS_INTEGRAL_SAT_LIMIT;
 3834              		.loc 1 1267 0
 3835 0100 FB79     		ldrb	r3, [r7, #7]	@ zero_extendqisi2
 3836 0102 674A     		ldr	r2, .L339+16
 3837 0104 6849     		ldr	r1, .L339+24
 3838 0106 42F82310 		str	r1, [r2, r3, lsl #2]
 3839              	.L256:
1268:..\src/interruptions.c ****             }
1269:..\src/interruptions.c ****             
1270:..\src/interruptions.c ****             // ------ position PID control ------
1271:..\src/interruptions.c **** 
1272:..\src/interruptions.c ****             i_ref = 0;
 3840              		.loc 1 1272 0
 3841 010a 0023     		movs	r3, #0
 3842 010c BB64     		str	r3, [r7, #72]
1273:..\src/interruptions.c ****             
1274:..\src/interruptions.c ****             // Proportional
1275:..\src/interruptions.c ****             if (k_p_dl != 0)
 3843              		.loc 1 1275 0
 3844 010e 7B6A     		ldr	r3, [r7, #36]
 3845 0110 002B     		cmp	r3, #0
 3846 0112 07D0     		beq	.L257
1276:..\src/interruptions.c ****                 i_ref += (int32)(k_p_dl * pos_error) >> 16;
 3847              		.loc 1 1276 0
 3848 0114 7B6A     		ldr	r3, [r7, #36]
 3849 0116 FA68     		ldr	r2, [r7, #12]
 3850 0118 02FB03F3 		mul	r3, r2, r3
 3851 011c 1B14     		asrs	r3, r3, #16
 3852 011e BA6C     		ldr	r2, [r7, #72]
 3853 0120 1344     		add	r3, r3, r2
 3854 0122 BB64     		str	r3, [r7, #72]
 3855              	.L257:
1277:..\src/interruptions.c **** 
1278:..\src/interruptions.c ****             // Integral
1279:..\src/interruptions.c ****             if (k_i_dl != 0)
 3856              		.loc 1 1279 0
 3857 0124 3B6A     		ldr	r3, [r7, #32]
 3858 0126 002B     		cmp	r3, #0
 3859 0128 0AD0     		beq	.L258
1280:..\src/interruptions.c ****                 i_ref += (int32)(k_i_dl * pos_error_sum[idx]) >> 16;
 3860              		.loc 1 1280 0
 3861 012a FB79     		ldrb	r3, [r7, #7]	@ zero_extendqisi2
 3862 012c 5C4A     		ldr	r2, .L339+16
 3863 012e 52F82330 		ldr	r3, [r2, r3, lsl #2]
 3864 0132 3A6A     		ldr	r2, [r7, #32]
 3865 0134 02FB03F3 		mul	r3, r2, r3
ARM GAS  C:\Users\mgnocco\AppData\Local\Temp\ccN5vhdn.s 			page 93


 3866 0138 1B14     		asrs	r3, r3, #16
 3867 013a BA6C     		ldr	r2, [r7, #72]
 3868 013c 1344     		add	r3, r3, r2
 3869 013e BB64     		str	r3, [r7, #72]
 3870              	.L258:
1281:..\src/interruptions.c **** 
1282:..\src/interruptions.c ****             // Derivative
1283:..\src/interruptions.c ****             if (k_d_dl != 0)
 3871              		.loc 1 1283 0
 3872 0140 FB69     		ldr	r3, [r7, #28]
 3873 0142 002B     		cmp	r3, #0
 3874 0144 0CD0     		beq	.L259
1284:..\src/interruptions.c ****                 i_ref += (int32)(k_d_dl * (pos_error - prev_pos_err[idx])) >> 16;
 3875              		.loc 1 1284 0
 3876 0146 FB79     		ldrb	r3, [r7, #7]	@ zero_extendqisi2
 3877 0148 584A     		ldr	r2, .L339+28
 3878 014a 52F82330 		ldr	r3, [r2, r3, lsl #2]
 3879 014e FA68     		ldr	r2, [r7, #12]
 3880 0150 D31A     		subs	r3, r2, r3
 3881 0152 FA69     		ldr	r2, [r7, #28]
 3882 0154 02FB03F3 		mul	r3, r2, r3
 3883 0158 1B14     		asrs	r3, r3, #16
 3884 015a BA6C     		ldr	r2, [r7, #72]
 3885 015c 1344     		add	r3, r3, r2
 3886 015e BB64     		str	r3, [r7, #72]
 3887              	.L259:
1285:..\src/interruptions.c ****                         
1286:..\src/interruptions.c ****             // Update previous position
1287:..\src/interruptions.c ****             prev_pos_err[idx] = pos_error;
 3888              		.loc 1 1287 0
 3889 0160 FB79     		ldrb	r3, [r7, #7]	@ zero_extendqisi2
 3890 0162 5249     		ldr	r1, .L339+28
 3891 0164 FA68     		ldr	r2, [r7, #12]
