ARM GAS  C:\Users\mgnocco\AppData\Local\Temp\ccDvY9Ih.s 			page 1


   1              		.syntax unified
   2              		.cpu cortex-m3
   3              		.fpu softvfp
   4              		.eabi_attribute 20, 1
   5              		.eabi_attribute 21, 1
   6              		.eabi_attribute 23, 3
   7              		.eabi_attribute 24, 1
   8              		.eabi_attribute 25, 1
   9              		.eabi_attribute 26, 1
  10              		.eabi_attribute 30, 6
  11              		.eabi_attribute 34, 1
  12              		.eabi_attribute 18, 4
  13              		.thumb
  14              		.syntax unified
  15              		.file	"main.c"
  16              		.text
  17              	.Ltext0:
  18              		.cfi_sections	.debug_frame
  19              		.section	.text.main,"ax",%progbits
  20              		.align	2
  21              		.global	main
  22              		.thumb
  23              		.thumb_func
  24              		.type	main, %function
  25              	main:
  26              	.LFB64:
  27              		.file 1 "..\\src\\main.c"
   1:..\src/main.c **** // ----------------------------------------------------------------------------
   2:..\src/main.c **** // BSD 3-Clause License
   3:..\src/main.c **** 
   4:..\src/main.c **** // Copyright (c) 2016, qbrobotics
   5:..\src/main.c **** // Copyright (c) 2017-2020, Centro "E.Piaggio"
   6:..\src/main.c **** // All rights reserved.
   7:..\src/main.c **** 
   8:..\src/main.c **** // Redistribution and use in source and binary forms, with or without
   9:..\src/main.c **** // modification, are permitted provided that the following conditions are met:
  10:..\src/main.c **** 
  11:..\src/main.c **** // * Redistributions of source code must retain the above copyright notice, this
  12:..\src/main.c **** //   list of conditions and the following disclaimer.
  13:..\src/main.c **** 
  14:..\src/main.c **** // * Redistributions in binary form must reproduce the above copyright notice,
  15:..\src/main.c **** //   this list of conditions and the following disclaimer in the documentation
  16:..\src/main.c **** //   and/or other materials provided with the distribution.
  17:..\src/main.c **** 
  18:..\src/main.c **** // * Neither the name of the copyright holder nor the names of its
  19:..\src/main.c **** //   contributors may be used to endorse or promote products derived from
  20:..\src/main.c **** //   this software without specific prior written permission.
  21:..\src/main.c **** 
  22:..\src/main.c **** // THIS SOFTWARE IS PROVIDED BY THE COPYRIGHT HOLDERS AND CONTRIBUTORS "AS IS"
  23:..\src/main.c **** // AND ANY EXPRESS OR IMPLIED WARRANTIES, INCLUDING, BUT NOT LIMITED TO, THE
  24:..\src/main.c **** // IMPLIED WARRANTIES OF MERCHANTABILITY AND FITNESS FOR A PARTICULAR PURPOSE ARE
  25:..\src/main.c **** // DISCLAIMED. IN NO EVENT SHALL THE COPYRIGHT HOLDER OR CONTRIBUTORS BE LIABLE
  26:..\src/main.c **** // FOR ANY DIRECT, INDIRECT, INCIDENTAL, SPECIAL, EXEMPLARY, OR CONSEQUENTIAL
  27:..\src/main.c **** // DAMAGES (INCLUDING, BUT NOT LIMITED TO, PROCUREMENT OF SUBSTITUTE GOODS OR
  28:..\src/main.c **** // SERVICES; LOSS OF USE, DATA, OR PROFITS; OR BUSINESS INTERRUPTION) HOWEVER
  29:..\src/main.c **** // CAUSED AND ON ANY THEORY OF LIABILITY, WHETHER IN CONTRACT, STRICT LIABILITY,
  30:..\src/main.c **** // OR TORT (INCLUDING NEGLIGENCE OR OTHERWISE) ARISING IN ANY WAY OUT OF THE USE
ARM GAS  C:\Users\mgnocco\AppData\Local\Temp\ccDvY9Ih.s 			page 2


  31:..\src/main.c **** // OF THIS SOFTWARE, EVEN IF ADVISED OF THE POSSIBILITY OF SUCH DAMAGE.
  32:..\src/main.c **** // POSSIBILITY OF SUCH DAMAGE.
  33:..\src/main.c **** // ----------------------------------------------------------------------------
  34:..\src/main.c **** 
  35:..\src/main.c **** /**
  36:..\src/main.c **** * \file         main.c
  37:..\src/main.c **** *
  38:..\src/main.c **** * \brief        Firmware main file.
  39:..\src/main.c **** * \date         March 20th, 2020
  40:..\src/main.c **** * \author       _Centro "E.Piaggio"_
  41:..\src/main.c **** * \copyright    (C) 2020 Centro "E.Piaggio". All rights reserved.
  42:..\src/main.c **** * \mainpage     Firmware
  43:..\src/main.c **** * \brief        This is the firmware of PSoC5 logic board.
  44:..\src/main.c **** * \version      1.9.4
  45:..\src/main.c **** *
  46:..\src/main.c **** * \details      This is the firmware of PSoC5 logic board. Depending on the configuration, 
  47:..\src/main.c **** *               it can control up to two motors and read its encoders. Also can read and
  48:..\src/main.c **** *               convert analog measurements connected to the PSoC microcontroller.                
  49:..\src/main.c **** *
  50:..\src/main.c **** */
  51:..\src/main.c **** 
  52:..\src/main.c **** 
  53:..\src/main.c **** // ----------------------------------------------------------------------------
  54:..\src/main.c **** // This version changes:
  55:..\src/main.c **** //      - not reported
  56:..\src/main.c **** 
  57:..\src/main.c **** 
  58:..\src/main.c **** //=================================================================     includes
  59:..\src/main.c **** 
  60:..\src/main.c **** #include "device.h"
  61:..\src/main.c **** #include "globals.h"
  62:..\src/main.c **** #include "interruptions.h"
  63:..\src/main.c **** #include "command_processing.h"
  64:..\src/main.c **** #include "utils.h"
  65:..\src/main.c **** #include "project.h"
  66:..\src/main.c **** #include "FS.h"
  67:..\src/main.c **** 
  68:..\src/main.c **** //==============================================================================
  69:..\src/main.c **** //                                                                 MAIN FUNCTION
  70:..\src/main.c **** //==============================================================================
  71:..\src/main.c **** 
  72:..\src/main.c **** int main()
  73:..\src/main.c **** {
  28              		.loc 1 73 0
  29              		.cfi_startproc
  30              		@ args = 0, pretend = 0, frame = 16
  31              		@ frame_needed = 1, uses_anonymous_args = 0
  32 0000 80B5     		push	{r7, lr}
  33              		.cfi_def_cfa_offset 8
  34              		.cfi_offset 7, -8
  35              		.cfi_offset 14, -4
  36 0002 84B0     		sub	sp, sp, #16
  37              		.cfi_def_cfa_offset 24
  38 0004 00AF     		add	r7, sp, #0
  39              		.cfi_def_cfa_register 7
  74:..\src/main.c ****     // Iterator    
  75:..\src/main.c ****     uint8 j;
ARM GAS  C:\Users\mgnocco\AppData\Local\Temp\ccDvY9Ih.s 			page 3


  76:..\src/main.c ****     
  77:..\src/main.c ****     // Variable declarations for DMA     
  78:..\src/main.c ****     uint8 DMA_Chan;
  79:..\src/main.c ****     uint8 DMA_TD[1];
  80:..\src/main.c ****     
  81:..\src/main.c ****     //================================     initializations - psoc and components
  82:..\src/main.c **** 
  83:..\src/main.c ****     // EEPROM
  84:..\src/main.c ****     EEPROM_Start();
  40              		.loc 1 84 0
  41 0006 FFF7FEFF 		bl	EEPROM_Start
  85:..\src/main.c ****     memRecall();                                        // Recall configuration.  
  42              		.loc 1 85 0
  43 000a FFF7FEFF 		bl	memRecall
  86:..\src/main.c ****     
  87:..\src/main.c ****     // FTDI chip enable
  88:..\src/main.c ****     CyDelay(100);
  44              		.loc 1 88 0
  45 000e 6420     		movs	r0, #100
  46 0010 FFF7FEFF 		bl	CyDelay
  89:..\src/main.c ****     FTDI_ENABLE_Write(0x01);
  47              		.loc 1 89 0
  48 0014 0120     		movs	r0, #1
  49 0016 FFF7FEFF 		bl	FTDI_ENABLE_Write
  90:..\src/main.c ****     
  91:..\src/main.c **** 	// LED Enable   
  92:..\src/main.c ****     
  93:..\src/main.c ****     // RS485
  94:..\src/main.c ****     UART_RS485_Stop();
  50              		.loc 1 94 0
  51 001a FFF7FEFF 		bl	UART_RS485_Stop
  95:..\src/main.c ****     UART_RS485_Start();
  52              		.loc 1 95 0
  53 001e FFF7FEFF 		bl	UART_RS485_Start
  96:..\src/main.c ****     UART_RS485_Init();
  54              		.loc 1 96 0
  55 0022 FFF7FEFF 		bl	UART_RS485_Init
  97:..\src/main.c ****     UART_RS485_ClearRxBuffer();
  56              		.loc 1 97 0
  57 0026 FFF7FEFF 		bl	UART_RS485_ClearRxBuffer
  98:..\src/main.c ****     UART_RS485_ClearTxBuffer();
  58              		.loc 1 98 0
  59 002a FFF7FEFF 		bl	UART_RS485_ClearTxBuffer
  99:..\src/main.c ****     ISR_RS485_RX_StartEx(ISR_RS485_RX_ExInterrupt);
  60              		.loc 1 99 0
  61 002e 6148     		ldr	r0, .L9
  62 0030 FFF7FEFF 		bl	ISR_RS485_RX_StartEx
 100:..\src/main.c ****     
 101:..\src/main.c ****     // CYCLES TIMER   
 102:..\src/main.c ****     CYCLES_TIMER_Start();
  63              		.loc 1 102 0
  64 0034 FFF7FEFF 		bl	CYCLES_TIMER_Start
 103:..\src/main.c ****     ISR_CYCLES_StartEx(ISR_CYCLES_Handler);
  65              		.loc 1 103 0
  66 0038 5F48     		ldr	r0, .L9+4
  67 003a FFF7FEFF 		bl	ISR_CYCLES_StartEx
 104:..\src/main.c ****     
ARM GAS  C:\Users\mgnocco\AppData\Local\Temp\ccDvY9Ih.s 			page 4


 105:..\src/main.c ****     Pump_ref = 0;
  68              		.loc 1 105 0
  69 003e 5F4B     		ldr	r3, .L9+8
  70 0040 0022     		movs	r2, #0
  71 0042 1A70     		strb	r2, [r3]
 106:..\src/main.c ****     Pump_refNew = 0;
  72              		.loc 1 106 0
  73 0044 5E4B     		ldr	r3, .L9+12
  74 0046 0022     		movs	r2, #0
  75 0048 1A70     		strb	r2, [r3]
 107:..\src/main.c ****     PWM_PUMP_WriteCompare(0);
  76              		.loc 1 107 0
  77 004a 0020     		movs	r0, #0
  78 004c FFF7FEFF 		bl	PWM_PUMP_WriteCompare
 108:..\src/main.c ****     PWM_PUMP_Start();
  79              		.loc 1 108 0
  80 0050 FFF7FEFF 		bl	PWM_PUMP_Start
 109:..\src/main.c ****     
 110:..\src/main.c ****     VT_ref[0] = 0;
  81              		.loc 1 110 0
  82 0054 5B4B     		ldr	r3, .L9+16
  83 0056 0022     		movs	r2, #0
  84 0058 1A70     		strb	r2, [r3]
 111:..\src/main.c ****     VT_ref[1] = 0;    
  85              		.loc 1 111 0
  86 005a 5A4B     		ldr	r3, .L9+16
  87 005c 0022     		movs	r2, #0
  88 005e 5A70     		strb	r2, [r3, #1]
 112:..\src/main.c ****     VT_refNew[0] = 0;
  89              		.loc 1 112 0
  90 0060 594B     		ldr	r3, .L9+20
  91 0062 0022     		movs	r2, #0
  92 0064 1A70     		strb	r2, [r3]
 113:..\src/main.c ****     VT_refNew[1] = 0;
  93              		.loc 1 113 0
  94 0066 584B     		ldr	r3, .L9+20
  95 0068 0022     		movs	r2, #0
  96 006a 5A70     		strb	r2, [r3, #1]
 114:..\src/main.c ****     PWM_VT_WriteCompare1(0);
  97              		.loc 1 114 0
  98 006c 0020     		movs	r0, #0
  99 006e FFF7FEFF 		bl	PWM_VT_WriteCompare1
 115:..\src/main.c ****     PWM_VT_WriteCompare2(0);    
 100              		.loc 1 115 0
 101 0072 0020     		movs	r0, #0
 102 0074 FFF7FEFF 		bl	PWM_VT_WriteCompare2
 116:..\src/main.c ****     VT1_DIR_Write(0);
 103              		.loc 1 116 0
 104 0078 0020     		movs	r0, #0
 105 007a FFF7FEFF 		bl	VT1_DIR_Write
 117:..\src/main.c ****     VT2_DIR_Write(0);
 106              		.loc 1 117 0
 107 007e 0020     		movs	r0, #0
 108 0080 FFF7FEFF 		bl	VT2_DIR_Write
 118:..\src/main.c ****     PWM_VT_Start();
 109              		.loc 1 118 0
 110 0084 FFF7FEFF 		bl	PWM_VT_Start
ARM GAS  C:\Users\mgnocco\AppData\Local\Temp\ccDvY9Ih.s 			page 5


 119:..\src/main.c ****     
 120:..\src/main.c **** 
 121:..\src/main.c ****     SH_ref = 0; 
 111              		.loc 1 121 0
 112 0088 504B     		ldr	r3, .L9+24
 113 008a 0022     		movs	r2, #0
 114 008c 1A60     		str	r2, [r3]
 122:..\src/main.c ****     SH_refNew = 0;
 115              		.loc 1 122 0
 116 008e 504B     		ldr	r3, .L9+28
 117 0090 0022     		movs	r2, #0
 118 0092 1A60     		str	r2, [r3]
 123:..\src/main.c ****     
 124:..\src/main.c ****     VALVE_Write(CLOSED);
 119              		.loc 1 124 0
 120 0094 0120     		movs	r0, #1
 121 0096 FFF7FEFF 		bl	VALVE_Write
 125:..\src/main.c ****     flag_master = 0;  //Master Mode disabled
 122              		.loc 1 125 0
 123 009a 4E4B     		ldr	r3, .L9+32
 124 009c 0022     		movs	r2, #0
 125 009e 1A60     		str	r2, [r3]
 126:..\src/main.c **** 
 127:..\src/main.c ****     // ADC
 128:..\src/main.c ****     ADC_Start();
 126              		.loc 1 128 0
 127 00a0 FFF7FEFF 		bl	ADC_Start
 129:..\src/main.c ****     ADC_SOC_Write(0x01);            // Force first read cycle.
 128              		.loc 1 129 0
 129 00a4 0120     		movs	r0, #1
 130 00a6 FFF7FEFF 		bl	ADC_SOC_Write
 130:..\src/main.c ****     Battery_level_out = 0;
 131              		.loc 1 130 0
 132 00aa 4B4B     		ldr	r3, .L9+36
 133 00ac 0022     		movs	r2, #0
 134 00ae 1A60     		str	r2, [r3]
 131:..\src/main.c ****     
 132:..\src/main.c ****     // ADC DMA    
 133:..\src/main.c ****     DMA_Chan = DMA_DmaInitialize(DMA_BYTES_PER_BURST, DMA_REQUEST_PER_BURST, HI16(DMA_SRC_BASE), HI
 135              		.loc 1 133 0
 136 00b0 41F6FF73 		movw	r3, #8191
 137 00b4 4FF48042 		mov	r2, #16384
 138 00b8 0121     		movs	r1, #1
 139 00ba 0220     		movs	r0, #2
 140 00bc FFF7FEFF 		bl	DMA_DmaInitialize
 141 00c0 0346     		mov	r3, r0
 142 00c2 BB73     		strb	r3, [r7, #14]
 134:..\src/main.c ****     DMA_TD[0] = CyDmaTdAllocate();                                                                 
 143              		.loc 1 134 0
 144 00c4 FFF7FEFF 		bl	CyDmaTdAllocate
 145 00c8 0346     		mov	r3, r0
 146 00ca 3B71     		strb	r3, [r7, #4]
 135:..\src/main.c ****     CyDmaTdSetConfiguration(DMA_TD[0], 2 * NUM_OF_ANALOG_INPUTS, DMA_TD[0], DMA__TD_TERMOUT_EN | TD
 147              		.loc 1 135 0
 148 00cc 3879     		ldrb	r0, [r7, #4]	@ zero_extendqisi2
 149 00ce 434B     		ldr	r3, .L9+40
 150 00d0 1B78     		ldrb	r3, [r3]	@ zero_extendqisi2
ARM GAS  C:\Users\mgnocco\AppData\Local\Temp\ccDvY9Ih.s 			page 6


 151 00d2 9BB2     		uxth	r3, r3
 152 00d4 5B00     		lsls	r3, r3, #1
 153 00d6 99B2     		uxth	r1, r3
 154 00d8 3A79     		ldrb	r2, [r7, #4]	@ zero_extendqisi2
 155 00da 0623     		movs	r3, #6
 156 00dc FFF7FEFF 		bl	CyDmaTdSetConfiguration
 136:..\src/main.c ****     CyDmaTdSetAddress(DMA_TD[0], LO16((uint32)ADC_DEC_SAMP_PTR), LO16((uint32)ADC_buf));           
 157              		.loc 1 136 0
 158 00e0 3B79     		ldrb	r3, [r7, #4]	@ zero_extendqisi2
 159 00e2 3F4A     		ldr	r2, .L9+44
 160 00e4 92B2     		uxth	r2, r2
 161 00e6 44F61061 		movw	r1, #19984
 162 00ea 1846     		mov	r0, r3
 163 00ec FFF7FEFF 		bl	CyDmaTdSetAddress
 137:..\src/main.c ****     CyDmaChSetInitialTd(DMA_Chan, DMA_TD[0]);                                                      
 164              		.loc 1 137 0
 165 00f0 3A79     		ldrb	r2, [r7, #4]	@ zero_extendqisi2
 166 00f2 BB7B     		ldrb	r3, [r7, #14]	@ zero_extendqisi2
 167 00f4 1146     		mov	r1, r2
 168 00f6 1846     		mov	r0, r3
 169 00f8 FFF7FEFF 		bl	CyDmaChSetInitialTd
 138:..\src/main.c ****     CyDmaChEnable(DMA_Chan, 1);                                                                    
 170              		.loc 1 138 0
 171 00fc BB7B     		ldrb	r3, [r7, #14]	@ zero_extendqisi2
 172 00fe 0121     		movs	r1, #1
 173 0100 1846     		mov	r0, r3
 174 0102 FFF7FEFF 		bl	CyDmaChEnable
 139:..\src/main.c ****     
 140:..\src/main.c ****     // TIMER
 141:..\src/main.c ****     MY_TIMER_Start();           
 175              		.loc 1 141 0
 176 0106 FFF7FEFF 		bl	MY_TIMER_Start
 142:..\src/main.c ****     PACER_TIMER_Start();    
 177              		.loc 1 142 0
 178 010a FFF7FEFF 		bl	PACER_TIMER_Start
 143:..\src/main.c ****     
 144:..\src/main.c ****     CYGlobalIntEnable;              // Enable interrupts.
 179              		.loc 1 144 0
 180              		.syntax unified
 181              	@ 144 "..\src\main.c" 1
 182 010e 62B6     		CPSIE   i
 183              	@ 0 "" 2
 145:..\src/main.c ****     filt_emg[0].gain      = 50;   // Emg channels filter constant.
 184              		.loc 1 145 0
 185              		.thumb
 186              		.syntax unified
 187 0110 344B     		ldr	r3, .L9+48
 188 0112 3222     		movs	r2, #50
 189 0114 5A60     		str	r2, [r3, #4]
 146:..\src/main.c ****     filt_emg[1].gain      = 50;   // Emg channels filter constant.
 190              		.loc 1 146 0
 191 0116 334B     		ldr	r3, .L9+48
 192 0118 3222     		movs	r2, #50
 193 011a DA60     		str	r2, [r3, #12]
 194              	.LBB2:
 147:..\src/main.c ****     
 148:..\src/main.c ****     for (uint8 i = 0; i < 3; i++){
ARM GAS  C:\Users\mgnocco\AppData\Local\Temp\ccDvY9Ih.s 			page 7


 195              		.loc 1 148 0
 196 011c 0023     		movs	r3, #0
 197 011e FB73     		strb	r3, [r7, #15]
 198 0120 06E0     		b	.L2
 199              	.L3:
 149:..\src/main.c ****         change_ext_ref_flag[i] = FALSE;
 200              		.loc 1 149 0 discriminator 3
 201 0122 FB7B     		ldrb	r3, [r7, #15]	@ zero_extendqisi2
 202 0124 304A     		ldr	r2, .L9+52
 203 0126 0021     		movs	r1, #0
 204 0128 D154     		strb	r1, [r2, r3]
 148:..\src/main.c ****         change_ext_ref_flag[i] = FALSE;
 205              		.loc 1 148 0 discriminator 3
 206 012a FB7B     		ldrb	r3, [r7, #15]	@ zero_extendqisi2
 207 012c 0133     		adds	r3, r3, #1
 208 012e FB73     		strb	r3, [r7, #15]
 209              	.L2:
 148:..\src/main.c ****         change_ext_ref_flag[i] = FALSE;
 210              		.loc 1 148 0 is_stmt 0 discriminator 1
 211 0130 FB7B     		ldrb	r3, [r7, #15]	@ zero_extendqisi2
 212 0132 022B     		cmp	r3, #2
 213 0134 F5D9     		bls	.L3
 214              	.LBE2:
 150:..\src/main.c ****     }
 151:..\src/main.c ****     //---------------------------------------------------  Initialize emg structure
 152:..\src/main.c ****     g_adc_meas.emg[0] = 0;
 215              		.loc 1 152 0 is_stmt 1
 216 0136 2D4B     		ldr	r3, .L9+56
 217 0138 0022     		movs	r2, #0
 218 013a 1A60     		str	r2, [r3]
 153:..\src/main.c ****     g_adc_meas.emg[1] = 0;
 219              		.loc 1 153 0
 220 013c 2B4B     		ldr	r3, .L9+56
 221 013e 0022     		movs	r2, #0
 222 0140 5A60     		str	r2, [r3, #4]
 154:..\src/main.c **** 
 155:..\src/main.c ****     //------------------------------------------------- Initialize package on receive from RS485
 156:..\src/main.c ****     g_rx.length = 0;
 223              		.loc 1 156 0
 224 0142 2B4B     		ldr	r3, .L9+60
 225 0144 0022     		movs	r2, #0
 226 0146 A3F88020 		strh	r2, [r3, #128]	@ movhi
 157:..\src/main.c ****     g_rx.ready  = 0;
 227              		.loc 1 157 0
 228 014a 294B     		ldr	r3, .L9+60
 229 014c 0022     		movs	r2, #0
 230 014e 83F88420 		strb	r2, [r3, #132]
 158:..\src/main.c ****     
 159:..\src/main.c ****     LED_CONTROL_Write(0);     // Green
 231              		.loc 1 159 0
 232 0152 0020     		movs	r0, #0
 233 0154 FFF7FEFF 		bl	LED_CONTROL_Write
 160:..\src/main.c **** 
 161:..\src/main.c ****     //============================================================     main loop
 162:..\src/main.c ****     
 163:..\src/main.c ****     // All peripherals has started, now it is ok to start communication
 164:..\src/main.c ****     RS485_CTS_Write(0);             // Clear To Send on RS485.
ARM GAS  C:\Users\mgnocco\AppData\Local\Temp\ccDvY9Ih.s 			page 8


 234              		.loc 1 164 0
 235 0158 0020     		movs	r0, #0
 236 015a FFF7FEFF 		bl	RS485_CTS_Write
 165:..\src/main.c ****     int a=0;
 237              		.loc 1 165 0
 238 015e 0023     		movs	r3, #0
 239 0160 BB60     		str	r3, [r7, #8]
 166:..\src/main.c ****    /* 
 167:..\src/main.c ****     
 168:..\src/main.c ****     while(!Battery_level_out){
 169:..\src/main.c ****         Battery_level_out = Battery_flag_Read();
 170:..\src/main.c ****         if (interrupt_flag){
 171:..\src/main.c ****                 // Reset flags
 172:..\src/main.c ****                 interrupt_flag = FALSE;
 173:..\src/main.c ****                 
 174:..\src/main.c ****                 // Manage Interrupt on rs485
 175:..\src/main.c ****                 interrupt_manager();
 176:..\src/main.c ****             }      
 177:..\src/main.c ****         a = 1;
 178:..\src/main.c ****     };
 179:..\src/main.c ****    
 180:..\src/main.c ****     if (a == 1){
 181:..\src/main.c ****         CyDelay(50);  // Pressure sensor has warm-up time of 20 ms
 182:..\src/main.c ****         while(!ADC_STATUS_Read()){}
 183:..\src/main.c ****         // Read pressure in any case
 184:..\src/main.c ****         g_adc_meas.pressure  = (int32)(ADC_buf[0]);    //0 - 4096  
 185:..\src/main.c ****         atm_pressure = (((g_adc_meas.pressure/4095.0 + 0.00842)/0.002421));       // P_atm in Pasca
 186:..\src/main.c ****         a = 0;
 187:..\src/main.c ****     } 
 188:..\src/main.c ****     */
 189:..\src/main.c ****     atm_pressure = 105;       // P_atm in Pascal   }
 240              		.loc 1 189 0
 241 0162 244B     		ldr	r3, .L9+64
 242 0164 6922     		movs	r2, #105
 243 0166 1A60     		str	r2, [r3]
 244              	.L8:
 190:..\src/main.c ****     
 191:..\src/main.c ****     for(;;)
 192:..\src/main.c ****     {         
 193:..\src/main.c ****         // Put the FF reset pin to LOW
 194:..\src/main.c ****         RESET_FF_Write(0x00);
 245              		.loc 1 194 0
 246 0168 0020     		movs	r0, #0
 247 016a FFF7FEFF 		bl	RESET_FF_Write
 195:..\src/main.c ****             // Call function scheduler
 196:..\src/main.c ****         function_scheduler(); 
 248              		.loc 1 196 0
 249 016e FFF7FEFF 		bl	function_scheduler
 197:..\src/main.c ****      
 198:..\src/main.c **** 
 199:..\src/main.c ****         //  Wait until the FF is set to 1
 200:..\src/main.c ****         while(FF_STATUS_Read() == 0){
 250              		.loc 1 200 0
 251 0172 08E0     		b	.L4
 252              	.L5:
 201:..\src/main.c ****             // On interrupt from RS485
 202:..\src/main.c ****             if (interrupt_flag){
ARM GAS  C:\Users\mgnocco\AppData\Local\Temp\ccDvY9Ih.s 			page 9


 253              		.loc 1 202 0
 254 0174 204B     		ldr	r3, .L9+68
 255 0176 1B78     		ldrb	r3, [r3]	@ zero_extendqisi2
 256 0178 002B     		cmp	r3, #0
 257 017a 04D0     		beq	.L4
 203:..\src/main.c ****                 // Reset flags
 204:..\src/main.c ****                 interrupt_flag = FALSE;
 258              		.loc 1 204 0
 259 017c 1E4B     		ldr	r3, .L9+68
 260 017e 0022     		movs	r2, #0
 261 0180 1A70     		strb	r2, [r3]
 205:..\src/main.c ****                 
 206:..\src/main.c ****                 // Manage Interrupt on rs485
 207:..\src/main.c ****                 interrupt_manager();
 262              		.loc 1 207 0
 263 0182 FFF7FEFF 		bl	interrupt_manager
 264              	.L4:
 200:..\src/main.c ****             // On interrupt from RS485
 265              		.loc 1 200 0
 266 0186 FFF7FEFF 		bl	FF_STATUS_Read
 267 018a 0346     		mov	r3, r0
 268 018c 002B     		cmp	r3, #0
 269 018e F1D0     		beq	.L5
 208:..\src/main.c ****             }
 209:..\src/main.c ****         };
 210:..\src/main.c **** 
 211:..\src/main.c ****         // Command a FF reset
 212:..\src/main.c ****         RESET_FF_Write(0x01);
 270              		.loc 1 212 0
 271 0190 0120     		movs	r0, #1
 272 0192 FFF7FEFF 		bl	RESET_FF_Write
 213:..\src/main.c **** 
 214:..\src/main.c ****         // Wait for FF to be reset
 215:..\src/main.c ****         while(FF_STATUS_Read() == 1);
 273              		.loc 1 215 0
 274 0196 00BF     		nop
 275              	.L6:
 276              		.loc 1 215 0 is_stmt 0 discriminator 1
 277 0198 FFF7FEFF 		bl	FF_STATUS_Read
 278 019c 0346     		mov	r3, r0
 279 019e 012B     		cmp	r3, #1
 280 01a0 FAD0     		beq	.L6
 216:..\src/main.c **** 
 217:..\src/main.c ****         if(UART_RS485_ReadRxStatus() & UART_RS485_RX_STS_SOFT_BUFF_OVER)
 281              		.loc 1 217 0 is_stmt 1
 282 01a2 FFF7FEFF 		bl	UART_RS485_ReadRxStatus
 283 01a6 0346     		mov	r3, r0
 284 01a8 5BB2     		sxtb	r3, r3
 285 01aa 002B     		cmp	r3, #0
 286 01ac DCDA     		bge	.L8
 218:..\src/main.c ****             UART_RS485_ClearRxBuffer();
 287              		.loc 1 218 0
 288 01ae FFF7FEFF 		bl	UART_RS485_ClearRxBuffer
 219:..\src/main.c ****     }
 289              		.loc 1 219 0
 290 01b2 D9E7     		b	.L8
 291              	.L10:
ARM GAS  C:\Users\mgnocco\AppData\Local\Temp\ccDvY9Ih.s 			page 10


 292              		.align	2
 293              	.L9:
 294 01b4 00000000 		.word	ISR_RS485_RX_ExInterrupt
 295 01b8 00000000 		.word	ISR_CYCLES_Handler
 296 01bc 00000000 		.word	Pump_ref
 297 01c0 00000000 		.word	Pump_refNew
 298 01c4 00000000 		.word	VT_ref
 299 01c8 00000000 		.word	VT_refNew
 300 01cc 00000000 		.word	SH_ref
 301 01d0 00000000 		.word	SH_refNew
 302 01d4 00000000 		.word	flag_master
 303 01d8 00000000 		.word	Battery_level_out
 304 01dc 00000000 		.word	NUM_OF_ANALOG_INPUTS
 305 01e0 00000000 		.word	ADC_buf
 306 01e4 00000000 		.word	filt_emg
 307 01e8 00000000 		.word	change_ext_ref_flag
 308 01ec 00000000 		.word	g_adc_meas
 309 01f0 00000000 		.word	g_rx
 310 01f4 00000000 		.word	atm_pressure
 311 01f8 00000000 		.word	interrupt_flag
 312              		.cfi_endproc
 313              	.LFE64:
 314              		.size	main, .-main
 315              		.text
 316              	.Letext0:
 317              		.file 2 "c:\\program files (x86)\\cypress\\psoc creator\\4.4\\psoc creator\\import\\gnu\\arm\\5.4.
 318              		.file 3 "c:\\program files (x86)\\cypress\\psoc creator\\4.4\\psoc creator\\import\\gnu\\arm\\5.4.
 319              		.file 4 "Generated_Source\\PSoC5/cytypes.h"
 320              		.file 5 "..\\src\\globals.h"
 321              		.file 6 "Generated_Source\\PSoC5/core_cm3.h"